(dp0
(i__main__
State
p1
(dp2
S'y1'
p3
F8.0
sS'x'
p4
F3.0
sS'y3'
p5
F-3.0
sS'y2'
p6
F-6.0
sb(dp7
I00
F-1836.19
sI01
F63.272
ss(i__main__
State
p8
(dp9
g3
F4.0
sg4
F7.0
sg5
F-7.0
sg6
F7.0
sb(dp10
I00
I-78
sI01
F914.5795840000001
ss(i__main__
State
p11
(dp12
g3
F-7.0
sg4
F5.0
sg5
F-1.0
sg6
F-4.0
sb(dp13
I00
F-4056.3330976326306
sI01
F236.38196099342753
ss(i__main__
State
p14
(dp15
g3
F-1.0
sg4
F1.0
sg5
F5.0
sg6
F2.0
sb(dp16
I00
I-41
sI01
F-78.561
ss(i__main__
State
p17
(dp18
g3
F7.0
sg4
F6.0
sg5
F-4.0
sg6
F-7.0
sb(dp19
I00
F-3495.195045417872
sI01
F949.3353756852002
ss(i__main__
State
p20
(dp21
g3
F0.0
sg4
F7.0
sg5
F6.0
sg6
F3.0
sb(dp22
I00
F-4086.0144
sI01
F6900.129221948312
ss(i__main__
State
p23
(dp24
g3
F-1.0
sg4
F3.0
sg5
F5.0
sg6
F2.0
sb(dp25
I00
F-9477.936435273039
sI01
F-0.7975379852919939
ss(i__main__
State
p26
(dp27
g3
F1.0
sg4
F4.0
sg5
F7.0
sg6
F4.0
sb(dp28
I00
F-4847.716870587
sI01
F44.900205099272
ss(i__main__
State
p29
(dp30
g3
F1.0
sg4
F2.0
sg5
F7.0
sg6
F4.0
sb(dp31
I00
F-11829.6090396507
sI01
F-10.172561800699997
ss(i__main__
State
p32
(dp33
g3
F-1.0
sg4
F5.0
sg5
F5.0
sg6
F2.0
sb(dp34
I00
F-1005.5534209087001
sI01
F589.0110119264602
ss(i__main__
State
p35
(dp36
g3
F-6.0
sg4
F5.0
sg5
F0.0
sg6
F-3.0
sb(dp37
I00
I14
sI01
F-24.859952747
ss(i__main__
State
p38
(dp39
g3
F-2.0
sg4
F8.0
sg5
F4.0
sg6
F1.0
sb(dp40
I00
F0.0
sI01
F-5.0746147000000015
ss(i__main__
State
p41
(dp42
g3
F6.0
sg4
F4.0
sg5
F-5.0
sg6
F-8.0
sb(dp43
I00
F-742.693258
sI01
F83.67371695663302
ss(i__main__
State
p44
(dp45
g3
F-4.0
sg4
F7.0
sg5
F2.0
sg6
F-1.0
sb(dp46
I00
F-15824.689221431621
sI01
F962.9
ss(i__main__
State
p47
(dp48
g3
F-3.0
sg4
F2.0
sg5
F3.0
sg6
F0.0
sb(dp49
I00
F-1224.057
sI01
F36.088600486893654
ss(i__main__
State
p50
(dp51
g3
F5.0
sg4
F0.0
sg5
F-6.0
sg6
F8.0
sb(dp52
I00
F-13790.933681733215
sI01
F32.8606
ss(i__main__
State
p53
(dp54
g3
F-4.0
sg4
F1.0
sg5
F2.0
sg6
F-1.0
sb(dp55
I00
I7
sI01
F43.6135386475
ss(i__main__
State
p56
(dp57
g3
F3.0
sg4
F3.0
sg5
F-8.0
sg6
F6.0
sb(dp58
I00
F-1044.1
sI01
F-55.8
ss(i__main__
State
p59
(dp60
g3
F2.0
sg4
F0.0
sg5
F8.0
sg6
F5.0
sb(dp61
I00
F-6554.85111854208
sI01
F20.07673684241438
ss(i__main__
State
p62
(dp63
g3
F4.0
sg4
F4.0
sg5
F-7.0
sg6
F7.0
sb(dp64
I00
F-882.7
sI01
F-46.98336499999999
ss(i__main__
State
p65
(dp66
g3
F-2.0
sg4
F2.0
sg5
F4.0
sg6
F1.0
sb(dp67
I00
F-10740.436466512208
sI01
F-8.629713299599995
ss(i__main__
State
p68
(dp69
g3
F-4.0
sg4
F2.0
sg5
F2.0
sg6
F-1.0
sb(dp70
I00
I-73
sI01
F20.53236462011286
ss(i__main__
State
p71
(dp72
g3
F-6.0
sg4
F3.0
sg5
F0.0
sg6
F-3.0
sb(dp73
I00
F-6494.884166476
sI01
F-66.7666269
ss(i__main__
State
p74
(dp75
g3
F2.0
sg4
F8.0
sg5
F8.0
sg6
F5.0
sb(dp76
I00
F-1794.99666630734
sI01
F31.64457096380301
ss(i__main__
State
p77
(dp78
g3
F6.0
sg4
F1.0
sg5
F-5.0
sg6
F-8.0
sb(dp79
I00
I70
sI01
F-22.782009686389657
ss(i__main__
State
p80
(dp81
g3
F5.0
sg4
F6.0
sg5
F-6.0
sg6
F8.0
sb(dp82
I00
I53
sI01
F2256.0376716158203
ss(i__main__
State
p83
(dp84
g3
F8.0
sg4
F1.0
sg5
F-3.0
sg6
F-6.0
sb(dp85
I00
F-4767.853800000001
sI01
F-40.820765200000004
ss(i__main__
State
p86
(dp87
g3
F-5.0
sg4
F5.0
sg5
F1.0
sg6
F-2.0
sb(dp88
I00
I-20
sI01
F-17.8
ss(i__main__
State
p89
(dp90
g3
F-5.0
sg4
F8.0
sg5
F1.0
sg6
F-2.0
sb(dp91
I00
F-16273.754848141378
sI01
F9.819210853312946
ss(i__main__
State
p92
(dp93
g3
F0.0
sg4
F1.0
sg5
F6.0
sg6
F3.0
sb(dp94
I00
I-50
sI01
F-13.475699330699998
ss(i__main__
State
p95
(dp96
g3
F3.0
sg4
F6.0
sg5
F-8.0
sg6
F6.0
sb(dp97
I00
F-2644.5829327489
sI01
F255.52362000000005
ss(i__main__
State
p98
(dp99
g3
F8.0
sg4
F7.0
sg5
F-3.0
sg6
F-6.0
sb(dp100
I00
F-10388.05636013887
sI01
F4732.690797633
ss(i__main__
State
p101
(dp102
g3
F8.0
sg4
F4.0
sg5
F-3.0
sg6
F-6.0
sb(dp103
I00
I-57
sI01
F129.0480245481654
ss(i__main__
State
p104
(dp105
g3
F-7.0
sg4
F1.0
sg5
F-1.0
sg6
F-4.0
sb(dp106
I00
F-1344.1601169265002
sI01
F-25.650543165883015
ss(i__main__
State
p107
(dp108
g3
F8.0
sg4
F8.0
sg5
F-3.0
sg6
F-6.0
sb(dp109
I00
F-12676.229342527975
sI01
F40.569158912999995
ss(i__main__
State
p110
(dp111
g3
F7.0
sg4
F8.0
sg5
F-4.0
sg6
F-7.0
sb(dp112
I00
F-8299.974399300001
sI01
F12.467601032508004
ss(i__main__
State
p113
(dp114
g3
F-3.0
sg4
F3.0
sg5
F3.0
sg6
F0.0
sb(dp115
I00
F-1087.3504699999999
sI01
F13.19717539
ss(i__main__
State
p116
(dp117
g3
F-6.0
sg4
F8.0
sg5
F0.0
sg6
F-3.0
sb(dp118
I00
F-10430.894264247001
sI01
F-0.5020633300000004
ss(i__main__
State
p119
(dp120
g3
F8.0
sg4
F2.0
sg5
F-3.0
sg6
F-6.0
sb(dp121
I00
F-2273.19
sI01
F-43.084
ss(i__main__
State
p122
(dp123
g3
F-5.0
sg4
F3.0
sg5
F1.0
sg6
F-2.0
sb(dp124
I00
F-9495.581982987862
sI01
F47.61835929745026
ss(i__main__
State
p125
(dp126
g3
F6.0
sg4
F6.0
sg5
F-5.0
sg6
F-8.0
sb(dp127
I00
I54
sI01
F1371.385102525
ss(i__main__
State
p128
(dp129
g3
F-8.0
sg4
F6.0
sg5
F-2.0
sg6
F-5.0
sb(dp130
I00
F-283.736250059
sI01
F876.1177914818772
ss(i__main__
State
p131
(dp132
g3
F8.0
sg4
F5.0
sg5
F-3.0
sg6
F-6.0
sb(dp133
I00
F-4778.799013357781
sI01
F452.28001416984876
ss(i__main__
State
p134
(dp135
g3
F1.0
sg4
F3.0
sg5
F7.0
sg6
F4.0
sb(dp136
I00
I85
sI01
F-22.4
ss(i__main__
State
p137
(dp138
g3
F1.0
sg4
F1.0
sg5
F7.0
sg6
F4.0
sb(dp139
I00
I23
sI01
F25.4
ss(i__main__
State
p140
(dp141
g3
F2.0
sg4
F5.0
sg5
F8.0
sg6
F5.0
sb(dp142
I00
F-3616.892964819
sI01
F106.15407989972002
ss(i__main__
State
p143
(dp144
g3
F0.0
sg4
F2.0
sg5
F6.0
sg6
F3.0
sb(dp145
I00
F-1223.9
sI01
F35.5
ss(i__main__
State
p146
(dp147
g3
F1.0
sg4
F5.0
sg5
F7.0
sg6
F4.0
sb(dp148
I00
I-90
sI01
F-66.78999999999999
ss(i__main__
State
p149
(dp150
g3
F-5.0
sg4
F2.0
sg5
F1.0
sg6
F-2.0
sb(dp151
I00
F-1272.6331
sI01
F-11.345804217800001
ss(i__main__
State
p152
(dp153
g3
F2.0
sg4
F7.0
sg5
F8.0
sg6
F5.0
sb(dp154
I00
F-846.3430000000001
sI01
F5255.86984513
ss(i__main__
State
p155
(dp156
g3
F6.0
sg4
F3.0
sg5
F-5.0
sg6
F-8.0
sb(dp157
I00
F-6123.3156612538005
sI01
F25.6093976186759
ss(i__main__
State
p158
(dp159
g3
F7.0
sg4
F2.0
sg5
F-4.0
sg6
F-7.0
sb(dp160
I00
F-3201.0760000000005
sI01
F-24.722999999999992
ss(i__main__
State
p161
(dp162
g3
F-5.0
sg4
F6.0
sg5
F1.0
sg6
F-2.0
sb(dp163
I00
I-93
sI01
F163.0
ss(i__main__
State
p164
(dp165
g3
F-6.0
sg4
F7.0
sg5
F0.0
sg6
F-3.0
sb(dp166
I00
F-2102.96603297172
sI01
F7702.976625779385
ss(i__main__
State
p167
(dp168
g3
F3.0
sg4
F4.0
sg5
F-8.0
sg6
F6.0
sb(dp169
I00
F-1553.7895607
sI01
F34.205377712200004
ss(i__main__
State
p170
(dp171
g3
F4.0
sg4
F1.0
sg5
F-7.0
sg6
F7.0
sb(dp172
I00
F-2681.8870469768794
sI01
F24.56893970428079
ss(i__main__
State
p173
(dp174
g3
F1.0
sg4
F7.0
sg5
F7.0
sg6
F4.0
sb(dp175
I00
F-8071.74511511526
sI01
F6888.017377958772
ss(i__main__
State
p176
(dp177
g3
F-1.0
sg4
F4.0
sg5
F5.0
sg6
F2.0
sb(dp178
I00
F-7303.893741298863
sI01
F35.20714379618835
ss(i__main__
State
p179
(dp180
g3
F-3.0
sg4
F0.0
sg5
F3.0
sg6
F0.0
sb(dp181
I00
F-6520.842044831715
sI01
F51.990879517538005
ss(i__main__
State
p182
(dp183
g3
F-8.0
sg4
F4.0
sg5
F-2.0
sg6
F-5.0
sb(dp184
I00
F-6479.55814475039
sI01
F33.68266233260306
ss(i__main__
State
p185
(dp186
g3
F5.0
sg4
F5.0
sg5
F-6.0
sg6
F8.0
sb(dp187
I00
I-72
sI01
F164.5166435625
ss(i__main__
State
p188
(dp189
g3
F5.0
sg4
F4.0
sg5
F-6.0
sg6
F8.0
sb(dp190
I00
I-88
sI01
F20.825438
ss(i__main__
State
p191
(dp192
g3
F-2.0
sg4
F5.0
sg5
F4.0
sg6
F1.0
sb(dp193
I00
F-5524.683881013742
sI01
F1104.5006142262596
ss(i__main__
State
p194
(dp195
g3
F-8.0
sg4
F2.0
sg5
F-2.0
sg6
F-5.0
sb(dp196
I00
F-11807.036605769583
sI01
F24.456956599999998
ss(i__main__
State
p197
(dp198
g3
F-8.0
sg4
F7.0
sg5
F-2.0
sg6
F-5.0
sb(dp199
I00
F-7600.67265006
sI01
F5547.695811876183
ss(i__main__
State
p200
(dp201
g3
F1.0
sg4
F8.0
sg5
F7.0
sg6
F4.0
sb(dp202
I00
F-3411.6240900540524
sI01
F24.506694607236394
ss(i__main__
State
p203
(dp204
g3
F0.0
sg4
F5.0
sg5
F6.0
sg6
F3.0
sb(dp205
I00
I63
sI01
F187.66565758392377
ss(i__main__
State
p206
(dp207
g3
F-4.0
sg4
F3.0
sg5
F2.0
sg6
F-1.0
sb(dp208
I00
F-1918.336248
sI01
F35.9575349429114
ss(i__main__
State
p209
(dp210
g3
F-8.0
sg4
F5.0
sg5
F-2.0
sg6
F-5.0
sb(dp211
I00
F-666.0468509334769
sI01
F1034.7735970307592
ss(i__main__
State
p212
(dp213
g3
F7.0
sg4
F3.0
sg5
F-4.0
sg6
F-7.0
sb(dp214
I00
I-93
sI01
F-23.384985999999994
ss(i__main__
State
p215
(dp216
g3
F-5.0
sg4
F7.0
sg5
F1.0
sg6
F-2.0
sb(dp217
I00
F-5488.041780000001
sI01
F-19.0
ss(i__main__
State
p218
(dp219
g3
F-4.0
sg4
F4.0
sg5
F2.0
sg6
F-1.0
sb(dp220
I00
F-7148.908895269445
sI01
F106.72589497315734
ss(i__main__
State
p221
(dp222
g3
F3.0
sg4
F7.0
sg5
F-8.0
sg6
F6.0
sb(dp223
I00
I18
sI01
F1075.6736
ss(i__main__
State
p224
(dp225
g3
F7.0
sg4
F0.0
sg5
F-4.0
sg6
F-7.0
sb(dp226
I00
I24
sI01
F47.436008599999994
ss(i__main__
State
p227
(dp228
g3
F-6.0
sg4
F6.0
sg5
F0.0
sg6
F-3.0
sb(dp229
I00
I63
sI01
F545.58337558868
ss(i__main__
State
p230
(dp231
g3
F-6.0
sg4
F0.0
sg5
F0.0
sg6
F-3.0
sb(dp232
I00
F-15672.254257769046
sI01
F-14.481479609999996
ss(i__main__
State
p233
(dp234
g3
F-8.0
sg4
F0.0
sg5
F-2.0
sg6
F-5.0
sb(dp235
I00
F-15786.126002294613
sI01
F66.2984342348374
ss(i__main__
State
p236
(dp237
g3
F-7.0
sg4
F8.0
sg5
F-1.0
sg6
F-4.0
sb(dp238
I00
F-3427.08928911
sI01
F-15.259424724
ss(i__main__
State
p239
(dp240
g3
F8.0
sg4
F0.0
sg5
F-8.0
sg6
F0.0
sb(dp241
I00
F-9296.8294248
sI01
I78
ss(i__main__
State
p242
(dp243
g3
F5.0
sg4
F2.0
sg5
F-6.0
sg6
F8.0
sb(dp244
I00
F-3273.9357581557024
sI01
F15.596590686506524
ss(i__main__
State
p245
(dp246
g3
F-8.0
sg4
F3.0
sg5
F-2.0
sg6
F-5.0
sb(dp247
I00
F-2651.455
sI01
F-47.101000000000006
ss(i__main__
State
p248
(dp249
g3
F-2.0
sg4
F7.0
sg5
F4.0
sg6
F1.0
sb(dp250
I00
F996.4000000000001
sI01
F992.8000000000001
ss(i__main__
State
p251
(dp252
g3
F0.0
sg4
F6.0
sg5
F6.0
sg6
F3.0
sb(dp253
I00
F-2174.4788979599525
sI01
F2432.591945417006
ss(i__main__
State
p254
(dp255
g3
F-2.0
sg4
F1.0
sg5
F4.0
sg6
F1.0
sb(dp256
I00
I-67
sI01
F-60.079569955000004
ss(i__main__
State
p257
(dp258
g3
F-4.0
sg4
F8.0
sg5
F2.0
sg6
F-1.0
sb(dp259
I00
F-12289.652224028101
sI01
F15.624474835282001
ss(i__main__
State
p260
(dp261
g3
F-8.0
sg4
F1.0
sg5
F-2.0
sg6
F-5.0
sb(dp262
I00
F-4739.309069533
sI01
F21.619349174842
ss(i__main__
State
p263
(dp264
g3
F4.0
sg4
F5.0
sg5
F-7.0
sg6
F7.0
sb(dp265
I00
F-2215.00456901602
sI01
F526.160201982128
ss(i__main__
State
p266
(dp267
g3
F7.0
sg4
F7.0
sg5
F-4.0
sg6
F-7.0
sb(dp268
I00
F-3557.9235683900006
sI01
F5713.639319122
ss(i__main__
State
p269
(dp270
g3
F-3.0
sg4
F7.0
sg5
F3.0
sg6
F0.0
sb(dp271
I00
F-9752.49107651682
sI01
F3478.0293199999996
ss(i__main__
State
p272
(dp273
g3
F-3.0
sg4
F1.0
sg5
F3.0
sg6
F0.0
sb(dp274
I00
I32
sI01
F2.716030427320001
ss(i__main__
State
p275
(dp276
g3
F6.0
sg4
F5.0
sg5
F-5.0
sg6
F-8.0
sb(dp277
I00
F-2090.7419
sI01
F18.03752000000001
ss(i__main__
State
p278
(dp279
g3
F-5.0
sg4
F4.0
sg5
F1.0
sg6
F-2.0
sb(dp280
I00
I-18
sI01
F26.989163935945804
ss(i__main__
State
p281
(dp282
g3
F-3.0
sg4
F8.0
sg5
F3.0
sg6
F0.0
sb(dp283
I00
F0.0
sI01
F-3.4483340400000007
ss(i__main__
State
p284
(dp285
g3
F-1.0
sg4
F0.0
sg5
F5.0
sg6
F2.0
sb(dp286
I00
I-84
sI01
F-44.692641
ss(i__main__
State
p287
(dp288
g3
F-5.0
sg4
F0.0
sg5
F1.0
sg6
F-2.0
sb(dp289
I00
F-10946.118523371688
sI01
F-36.801161699999994
ss(i__main__
State
p290
(dp291
g3
F8.0
sg4
F0.0
sg5
F-3.0
sg6
F-6.0
sb(dp292
I00
F-13270.864493772982
sI01
F21.219483369800002
ss(i__main__
State
p293
(dp294
g3
F5.0
sg4
F3.0
sg5
F-6.0
sg6
F8.0
sb(dp295
I00
F-9568.205073675486
sI01
F21.084026146225938
ss(i__main__
State
p296
(dp297
g3
F-1.0
sg4
F6.0
sg5
F5.0
sg6
F2.0
sb(dp298
I00
F-519.797476737266
sI01
F3373.6684390391956
ss(i__main__
State
p299
(dp300
g3
F4.0
sg4
F3.0
sg5
F-7.0
sg6
F7.0
sb(dp301
I00
I92
sI01
F-23.49772244582549
ss(i__main__
State
p302
(dp303
g3
F3.0
sg4
F2.0
sg5
F-8.0
sg6
F6.0
sb(dp304
I00
F-6809.976831970001
sI01
F19.1
ss(i__main__
State
p305
(dp306
g3
F6.0
sg4
F7.0
sg5
F-5.0
sg6
F-8.0
sb(dp307
I00
F1138.3867019813301
sI01
F6163.338261509451
ss(i__main__
State
p308
(dp309
g3
F3.0
sg4
F0.0
sg5
F-8.0
sg6
F6.0
sb(dp310
I00
F-4318.6497460624305
sI01
F47.11181253043211
ss(i__main__
State
p311
(dp312
g3
F7.0
sg4
F1.0
sg5
F-4.0
sg6
F-7.0
sb(dp313
I00
I-45
sI01
F44.66
ss(i__main__
State
p314
(dp315
g3
F4.0
sg4
F2.0
sg5
F-7.0
sg6
F7.0
sb(dp316
I00
F-8620.242634558042
sI01
F-31.18986834324452
ss(i__main__
State
p317
(dp318
g3
F-3.0
sg4
F4.0
sg5
F3.0
sg6
F0.0
sb(dp319
I00
F-5472.42388961084
sI01
F169.22194959986058
ss(i__main__
State
p320
(dp321
g3
F0.0
sg4
F3.0
sg5
F6.0
sg6
F3.0
sb(dp322
I00
F-2678.51548
sI01
F-21.865598999999996
ss(i__main__
State
p323
(dp324
g3
F-7.0
sg4
F4.0
sg5
F-1.0
sg6
F-4.0
sb(dp325
I00
F-5504.07199552419
sI01
F-42.862
ss(i__main__
State
p326
(dp327
g3
F-4.0
sg4
F6.0
sg5
F2.0
sg6
F-1.0
sb(dp328
I00
I-9
sI01
F486.18388000000004
ss(i__main__
State
p329
(dp330
g3
F-6.0
sg4
F2.0
sg5
F0.0
sg6
F-3.0
sb(dp331
I00
F-2226.0650504521964
sI01
F26.39506236171992
ss(i__main__
State
p332
(dp333
g3
F-7.0
sg4
F6.0
sg5
F-1.0
sg6
F-4.0
sb(dp334
I00
F-1184.9498502424924
sI01
F3527.7419684975903
ss(i__main__
State
p335
(dp336
g3
F6.0
sg4
F2.0
sg5
F-5.0
sg6
F-8.0
sb(dp337
I00
I-4
sI01
F19.368564000000003
ss(i__main__
State
p338
(dp339
g3
F3.0
sg4
F5.0
sg5
F-8.0
sg6
F6.0
sb(dp340
I00
I50
sI01
F217.9395384240973
ss(i__main__
State
p341
(dp342
g3
F-8.0
sg4
F8.0
sg5
F-2.0
sg6
F-5.0
sb(dp343
I00
F-5872.22189649762
sI01
F5.2462727760000005
ss(i__main__
State
p344
(dp345
g3
F4.0
sg4
F0.0
sg5
F-7.0
sg6
F7.0
sb(dp346
I00
F-13554.016341445968
sI01
F54.3529132
ss(i__main__
State
p347
(dp348
g3
F6.0
sg4
F8.0
sg5
F-5.0
sg6
F-8.0
sb(dp349
I00
F-3029.9300000000003
sI01
F22.89242
ss(i__main__
State
p350
(dp351
g3
F5.0
sg4
F1.0
sg5
F-6.0
sg6
F8.0
sb(dp352
I00
I69
sI01
F53.41565176580001
ss(i__main__
State
p353
(dp354
g3
F-2.0
sg4
F4.0
sg5
F4.0
sg6
F1.0
sb(dp355
I00
F-2168.4230000000002
sI01
F82.05371052599003
ss(i__main__
State
p356
(dp357
g3
F-7.0
sg4
F2.0
sg5
F-1.0
sg6
F-4.0
sb(dp358
I00
F-8884.149163238686
sI01
F36.78919778347307
ss(i__main__
State
p359
(dp360
g3
F2.0
sg4
F4.0
sg5
F8.0
sg6
F5.0
sb(dp361
I00
F-4177.458800782
sI01
F1.960893118000003
ss(i__main__
State
p362
(dp363
g3
F-2.0
sg4
F3.0
sg5
F4.0
sg6
F1.0
sb(dp364
I00
F-9429.882054727856
sI01
F38.323309268031394
ss(i__main__
State
p365
(dp366
g3
F7.0
sg4
F5.0
sg5
F-4.0
sg6
F-7.0
sb(dp367
I00
F-544.1899999999999
sI01
F410.2869262281581
ss(i__main__
State
p368
(dp369
g3
F-4.0
sg4
F0.0
sg5
F2.0
sg6
F-1.0
sb(dp370
I00
F-15166.531600785507
sI01
F-1.3243410246074268
ss(i__main__
State
p371
(dp372
g3
F3.0
sg4
F1.0
sg5
F-8.0
sg6
F6.0
sb(dp373
I00
F-11388.37891998421
sI01
F-26.593786351507
ss(i__main__
State
p374
(dp375
g3
F-2.0
sg4
F6.0
sg5
F4.0
sg6
F1.0
sb(dp376
I00
I-39
sI01
F1041.0526310673968
ss(i__main__
State
p377
(dp378
g3
F-6.0
sg4
F1.0
sg5
F0.0
sg6
F-3.0
sb(dp379
I00
F-2651.00696156
sI01
F28.468889558199997
ss(i__main__
State
p380
(dp381
g3
F2.0
sg4
F2.0
sg5
F8.0
sg6
F5.0
sb(dp382
I00
I91
sI01
F-87.178709
ss(i__main__
State
p383
(dp384
g3
F4.0
sg4
F8.0
sg5
F-7.0
sg6
F7.0
sb(dp385
I00
F-10579.926449207001
sI01
F13.12296
ss(i__main__
State
p386
(dp387
g3
F7.0
sg4
F4.0
sg5
F-4.0
sg6
F-7.0
sb(dp388
I00
F-5681.019359050773
sI01
F143.1729974558236
ss(i__main__
State
p389
(dp390
g3
F2.0
sg4
F3.0
sg5
F8.0
sg6
F5.0
sb(dp391
I00
F-997.4294
sI01
F-36.241288319599995
ss(i__main__
State
p392
(dp393
g3
F0.0
sg4
F4.0
sg5
F6.0
sg6
F3.0
sb(dp394
I00
F-698.3211209375
sI01
F47.971602925159466
ss(i__main__
State
p395
(dp396
g3
F8.0
sg4
F6.0
sg5
F-3.0
sg6
F-6.0
sb(dp397
I00
F-497.8560000000001
sI01
F1856.0339816542357
ss(i__main__
State
p398
(dp399
g3
F5.0
sg4
F7.0
sg5
F-6.0
sg6
F8.0
sb(dp400
I00
I-89
sI01
F4732.29009546933
ss(i__main__
State
p401
(dp402
g3
F-7.0
sg4
F7.0
sg5
F-1.0
sg6
F-4.0
sb(dp403
I00
F-7674.399922016953
sI01
F1359.020628959178
ss(i__main__
State
p404
(dp405
g3
F-7.0
sg4
F3.0
sg5
F-1.0
sg6
F-4.0
sb(dp406
I00
F-939.5894869455548
sI01
F-10.421492147336798
ss(i__main__
State
p407
(dp408
g3
F-5.0
sg4
F1.0
sg5
F1.0
sg6
F-2.0
sb(dp409
I00
F-10716.025790250958
sI01
F-26.306825040000003
ss(i__main__
State
p410
(dp411
g3
F2.0
sg4
F6.0
sg5
F8.0
sg6
F5.0
sb(dp412
I00
F-365.0
sI01
F-9.609999999999998
ss(i__main__
State
p413
(dp414
g3
F4.0
sg4
F6.0
sg5
F-7.0
sg6
F7.0
sb(dp415
I00
F-772.565922193
sI01
F1185.54670037185
ss(i__main__
State
p416
(dp417
g3
F-3.0
sg4
F5.0
sg5
F3.0
sg6
F0.0
sb(dp418
I00
F-3625.8740718200006
sI01
F131.01249938145105
ss(i__main__
State
p419
(dp420
g3
F1.0
sg4
F6.0
sg5
F7.0
sg6
F4.0
sb(dp421
I00
I-88
sI01
F1177.92287657
ss(i__main__
State
p422
(dp423
g3
F-1.0
sg4
F2.0
sg5
F5.0
sg6
F2.0
sb(dp424
I00
F-4890.47274
sI01
F-9.495300999999998
ss(i__main__
State
p425
(dp426
g3
F3.0
sg4
F8.0
sg5
F-8.0
sg6
F6.0
sb(dp427
I00
F-7851.3648582000005
sI01
F26.938036500000003
ss(i__main__
State
p428
(dp429
g3
F-7.0
sg4
F0.0
sg5
F-1.0
sg6
F-4.0
sb(dp430
I00
F-1677.8551023438001
sI01
F2.126966878000001
ss.