(dp0
(i__main__
State
p1
(dp2
S'y1'
p3
F4.999999999993716
sS'x'
p4
F4.0
sS'y3'
p5
F-7.00000000000059
sS'y2'
p6
F7.99999999999331
sb(dp7
I00
F59.0110016
sI01
F-7.059999999999999
ss(i__main__
State
p8
(dp9
g3
F-3.0000000000027263
sg4
F2.0
sg5
F2.999999999994785
sg6
F-3.849544088597133e-12
sb(dp10
I00
I-79
sI01
F90.12
ss(i__main__
State
p11
(dp12
g3
F4.999999999994197
sg4
F7.0
sg5
F-7.00000000000059
sg6
F7.9999999999925935
sb(dp13
I00
I65
sI01
F-71.46
ss(i__main__
State
p14
(dp15
g3
F-1.0000000000037939
sg4
F9.0
sg5
F4.999999999993956
sg6
F1.9999999999953197
sb(dp16
I00
F11.279920000000002
sI01
F3.2800000000000007
ss(i__main__
State
p17
(dp18
g3
F-2.00000000000326
sg4
F8.0
sg5
F3.999999999995208
sg6
F0.9999999999960937
sb(dp19
I00
F93.97345906000001
sI01
F47.8
ss(i__main__
State
p20
(dp21
g3
F-5.000000000001657
sg4
F5.0
sg5
F0.9999999999956137
sg6
F-2.000000000002303
sb(dp22
I00
I60
sI01
F20.68
ss(i__main__
State
p23
(dp24
g3
F-7.00000000000083
sg4
F1.0
sg5
F-1.0000000000025988
sg6
F-4.000000000002192
sb(dp25
I00
I-41
sI01
F87.56
ss(i__main__
State
p26
(dp27
g3
F-5.000000000001418
sg4
F9.0
sg5
F0.9999999999965707
sg6
F-2.000000000003021
sb(dp28
I00
F-2.6136400000000006
sI01
F-0.7600000000000001
ss(i__main__
State
p29
(dp30
g3
F-3.000000000002965
sg4
F4.0
sg5
F2.999999999995024
sg6
F-3.610246014848296e-12
sb(dp31
I00
F-6.890222255658334
sI01
F-33.36
ss(i__main__
State
p32
(dp33
g3
F2.999999999994067
sg4
F4.0
sg5
F8.999999999993495
sg6
F5.9999999999927045
sb(dp34
I00
F-38.82047
sI01
F73.3
ss(i__main__
State
p35
(dp36
g3
F-4.000000000001952
sg4
F1.0
sg5
F1.9999999999953193
sg6
F-1.0000000000040332
sb(dp37
I00
I6
sI01
F12.48
ss(i__main__
State
p38
(dp39
g3
F1.9999999999950804
sg4
F0.0
sg5
F7.9999999999925935
sg6
F4.999999999993716
sb(dp40
I00
I72
sI01
F-62.52
ss(i__main__
State
p41
(dp42
g3
F-3.000000000002008
sg4
F5.0
sg5
F2.999999999995264
sg6
F-3.3721925035739023e-12
sb(dp43
I00
F43.988
sI01
F36.32
ss(i__main__
State
p44
(dp45
g3
F0.999999999995614
sg4
F8.0
sg5
F6.9999999999928875
sg6
F3.9999999999944906
sb(dp46
I00
F73.74150019
sI01
F4.600000000000001
ss(i__main__
State
p47
(dp48
g3
F-2.9999999944627724
sg4
F1.0
sg5
F3.4642900055372277
sg6
F5.537227687209511e-09
sb(dp49
I00
F-4.97748962646
sI01
F-23.04
ss(i__main__
State
p50
(dp51
g3
F-2.00000000000326
sg4
F5.0
sg5
F3.99999999999449
sg6
F0.9999999999953748
sb(dp52
I00
I-74
sI01
F52.46
ss(i__main__
State
p53
(dp54
g3
F4.999999999993956
sg4
F0.0
sg5
F-7.00000000000059
sg6
F7.999999999993551
sb(dp55
I00
F-62.4258
sI01
F-55.98
ss(i__main__
State
p56
(dp57
g3
F5.999999999993661
sg4
F1.0
sg5
F-6.000000000001602
sg6
F8.999999999992777
sb(dp58
I00
F-11.075395999999998
sI01
F71.14
ss(i__main__
State
p59
(dp60
g3
F-1.0000000000030775
sg4
F2.0
sg5
F4.999999999994435
sg6
F1.999999999995798
sb(dp61
I00
I-40
sI01
F-55.98
ss(i__main__
State
p62
(dp63
g3
F0.9999999999956146
sg4
F2.0
sg5
F6.9999999999928875
sg6
F3.999999999994491
sb(dp64
I00
I26
sI01
F11.120000000000001
ss(i__main__
State
p65
(dp66
g3
F-4.000000000002191
sg4
F8.0
sg5
F1.9999999999957971
sg6
F-1.0000000000035554
sb(dp67
I00
F21.43
sI01
F88.3
ss(i__main__
State
p68
(dp69
g3
F6.999999999993605
sg4
F3.0
sg5
F-5.000000000001418
sg6
F-8.000000000000535
sb(dp70
I00
F50.335564000000005
sI01
F89.14
ss(i__main__
State
p71
(dp72
g3
F-8.000000000000295
sg4
F4.0
sg5
F-2.0000000000027818
sg6
F-5.000000000001658
sb(dp73
I00
F-53.574764
sI01
F-6.4399999999999995
ss(i__main__
State
p74
(dp75
g3
F-1.0000000000035558
sg4
F3.0
sg5
F4.999999990256801
sg6
F1.999999999995559
sb(dp76
I00
F30.887682400000003
sI01
F-18.44
ss(i__main__
State
p77
(dp78
g3
F6.999999999994084
sg4
F9.0
sg5
F-5.000000000001419
sg6
F-8.000000000000295
sb(dp79
I00
F0.0
sI01
F-1.4800000000000002
ss(i__main__
State
p80
(dp81
g3
F6.999999999993126
sg4
F5.0
sg5
F-5.000000000001897
sg6
F-8.000000000000535
sb(dp82
I00
F16.974868000000004
sI01
F-50.72
ss(i__main__
State
p83
(dp84
g3
F3.9999999999942517
sg4
F7.0
sg5
F-8.000000000000295
sg6
F6.999999999993846
sb(dp85
I00
F-61.12
sI01
F-17.919999999999998
ss(i__main__
State
p86
(dp87
g3
F-3.0000000000024865
sg4
F2.0
sg5
F2.9999999999947855
sg6
F-4.088902751911632e-12
sb(dp88
I00
F-65.22800000000001
sI01
F39.28
ss(i__main__
State
p89
(dp90
g3
F5.999999999993422
sg4
F1.0
sg5
F-6.0000000000011235
sg6
F8.999999999993257
sb(dp91
I00
I63
sI01
F-39.019999999999996
ss(i__main__
State
p92
(dp93
g3
F-0.9999999944633637
sg4
F2.0
sg5
F5.464290005536638
sg6
F2.000000005536638
sb(dp94
I00
I9
sI01
F-59.3
ss(i__main__
State
p95
(dp96
g3
F1.9999999999953193
sg4
F5.0
sg5
F7.9999999999923554
sg6
F4.999999999993718
sb(dp97
I00
I14
sI01
F18.42
ss(i__main__
State
p98
(dp99
g3
F-1.0000000000030767
sg4
F4.0
sg5
F4.999999999994196
sg6
F1.9999999999957971
sb(dp100
I00
I88
sI01
F28.06
ss(i__main__
State
p101
(dp102
g3
F-4.000000000001952
sg4
F4.0
sg5
F1.9999999999950804
sg6
F-1.000000000003554
sb(dp103
I00
F18.126800000000003
sI01
F85.4
ss(i__main__
State
p104
(dp105
g3
F3.99999999999473
sg4
F5.0
sg5
F-8.000000000000295
sg6
F6.999999999992889
sb(dp106
I00
I24
sI01
F68.72
ss(i__main__
State
p107
(dp108
g3
F-5.000000000001897
sg4
F3.0
sg5
F0.9999999999960932
sg6
F-2.0000000000027818
sb(dp109
I00
F-8.919999999999998
sI01
F34.28
ss(i__main__
State
p110
(dp111
g3
F-7.000000000000829
sg4
F9.0
sg5
F-1.0000000000030767
sg6
F-4.000000000001952
sb(dp112
I00
F0.0
sI01
F0.56
ss(i__main__
State
p113
(dp114
g3
F3.9999999999944897
sg4
F8.0
sg5
F-8.000000000000295
sg6
F6.9999999999924105
sb(dp115
I00
I34
sI01
F-33.2
ss(i__main__
State
p116
(dp117
g3
F-2.000000000002782
sg4
F8.0
sg5
F3.99999999999425
sg6
F0.9999999999958542
sb(dp118
I00
F34.39
sI01
F-50.3
ss(i__main__
State
p119
(dp120
g3
F-3.850426846222144e-12
sg4
F6.0
sg5
F5.999999999993661
sg6
F2.9999999999952633
sb(dp121
I00
F10.6
sI01
F15.1
ss(i__main__
State
p122
(dp123
g3
F-6.000000000001363
sg4
F2.0
sg5
F-3.133222772314295e-12
sg6
F-3.0000000000027263
sb(dp124
I00
F15.82
sI01
F67.12
ss(i__main__
State
p125
(dp126
g3
F-2.0000000000027813
sg4
F9.0
sg5
F3.9999999999947295
sg6
F0.9999999999953747
sb(dp127
I00
F9.379030462560001
sI01
F1.4400000000000002
ss(i__main__
State
p128
(dp129
g3
F-6.000000000001363
sg4
F7.0
sg5
F-3.849971910506166e-12
sg6
F-3.0000000000024865
sb(dp130
I00
I91
sI01
F33.86
ss(i__main__
State
p131
(dp132
g3
F2.999999999994546
sg4
F0.0
sg5
F8.999999999992538
sg6
F5.999999999993902
sb(dp133
I00
I46
sI01
F-9.06
ss(i__main__
State
p134
(dp135
g3
F-6.000000000000885
sg4
F2.0
sg5
F-3.3721708125160672e-12
sg6
F-3.0000000000022475
sb(dp136
I00
F9.00596
sI01
F-25.36
ss(i__main__
State
p137
(dp138
g3
F-5.000000000001897
sg4
F4.0
sg5
F0.9999999999958537
sg6
F-2.0000000000030216
sb(dp139
I00
F-54.7
sI01
F-41.2
ss(i__main__
State
p140
(dp141
g3
F-7.00000000000059
sg4
F9.0
sg5
F-1.000000000003555
sg6
F-4.000000000001713
sb(dp142
I00
F3.08
sI01
F3.08
ss(i__main__
State
p143
(dp144
g3
F-7.00000000000059
sg4
F8.0
sg5
F-1.0000000000033156
sg6
F-4.000000000001713
sb(dp145
I00
F95.626
sI01
F78.4
ss(i__main__
State
p146
(dp147
g3
F6.999999999993606
sg4
F6.0
sg5
F-5.000000000001897
sg6
F-8.000000000000535
sb(dp148
I00
F-22.8495182
sI01
F-78.98
ss(i__main__
State
p149
(dp150
g3
F6.999999999993606
sg4
F4.0
sg5
F-5.000000000001658
sg6
F-8.000000000000295
sb(dp151
I00
F71.00669199999999
sI01
F32.62
ss(i__main__
State
p152
(dp153
g3
F6.999999999992888
sg4
F1.0
sg5
F-5.000000000001418
sg6
F-8.000000000000535
sb(dp154
I00
F-40.79374886199999
sI01
F-89.68
ss(i__main__
State
p155
(dp156
g3
F5.999999999994141
sg4
F5.0
sg5
F-6.0000000000013625
sg6
F8.99999999999182
sb(dp157
I00
F-63.057199999999995
sI01
F48.28
ss(i__main__
State
p158
(dp159
g3
F5.99999999999438
sg4
F6.0
sg5
F-6.000000000001363
sg6
F8.99999999999254
sb(dp160
I00
I-38
sI01
F56.12
ss(i__main__
State
p161
(dp162
g3
F4.999999999994195
sg4
F2.0
sg5
F-7.00000000000083
sg6
F7.9999999999925935
sb(dp163
I00
F-31.16
sI01
F-59.06
ss(i__main__
State
p164
(dp165
g3
F-5.000000000001658
sg4
F3.0
sg5
F0.9999999999963309
sg6
F-2.000000000003021
sb(dp166
I00
F14.62274123760695
sI01
F-20.12
ss(i__main__
State
p167
(dp168
g3
F2.9999999999947846
sg4
F1.0
sg5
F8.99999999999206
sg6
F5.99999999999414
sb(dp169
I00
F-10.32137162
sI01
F-33.92
ss(i__main__
State
p170
(dp171
g3
F1.9999999999950804
sg4
F8.0
sg5
F7.99999999999355
sg6
F4.999999999995153
sb(dp172
I00
F-66.5
sI01
F76.6
ss(i__main__
State
p173
(dp174
g3
F-1.0000000000033156
sg4
F6.0
sg5
F4.999999999995152
sg6
F1.999999999995797
sb(dp175
I00
I-79
sI01
F-67.48
ss(i__main__
State
p176
(dp177
g3
F-3.000000000002726
sg4
F6.0
sg5
F2.9999999999957416
sg6
F-3.849982757012294e-12
sb(dp178
I00
F61.57327239999999
sI01
F-3.1399999999999997
ss(i__main__
State
p179
(dp180
g3
F8.999999999993017
sg4
F2.0
sg5
F-3.0000000000024865
sg6
F-6.0000000000011235
sb(dp181
I00
F-86.22
sI01
F91.98
ss(i__main__
State
p182
(dp183
g3
F-8.000000000000295
sg4
F5.0
sg5
F-2.0000000000030207
sg6
F-5.000000000001897
sb(dp184
I00
I62
sI01
F-84.3
ss(i__main__
State
p185
(dp186
g3
F-5.000000000001658
sg4
F5.0
sg5
F0.9999999999960932
sg6
F-2.0000000000030207
sb(dp187
I00
I91
sI01
F68.8
ss(i__main__
State
p188
(dp189
g3
F0.9999999999953747
sg4
F7.0
sg5
F6.999999999993846
sg6
F3.9999999999952083
sb(dp190
I00
I62
sI01
F91.26
ss(i__main__
State
p191
(dp192
g3
F2.9999999999947846
sg4
F6.0
sg5
F8.999999999993257
sg6
F5.999999999993183
sb(dp193
I00
F-35.5562
sI01
F34.3
ss(i__main__
State
p194
(dp195
g3
F4.999999999994195
sg4
F7.0
sg5
F-7.00000000000059
sg6
F7.9999999999925935
sb(dp196
I00
I-20
sI01
F-29.3
ss(i__main__
State
p197
(dp198
g3
F-7.00000000000083
sg4
F8.0
sg5
F-1.0000000000025984
sg6
F-4.000000000001713
sb(dp199
I00
F98.38
sI01
F-44.0
ss(i__main__
State
p200
(dp201
g3
F1.999999999995558
sg4
F7.0
sg5
F7.99999999999379
sg6
F4.999999999994435
sb(dp202
I00
I63
sI01
F19.82
ss(i__main__
State
p203
(dp204
g3
F4.999999999994195
sg4
F9.0
sg5
F-7.000000000000829
sg6
F7.999999999991877
sb(dp205
I00
F0.0
sI01
F3.8400000000000007
ss(i__main__
State
p206
(dp207
g3
F-2.000000000002782
sg4
F0.0
sg5
F3.999999999994728
sg6
F0.9999999999958531
sb(dp208
I00
I-29
sI01
F-44.94
ss(i__main__
State
p209
(dp210
g3
F-1.0000000000028373
sg4
F0.0
sg5
F4.999999999994195
sg6
F1.9999999999953189
sb(dp211
I00
F-41.902127748000005
sI01
F64.08
ss(i__main__
State
p212
(dp213
g3
F8.999999999993015
sg4
F3.0
sg5
F-3.000000000002487
sg6
F-6.000000000001124
sb(dp214
I00
I-90
sI01
F-2.12
ss(i__main__
State
p215
(dp216
g3
F1.99999999999508
sg4
F6.0
sg5
F7.999999999993071
sg6
F4.999999999993955
sb(dp217
I00
I99
sI01
F37.46
ss(i__main__
State
p218
(dp219
g3
F7.999999999993072
sg4
F8.0
sg5
F-4.000000000001713
sg6
F-7.00000000000083
sb(dp220
I00
F-20.722399999999993
sI01
F90.1
ss(i__main__
State
p221
(dp222
g3
F4.999999999993957
sg4
F3.0
sg5
F-7.000000000000829
sg6
F7.999999999992354
sb(dp223
I00
I42
sI01
F29.04
ss(i__main__
State
p224
(dp225
g3
F0.9999999999960921
sg4
F0.0
sg5
F6.999999999993126
sg6
F3.999999999994011
sb(dp226
I00
F72.0
sI01
F-9.899999999999999
ss(i__main__
State
p227
(dp228
g3
F4.999999999994433
sg4
F3.0
sg5
F-7.000000000000829
sg6
F7.999999999991875
sb(dp229
I00
F23.948
sI01
F56.42
ss(i__main__
State
p230
(dp231
g3
F2.9999999999952633
sg4
F8.0
sg5
F8.9999999999923
sg6
F5.999999999993183
sb(dp232
I00
F93.3751096381
sI01
F58.6
ss(i__main__
State
p233
(dp234
g3
F4.999999999994913
sg4
F9.0
sg5
F-7.00000000000059
sg6
F7.999999999992832
sb(dp235
I00
F18.740969282566283
sI01
F2.3600000000000003
ss(i__main__
State
p236
(dp237
g3
F-7.000000000000829
sg4
F7.0
sg5
F-1.000000000003555
sg6
F-4.000000000001952
sb(dp238
I00
I76
sI01
F-32.5
ss(i__main__
State
p239
(dp240
g3
F6.999999999993366
sg4
F6.0
sg5
F-5.000000000001658
sg6
F-8.000000000000295
sb(dp241
I00
F21.137743956509222
sI01
F60.44
ss(i__main__
State
p242
(dp243
g3
F-2.0000000000032605
sg4
F9.0
sg5
F3.9999999999942513
sg6
F0.9999999999960926
sb(dp244
I00
F0.0
sI01
F-0.6800000000000002
ss(i__main__
State
p245
(dp246
g3
F-1.0000000000037947
sg4
F5.0
sg5
F4.999999999994913
sg6
F1.9999999999953197
sb(dp247
I00
I61
sI01
F-1.8199999999999998
ss(i__main__
State
p248
(dp249
g3
F-4.000000000002192
sg4
F3.0
sg5
F1.9999999999957976
sg6
F-1.0000000000028368
sb(dp250
I00
F-39.896
sI01
F43.66
ss(i__main__
State
p251
(dp252
g3
F6.999999999992649
sg4
F7.0
sg5
F-5.000000000001657
sg6
F-8.000000000000295
sb(dp253
I00
I52
sI01
F49.32
ss(i__main__
State
p254
(dp255
g3
F-8.000000000000295
sg4
F9.0
sg5
F-2.0000000000030207
sg6
F-5.000000000001657
sb(dp256
I00
F-10.592120000000001
sI01
F-3.08
ss(i__main__
State
p257
(dp258
g3
F-2.000000000003499
sg4
F2.0
sg5
F3.9999999999947295
sg6
F0.9999999999963319
sb(dp259
I00
F65.26
sI01
F19.36
ss(i__main__
State
p260
(dp261
g3
F8.999999999992298
sg4
F2.0
sg5
F-3.0000000000022475
sg6
F-6.000000000001602
sb(dp262
I00
F-23.653301363999994
sI01
F24.84
ss(i__main__
State
p263
(dp264
g3
F-4.000000000001953
sg4
F7.0
sg5
F1.9999999999955578
sg6
F-1.000000000002598
sb(dp265
I00
F-58.012
sI01
F-35.98
ss(i__main__
State
p266
(dp267
g3
F1.9999999999957971
sg4
F5.0
sg5
F7.999999999992833
sg6
F4.9999999999949125
sb(dp268
I00
F50.2712
sI01
F21.32
ss(i__main__
State
p269
(dp270
g3
F4.999999999994435
sg4
F7.0
sg5
F-7.000000000000829
sg6
F7.999999999993073
sb(dp271
I00
I-2
sI01
F17.28
ss(i__main__
State
p272
(dp273
g3
F5.99999999999366
sg4
F3.0
sg5
F-6.000000000001363
sg6
F8.999999999992776
sb(dp274
I00
F57.919734600000005
sI01
F-80.75999999999999
ss(i__main__
State
p275
(dp276
g3
F-3.000000000002487
sg4
F9.0
sg5
F2.9999999999947846
sg6
F-3.611123345731779e-12
sb(dp277
I00
F0.0
sI01
F-1.8
ss(i__main__
State
p278
(dp279
g3
F3.9999999999949685
sg4
F9.0
sg5
F-8.000000000000535
sg6
F6.999999999992649
sb(dp280
I00
F0.0
sI01
F-1.9200000000000004
ss(i__main__
State
p281
(dp282
g3
F0.9999999999963319
sg4
F0.0
sg5
F6.999999999993606
sg6
F3.999999999994729
sb(dp283
I00
I-61
sI01
F-74.68
ss(i__main__
State
p284
(dp285
g3
F7.999999999992116
sg4
F4.0
sg5
F-4.000000000002192
sg6
F-7.0000000000010685
sb(dp286
I00
I-42
sI01
F34.94
ss(i__main__
State
p287
(dp288
g3
F-2.000000000002542
sg4
F7.0
sg5
F3.9999999999942504
sg6
F0.9999999999960921
sb(dp289
I00
F26.628800000000002
sI01
F82.58
ss(i__main__
State
p290
(dp291
g3
F5.999999999994379
sg4
F2.0
sg5
F-6.000000000001602
sg6
F8.999999999992538
sb(dp292
I00
I70
sI01
F-19.16
ss(i__main__
State
p293
(dp294
g3
F1.9999999999960365
sg4
F4.0
sg5
F7.999999999992831
sg6
F4.999999999994196
sb(dp295
I00
F-18.8
sI01
F54.1
ss(i__main__
State
p296
(dp297
g3
F-3.0000000000024865
sg4
F1.0
sg5
F2.999999999995743
sg6
F-2.8930365148014664e-12
sb(dp298
I00
I-46
sI01
F47.019999999999996
ss(i__main__
State
p299
(dp300
g3
F-1.0000000000028368
sg4
F7.0
sg5
F4.999999999994435
sg6
F1.9999999999955584
sb(dp301
I00
I38
sI01
F-57.54
ss(i__main__
State
p302
(dp303
g3
F8.9999999999923
sg4
F1.0
sg5
F-3.000000000002965
sg6
F-6.000000000001124
sb(dp304
I00
F-63.05
sI01
F71.5
ss(i__main__
State
p305
(dp306
g3
F-4.089352261916171e-12
sg4
F5.0
sg5
F5.999999999992943
sg6
F2.9999999999955014
sb(dp307
I00
I-3
sI01
F-75.38
ss(i__main__
State
p308
(dp309
g3
F-7.00000000000059
sg4
F6.0
sg5
F-1.0000000000030762
sg6
F-4.000000000001713
sb(dp310
I00
F-77.56
sI01
F-83.86
ss(i__main__
State
p311
(dp312
g3
F1.9999999999953189
sg4
F5.0
sg5
F7.999999999993551
sg6
F4.999999999993717
sb(dp313
I00
F-13.74
sI01
F70.86
ss(i__main__
State
p314
(dp315
g3
F7.999999999992115
sg4
F1.0
sg5
F-4.000000000001953
sg6
F-7.0000000000010685
sb(dp316
I00
F26.242953648100006
sI01
F84.4
ss(i__main__
State
p317
(dp318
g3
F3.9999999999947295
sg4
F7.0
sg5
F-8.000000000000295
sg6
F6.999999999992889
sb(dp319
I00
F-16.35
sI01
F91.2
ss(i__main__
State
p320
(dp321
g3
F-5.000000000001657
sg4
F2.0
sg5
F0.9999999999953745
sg6
F-2.000000000003499
sb(dp322
I00
I-36
sI01
F64.1
ss(i__main__
State
p323
(dp324
g3
F-3.000000000002487
sg4
F4.0
sg5
F2.9999999999950235
sg6
F-3.610147466686071e-12
sb(dp325
I00
F33.688793644263995
sI01
F-84.86
ss(i__main__
State
p326
(dp327
g3
F0.9999999999958532
sg4
F6.0
sg5
F6.999999999992888
sg6
F3.999999999994012
sb(dp328
I00
F-24.68
sI01
F-17.48
ss(i__main__
State
p329
(dp330
g3
F-1.0000000000033165
sg4
F1.0
sg5
F4.999999999994434
sg6
F1.999999999995079
sb(dp331
I00
F0.2767492420000004
sI01
F-4.52
ss(i__main__
State
p332
(dp333
g3
F-1.0000000000037943
sg4
F4.0
sg5
F4.999999999993718
sg6
F1.9999999999955582
sb(dp334
I00
F13.533450016205858
sI01
F57.76
ss(i__main__
State
p335
(dp336
g3
F-1.0000000000035554
sg4
F7.0
sg5
F4.999999999993956
sg6
F1.9999999999955589
sb(dp337
I00
I16
sI01
F-49.04
ss(i__main__
State
p338
(dp339
g3
F7.999999999992833
sg4
F7.0
sg5
F-4.000000000001953
sg6
F-7.0000000000010685
sb(dp340
I00
F-70.27940000000001
sI01
F73.06
ss(i__main__
State
p341
(dp342
g3
F2.9999999999959814
sg4
F3.0
sg5
F8.999999999993495
sg6
F5.999999999993901
sb(dp343
I00
I-59
sI01
F-43.08
ss(i__main__
State
p344
(dp345
g3
F-8.000000000000535
sg4
F0.0
sg5
F-2.0000000000034994
sg6
F-5.000000000001658
sb(dp346
I00
I-62
sI01
F34.22
ss(i__main__
State
p347
(dp348
g3
F-3.0000000000027263
sg4
F3.0
sg5
F2.9999999999952633
sg6
F-3.8504874298409665e-12
sb(dp349
I00
F0.5799999999999996
sI01
F52.78
ss(i__main__
State
p350
(dp351
g3
F3.9999999999952087
sg4
F9.0
sg5
F-8.000000000000295
sg6
F6.999999999993845
sb(dp352
I00
F25.092697818336333
sI01
F3.08
ss(i__main__
State
p353
(dp354
g3
F0.9999999999965712
sg4
F2.0
sg5
F6.999999999994324
sg6
F3.9999999999944906
sb(dp355
I00
I31
sI01
F-81.2
ss(i__main__
State
p356
(dp357
g3
F5.999999999994139
sg4
F0.0
sg5
F-6.000000000001602
sg6
F8.999999999992536
sb(dp358
I00
F31.001892705939984
sI01
F-15.2
ss(i__main__
State
p359
(dp360
g3
F1.999999999995558
sg4
F7.0
sg5
F7.999999999992834
sg6
F4.999999999993717
sb(dp361
I00
I-34
sI01
F39.24
ss(i__main__
State
p362
(dp363
g3
F2.999999999995264
sg4
F1.0
sg5
F8.999999999992777
sg6
F5.999999999993901
sb(dp364
I00
I91
sI01
F-54.66
ss(i__main__
State
p365
(dp366
g3
F-4.000000000002431
sg4
F5.0
sg5
F1.9999999999953197
sg6
F-1.0000000000030767
sb(dp367
I00
F-51.28
sI01
F-65.68
ss(i__main__
State
p368
(dp369
g3
F-1.0000000000035554
sg4
F5.0
sg5
F4.999999999994435
sg6
F1.999999999995559
sb(dp370
I00
I20
sI01
F61.46
ss(i__main__
State
p371
(dp372
g3
F-8.000000000000535
sg4
F5.0
sg5
F-2.0000000000025424
sg6
F-5.000000000002136
sb(dp373
I00
F69.82
sI01
F2.3200000000000003
ss(i__main__
State
p374
(dp375
g3
F8.9999999999923
sg4
F1.0
sg5
F-3.0000000000027254
sg6
F-6.0000000000011235
sb(dp376
I00
F27.835553659999995
sI01
F75.56
ss(i__main__
State
p377
(dp378
g3
F-4.000000000002431
sg4
F9.0
sg5
F1.9999999999957982
sg6
F-1.0000000000033156
sb(dp379
I00
F0.0
sI01
F0.7200000000000001
ss(i__main__
State
p380
(dp381
g3
F7.999999999993071
sg4
F0.0
sg5
F-4.00000000000243
sg6
F-7.000000000000829
sb(dp382
I00
F37.98
sI01
F-43.92
ss(i__main__
State
p383
(dp384
g3
F-3.0000000000027263
sg4
F3.0
sg5
F2.999999999994067
sg6
F-3.6115122721175017e-12
sb(dp385
I00
F33.68
sI01
F-0.52
ss(i__main__
State
p386
(dp387
g3
F6.999999999993606
sg4
F8.0
sg5
F-5.000000000001657
sg6
F-8.000000000000535
sb(dp388
I00
F20.874340000000004
sI01
F51.4
ss(i__main__
State
p389
(dp390
g3
F-6.0000000000013625
sg4
F6.0
sg5
F-4.089796351126021e-12
sg6
F-3.000000000002487
sb(dp391
I00
I-48
sI01
F57.14
ss(i__main__
State
p392
(dp393
g3
F3.9999999999942504
sg4
F4.0
sg5
F-8.000000000000295
sg6
F6.999999999993845
sb(dp394
I00
I14
sI01
F70.38
ss(i__main__
State
p395
(dp396
g3
F-2.0000000000025424
sg4
F2.0
sg5
F3.9999999999954476
sg6
F0.999999999995853
sb(dp397
I00
I-2
sI01
F47.9
ss(i__main__
State
p398
(dp399
g3
F-5.000000000001897
sg4
F4.0
sg5
F0.9999999999958539
sg6
F-2.0000000000027818
sb(dp400
I00
I-68
sI01
F3.1599999999999997
ss(i__main__
State
p401
(dp402
g3
F-3.850437691224344e-12
sg4
F5.0
sg5
F5.999999999993901
sg6
F2.9999999999947846
sb(dp403
I00
I23
sI01
F85.08
ss(i__main__
State
p404
(dp405
g3
F-3.610229743464951e-12
sg4
F3.0
sg5
F5.999999999994139
sg6
F2.99999999999598
sb(dp406
I00
I67
sI01
F18.16
ss(i__main__
State
p407
(dp408
g3
F5.999999999992942
sg4
F4.0
sg5
F-6.0000000000013625
sg6
F8.999999999992538
sb(dp409
I00
F57.18
sI01
F-51.0
ss(i__main__
State
p410
(dp411
g3
F7.99999999999331
sg4
F0.0
sg5
F-4.000000000001952
sg6
F-7.000000000000829
sb(dp412
I00
F7.239825748883266
sI01
F16.9
ss(i__main__
State
p413
(dp414
g3
F-3.000000000002008
sg4
F1.0
sg5
F2.9999999999957425
sg6
F-3.850482005993839e-12
sb(dp415
I00
I-57
sI01
F74.04
ss(i__main__
State
p416
(dp417
g3
F-7.00000000000059
sg4
F7.0
sg5
F-1.000000000003316
sg6
F-4.000000000002192
sb(dp418
I00
F5.458
sI01
F47.2
ss(i__main__
State
p419
(dp420
g3
F-5.000000000001418
sg4
F0.0
sg5
F0.9999999999956142
sg6
F-2.000000000003499
sb(dp421
I00
I-50
sI01
F59.8
ss(i__main__
State
p422
(dp423
g3
F6.9999999999924105
sg4
F3.0
sg5
F-5.000000000001658
sg6
F-8.000000000000535
sb(dp424
I00
I-80
sI01
F-24.7
ss(i__main__
State
p425
(dp426
g3
F-2.0000000000030207
sg4
F5.0
sg5
F3.99999999999449
sg6
F0.9999999999958523
sb(dp427
I00
F92.16
sI01
F41.76
ss(i__main__
State
p428
(dp429
g3
F3.999999999995447
sg4
F4.0
sg5
F-8.000000000000535
sg6
F6.999999999993606
sb(dp430
I00
I4
sI01
F46.64
ss(i__main__
State
p431
(dp432
g3
F1.999999999995081
sg4
F4.0
sg5
F7.999999999993311
sg6
F4.999999999993717
sb(dp433
I00
I-10
sI01
F86.36
ss(i__main__
State
p434
(dp435
g3
F6.999999999993606
sg4
F9.0
sg5
F-5.000000000001897
sg6
F-8.000000000000295
sb(dp436
I00
F0.0
sI01
F-3.4000000000000004
ss(i__main__
State
p437
(dp438
g3
F7.999999999992355
sg4
F8.0
sg5
F-4.000000000001952
sg6
F-7.00000000000059
sb(dp439
I00
F10.836010000000007
sI01
F-14.299999999999999
ss(i__main__
State
p440
(dp441
g3
F0.9999999999951358
sg4
F5.0
sg5
F6.999999999993128
sg6
F3.9999999999942504
sb(dp442
I00
F31.892
sI01
F-38.02
ss(i__main__
State
p443
(dp444
g3
F-2.0000000000027818
sg4
F2.0
sg5
F3.9999999999949685
sg6
F0.9999999999953746
sb(dp445
I00
F26.05264
sI01
F-36.74
ss(i__main__
State
p446
(dp447
g3
F-6.000000000001602
sg4
F9.0
sg5
F-2.8934534896534286e-12
sg6
F-3.0000000000024873
sb(dp448
I00
F-0.2
sI01
F-0.2
ss(i__main__
State
p449
(dp450
g3
F-1.000000000003555
sg4
F3.0
sg5
F4.999999999995153
sg6
F1.9999999999962768
sb(dp451
I00
I64
sI01
F69.14
ss(i__main__
State
p452
(dp453
g3
F7.999999999992354
sg4
F1.0
sg5
F-4.000000000001952
sg6
F-7.0000000000010685
sb(dp454
I00
F85.22
sI01
F-11.079999999999998
ss(i__main__
State
p455
(dp456
g3
F6.999999999993845
sg4
F3.0
sg5
F-5.000000000001418
sg6
F-8.000000000000535
sb(dp457
I00
I-45
sI01
F-48.4
ss(i__main__
State
p458
(dp459
g3
F-4.000000000001713
sg4
F4.0
sg5
F1.9999999999955587
sg6
F-1.000000000003077
sb(dp460
I00
F-1.0796886651999973
sI01
F67.28
ss(i__main__
State
p461
(dp462
g3
F3.9999999999944915
sg4
F6.0
sg5
F-8.000000000000295
sg6
F6.999999999992888
sb(dp463
I00
I-14
sI01
F-1.9
ss(i__main__
State
p464
(dp465
g3
F8.99999999999206
sg4
F6.0
sg5
F-3.000000000002008
sg6
F-6.000000000001124
sb(dp466
I00
I76
sI01
F45.72
ss(i__main__
State
p467
(dp468
g3
F7.99999999999379
sg4
F8.0
sg5
F-4.000000000001953
sg6
F-7.00000000000083
sb(dp469
I00
F64.978737476356
sI01
F-17.0
ss(i__main__
State
p470
(dp471
g3
F-7.00000000000083
sg4
F1.0
sg5
F-1.0000000000040337
sg6
F-4.000000000001953
sb(dp472
I00
F7.220000000000001
sI01
F65.0
ss(i__main__
State
p473
(dp474
g3
F2.9999999999947855
sg4
F9.0
sg5
F8.999999999993015
sg6
F5.999999999994858
sb(dp475
I00
F17.152226308000003
sI01
F2.8000000000000003
ss(i__main__
State
p476
(dp477
g3
F4.999999999993957
sg4
F8.0
sg5
F-7.000000000000829
sg6
F7.999999999993312
sb(dp478
I00
F95.27608
sI01
F-68.3
ss(i__main__
State
p479
(dp480
g3
F-1.0000000000037947
sg4
F4.0
sg5
F4.999999999993956
sg6
F1.9999999999950804
sb(dp481
I00
I33
sI01
F-58.82
ss(i__main__
State
p482
(dp483
g3
F8.999999999992298
sg4
F0.0
sg5
F-3.0000000000027263
sg6
F-6.0000000000011235
sb(dp484
I00
I-74
sI01
F-5.84
ss(i__main__
State
p485
(dp486
g3
F4.999999999994435
sg4
F4.0
sg5
F-7.00000000000083
sg6
F7.999999999992355
sb(dp487
I00
I1
sI01
F35.62
ss(i__main__
State
p488
(dp489
g3
F4.999999999994195
sg4
F5.0
sg5
F-7.00000000000083
sg6
F7.9999999999928315
sb(dp490
I00
I71
sI01
F-22.54
ss(i__main__
State
p491
(dp492
g3
F1.9999999999946012
sg4
F4.0
sg5
F7.999999999993072
sg6
F4.999999999993478
sb(dp493
I00
F-22.387071199999998
sI01
F-44.78
ss(i__main__
State
p494
(dp495
g3
F-7.000000000000829
sg4
F9.0
sg5
F-1.0000000000033156
sg6
F-4.000000000002191
sb(dp496
I00
F0.0
sI01
F1.6800000000000002
ss(i__main__
State
p497
(dp498
g3
F2.999999999994784
sg4
F8.0
sg5
F8.999999999992298
sg6
F5.999999999993901
sb(dp499
I00
F36.075619315000004
sI01
F-26.9
ss(i__main__
State
p500
(dp501
g3
F-4.088513822473473e-12
sg4
F3.0
sg5
F5.999999999992944
sg6
F2.9999999999957416
sb(dp502
I00
F-3.9195941707120014
sI01
F45.68
ss(i__main__
State
p503
(dp504
g3
F4.999999999993956
sg4
F9.0
sg5
F-7.000000000000829
sg6
F7.999999999992115
sb(dp505
I00
F0.28
sI01
F0.28
ss(i__main__
State
p506
(dp507
g3
F-4.000000000002191
sg4
F0.0
sg5
F1.9999999999955578
sg6
F-1.0000000000028368
sb(dp508
I00
I-40
sI01
F56.98
ss(i__main__
State
p509
(dp510
g3
F-1.0000000000030767
sg4
F0.0
sg5
F4.999999999994195
sg6
F1.9999999999957971
sb(dp511
I00
F-27.3444
sI01
F41.16
ss(i__main__
State
p512
(dp513
g3
F-2.0000000000034985
sg4
F2.0
sg5
F3.9999999999940115
sg6
F0.9999999999965709
sb(dp514
I00
I13
sI01
F83.98
ss(i__main__
State
p515
(dp516
g3
F6.999999999992889
sg4
F9.0
sg5
F-5.000000000001896
sg6
F-8.000000000000295
sb(dp517
I00
F-7.428240000000001
sI01
F-2.16
ss(i__main__
State
p518
(dp519
g3
F5.99999999999414
sg4
F5.0
sg5
F-6.000000000001363
sg6
F8.999999999992776
sb(dp520
I00
I-88
sI01
F-71.25999999999999
ss(i__main__
State
p521
(dp522
g3
F-4.000000000001474
sg4
F0.0
sg5
F1.9999999999960365
sg6
F-1.0000000000033156
sb(dp523
I00
I-78
sI01
F-8.6
ss(i__main__
State
p524
(dp525
g3
F0.9999999999958525
sg4
F0.0
sg5
F6.999999999993604
sg6
F3.9999999999952083
sb(dp526
I00
I-86
sI01
F44.56
ss(i__main__
State
p527
(dp528
g3
F1.999999999995079
sg4
F6.0
sg5
F7.999999999992594
sg6
F4.999999999993478
sb(dp529
I00
I-54
sI01
F11.6
ss(i__main__
State
p530
(dp531
g3
F4.999999999994435
sg4
F5.0
sg5
F-7.00000000000059
sg6
F7.999999999992115
sb(dp532
I00
F14.16
sI01
F-30.84
ss(i__main__
State
p533
(dp534
g3
F-3.0000000000024865
sg4
F9.0
sg5
F2.9999999999945453
sg6
F-3.6111179218846513e-12
sb(dp535
I00
F0.0
sI01
F-1.7600000000000002
ss(i__main__
State
p536
(dp537
g3
F8.999999999992777
sg4
F6.0
sg5
F-3.000000000003204
sg6
F-6.0000000000011235
sb(dp538
I00
F-24.38
sI01
F84.52
ss(i__main__
State
p539
(dp540
g3
F-7.00000000000059
sg4
F5.0
sg5
F-1.0000000000028377
sg6
F-4.000000000002191
sb(dp541
I00
F38.198727824
sI01
F-68.8
ss(i__main__
State
p542
(dp543
g3
F-2.0000000000027827
sg4
F1.0
sg5
F3.999999999994728
sg6
F0.999999999995615
sb(dp544
I00
I-41
sI01
F-64.3
ss(i__main__
State
p545
(dp546
g3
F7.999999999991876
sg4
F5.0
sg5
F-4.000000000002192
sg6
F-7.00000000000083
sb(dp547
I00
F0.5229999999999999
sI01
F74.8
ss(i__main__
State
p548
(dp549
g3
F-4.000000000001953
sg4
F7.0
sg5
F1.9999999999957971
sg6
F-1.0000000000028373
sb(dp550
I00
F40.42
sI01
F-80.18
ss(i__main__
State
p551
(dp552
g3
F-6.000000000001363
sg4
F4.0
sg5
F-3.849993602014494e-12
sg6
F-3.0000000000024865
sb(dp553
I00
I34
sI01
F-32.28
ss(i__main__
State
p554
(dp555
g3
F-4.328277681023015e-12
sg4
F3.0
sg5
F5.999999999993901
sg6
F2.9999999999945457
sb(dp556
I00
I92
sI01
F-83.04
ss(i__main__
State
p557
(dp558
g3
F8.999999999992058
sg4
F3.0
sg5
F-3.000000000002247
sg6
F-6.000000000001363
sb(dp559
I00
I-25
sI01
F81.42
ss(i__main__
State
p560
(dp561
g3
F-8.000000000000295
sg4
F2.0
sg5
F-2.0000000000027818
sg6
F-5.000000000001897
sb(dp562
I00
I30
sI01
F-35.94
ss(i__main__
State
p563
(dp564
g3
F2.9999999999945453
sg4
F6.0
sg5
F8.999999999993255
sg6
F5.999999999993901
sb(dp565
I00
F-14.4344
sI01
F22.465600000000002
ss(i__main__
State
p566
(dp567
g3
F-2.0000000000023035
sg4
F9.0
sg5
F3.9999999999947295
sg6
F0.9999999999951354
sb(dp568
I00
F1.72
sI01
F1.72
ss(i__main__
State
p569
(dp570
g3
F2.9999999999947846
sg4
F4.0
sg5
F8.999999999993495
sg6
F5.999999999993424
sb(dp571
I00
I-37
sI01
F-44.019999999999996
ss(i__main__
State
p572
(dp573
g3
F0.9999999999958534
sg4
F6.0
sg5
F6.999999999993366
sg6
F3.999999999994729
sb(dp574
I00
F-85.72
sI01
F-85.72
ss(i__main__
State
p575
(dp576
g3
F-1.0000000000025984
sg4
F3.0
sg5
F4.999999999994434
sg6
F1.9999999999950808
sb(dp577
I00
I-34
sI01
F-86.75999999999999
ss(i__main__
State
p578
(dp579
g3
F7.999999999992593
sg4
F6.0
sg5
F-4.000000000002192
sg6
F-7.00000000000083
sb(dp580
I00
F49.878350644
sI01
F-26.24
ss(i__main__
State
p581
(dp582
g3
F-4.000000000002192
sg4
F9.0
sg5
F1.999999999995798
sg6
F-1.0000000000028377
sb(dp583
I00
F-1.12
sI01
F-1.12
ss(i__main__
State
p584
(dp585
g3
F2.9999999999952633
sg4
F7.0
sg5
F8.999999999991582
sg6
F5.999999999993423
sb(dp586
I00
F-34.92986931166245
sI01
F-29.8
ss(i__main__
State
p587
(dp588
g3
F-3.0000000000022484
sg4
F0.0
sg5
F2.9999999999952625
sg6
F-4.088524667717837e-12
sb(dp589
I00
F-36.0034767434
sI01
F-34.94
ss(i__main__
State
p590
(dp591
g3
F8.999999999992777
sg4
F5.0
sg5
F-3.000000000002965
sg6
F-6.0000000000013625
sb(dp592
I00
F-31.065077919999993
sI01
F6.08
ss(i__main__
State
p593
(dp594
g3
F-8.000000000000535
sg4
F2.0
sg5
F-2.0000000000027813
sg6
F-5.000000000001897
sb(dp595
I00
F68.67399999999999
sI01
F62.734
ss(i__main__
State
p596
(dp597
g3
F-5.000000000002136
sg4
F9.0
sg5
F0.9999999999948967
sg6
F-2.000000000002781
sb(dp598
I00
F-1.2800000000000002
sI01
F-1.2800000000000002
ss(i__main__
State
p599
(dp600
g3
F0.9999999999958541
sg4
F7.0
sg5
F6.999999999992889
sg6
F3.9999999999947295
sb(dp601
I00
I-61
sI01
F-14.559999999999999
ss(i__main__
State
p602
(dp603
g3
F4.999999999994435
sg4
F9.0
sg5
F-7.0000000000010685
sg6
F7.999999999992833
sb(dp604
I00
F-0.04000000000000001
sI01
F-0.04000000000000001
ss(i__main__
State
p605
(dp606
g3
F5.999999999994379
sg4
F0.0
sg5
F-6.0000000000011235
sg6
F8.999999999992538
sb(dp607
I00
F33.214171389598
sI01
F-33.92
ss(i__main__
State
p608
(dp609
g3
F-5.000000000001657
sg4
F8.0
sg5
F0.9999999999963316
sg6
F-2.00000000000326
sb(dp610
I00
F21.878173000000004
sI01
F-46.7
ss(i__main__
State
p611
(dp612
g3
F7.999999999992593
sg4
F7.0
sg5
F-4.00000000000267
sg6
F-7.00000000000083
sb(dp613
I00
F17.123207545039
sI01
F52.6
ss(i__main__
State
p614
(dp615
g3
F4.999999999994435
sg4
F9.0
sg5
F-7.00000000000083
sg6
F7.999999999992355
sb(dp616
I00
F-0.988
sI01
F-0.52
ss(i__main__
State
p617
(dp618
g3
F3.9999999999944906
sg4
F8.0
sg5
F-8.000000000000295
sg6
F6.999999999993845
sb(dp619
I00
F86.2219
sI01
F28.9
ss(i__main__
State
p620
(dp621
g3
F-4.00000000000267
sg4
F0.0
sg5
F1.9999999999957976
sg6
F-1.0000000000030767
sb(dp622
I00
I-9
sI01
F-64.56
ss(i__main__
State
p623
(dp624
g3
F-5.000000000001419
sg4
F0.0
sg5
F0.9999999999956141
sg6
F-2.000000000002543
sb(dp625
I00
I-38
sI01
F1.6600000000000001
ss(i__main__
State
p626
(dp627
g3
F7.999999999993071
sg4
F4.0
sg5
F-4.000000000001953
sg6
F-7.00000000000059
sb(dp628
I00
F6.377100293145264
sI01
F-57.48
ss(i__main__
State
p629
(dp630
g3
F4.999999999993956
sg4
F3.0
sg5
F-7.00000000000059
sg6
F7.999999999993073
sb(dp631
I00
I80
sI01
F-72.82
ss(i__main__
State
p632
(dp633
g3
F7.99999999999307
sg4
F0.0
sg5
F-4.000000000002192
sg6
F-7.00000000000059
sb(dp634
I00
F48.806000000000004
sI01
F-67.96
ss(i__main__
State
p635
(dp636
g3
F8.9999999999923
sg4
F8.0
sg5
F-3.0000000000024873
sg6
F-6.000000000001602
sb(dp637
I00
F69.87418277536
sI01
F5.5
ss(i__main__
State
p638
(dp639
g3
F5.999999999994141
sg4
F6.0
sg5
F-6.0000000000011235
sg6
F8.999999999992777
sb(dp640
I00
I-39
sI01
F-44.5
ss(i__main__
State
p641
(dp642
g3
F1.9999999999953195
sg4
F4.0
sg5
F7.999999999992354
sg6
F4.999999999993958
sb(dp643
I00
F-42.910799999999995
sI01
F66.72
ss(i__main__
State
p644
(dp645
g3
F-7.000000000000829
sg4
F0.0
sg5
F-1.000000000003317
sg6
F-4.000000000002192
sb(dp646
I00
F23.64
sI01
F7.440000000000001
ss(i__main__
State
p647
(dp648
g3
F-3.000000000002965
sg4
F1.0
sg5
F2.9999999999959814
sg6
F-3.8508438184248035e-12
sb(dp649
I00
I12
sI01
F-50.16
ss(i__main__
State
p650
(dp651
g3
F8.999999999993257
sg4
F7.0
sg5
F-3.0000000000024865
sg6
F-6.0000000000013625
sb(dp652
I00
I4
sI01
F31.3
ss(i__main__
State
p653
(dp654
g3
F8.999999999992776
sg4
F5.0
sg5
F-3.000000000002247
sg6
F-6.0000000000011235
sb(dp655
I00
I44
sI01
F-77.32
ss(i__main__
State
p656
(dp657
g3
F-2.0000000000030203
sg4
F2.0
sg5
F3.9999999999940106
sg6
F0.9999999999953753
sb(dp658
I00
I-73
sI01
F-73.44
ss(i__main__
State
p659
(dp660
g3
F5.999999999993183
sg4
F1.0
sg5
F-6.0000000000013625
sg6
F8.999999999992538
sb(dp661
I00
I18
sI01
F21.740000000000002
ss(i__main__
State
p662
(dp663
g3
F-1.0000000000035545
sg4
F6.0
sg5
F4.999999999994435
sg6
F1.9999999999953193
sb(dp664
I00
F4.137560000000001
sI01
F27.439999999999998
ss(i__main__
State
p665
(dp666
g3
F6.999999999993127
sg4
F8.0
sg5
F-5.000000000001657
sg6
F-8.000000000000535
sb(dp667
I00
F79.75
sI01
F48.7
ss(i__main__
State
p668
(dp669
g3
F-5.000000000001658
sg4
F6.0
sg5
F0.9999999999960919
sg6
F-2.000000000002303
sb(dp670
I00
I-86
sI01
F36.08
ss(i__main__
State
p671
(dp672
g3
F6.999999999993366
sg4
F2.0
sg5
F-5.000000000002136
sg6
F-8.000000000000535
sb(dp673
I00
I91
sI01
F24.14
ss(i__main__
State
p674
(dp675
g3
F-8.000000000000535
sg4
F5.0
sg5
F-2.0000000000030216
sg6
F-5.000000000001897
sb(dp676
I00
F5.508256181422745
sI01
F-54.66
ss(i__main__
State
p677
(dp678
g3
F7.999999999993072
sg4
F7.0
sg5
F-4.000000000002431
sg6
F-7.00000000000059
sb(dp679
I00
I-93
sI01
F-51.379999999999995
ss(i__main__
State
p680
(dp681
g3
F-3.000000000002248
sg4
F7.0
sg5
F2.999999999994784
sg6
F-3.849554935673e-12
sb(dp682
I00
F-52.68704
sI01
F57.1
ss(i__main__
State
p683
(dp684
g3
F8.99999999999182
sg4
F4.0
sg5
F-3.0000000000022475
sg6
F-6.000000000001602
sb(dp685
I00
F26.959999999999997
sI01
F81.5
ss(i__main__
State
p686
(dp687
g3
F-4.089391154172321e-12
sg4
F7.0
sg5
F5.9999999999939
sg6
F2.9999999999945457
sb(dp688
I00
F53.06
sI01
F3.56
ss(i__main__
State
p689
(dp690
g3
F4.999999999994436
sg4
F5.0
sg5
F-7.00000000000059
sg6
F7.999999999993312
sb(dp691
I00
F0.2759999999999998
sI01
F48.84
ss(i__main__
State
p692
(dp693
g3
F1.9999999999957967
sg4
F3.0
sg5
F7.999999999992832
sg6
F4.9999999999946745
sb(dp694
I00
F40.2344486386424
sI01
F26.9
ss(i__main__
State
p695
(dp696
g3
F4.999999999993956
sg4
F0.0
sg5
F-7.00000000000059
sg6
F7.999999999991876
sb(dp697
I00
F45.54
sI01
F86.03999999999999
ss(i__main__
State
p698
(dp699
g3
F-2.000000000003499
sg4
F8.0
sg5
F3.9999999999944897
sg6
F0.9999999999960929
sb(dp700
I00
F-16.64
sI01
F44.2
ss(i__main__
State
p701
(dp702
g3
F-6.000000000001363
sg4
F0.0
sg5
F-3.1328284194647186e-12
sg6
F-3.0000000000024873
sb(dp703
I00
F33.82
sI01
F-82.28
ss(i__main__
State
p704
(dp705
g3
F-3.0000000000022475
sg4
F6.0
sg5
F2.9999999999955036
sg6
F-3.6106078263969845e-12
sb(dp706
I00
F13.06
sI01
F3.16
ss(i__main__
State
p707
(dp708
g3
F0.9999999999953745
sg4
F3.0
sg5
F6.999999999994324
sg6
F3.999999999994491
sb(dp709
I00
F-34.99475799999999
sI01
F84.92
ss(i__main__
State
p710
(dp711
g3
F-5.000000000001897
sg4
F1.0
sg5
F0.9999999999956143
sg6
F-2.0000000000030203
sb(dp712
I00
I21
sI01
F51.5
ss(i__main__
State
p713
(dp714
g3
F-2.0000000000034994
sg4
F4.0
sg5
F3.9999999999952074
sg6
F0.9999999999958533
sb(dp715
I00
I-23
sI01
F81.42
ss(i__main__
State
p716
(dp717
g3
F-5.000000000001897
sg4
F8.0
sg5
F0.9999999999951348
sg6
F-2.000000000003499
sb(dp718
I00
F70.83999999999999
sI01
F59.5
ss(i__main__
State
p719
(dp720
g3
F-5.000000000001896
sg4
F9.0
sg5
F0.9999999999963322
sg6
F-2.00000000000326
sb(dp721
I00
F6.184978800000001
sI01
F1.3200000000000003
ss(i__main__
State
p722
(dp723
g3
F8.999999999992058
sg4
F4.0
sg5
F-3.0000000000024865
sg6
F-6.000000000000885
sb(dp724
I00
I-72
sI01
F22.68
ss(i__main__
State
p725
(dp726
g3
F-7.00000000000083
sg4
F3.0
sg5
F-1.0000000000033156
sg6
F-4.000000000001953
sb(dp727
I00
I-14
sI01
F-40.46
ss(i__main__
State
p728
(dp729
g3
F-8.000000000000295
sg4
F2.0
sg5
F-2.0000000000034994
sg6
F-5.000000000001419
sb(dp730
I00
F53.38
sI01
F53.38
ss(i__main__
State
p731
(dp732
g3
F-3.1323951775134136e-12
sg4
F3.0
sg5
F5.999999999993421
sg6
F2.9999999999950258
sb(dp733
I00
I24
sI01
F-23.42
ss(i__main__
State
p734
(dp735
g3
F-1.0000000000035545
sg4
F5.0
sg5
F4.999999999994435
sg6
F1.9999999999962768
sb(dp736
I00
I4
sI01
F25.8
ss(i__main__
State
p737
(dp738
g3
F-3.000000000002009
sg4
F1.0
sg5
F2.9999999999950244
sg6
F-3.3721979269853192e-12
sb(dp739
I00
I-27
sI01
F58.0
ss(i__main__
State
p740
(dp741
g3
F-3.6106521416357966e-12
sg4
F7.0
sg5
F5.9999999999946185
sg6
F2.9999999999955023
sb(dp742
I00
F10.8272039
sI01
F60.8
ss(i__main__
State
p743
(dp744
g3
F-6.000000000001363
sg4
F6.0
sg5
F-3.6119455157083783e-12
sg6
F-3.000000000002726
sb(dp745
I00
F37.48593688944029
sI01
F30.6
ss(i__main__
State
p746
(dp747
g3
F-3.1323843302548685e-12
sg4
F8.0
sg5
F5.999999999992944
sg6
F2.9999999999950253
sb(dp748
I00
F32.588834914
sI01
F18.1
ss(i__main__
State
p749
(dp750
g3
F-3.610679256521929e-12
sg4
F6.0
sg5
F5.9999999999927045
sg6
F2.999999999995502
sb(dp751
I00
F-0.8005969824361276
sI01
F-7.68
ss(i__main__
State
p752
(dp753
g3
F8.999999999992538
sg4
F7.0
sg5
F-3.000000000002487
sg6
F-6.0000000000011235
sb(dp754
I00
I71
sI01
F-89.26
ss(i__main__
State
p755
(dp756
g3
F7.999999999992834
sg4
F6.0
sg5
F-4.000000000001952
sg6
F-7.0000000000010685
sb(dp757
I00
F19.25956
sI01
F-2.06
ss(i__main__
State
p758
(dp759
g3
F-6.0000000000011235
sg4
F0.0
sg5
F-3.1323897536662854e-12
sg6
F-3.000000000002008
sb(dp760
I00
F-82.52
sI01
F-69.92
ss(i__main__
State
p761
(dp762
g3
F6.999999999993606
sg4
F0.0
sg5
F-5.000000000001658
sg6
F-8.000000000000535
sb(dp763
I00
F77.09088
sI01
F-46.68
ss(i__main__
State
p764
(dp765
g3
F0.9999999999963318
sg4
F3.0
sg5
F6.999999999993365
sg6
F3.999999999995208
sb(dp766
I00
I7
sI01
F-66.4
ss(i__main__
State
p767
(dp768
g3
F7.9999999999925935
sg4
F1.0
sg5
F-4.000000000002192
sg6
F-7.00000000000083
sb(dp769
I00
I17
sI01
F-82.38
ss(i__main__
State
p770
(dp771
g3
F1.99999999999508
sg4
F0.0
sg5
F7.999999999992832
sg6
F4.999999999994197
sb(dp772
I00
I12
sI01
F51.5
ss(i__main__
State
p773
(dp774
g3
F-3.3717095230059787e-12
sg4
F9.0
sg5
F5.999999999993423
sg6
F2.9999999999945457
sb(dp775
I00
F-4.0951
sI01
F-1.0
ss(i__main__
State
p776
(dp777
g3
F0.9999999999960925
sg4
F8.0
sg5
F6.999999999992888
sg6
F3.99999999999473
sb(dp778
I00
F21.464830000000003
sI01
F-23.299999999999997
ss(i__main__
State
p779
(dp780
g3
F-4.000000000002431
sg4
F0.0
sg5
F1.9999999999953193
sg6
F-1.0000000000028368
sb(dp781
I00
F-13.528888172000002
sI01
F-68.48
ss(i__main__
State
p782
(dp783
g3
F4.999999999995152
sg4
F7.0
sg5
F-7.000000000000829
sg6
F7.9999999999925935
sb(dp784
I00
I24
sI01
F44.16
ss(i__main__
State
p785
(dp786
g3
F-1.0000000000028368
sg4
F8.0
sg5
F4.999999999993955
sg6
F1.9999999999955578
sb(dp787
I00
F25.3
sI01
F-46.7
ss(i__main__
State
p788
(dp789
g3
F2.9999999999952642
sg4
F9.0
sg5
F8.99999999999206
sg6
F5.99999999999414
sb(dp790
I00
F0.28
sI01
F0.28
ss(i__main__
State
p791
(dp792
g3
F-4.000000000002431
sg4
F5.0
sg5
F1.9999999999953193
sg6
F-1.0000000000035558
sb(dp793
I00
F-32.414981613999984
sI01
F-34.36
ss(i__main__
State
p794
(dp795
g3
F-3.000000000002487
sg4
F0.0
sg5
F2.9999999999947855
sg6
F-3.849966487527273e-12
sb(dp796
I00
F-81.96
sI01
F-45.96
ss(i__main__
State
p797
(dp798
g3
F6.99999999999241
sg4
F8.0
sg5
F-5.000000000001658
sg6
F-8.000000000000535
sb(dp799
I00
I56
sI01
F-28.7
ss(i__main__
State
p800
(dp801
g3
F0.999999999995853
sg4
F4.0
sg5
F6.999999999994085
sg6
F3.9999999999940115
sb(dp802
I00
I16
sI01
F53.48
ss(i__main__
State
p803
(dp804
g3
F5.99999999999414
sg4
F1.0
sg5
F-6.000000000000885
sg6
F8.999999999993017
sb(dp805
I00
I89
sI01
F63.68
ss(i__main__
State
p806
(dp807
g3
F8.999999999993015
sg4
F1.0
sg5
F-3.000000000002247
sg6
F-6.0000000000013625
sb(dp808
I00
I81
sI01
F50.98
ss(i__main__
State
p809
(dp810
g3
F6.999999999993127
sg4
F8.0
sg5
F-5.000000000001897
sg6
F-8.000000000000295
sb(dp811
I00
F-16.1
sI01
F20.8
ss(i__main__
State
p812
(dp813
g3
F0.9999999999960916
sg4
F2.0
sg5
F6.999999999993366
sg6
F3.99999999999497
sb(dp814
I00
F30.025877980000008
sI01
F89.68
ss(i__main__
State
p815
(dp816
g3
F-1.000000000003316
sg4
F5.0
sg5
F4.999999999993956
sg6
F1.9999999999950804
sb(dp817
I00
I64
sI01
F8.12
ss(i__main__
State
p818
(dp819
g3
F3.999999999994729
sg4
F0.0
sg5
F-8.000000000000295
sg6
F6.999999999993126
sb(dp820
I00
F-26.676
sI01
F72.36
ss(i__main__
State
p821
(dp822
g3
F-1.0000000000028373
sg4
F2.0
sg5
F4.999999999993955
sg6
F1.9999999999953206
sb(dp823
I00
F-15.558416939999999
sI01
F-31.439999999999998
ss(i__main__
State
p824
(dp825
g3
F-4.000000000002192
sg4
F8.0
sg5
F1.9999999999960374
sg6
F-1.000000000003555
sb(dp826
I00
F-27.799999999999997
sI01
F-25.1
ss(i__main__
State
p827
(dp828
g3
F6.999999999993367
sg4
F3.0
sg5
F-5.000000000001897
sg6
F-8.000000000000535
sb(dp829
I00
F-24.74
sI01
F91.36
ss(i__main__
State
p830
(dp831
g3
F-8.000000000000295
sg4
F4.0
sg5
F-2.0000000000030207
sg6
F-5.000000000001897
sb(dp832
I00
I95
sI01
F-53.74
ss(i__main__
State
p833
(dp834
g3
F3.9999999999949685
sg4
F8.0
sg5
F-8.000000000000535
sg6
F6.999999999992889
sb(dp835
I00
F68.4986567895187
sI01
F-80.0
ss(i__main__
State
p836
(dp837
g3
F-5.000000000001658
sg4
F2.0
sg5
F0.999999999996093
sg6
F-2.000000000002781
sb(dp838
I00
I-60
sI01
F-44.82
ss(i__main__
State
p839
(dp840
g3
F8.999999999993493
sg4
F2.0
sg5
F-3.000000000002487
sg6
F-6.0000000000013625
sb(dp841
I00
I-53
sI01
F-50.0
ss(i__main__
State
p842
(dp843
g3
F4.999999999994913
sg4
F2.0
sg5
F-7.0000000000010685
sg6
F7.9999999999925935
sb(dp844
I00
I94
sI01
F92.94
ss(i__main__
State
p845
(dp846
g3
F-1.0000000000035554
sg4
F9.0
sg5
F4.9999999999946745
sg6
F1.99999999999508
sb(dp847
I00
F-22.926518908480002
sI01
F-3.5200000000000005
ss(i__main__
State
p848
(dp849
g3
F8.999999999993015
sg4
F9.0
sg5
F-3.000000000002247
sg6
F-6.000000000001124
sb(dp850
I00
F0.0
sI01
F1.9200000000000004
ss(i__main__
State
p851
(dp852
g3
F-4.000000000001953
sg4
F7.0
sg5
F1.9999999999953197
sg6
F-1.0000000000030767
sb(dp853
I00
F51.059484
sI01
F-86.75999999999999
ss(i__main__
State
p854
(dp855
g3
F-8.000000000000535
sg4
F5.0
sg5
F-2.00000000000302
sg6
F-5.000000000001657
sb(dp856
I00
F-2.1358302689999995
sI01
F-76.8
ss(i__main__
State
p857
(dp858
g3
F1.9999999999957976
sg4
F3.0
sg5
F7.999999999992594
sg6
F4.999999999994674
sb(dp859
I00
F11.33757392
sI01
F2.3000000000000003
ss(i__main__
State
p860
(dp861
g3
F7.999999999993072
sg4
F3.0
sg5
F-4.000000000001952
sg6
F-7.00000000000083
sb(dp862
I00
F60.3714
sI01
F-21.66
ss(i__main__
State
p863
(dp864
g3
F-5.000000000001897
sg4
F0.0
sg5
F0.9999999999968103
sg6
F-2.0000000000030216
sb(dp865
I00
F-0.4081217999999993
sI01
F-43.62
ss(i__main__
State
p866
(dp867
g3
F-3.0000000000024865
sg4
F2.0
sg5
F2.9999999999950244
sg6
F-4.3283545334823e-12
sb(dp868
I00
F-36.3303012
sI01
F79.62
ss(i__main__
State
p869
(dp870
g3
F-7.00000000000083
sg4
F7.0
sg5
F-1.0000000000030762
sg6
F-4.000000000001952
sb(dp871
I00
F38.346000000000004
sI01
F-75.36
ss(i__main__
State
p872
(dp873
g3
F5.999999999993421
sg4
F5.0
sg5
F-6.0000000000011235
sg6
F8.999999999993255
sb(dp874
I00
F15.776197482728339
sI01
F27.54
ss(i__main__
State
p875
(dp876
g3
F3.9999999999940115
sg4
F7.0
sg5
F-8.000000000000295
sg6
F6.999999999993845
sb(dp877
I00
I-82
sI01
F23.44
ss(i__main__
State
p878
(dp879
g3
F-3.0000000000027263
sg4
F4.0
sg5
F2.999999999995503
sg6
F-3.849544088597133e-12
sb(dp880
I00
F54.726400000000005
sI01
F-58.76
ss(i__main__
State
p881
(dp882
g3
F-3.0000000000027254
sg4
F1.0
sg5
F2.999999999995263
sg6
F-3.1319510883035636e-12
sb(dp883
I00
F-6.0332746
sI01
F46.76
ss(i__main__
State
p884
(dp885
g3
F-4.3287163460253544e-12
sg4
F5.0
sg5
F5.999999999993901
sg6
F2.9999999999947855
sb(dp886
I00
I-76
sI01
F83.06
ss(i__main__
State
p887
(dp888
g3
F3.999999999995447
sg4
F6.0
sg5
F-8.000000000000295
sg6
F6.999999999992888
sb(dp889
I00
I-69
sI01
F-44.06
ss(i__main__
State
p890
(dp891
g3
F5.999999999993661
sg4
F5.0
sg5
F-6.000000000001363
sg6
F8.999999999991822
sb(dp892
I00
I1
sI01
F-39.86
ss(i__main__
State
p893
(dp894
g3
F-3.000000000002486
sg4
F1.0
sg5
F2.9999999999943068
sg6
F-4.567675233180839e-12
sb(dp895
I00
F-9.3212437262
sI01
F-80.42
ss(i__main__
State
p896
(dp897
g3
F-6.0000000000011235
sg4
F8.0
sg5
F-3.849982757012294e-12
sg6
F-3.0000000000029643
sb(dp898
I00
F35.2
sI01
F71.2
ss(i__main__
State
p899
(dp900
g3
F-2.000000000002303
sg4
F9.0
sg5
F3.9999999999944897
sg6
F0.9999999999956136
sb(dp901
I00
F2.9600000000000004
sI01
F2.9600000000000004
ss(i__main__
State
p902
(dp903
g3
F5.999999999993661
sg4
F6.0
sg5
F-6.0000000000011235
sg6
F8.999999999992538
sb(dp904
I00
F-57.326634
sI01
F-77.4
ss(i__main__
State
p905
(dp906
g3
F-4.000000000001953
sg4
F0.0
sg5
F1.9999999999953175
sg6
F-1.0000000000033156
sb(dp907
I00
F-81.96
sI01
F-27.06
ss(i__main__
State
p908
(dp909
g3
F-5.000000000001658
sg4
F4.0
sg5
F0.9999999999960931
sg6
F-2.000000000003021
sb(dp910
I00
I70
sI01
F28.6
ss(i__main__
State
p911
(dp912
g3
F-6.0000000000011235
sg4
F6.0
sg5
F-3.6106846779191652e-12
sg6
F-3.000000000002726
sb(dp913
I00
I2
sI01
F-49.86
ss(i__main__
State
p914
(dp915
g3
F-8.000000000000535
sg4
F8.0
sg5
F-2.0000000000030207
sg6
F-5.000000000001896
sb(dp916
I00
F-16.64
sI01
F5.5
ss(i__main__
State
p917
(dp918
g3
F3.999999999994728
sg4
F8.0
sg5
F-8.000000000000295
sg6
F6.999999999993606
sb(dp919
I00
F74.04282723700001
sI01
F-30.5
ss(i__main__
State
p920
(dp921
g3
F-2.0000000000027818
sg4
F1.0
sg5
F3.9999999999942513
sg6
F0.9999999999956141
sb(dp922
I00
F-43.6779858
sI01
F-60.42
ss(i__main__
State
p923
(dp924
g3
F-4.000000000002431
sg4
F4.0
sg5
F1.9999999999957985
sg6
F-1.0000000000030767
sb(dp925
I00
I92
sI01
F-24.84
ss(i__main__
State
p926
(dp927
g3
F8.999999999992296
sg4
F8.0
sg5
F-3.000000000002247
sg6
F-6.000000000001363
sb(dp928
I00
F92.25159022
sI01
F22.6
ss(i__main__
State
p929
(dp930
g3
F-4.00000000000267
sg4
F0.0
sg5
F1.9999999999955587
sg6
F-1.0000000000028373
sb(dp931
I00
I-54
sI01
F20.04
ss(i__main__
State
p932
(dp933
g3
F4.999999999994194
sg4
F2.0
sg5
F-7.00000000000083
sg6
F7.999999999993311
sb(dp934
I00
F-5.097039043999998
sI01
F9.94
ss(i__main__
State
p935
(dp936
g3
F-7.0000000000010685
sg4
F0.0
sg5
F-1.0000000000030762
sg6
F-4.000000000001953
sb(dp937
I00
F-62.019999999999996
sI01
F41.48
ss(i__main__
State
p938
(dp939
g3
F0.999999999995853
sg4
F1.0
sg5
F6.999999999993366
sg6
F3.9999999999942504
sb(dp940
I00
F-20.82
sI01
F-57.72
ss(i__main__
State
p941
(dp942
g3
F6.999999999992649
sg4
F2.0
sg5
F-5.000000000001896
sg6
F-8.000000000000295
sb(dp943
I00
F-8.278793999999996
sI01
F59.76
ss(i__main__
State
p944
(dp945
g3
F5.999999999994139
sg4
F4.0
sg5
F-6.0000000000011235
sg6
F8.999999999993255
sb(dp946
I00
I64
sI01
F-77.2
ss(i__main__
State
p947
(dp948
g3
F6.999999999992888
sg4
F9.0
sg5
F-5.000000000001897
sg6
F-8.000000000000535
sb(dp949
I00
F0.0
sI01
F1.4000000000000001
ss(i__main__
State
p950
(dp951
g3
F-8.000000000000295
sg4
F8.0
sg5
F-2.0000000000030207
sg6
F-5.000000000001418
sb(dp952
I00
F69.98107294060017
sI01
F-53.0
ss(i__main__
State
p953
(dp954
g3
F6.999999999992889
sg4
F2.0
sg5
F-5.000000000001418
sg6
F-8.000000000000535
sb(dp955
I00
I-89
sI01
F13.74
ss(i__main__
State
p956
(dp957
g3
F3.999999999994968
sg4
F3.0
sg5
F-8.000000000000295
sg6
F6.999999999993127
sb(dp958
I00
I83
sI01
F51.26
ss(i__main__
State
p959
(dp960
g3
F-7.00000000000059
sg4
F5.0
sg5
F-1.0000000000030767
sg6
F-4.000000000001953
sb(dp961
I00
I19
sI01
F-19.32
ss(i__main__
State
p962
(dp963
g3
F-3.849522398317423e-12
sg4
F3.0
sg5
F5.999999999994141
sg6
F2.999999999995503
sb(dp964
I00
I-76
sI01
F69.16
ss(i__main__
State
p965
(dp966
g3
F8.99999999999182
sg4
F0.0
sg5
F-3.0000000000027263
sg6
F-6.000000000001124
sb(dp967
I00
F-21.2
sI01
F-80.6
ss(i__main__
State
p968
(dp969
g3
F0.9999999999960923
sg4
F3.0
sg5
F6.999999999993607
sg6
F3.999999999994729
sb(dp970
I00
F46.174
sI01
F-49.64
ss(i__main__
State
p971
(dp972
g3
F1.9999999999953184
sg4
F7.0
sg5
F7.99999999999307
sg6
F4.999999999994435
sb(dp973
I00
F31.902116856919992
sI01
F-77.32
ss(i__main__
State
p974
(dp975
g3
F-2.0000000000027818
sg4
F0.0
sg5
F3.9999999999952074
sg6
F0.9999999999958532
sb(dp976
I00
F-13.5
sI01
F-45.0
ss(i__main__
State
p977
(dp978
g3
F-3.3717429910546177e-12
sg4
F1.0
sg5
F5.999999999993661
sg6
F2.999999999995263
sb(dp979
I00
F78.4
sI01
F-34.1
ss(i__main__
State
p980
(dp981
g3
F-5.000000000001658
sg4
F0.0
sg5
F0.9999999999953745
sg6
F-2.00000000000326
sb(dp982
I00
F-44.794073999999995
sI01
F-41.34
ss(i__main__
State
p983
(dp984
g3
F6.999999999993606
sg4
F6.0
sg5
F-5.000000000001897
sg6
F-8.000000000000295
sb(dp985
I00
I34
sI01
F34.62
ss(i__main__
State
p986
(dp987
g3
F-6.000000000001602
sg4
F8.0
sg5
F-4.567691503748818e-12
sg6
F-3.000000000002486
sb(dp988
I00
F-67.4
sI01
F75.7
ss(i__main__
State
p989
(dp990
g3
F-2.000000000002303
sg4
F4.0
sg5
F3.9999999999942513
sg6
F0.9999999999953749
sb(dp991
I00
I77
sI01
F27.36
ss(i__main__
State
p992
(dp993
g3
F6.9999999999926485
sg4
F0.0
sg5
F-5.000000000001658
sg6
F-8.000000000000535
sb(dp994
I00
I-43
sI01
F-11.54
ss(i__main__
State
p995
(dp996
g3
F-3.850492851238203e-12
sg4
F7.0
sg5
F5.999999999993182
sg6
F2.999999999995263
sb(dp997
I00
F1.37
sI01
F22.7
ss(i__main__
State
p998
(dp999
g3
F-4.088524667717837e-12
sg4
F4.0
sg5
F5.99999999999438
sg6
F2.9999999999947846
sb(dp1000
I00
F-5.04995614476
sI01
F-16.44
ss(i__main__
State
p1001
(dp1002
g3
F-5.000000000001657
sg4
F6.0
sg5
F0.9999999999956153
sg6
F-2.0000000000027818
sb(dp1003
I00
I-84
sI01
F-16.08
ss(i__main__
State
p1004
(dp1005
g3
F-7.000000000000829
sg4
F2.0
sg5
F-1.0000000000028373
sg6
F-4.000000000001713
sb(dp1006
I00
I46
sI01
F-17.06
ss(i__main__
State
p1007
(dp1008
g3
F-7.0000000000010685
sg4
F6.0
sg5
F-1.0000000000035558
sg6
F-4.000000000002431
sb(dp1009
I00
F25.893538786292595
sI01
F45.2
ss(i__main__
State
p1010
(dp1011
g3
F5.9999999999939
sg4
F0.0
sg5
F-6.000000000000885
sg6
F8.99999999999206
sb(dp1012
I00
F29.523236188038723
sI01
F-62.06
ss(i__main__
State
p1013
(dp1014
g3
F2.999999999995025
sg4
F7.0
sg5
F8.999999999992538
sg6
F5.999999999993423
sb(dp1015
I00
I-2
sI01
F-29.32
ss(i__main__
State
p1016
(dp1017
g3
F-6.0000000000011235
sg4
F8.0
sg5
F-3.3712545887939286e-12
sg6
F-3.000000000002486
sb(dp1018
I00
F-22.472
sI01
F79.3
ss(i__main__
State
p1019
(dp1020
g3
F-8.000000000000295
sg4
F1.0
sg5
F-2.00000000000302
sg6
F-5.000000000001657
sb(dp1021
I00
I-18
sI01
F-19.78
ss(i__main__
State
p1022
(dp1023
g3
F-5.000000000001419
sg4
F3.0
sg5
F0.9999999999956153
sg6
F-2.000000000003021
sb(dp1024
I00
I-19
sI01
F-15.379999999999999
ss(i__main__
State
p1025
(dp1026
g3
F-6.000000000001124
sg4
F4.0
sg5
F-3.6106738326748012e-12
sg6
F-3.0000000000024865
sb(dp1027
I00
F53.7249766
sI01
F72.04
ss(i__main__
State
p1028
(dp1029
g3
F6.999999999993367
sg4
F7.0
sg5
F-5.000000000001418
sg6
F-8.000000000000535
sb(dp1030
I00
I-94
sI01
F-82.84
ss(i__main__
State
p1031
(dp1032
g3
F-8.000000000000295
sg4
F9.0
sg5
F-2.0000000000027827
sg6
F-5.000000000001658
sb(dp1033
I00
F1.6720000000000002
sI01
F0.8800000000000001
ss(i__main__
State
p1034
(dp1035
g3
F-3.0000000000027254
sg4
F8.0
sg5
F2.9999999999945457
sg6
F-3.849554935673e-12
sb(dp1036
I00
F79.94750290984899
sI01
F29.8
ss(i__main__
State
p1037
(dp1038
g3
F3.9999999999944893
sg4
F2.0
sg5
F-8.000000000000535
sg6
F6.999999999993126
sb(dp1039
I00
F17.585653164769283
sI01
F-20.28
ss(i__main__
State
p1040
(dp1041
g3
F-1.0000000000033156
sg4
F7.0
sg5
F4.999999999993956
sg6
F1.9999999999957971
sb(dp1042
I00
F31.429097471011566
sI01
F-36.62
ss(i__main__
State
p1043
(dp1044
g3
F7.999999999993311
sg4
F9.0
sg5
F-4.000000000002191
sg6
F-7.00000000000059
sb(dp1045
I00
F0.0
sI01
F-0.4
ss(i__main__
State
p1046
(dp1047
g3
F-3.611079029983519e-12
sg4
F2.0
sg5
F5.999999999994141
sg6
F2.9999999999955027
sb(dp1048
I00
F30.838091311589803
sI01
F-73.58
ss(i__main__
State
p1049
(dp1050
g3
F3.9999999999949685
sg4
F3.0
sg5
F-8.000000000000535
sg6
F6.999999999992649
sb(dp1051
I00
I-90
sI01
F-1.9599999999999995
ss(i__main__
State
p1052
(dp1053
g3
F-6.000000000001363
sg4
F5.0
sg5
F-3.6115014264985283e-12
sg6
F-3.000000000002008
sb(dp1054
I00
I-73
sI01
F78.18
ss(i__main__
State
p1055
(dp1056
g3
F-5.000000000001657
sg4
F1.0
sg5
F0.9999999999965705
sg6
F-2.0000000000025424
sb(dp1057
I00
F-32.648378399999984
sI01
F50.04
ss(i__main__
State
p1058
(dp1059
g3
F2.9999999999950244
sg4
F0.0
sg5
F8.9999999999923
sg6
F5.999999999994141
sb(dp1060
I00
F29.30144
sI01
F-6.34
ss(i__main__
State
p1061
(dp1062
g3
F-2.000000000002304
sg4
F7.0
sg5
F3.999999999995208
sg6
F0.9999999999956148
sb(dp1063
I00
F45.94990144
sI01
F25.240000000000002
ss(i__main__
State
p1064
(dp1065
g3
F-1.000000000003555
sg4
F7.0
sg5
F4.999999999994435
sg6
F1.9999999999957976
sb(dp1066
I00
F43.38
sI01
F5.58
ss(i__main__
State
p1067
(dp1068
g3
F3.9999999999952074
sg4
F5.0
sg5
F-8.000000000000535
sg6
F6.999999999993367
sb(dp1069
I00
I-20
sI01
F-83.68
ss(i__main__
State
p1070
(dp1071
g3
F-3.850032493372572e-12
sg4
F7.0
sg5
F5.999999999993182
sg6
F2.9999999999947855
sb(dp1072
I00
F22.728536997600003
sI01
F82.56
ss(i__main__
State
p1073
(dp1074
g3
F7.999999999993071
sg4
F1.0
sg5
F-4.000000000002192
sg6
F-7.00000000000059
sb(dp1075
I00
F-22.439999999999998
sI01
F-69.24
ss(i__main__
State
p1076
(dp1077
g3
F-3.000000000002247
sg4
F5.0
sg5
F2.9999999999950244
sg6
F-3.6115068513228125e-12
sb(dp1078
I00
I-59
sI01
F14.02
ss(i__main__
State
p1079
(dp1080
g3
F-8.000000000000295
sg4
F6.0
sg5
F-2.0000000000030207
sg6
F-5.000000000001657
sb(dp1081
I00
F31.25238928687185
sI01
F59.74
ss(i__main__
State
p1082
(dp1083
g3
F-8.000000000000295
sg4
F6.0
sg5
F-2.0000000000025424
sg6
F-5.000000000001897
sb(dp1084
I00
F72.6
sI01
F-55.2
ss(i__main__
State
p1085
(dp1086
g3
F6.999999999993844
sg4
F6.0
sg5
F-5.0000000000011795
sg6
F-8.000000000000295
sb(dp1087
I00
I-100
sI01
F-72.4
ss(i__main__
State
p1088
(dp1089
g3
F0.9999999999953754
sg4
F7.0
sg5
F6.999999999993845
sg6
F3.999999999995687
sb(dp1090
I00
I-14
sI01
F62.36
ss(i__main__
State
p1091
(dp1092
g3
F2.9999999999945457
sg4
F6.0
sg5
F8.999999999992536
sg6
F5.99999999999414
sb(dp1093
I00
I-35
sI01
F36.88
ss(i__main__
State
p1094
(dp1095
g3
F2.999999999995264
sg4
F1.0
sg5
F8.999999999992536
sg6
F5.999999999993421
sb(dp1096
I00
F-20.21288
sI01
F24.88
ss(i__main__
State
p1097
(dp1098
g3
F2.999999999994785
sg4
F6.0
sg5
F8.999999999993975
sg6
F5.99999999999438
sb(dp1099
I00
F-3.997399999999999
sI01
F4.36
ss(i__main__
State
p1100
(dp1101
g3
F-1.0000000000037943
sg4
F1.0
sg5
F4.999999999994195
sg6
F1.9999999999960378
sb(dp1102
I00
F77.512
sI01
F24.88
ss(i__main__
State
p1103
(dp1104
g3
F-3.6111504595744442e-12
sg4
F2.0
sg5
F5.999999999993184
sg6
F2.9999999999945457
sb(dp1105
I00
I42
sI01
F-56.32
ss(i__main__
State
p1106
(dp1107
g3
F7.999999999992116
sg4
F3.0
sg5
F-4.000000000002191
sg6
F-7.000000000000829
sb(dp1108
I00
I54
sI01
F-71.02
ss(i__main__
State
p1109
(dp1110
g3
F-1.0000000000037934
sg4
F3.0
sg5
F4.9999999999946745
sg6
F1.9999999999950795
sb(dp1111
I00
I-90
sI01
F-49.0
ss(i__main__
State
p1112
(dp1113
g3
F-1.000000000003555
sg4
F6.0
sg5
F4.999999999994675
sg6
F1.9999999999953189
sb(dp1114
I00
I33
sI01
F-43.74
ss(i__main__
State
p1115
(dp1116
g3
F7.999999999994268
sg4
F7.0
sg5
F-4.000000000002431
sg6
F-7.000000000000829
sb(dp1117
I00
F78.7156
sI01
F-22.34
ss(i__main__
State
p1118
(dp1119
g3
F8.999999999992777
sg4
F9.0
sg5
F-3.000000000002726
sg6
F-6.0000000000011235
sb(dp1120
I00
F-5.928000000000001
sI01
F-3.1200000000000006
ss(i__main__
State
p1121
(dp1122
g3
F-7.0000000000010685
sg4
F0.0
sg5
F-1.0000000000035545
sg6
F-4.000000000001952
sb(dp1123
I00
F28.301212
sI01
F10.72
ss(i__main__
State
p1124
(dp1125
g3
F-6.000000000001124
sg4
F3.0
sg5
F-3.1328274912356727e-12
sg6
F-3.000000000002726
sb(dp1126
I00
I-31
sI01
F77.68
ss(i__main__
State
p1127
(dp1128
g3
F1.9999999999953184
sg4
F1.0
sg5
F7.999999999993309
sg6
F4.999999999994913
sb(dp1129
I00
I-15
sI01
F33.32
ss(i__main__
State
p1130
(dp1131
g3
F7.999999999993071
sg4
F7.0
sg5
F-4.000000000001713
sg6
F-7.00000000000059
sb(dp1132
I00
F3.148749564600005
sI01
F-82.14
ss(i__main__
State
p1133
(dp1134
g3
F-7.00000000000083
sg4
F7.0
sg5
F-1.0000000000035554
sg6
F-4.000000000001953
sb(dp1135
I00
I-89
sI01
F-34.86
ss(i__main__
State
p1136
(dp1137
g3
F8.99999999999182
sg4
F0.0
sg5
F-3.000000000002247
sg6
F-6.000000000001124
sb(dp1138
I00
F6.38098
sI01
F-42.68
ss(i__main__
State
p1139
(dp1140
g3
F3.99999999999449
sg4
F7.0
sg5
F-8.000000000000535
sg6
F6.999999999994085
sb(dp1141
I00
I64
sI01
F-46.98
ss(i__main__
State
p1142
(dp1143
g3
F2.999999999995503
sg4
F9.0
sg5
F8.999999999992058
sg6
F5.999999999993661
sb(dp1144
I00
F1.4000000000000001
sI01
F1.4000000000000001
ss(i__main__
State
p1145
(dp1146
g3
F-1.000000000003316
sg4
F5.0
sg5
F4.999999999993956
sg6
F1.999999999995559
sb(dp1147
I00
F56.022000000000006
sI01
F-70.32
ss(i__main__
State
p1148
(dp1149
g3
F1.9999999999948403
sg4
F5.0
sg5
F7.9999999999928315
sg6
F4.999999999994435
sb(dp1150
I00
I-72
sI01
F9.7
ss(i__main__
State
p1151
(dp1152
g3
F-6.0000000000011235
sg4
F1.0
sg5
F-3.1323897536662854e-12
sg6
F-3.000000000002008
sb(dp1153
I00
F57.702237489999995
sI01
F8.2
ss(i__main__
State
p1154
(dp1155
g3
F-4.000000000002192
sg4
F2.0
sg5
F1.99999999999508
sg6
F-1.0000000000033151
sb(dp1156
I00
I-64
sI01
F-33.44
ss(i__main__
State
p1157
(dp1158
g3
F-3.850854665946973e-12
sg4
F2.0
sg5
F5.9999999999939
sg6
F2.999999999994545
sb(dp1159
I00
I22
sI01
F-29.58
ss(i__main__
State
p1160
(dp1161
g3
F-3.0000000000024865
sg4
F2.0
sg5
F2.9999999999957416
sg6
F-3.3717321467364646e-12
sb(dp1162
I00
F11.356564950084268
sI01
F53.379999999999995
ss(i__main__
State
p1163
(dp1164
g3
F-2.000000000002782
sg4
F9.0
sg5
F3.99999999999425
sg6
F0.9999999999951349
sb(dp1165
I00
F20.860157878864
sI01
F3.0400000000000005
ss(i__main__
State
p1166
(dp1167
g3
F2.999999999994786
sg4
F3.0
sg5
F8.999999999992777
sg6
F5.999999999993662
sb(dp1168
I00
I-71
sI01
F23.4
ss(i__main__
State
p1169
(dp1170
g3
F-7.000000000000829
sg4
F4.0
sg5
F-1.0000000000035554
sg6
F-4.000000000001952
sb(dp1171
I00
F19.113799999999998
sI01
F23.18
ss(i__main__
State
p1172
(dp1173
g3
F-8.000000000000295
sg4
F6.0
sg5
F-2.000000000002782
sg6
F-5.000000000001897
sb(dp1174
I00
F75.32
sI01
F79.82
ss(i__main__
State
p1175
(dp1176
g3
F-5.0000000000011795
sg4
F3.0
sg5
F0.9999999999960929
sg6
F-2.000000000002543
sb(dp1177
I00
I-53
sI01
F51.48
ss(i__main__
State
p1178
(dp1179
g3
F-2.0000000000030207
sg4
F3.0
sg5
F3.9999999999942517
sg6
F0.9999999999960923
sb(dp1180
I00
F20.7403915
sI01
F-32.9
ss(i__main__
State
p1181
(dp1182
g3
F-5.000000000001418
sg4
F9.0
sg5
F0.9999999999960921
sg6
F-2.0000000000030207
sb(dp1183
I00
F7.448
sI01
F3.9200000000000004
ss(i__main__
State
p1184
(dp1185
g3
F6.999999999993844
sg4
F6.0
sg5
F-5.000000000001897
sg6
F-8.000000000000535
sb(dp1186
I00
I-7
sI01
F-10.52
ss(i__main__
State
p1187
(dp1188
g3
F-3.0000000000024865
sg4
F4.0
sg5
F2.999999999994306
sg6
F-4.088947064962471e-12
sb(dp1189
I00
I-86
sI01
F-5.220000000000001
ss(i__main__
State
p1190
(dp1191
g3
F-2.000000000003021
sg4
F4.0
sg5
F3.9999999999944897
sg6
F0.9999999999953751
sb(dp1192
I00
F-33.44
sI01
F72.76
ss(i__main__
State
p1193
(dp1194
g3
F7.999999999993551
sg4
F2.0
sg5
F-4.000000000002191
sg6
F-7.0000000000010685
sb(dp1195
I00
F66.35
sI01
F-63.7
ss(i__main__
State
p1196
(dp1197
g3
F1.9999999999946012
sg4
F3.0
sg5
F7.99999999999403
sg6
F4.999999999993238
sb(dp1198
I00
I23
sI01
F-45.44
ss(i__main__
State
p1199
(dp1200
g3
F8.999999999993017
sg4
F0.0
sg5
F-3.000000000002248
sg6
F-6.0000000000011235
sb(dp1201
I00
I-33
sI01
F7.5
ss(i__main__
State
p1202
(dp1203
g3
F-8.000000000000535
sg4
F7.0
sg5
F-2.0000000000023035
sg6
F-5.000000000001658
sb(dp1204
I00
I-63
sI01
F-42.56
ss(i__main__
State
p1205
(dp1206
g3
F-6.000000000001363
sg4
F8.0
sg5
F-3.850465736880316e-12
sg6
F-3.0000000000024873
sb(dp1207
I00
F96.76
sI01
F8.200000000000001
ss(i__main__
State
p1208
(dp1209
g3
F5.999999999994378
sg4
F0.0
sg5
F-6.000000000001363
sg6
F8.999999999993255
sb(dp1210
I00
I26
sI01
F72.62
ss(i__main__
State
p1211
(dp1212
g3
F-7.00000000000083
sg4
F5.0
sg5
F-1.0000000000030767
sg6
F-4.00000000000267
sb(dp1213
I00
I35
sI01
F-74.7
ss(i__main__
State
p1214
(dp1215
g3
F-6.000000000000885
sg4
F1.0
sg5
F-4.3291604352352045e-12
sg6
F-3.0000000000022484
sb(dp1216
I00
I-39
sI01
F78.86
ss(i__main__
State
p1217
(dp1218
g3
F6.999999999993127
sg4
F0.0
sg5
F-5.000000000001658
sg6
F-8.000000000000535
sb(dp1219
I00
F15.69941111602967
sI01
F73.58
ss(i__main__
State
p1220
(dp1221
g3
F2.9999999999947864
sg4
F5.0
sg5
F8.999999999992776
sg6
F5.999999999993183
sb(dp1222
I00
I29
sI01
F79.9
ss(i__main__
State
p1223
(dp1224
g3
F-4.000000000001714
sg4
F5.0
sg5
F1.999999999996037
sg6
F-1.000000000003555
sb(dp1225
I00
I-19
sI01
F43.76
ss(i__main__
State
p1226
(dp1227
g3
F-2.000000000002064
sg4
F2.0
sg5
F3.999999999994968
sg6
F0.9999999999956151
sb(dp1228
I00
F-2.5840000000000005
sI01
F76.03999999999999
ss(i__main__
State
p1229
(dp1230
g3
F5.999999999993901
sg4
F8.0
sg5
F-6.000000000000885
sg6
F8.999999999993015
sb(dp1231
I00
F83.8
sI01
F28.0
ss(i__main__
State
p1232
(dp1233
g3
F-1.0000000000030767
sg4
F0.0
sg5
F4.999999999994435
sg6
F1.9999999999955582
sb(dp1234
I00
I17
sI01
F-78.38
ss(i__main__
State
p1235
(dp1236
g3
F-2.0000000000030207
sg4
F5.0
sg5
F3.999999999994251
sg6
F0.9999999999958537
sb(dp1237
I00
I83
sI01
F-3.9
ss(i__main__
State
p1238
(dp1239
g3
F8.999999999993015
sg4
F6.0
sg5
F-3.000000000002248
sg6
F-6.0000000000011235
sb(dp1240
I00
I-29
sI01
F-28.32
ss(i__main__
State
p1241
(dp1242
g3
F-7.00000000000083
sg4
F1.0
sg5
F-1.0000000000035545
sg6
F-4.000000000002192
sb(dp1243
I00
I-44
sI01
F-25.72
ss(i__main__
State
p1244
(dp1245
g3
F-3.6106846779191652e-12
sg4
F8.0
sg5
F5.999999999993661
sg6
F2.999999999995263
sb(dp1246
I00
F98.70859837
sI01
F6.4
ss(i__main__
State
p1247
(dp1248
g3
F-6.000000000000885
sg4
F2.0
sg5
F-3.849083732086466e-12
sg6
F-3.000000000002486
sb(dp1249
I00
F-16.835775398000003
sI01
F59.68
ss(i__main__
State
p1250
(dp1251
g3
F-5.000000000001418
sg4
F5.0
sg5
F0.9999999999960935
sg6
F-2.0000000000027813
sb(dp1252
I00
F-18.2738
sI01
F67.12
ss(i__main__
State
p1253
(dp1254
g3
F0.9999999999953747
sg4
F5.0
sg5
F6.999999999993367
sg6
F3.9999999999954476
sb(dp1255
I00
F-43.345060000000004
sI01
F5.96
ss(i__main__
State
p1256
(dp1257
g3
F6.999999999993126
sg4
F6.0
sg5
F-5.000000000001657
sg6
F-8.000000000000535
sb(dp1258
I00
I46
sI01
F28.0
ss(i__main__
State
p1259
(dp1260
g3
F-1.0000000000028377
sg4
F2.0
sg5
F4.999999999993954
sg6
F1.9999999999955582
sb(dp1261
I00
F-74.8
sI01
F16.1
ss(i__main__
State
p1262
(dp1263
g3
F7.999999999993072
sg4
F7.0
sg5
F-4.000000000002192
sg6
F-7.000000000000829
sb(dp1264
I00
I43
sI01
F30.88
ss(i__main__
State
p1265
(dp1266
g3
F-3.610679256521929e-12
sg4
F6.0
sg5
F5.999999999993901
sg6
F2.999999999995264
sb(dp1267
I00
I31
sI01
F-40.24
ss(i__main__
State
p1268
(dp1269
g3
F2.9999999999947855
sg4
F1.0
sg5
F8.999999999992298
sg6
F5.999999999993182
sb(dp1270
I00
I-78
sI01
F-69.66
ss(i__main__
State
p1271
(dp1272
g3
F2.9999999999947846
sg4
F8.0
sg5
F8.99999999999254
sg6
F5.999999999993661
sb(dp1273
I00
F84.691
sI01
F18.1
ss(i__main__
State
p1274
(dp1275
g3
F-1.0000000000033156
sg4
F2.0
sg5
F4.999999999994913
sg6
F1.9999999999955578
sb(dp1276
I00
F-13.900388038583484
sI01
F58.019999999999996
ss(i__main__
State
p1277
(dp1278
g3
F3.9999999999949694
sg4
F5.0
sg5
F-8.000000000000295
sg6
F6.999999999994083
sb(dp1279
I00
F36.055845716
sI01
F56.84
ss(i__main__
State
p1280
(dp1281
g3
F7.9999999999925935
sg4
F4.0
sg5
F-4.000000000001713
sg6
F-7.00000000000083
sb(dp1282
I00
I33
sI01
F-46.58
ss(i__main__
State
p1283
(dp1284
g3
F-4.000000000001713
sg4
F1.0
sg5
F1.9999999999957976
sg6
F-1.0000000000037947
sb(dp1285
I00
I-41
sI01
F24.2
ss(i__main__
State
p1286
(dp1287
g3
F8.999999999993495
sg4
F5.0
sg5
F-3.000000000002008
sg6
F-6.000000000000885
sb(dp1288
I00
I22
sI01
F17.58
ss(i__main__
State
p1289
(dp1290
g3
F-6.000000000001124
sg4
F2.0
sg5
F-4.088891905405504e-12
sg6
F-3.0000000000027263
sb(dp1291
I00
F7.724632675999995
sI01
F68.54
ss(i__main__
State
p1292
(dp1293
g3
F7.999999999992832
sg4
F1.0
sg5
F-4.000000000001713
sg6
F-7.0000000000010685
sb(dp1294
I00
I2
sI01
F31.64
ss(i__main__
State
p1295
(dp1296
g3
F8.999999999992538
sg4
F9.0
sg5
F-3.000000000002487
sg6
F-6.000000000001363
sb(dp1297
I00
F0.0
sI01
F3.3600000000000003
ss(i__main__
State
p1298
(dp1299
g3
F-3.0000000000024865
sg4
F4.0
sg5
F2.9999999999940665
sg6
F-3.372658287578515e-12
sb(dp1300
I00
F-79.44
sI01
F45.66
ss(i__main__
State
p1301
(dp1302
g3
F-8.000000000000535
sg4
F3.0
sg5
F-2.0000000000025424
sg6
F-5.000000000002136
sb(dp1303
I00
I36
sI01
F2.24
ss(i__main__
State
p1304
(dp1305
g3
F3.999999999994969
sg4
F5.0
sg5
F-8.000000000000535
sg6
F6.999999999992888
sb(dp1306
I00
F74.04
sI01
F6.54
ss(i__main__
State
p1307
(dp1308
g3
F-4.000000000002192
sg4
F1.0
sg5
F1.999999999995319
sg6
F-1.0000000000033151
sb(dp1309
I00
I-7
sI01
F83.04
ss(i__main__
State
p1310
(dp1311
g3
F-6.0000000000011235
sg4
F2.0
sg5
F-3.133294203469331e-12
sg6
F-3.0000000000017693
sb(dp1312
I00
F26.151999999999997
sI01
F-63.019999999999996
ss(i__main__
State
p1313
(dp1314
g3
F5.99999999999366
sg4
F5.0
sg5
F-6.0000000000013625
sg6
F8.9999999999923
sb(dp1315
I00
I-79
sI01
F-2.6599999999999997
ss(i__main__
State
p1316
(dp1317
g3
F-7.00000000000083
sg4
F9.0
sg5
F-1.0000000000033156
sg6
F-4.000000000002191
sb(dp1318
I00
F-1.310432
sI01
F-0.32000000000000006
ss(i__main__
State
p1319
(dp1320
g3
F-6.0000000000011235
sg4
F9.0
sg5
F-3.3716824085187573e-12
sg6
F-3.000000000002008
sb(dp1321
I00
F0.0
sI01
F0.6000000000000001
ss(i__main__
State
p1322
(dp1323
g3
F5.999999999993422
sg4
F9.0
sg5
F-6.0000000000013625
sg6
F8.999999999993015
sb(dp1324
I00
F0.0
sI01
F2.4000000000000004
ss(i__main__
State
p1325
(dp1326
g3
F5.9999999999948574
sg4
F0.0
sg5
F-6.000000000001602
sg6
F8.999999999992538
sb(dp1327
I00
I78
sI01
F2.1
ss(i__main__
State
p1328
(dp1329
g3
F0.9999999999960917
sg4
F7.0
sg5
F6.9999999999943245
sg6
F3.9999999999949694
sb(dp1330
I00
F19.76
sI01
F34.16
ss(i__main__
State
p1331
(dp1332
g3
F5.99999999999414
sg4
F5.0
sg5
F-6.000000000001602
sg6
F8.999999999993495
sb(dp1333
I00
F-43.546600283800004
sI01
F-82.48
ss(i__main__
State
p1334
(dp1335
g3
F6.999999999993606
sg4
F8.0
sg5
F-5.0000000000011795
sg6
F-8.000000000000295
sb(dp1336
I00
F10.717912000000002
sI01
F-71.9
ss(i__main__
State
p1337
(dp1338
g3
F1.9999999999960367
sg4
F4.0
sg5
F7.999999999993071
sg6
F4.999999999993478
sb(dp1339
I00
I-7
sI01
F35.4
ss(i__main__
State
p1340
(dp1341
g3
F-1.000000000003316
sg4
F3.0
sg5
F4.999999999994674
sg6
F1.9999999999950797
sb(dp1342
I00
I94
sI01
F-66.96
ss(i__main__
State
p1343
(dp1344
g3
F-6.0000000000011235
sg4
F1.0
sg5
F-3.610613248078828e-12
sg6
F-3.000000000002008
sb(dp1345
I00
F25.486910990926006
sI01
F24.46
ss(i__main__
State
p1346
(dp1347
g3
F8.999999999992538
sg4
F6.0
sg5
F-3.000000000002247
sg6
F-6.0000000000011235
sb(dp1348
I00
F81.636
sI01
F-0.6599999999999997
ss(i__main__
State
p1349
(dp1350
g3
F6.999999999993126
sg4
F6.0
sg5
F-5.000000000001657
sg6
F-8.000000000000295
sb(dp1351
I00
F34.412217778
sI01
F60.22
ss(i__main__
State
p1352
(dp1353
g3
F-7.000000000000829
sg4
F6.0
sg5
F-1.0000000000033165
sg6
F-4.000000000001953
sb(dp1354
I00
F39.4535261273
sI01
F-73.3
ss(i__main__
State
p1355
(dp1356
g3
F2.9999999999950244
sg4
F6.0
sg5
F8.99999999999182
sg6
F5.999999999993184
sb(dp1357
I00
F-62.6
sI01
F-47.3
ss(i__main__
State
p1358
(dp1359
g3
F6.999999999992888
sg4
F5.0
sg5
F-5.000000000001419
sg6
F-8.000000000000535
sb(dp1360
I00
I4
sI01
F-66.42
ss(i__main__
State
p1361
(dp1362
g3
F-8.000000000000295
sg4
F2.0
sg5
F-2.000000000002782
sg6
F-5.000000000001897
sb(dp1363
I00
F-15.06088511536554
sI01
F-65.34
ss(i__main__
State
p1364
(dp1365
g3
F-3.6111287671290153e-12
sg4
F2.0
sg5
F5.999999999993423
sg6
F2.9999999999952633
sb(dp1366
I00
I-44
sI01
F17.06
ss(i__main__
State
p1367
(dp1368
g3
F-7.000000000000829
sg4
F1.0
sg5
F-1.0000000000030762
sg6
F-4.000000000002431
sb(dp1369
I00
F34.13227523196021
sI01
F-80.16
ss(i__main__
State
p1370
(dp1371
g3
F-8.000000000000295
sg4
F5.0
sg5
F-2.000000000003259
sg6
F-5.000000000001658
sb(dp1372
I00
F63.019999999999996
sI01
F80.12
ss(i__main__
State
p1373
(dp1374
g3
F3.99999999999425
sg4
F9.0
sg5
F-8.000000000000535
sg6
F6.999999999993367
sb(dp1375
I00
F0.0
sI01
F0.32000000000000006
ss(i__main__
State
p1376
(dp1377
g3
F-6.000000000001363
sg4
F8.0
sg5
F-3.6106738326748012e-12
sg6
F-3.000000000002726
sb(dp1378
I00
F79.15352287541678
sI01
F-1.6999999999999993
ss(i__main__
State
p1379
(dp1380
g3
F-6.000000000001602
sg4
F1.0
sg5
F-4.328700078724538e-12
sg6
F-3.000000000002008
sb(dp1381
I00
F38.99709374876
sI01
F35.54
ss(i__main__
State
p1382
(dp1383
g3
F3.999999999995208
sg4
F8.0
sg5
F-8.000000000000535
sg6
F6.999999999993127
sb(dp1384
I00
F68.4324046
sI01
F-2.5999999999999996
ss(i__main__
State
p1385
(dp1386
g3
F-5.000000000001896
sg4
F0.0
sg5
F0.9999999999956146
sg6
F-2.0000000000027813
sb(dp1387
I00
I-54
sI01
F-77.36
ss(i__main__
State
p1388
(dp1389
g3
F-2.000000000003021
sg4
F1.0
sg5
F3.9999999999944906
sg6
F0.9999999999963317
sb(dp1390
I00
F61.06
sI01
F-45.14
ss(i__main__
State
p1391
(dp1392
g3
F-6.000000000001124
sg4
F8.0
sg5
F-3.8500433406311164e-12
sg6
F-3.0000000000024865
sb(dp1393
I00
F78.99910452634582
sI01
F81.1
ss(i__main__
State
p1394
(dp1395
g3
F6.999999999992888
sg4
F8.0
sg5
F-5.000000000001658
sg6
F-8.000000000000535
sb(dp1396
I00
F-23.119999999999997
sI01
F9.100000000000001
ss(i__main__
State
p1397
(dp1398
g3
F-8.000000000000535
sg4
F7.0
sg5
F-2.000000000002064
sg6
F-5.000000000001418
sb(dp1399
I00
F38.740440245647655
sI01
F21.02
ss(i__main__
State
p1400
(dp1401
g3
F3.9999999999952074
sg4
F2.0
sg5
F-8.000000000000535
sg6
F6.999999999993844
sb(dp1402
I00
I68
sI01
F63.6
ss(i__main__
State
p1403
(dp1404
g3
F-6.000000000001363
sg4
F3.0
sg5
F-3.3713314397275836e-12
sg6
F-3.0000000000027263
sb(dp1405
I00
F23.738053565640765
sI01
F91.9
ss(i__main__
State
p1406
(dp1407
g3
F5.9999999999946185
sg4
F2.0
sg5
F-6.000000000001124
sg6
F8.999999999993495
sb(dp1408
I00
F-32.16
sI01
F-69.06
ss(i__main__
State
p1409
(dp1410
g3
F5.9999999999948574
sg4
F8.0
sg5
F-6.0000000000011235
sg6
F8.999999999992058
sb(dp1411
I00
F44.11
sI01
F72.1
ss(i__main__
State
p1412
(dp1413
g3
F-3.000000000003204
sg4
F1.0
sg5
F2.999999999995264
sg6
F-3.3717095230059787e-12
sb(dp1414
I00
F-73.832
sI01
F89.32
ss(i__main__
State
p1415
(dp1416
g3
F-1.0000000000030767
sg4
F3.0
sg5
F4.999999999995152
sg6
F1.9999999999955582
sb(dp1417
I00
I-67
sI01
F48.32
ss(i__main__
State
p1418
(dp1419
g3
F-4.000000000001953
sg4
F6.0
sg5
F1.9999999999955582
sg6
F-1.0000000000037939
sb(dp1420
I00
I-42
sI01
F-0.9200000000000002
ss(i__main__
State
p1421
(dp1422
g3
F-6.000000000000885
sg4
F7.0
sg5
F-3.371309748565619e-12
sg6
F-3.000000000002008
sb(dp1423
I00
I-44
sI01
F37.3
ss(i__main__
State
p1424
(dp1425
g3
F-8.000000000000295
sg4
F0.0
sg5
F-2.0000000000025433
sg6
F-5.0000000000011795
sb(dp1426
I00
I-85
sI01
F-38.84
ss(i__main__
State
p1427
(dp1428
g3
F-2.000000000002542
sg4
F0.0
sg5
F3.9999999999940115
sg6
F0.9999999999953758
sb(dp1429
I00
F78.07
sI01
F-50.9
ss(i__main__
State
p1430
(dp1431
g3
F5.9999999999939
sg4
F0.0
sg5
F-6.0000000000013625
sg6
F8.999999999991582
sb(dp1432
I00
F-12.4608
sI01
F87.72
ss(i__main__
State
p1433
(dp1434
g3
F-7.00000000000083
sg4
F7.0
sg5
F-1.0000000000033156
sg6
F-4.000000000002431
sb(dp1435
I00
F-2.3200000000000003
sI01
F-87.82
ss(i__main__
State
p1436
(dp1437
g3
F-5.000000000001418
sg4
F6.0
sg5
F0.999999999996093
sg6
F-2.000000000003021
sb(dp1438
I00
F49.18598
sI01
F46.52
ss(i__main__
State
p1439
(dp1440
g3
F1.9999999999957978
sg4
F3.0
sg5
F7.999999999993072
sg6
F4.999999999993478
sb(dp1441
I00
I93
sI01
F71.02
ss(i__main__
State
p1442
(dp1443
g3
F-7.00000000000059
sg4
F6.0
sg5
F-1.0000000000028373
sg6
F-4.000000000001953
sb(dp1444
I00
F13.112480743200004
sI01
F-84.78
ss(i__main__
State
p1445
(dp1446
g3
F-2.0000000000027818
sg4
F4.0
sg5
F3.999999999994251
sg6
F0.9999999999965711
sb(dp1447
I00
F54.496
sI01
F42.04
ss(i__main__
State
p1448
(dp1449
g3
F-2.0000000000027813
sg4
F3.0
sg5
F3.9999999999942513
sg6
F0.9999999999956147
sb(dp1450
I00
I37
sI01
F-66.52
ss(i__main__
State
p1451
(dp1452
g3
F8.99999999999182
sg4
F2.0
sg5
F-3.000000000002248
sg6
F-6.000000000001363
sb(dp1453
I00
I-5
sI01
F-72.56
ss(i__main__
State
p1454
(dp1455
g3
F-3.0000000000022475
sg4
F9.0
sg5
F2.999999999995024
sg6
F-3.611079029983519e-12
sb(dp1456
I00
F5.244378113062653
sI01
F0.6800000000000002
ss(i__main__
State
p1457
(dp1458
g3
F-5.000000000001418
sg4
F9.0
sg5
F0.9999999999960929
sg6
F-2.0000000000030203
sb(dp1459
I00
F0.0
sI01
F0.36000000000000004
ss(i__main__
State
p1460
(dp1461
g3
F7.999999999993072
sg4
F4.0
sg5
F-4.000000000002431
sg6
F-7.00000000000083
sb(dp1462
I00
F18.528996199999998
sI01
F73.58
ss(i__main__
State
p1463
(dp1464
g3
F-7.000000000000829
sg4
F3.0
sg5
F-1.0000000000035554
sg6
F-4.000000000002191
sb(dp1465
I00
I-55
sI01
F-15.28
ss(i__main__
State
p1466
(dp1467
g3
F2.9999999999952642
sg4
F8.0
sg5
F8.999999999993255
sg6
F5.999999999993183
sb(dp1468
I00
F21.224500570000004
sI01
F-35.0
ss(i__main__
State
p1469
(dp1470
g3
F4.999999999994197
sg4
F8.0
sg5
F-7.00000000000059
sg6
F7.99999999999331
sb(dp1471
I00
F13.394800000000004
sI01
F-62.9
ss(i__main__
State
p1472
(dp1473
g3
F7.9999999999928315
sg4
F7.0
sg5
F-4.000000000001952
sg6
F-7.00000000000083
sb(dp1474
I00
I-65
sI01
F-84.1
ss(i__main__
State
p1475
(dp1476
g3
F-3.000000000002487
sg4
F1.0
sg5
F2.9999999999952642
sg6
F-3.850492851238203e-12
sb(dp1477
I00
F-62.392
sI01
F33.62
ss(i__main__
State
p1478
(dp1479
g3
F-1.000000000002598
sg4
F4.0
sg5
F4.999999999994674
sg6
F1.9999999999948406
sb(dp1480
I00
F42.76040582
sI01
F57.62
ss(i__main__
State
p1481
(dp1482
g3
F8.999999999993495
sg4
F0.0
sg5
F-3.000000000002008
sg6
F-6.000000000001124
sb(dp1483
I00
I77
sI01
F-37.34
ss(i__main__
State
p1484
(dp1485
g3
F5.999999999994138
sg4
F4.0
sg5
F-6.0000000000011235
sg6
F8.99999999999134
sb(dp1486
I00
F35.96
sI01
F-52.24
ss(i__main__
State
p1487
(dp1488
g3
F1.9999999999953204
sg4
F5.0
sg5
F7.999999999993073
sg6
F4.9999999999946745
sb(dp1489
I00
I-42
sI01
F-15.3
ss(i__main__
State
p1490
(dp1491
g3
F-3.000000000002726
sg4
F1.0
sg5
F2.9999999999957416
sg6
F-3.6115620110945014e-12
sb(dp1492
I00
I-62
sI01
F54.8
ss(i__main__
State
p1493
(dp1494
g3
F0.9999999999956136
sg4
F8.0
sg5
F6.9999999999928875
sg6
F3.9999999999947287
sb(dp1495
I00
F55.0
sI01
F37.9
ss(i__main__
State
p1496
(dp1497
g3
F-3.849610098957484e-12
sg4
F0.0
sg5
F5.9999999999939
sg6
F2.999999999995024
sb(dp1498
I00
I98
sI01
F7.0200000000000005
ss(i__main__
State
p1499
(dp1500
g3
F-1.0000000000037947
sg4
F2.0
sg5
F4.999999999995152
sg6
F1.9999999999953202
sb(dp1501
I00
F47.04
sI01
F80.34
ss(i__main__
State
p1502
(dp1503
g3
F6.999999999992888
sg4
F2.0
sg5
F-5.000000000001896
sg6
F-8.000000000000535
sb(dp1504
I00
I6
sI01
F63.86
ss(i__main__
State
p1505
(dp1506
g3
F-5.000000000001418
sg4
F9.0
sg5
F0.9999999999956141
sg6
F-2.0000000000034985
sb(dp1507
I00
F9.430800000000001
sI01
F3.4800000000000004
ss(i__main__
State
p1508
(dp1509
g3
F4.9999999999946745
sg4
F4.0
sg5
F-7.000000000000829
sg6
F7.999999999992115
sb(dp1510
I00
F55.18
sI01
F79.48
ss(i__main__
State
p1511
(dp1512
g3
F2.9999999999943063
sg4
F5.0
sg5
F8.999999999993255
sg6
F5.999999999994139
sb(dp1513
I00
F69.54
sI01
F59.64
ss(i__main__
State
p1514
(dp1515
g3
F-4.000000000002191
sg4
F7.0
sg5
F1.9999999999948406
sg6
F-1.0000000000033151
sb(dp1516
I00
F41.66
sI01
F70.46
ss(i__main__
State
p1517
(dp1518
g3
F5.999999999992943
sg4
F7.0
sg5
F-6.000000000001124
sg6
F8.999999999992777
sb(dp1519
I00
F-85.96
sI01
F28.34
ss(i__main__
State
p1520
(dp1521
g3
F6.999999999993605
sg4
F6.0
sg5
F-5.000000000001418
sg6
F-8.000000000000535
sb(dp1522
I00
I-56
sI01
F-70.22
ss(i__main__
State
p1523
(dp1524
g3
F-1.0000000000028382
sg4
F8.0
sg5
F4.9999999999949125
sg6
F1.99999999999532
sb(dp1525
I00
F71.302186
sI01
F19.9
ss(i__main__
State
p1526
(dp1527
g3
F4.999999999993716
sg4
F4.0
sg5
F-7.0000000000010685
sg6
F7.999999999992355
sb(dp1528
I00
I-82
sI01
F57.08
ss(i__main__
State
p1529
(dp1530
g3
F-3.000000000002009
sg4
F6.0
sg5
F2.999999999995742
sg6
F-4.089330571636461e-12
sb(dp1531
I00
I-62
sI01
F15.64
ss(i__main__
State
p1532
(dp1533
g3
F-7.00000000000083
sg4
F2.0
sg5
F-1.0000000000030762
sg6
F-4.000000000002192
sb(dp1534
I00
I-85
sI01
F3.9600000000000004
ss(i__main__
State
p1535
(dp1536
g3
F0.9999999999963324
sg4
F9.0
sg5
F6.9999999999924105
sg6
F3.9999999999947304
sb(dp1537
I00
F10.84
sI01
F4.0
ss(i__main__
State
p1538
(dp1539
g3
F-4.000000000002192
sg4
F0.0
sg5
F1.9999999999955589
sg6
F-1.0000000000035554
sb(dp1540
I00
I-28
sI01
F59.9
ss(i__main__
State
p1541
(dp1542
g3
F-4.000000000002431
sg4
F1.0
sg5
F1.9999999999962763
sg6
F-1.0000000000030767
sb(dp1543
I00
I59
sI01
F-37.44
ss(i__main__
State
p1544
(dp1545
g3
F4.999999999994435
sg4
F1.0
sg5
F-7.000000000000829
sg6
F7.9999999999928315
sb(dp1546
I00
F25.201988880000002
sI01
F-86.52
ss(i__main__
State
p1547
(dp1548
g3
F1.9999999999953193
sg4
F8.0
sg5
F7.999999999993072
sg6
F4.9999999999946745
sb(dp1549
I00
F-42.2
sI01
F64.0
ss(i__main__
State
p1550
(dp1551
g3
F1.99999999999532
sg4
F2.0
sg5
F7.999999999993071
sg6
F4.999999999994196
sb(dp1552
I00
F-89.12
sI01
F-3.62
ss(i__main__
State
p1553
(dp1554
g3
F-2.0000000000030207
sg4
F5.0
sg5
F3.9999999999937716
sg6
F0.999999999996331
sb(dp1555
I00
I-79
sI01
F-46.3
ss(i__main__
State
p1556
(dp1557
g3
F-5.000000000001418
sg4
F0.0
sg5
F0.9999999999958537
sg6
F-2.0000000000027813
sb(dp1558
I00
F52.05322
sI01
F18.28
ss(i__main__
State
p1559
(dp1560
g3
F-6.000000000001124
sg4
F6.0
sg5
F-4.089796351126021e-12
sg6
F-3.000000000002009
sb(dp1561
I00
I21
sI01
F-62.98
ss(i__main__
State
p1562
(dp1563
g3
F5.999999999993423
sg4
F1.0
sg5
F-6.0000000000011235
sg6
F8.999999999992538
sb(dp1564
I00
I-72
sI01
F-70.42
ss(i__main__
State
p1565
(dp1566
g3
F-4.000000000001713
sg4
F8.0
sg5
F1.9999999999955582
sg6
F-1.0000000000030767
sb(dp1567
I00
F-71.9
sI01
F19.0
ss(i__main__
State
p1568
(dp1569
g3
F8.999999999992536
sg4
F3.0
sg5
F-3.000000000002009
sg6
F-6.000000000000885
sb(dp1570
I00
F-35.514016
sI01
F-81.16
ss(i__main__
State
p1571
(dp1572
g3
F-8.000000000000535
sg4
F4.0
sg5
F-2.0000000000027813
sg6
F-5.000000000001418
sb(dp1573
I00
I65
sI01
F-60.5
ss(i__main__
State
p1574
(dp1575
g3
F-8.000000000000535
sg4
F2.0
sg5
F-2.0000000000030207
sg6
F-5.000000000001657
sb(dp1576
I00
I-42
sI01
F35.86
ss(i__main__
State
p1577
(dp1578
g3
F3.9999999999947287
sg4
F3.0
sg5
F-8.000000000000295
sg6
F6.999999999994085
sb(dp1579
I00
F29.706589221725896
sI01
F5.26
ss(i__main__
State
p1580
(dp1581
g3
F8.999999999992777
sg4
F9.0
sg5
F-3.000000000002248
sg6
F-6.000000000000885
sb(dp1582
I00
F0.0
sI01
F3.6
ss(i__main__
State
p1583
(dp1584
g3
F3.9999999999940115
sg4
F7.0
sg5
F-8.000000000000295
sg6
F6.999999999993606
sb(dp1585
I00
I2
sI01
F-18.12
ss(i__main__
State
p1586
(dp1587
g3
F-2.0000000000025424
sg4
F3.0
sg5
F3.9999999999947295
sg6
F0.999999999996092
sb(dp1588
I00
F45.9702895942
sI01
F24.22
ss(i__main__
State
p1589
(dp1590
g3
F3.9999999999935327
sg4
F5.0
sg5
F-8.000000000000295
sg6
F6.999999999992171
sb(dp1591
I00
I55
sI01
F-40.32
ss(i__main__
State
p1592
(dp1593
g3
F7.999999999993311
sg4
F9.0
sg5
F-4.000000000002191
sg6
F-7.0000000000010685
sb(dp1594
I00
F0.0
sI01
F2.6
ss(i__main__
State
p1595
(dp1596
g3
F-3.6115285445106663e-12
sg4
F8.0
sg5
F5.999999999994618
sg6
F2.9999999999952616
sb(dp1597
I00
F-15.473599999999994
sI01
F-34.1
ss(i__main__
State
p1598
(dp1599
g3
F-7.00000000000083
sg4
F5.0
sg5
F-1.0000000000033156
sg6
F-4.000000000002431
sb(dp1600
I00
F40.832
sI01
F12.68
ss(i__main__
State
p1601
(dp1602
g3
F0.9999999999958537
sg4
F7.0
sg5
F6.999999999992171
sg6
F3.9999999999949676
sb(dp1603
I00
F34.07972490563054
sI01
F-31.66
ss(i__main__
State
p1604
(dp1605
g3
F2.9999999999950235
sg4
F2.0
sg5
F8.999999999992776
sg6
F5.9999999999946185
sb(dp1606
I00
F49.94
sI01
F63.44
ss(i__main__
State
p1607
(dp1608
g3
F0.9999999999956144
sg4
F5.0
sg5
F6.9999999999945635
sg6
F3.9999999999954476
sb(dp1609
I00
I-8
sI01
F53.18
ss(i__main__
State
p1610
(dp1611
g3
F-3.0000000000029643
sg4
F1.0
sg5
F2.9999999999945457
sg6
F-3.1328392667232637e-12
sb(dp1612
I00
F-45.86
sI01
F45.94
ss(i__main__
State
p1613
(dp1614
g3
F-4.000000000001952
sg4
F3.0
sg5
F1.9999999999953193
sg6
F-1.0000000000035554
sb(dp1615
I00
I49
sI01
F63.62
ss(i__main__
State
p1616
(dp1617
g3
F-2.000000000002782
sg4
F8.0
sg5
F3.999999999994729
sg6
F0.999999999995614
sb(dp1618
I00
F34.632757000000005
sI01
F46.0
ss(i__main__
State
p1619
(dp1620
g3
F-1.0000000000037939
sg4
F9.0
sg5
F4.999999999994195
sg6
F1.999999999995798
sb(dp1621
I00
F3.4960000000000004
sI01
F1.8400000000000003
ss(i__main__
State
p1622
(dp1623
g3
F6.999999999993606
sg4
F8.0
sg5
F-5.000000000001657
sg6
F-8.000000000000295
sb(dp1624
I00
F77.48580470545014
sI01
F-6.199999999999999
ss(i__main__
State
p1625
(dp1626
g3
F-1.0000000000040332
sg4
F1.0
sg5
F4.9999999999927605
sg6
F1.9999999999953197
sb(dp1627
I00
I48
sI01
F-55.94
ss(i__main__
State
p1628
(dp1629
g3
F-5.000000000001658
sg4
F8.0
sg5
F0.9999999999956147
sg6
F-2.00000000000326
sb(dp1630
I00
F-4.693876999999992
sI01
F41.5
ss(i__main__
State
p1631
(dp1632
g3
F-5.000000000001419
sg4
F4.0
sg5
F0.9999999999963317
sg6
F-2.0000000000030207
sb(dp1633
I00
I-47
sI01
F-32.28
ss(i__main__
State
p1634
(dp1635
g3
F-8.000000000000535
sg4
F9.0
sg5
F-2.00000000000326
sg6
F-5.000000000001657
sb(dp1636
I00
F10.308298
sI01
F2.2
ss(i__main__
State
p1637
(dp1638
g3
F-7.00000000000059
sg4
F8.0
sg5
F-1.0000000000028373
sg6
F-4.000000000001713
sb(dp1639
I00
F14.5
sI01
F57.7
ss(i__main__
State
p1640
(dp1641
g3
F-6.000000000001363
sg4
F3.0
sg5
F-3.850908896170834e-12
sg6
F-3.000000000002486
sb(dp1642
I00
F73.26
sI01
F53.46
ss(i__main__
State
p1643
(dp1644
g3
F5.999999999992943
sg4
F0.0
sg5
F-6.0000000000013625
sg6
F8.999999999992776
sb(dp1645
I00
F-16.16
sI01
F69.34
ss(i__main__
State
p1646
(dp1647
g3
F-1.0000000000033165
sg4
F6.0
sg5
F4.999999999993958
sg6
F1.9999999999953193
sb(dp1648
I00
I47
sI01
F-45.2
ss(i__main__
State
p1649
(dp1650
g3
F-2.000000000003021
sg4
F7.0
sg5
F3.9999999999942513
sg6
F0.9999999999956144
sb(dp1651
I00
I-10
sI01
F-85.94
ss(i__main__
State
p1652
(dp1653
g3
F3.999999999993772
sg4
F5.0
sg5
F-8.000000000000535
sg6
F6.999999999993607
sb(dp1654
I00
I-57
sI01
F-43.24
ss(i__main__
State
p1655
(dp1656
g3
F3.9999999999942504
sg4
F2.0
sg5
F-8.000000000000535
sg6
F6.999999999993606
sb(dp1657
I00
F15.536421560496143
sI01
F15.74
ss(i__main__
State
p1658
(dp1659
g3
F-5.000000000001418
sg4
F3.0
sg5
F0.9999999999951352
sg6
F-2.0000000000025433
sb(dp1660
I00
I97
sI01
F74.12
ss(i__main__
State
p1661
(dp1662
g3
F-7.00000000000083
sg4
F5.0
sg5
F-1.0000000000035554
sg6
F-4.000000000001714
sb(dp1663
I00
F61.898393999999996
sI01
F-45.96
ss(i__main__
State
p1664
(dp1665
g3
F0.9999999999956148
sg4
F1.0
sg5
F6.999999999993366
sg6
F3.999999999994729
sb(dp1666
I00
I-2
sI01
F56.5
ss(i__main__
State
p1667
(dp1668
g3
F-3.0000000000027263
sg4
F4.0
sg5
F2.9999999999945457
sg6
F-3.371232897349065e-12
sb(dp1669
I00
I51
sI01
F-32.68
ss(i__main__
State
p1670
(dp1671
g3
F5.999999999993183
sg4
F6.0
sg5
F-6.0000000000011235
sg6
F8.999999999993015
sb(dp1672
I00
I-53
sI01
F-13.059999999999999
ss(i__main__
State
p1673
(dp1674
g3
F4.999999999994195
sg4
F7.0
sg5
F-7.000000000000829
sg6
F7.999999999992833
sb(dp1675
I00
F-21.005999999999997
sI01
F-77.94
ss(i__main__
State
p1676
(dp1677
g3
F3.9999999999952083
sg4
F8.0
sg5
F-8.000000000000295
sg6
F6.999999999993127
sb(dp1678
I00
F38.2996999
sI01
F31.6
ss(i__main__
State
p1679
(dp1680
g3
F8.999999999992058
sg4
F2.0
sg5
F-3.000000000002247
sg6
F-6.000000000001602
sb(dp1681
I00
F10.88
sI01
F-61.12
ss(i__main__
State
p1682
(dp1683
g3
F0.9999999999958529
sg4
F0.0
sg5
F6.999999999994085
sg6
F3.9999999999940115
sb(dp1684
I00
I-88
sI01
F-81.94
ss(i__main__
State
p1685
(dp1686
g3
F-8.000000000000295
sg4
F5.0
sg5
F-2.000000000002303
sg6
F-5.000000000001419
sb(dp1687
I00
F-11.698091736000002
sI01
F24.96
ss(i__main__
State
p1688
(dp1689
g3
F-3.000000000002247
sg4
F6.0
sg5
F2.9999999999947846
sg6
F-3.3716986780037787e-12
sb(dp1690
I00
I-14
sI01
F63.94
ss(i__main__
State
p1691
(dp1692
g3
F-1.0000000000035545
sg4
F1.0
sg5
F4.999999999993955
sg6
F1.9999999999950808
sb(dp1693
I00
F-35.303926
sI01
F45.14
ss(i__main__
State
p1694
(dp1695
g3
F-7.00000000000083
sg4
F5.0
sg5
F-1.000000000003555
sg6
F-4.000000000001952
sb(dp1696
I00
F7.616
sI01
F83.53999999999999
ss(i__main__
State
p1697
(dp1698
g3
F1.9999999999948406
sg4
F8.0
sg5
F7.999999999993551
sg6
F4.999999999994913
sb(dp1699
I00
F9.604000000000001
sI01
F99.1
ss(i__main__
State
p1700
(dp1701
g3
F8.999999999992538
sg4
F8.0
sg5
F-3.0000000000027254
sg6
F-6.000000000001602
sb(dp1702
I00
F83.96079175540002
sI01
F-76.4
ss(i__main__
State
p1703
(dp1704
g3
F1.9999999999953189
sg4
F7.0
sg5
F7.9999999999925935
sg6
F4.999999999993717
sb(dp1705
I00
F47.844152
sI01
F13.22
ss(i__main__
State
p1706
(dp1707
g3
F-1.0000000000030762
sg4
F0.0
sg5
F4.999999999994196
sg6
F1.999999999995081
sb(dp1708
I00
I-90
sI01
F5.779999999999999
ss(i__main__
State
p1709
(dp1710
g3
F-7.00000000000083
sg4
F3.0
sg5
F-1.0000000000033156
sg6
F-4.000000000001952
sb(dp1711
I00
F-50.84
sI01
F58.96
ss(i__main__
State
p1712
(dp1713
g3
F-4.000000000001714
sg4
F0.0
sg5
F1.9999999999955584
sg6
F-1.0000000000033151
sb(dp1714
I00
I-9
sI01
F-50.019999999999996
ss(i__main__
State
p1715
(dp1716
g3
F8.999999999992538
sg4
F9.0
sg5
F-3.000000000002008
sg6
F-6.000000000001124
sb(dp1717
I00
F-3.1136933816377232
sI01
F-0.36000000000000004
ss(i__main__
State
p1718
(dp1719
g3
F7.999999999994029
sg4
F1.0
sg5
F-4.000000000002192
sg6
F-7.000000000000829
sb(dp1720
I00
I-85
sI01
F24.88
ss(i__main__
State
p1721
(dp1722
g3
F3.9999999999952083
sg4
F3.0
sg5
F-8.000000000000535
sg6
F6.999999999993606
sb(dp1723
I00
F1.8699999999999997
sI01
F-38.9
ss(i__main__
State
p1724
(dp1725
g3
F-4.000000000001953
sg4
F0.0
sg5
F1.9999999999960363
sg6
F-1.0000000000035554
sb(dp1726
I00
I-13
sI01
F-54.24
ss(i__main__
State
p1727
(dp1728
g3
F7.999999999993072
sg4
F8.0
sg5
F-4.000000000001952
sg6
F-7.000000000000829
sb(dp1729
I00
F86.5
sI01
F82.0
ss(i__main__
State
p1730
(dp1731
g3
F3.9999999999944897
sg4
F3.0
sg5
F-8.000000000000295
sg6
F6.999999999993367
sb(dp1732
I00
F75.12
sI01
F45.42
ss(i__main__
State
p1733
(dp1734
g3
F7.999999999993073
sg4
F5.0
sg5
F-4.00000000000267
sg6
F-7.00000000000059
sb(dp1735
I00
I-94
sI01
F89.1
ss(i__main__
State
p1736
(dp1737
g3
F5.999999999994379
sg4
F2.0
sg5
F-6.0000000000013625
sg6
F8.999999999993255
sb(dp1738
I00
I87
sI01
F22.96
ss(i__main__
State
p1739
(dp1740
g3
F1.9999999999948401
sg4
F7.0
sg5
F7.999999999993072
sg6
F4.999999999993957
sb(dp1741
I00
I29
sI01
F-71.38
ss(i__main__
State
p1742
(dp1743
g3
F4.999999999993717
sg4
F8.0
sg5
F-7.000000000000829
sg6
F7.999999999993311
sb(dp1744
I00
F46.92339300700001
sI01
F91.9
ss(i__main__
State
p1745
(dp1746
g3
F2.999999999995503
sg4
F1.0
sg5
F8.999999999993015
sg6
F5.999999999993422
sb(dp1747
I00
I90
sI01
F-73.44
ss(i__main__
State
p1748
(dp1749
g3
F-4.000000000001952
sg4
F5.0
sg5
F1.9999999999953189
sg6
F-1.0000000000033156
sb(dp1750
I00
I62
sI01
F-32.06
ss(i__main__
State
p1751
(dp1752
g3
F-4.000000000002192
sg4
F3.0
sg5
F1.999999999995798
sg6
F-1.0000000000033151
sb(dp1753
I00
F64.74
sI01
F67.44
ss(i__main__
State
p1754
(dp1755
g3
F4.999999999994196
sg4
F9.0
sg5
F-7.00000000000083
sg6
F7.9999999999925935
sb(dp1756
I00
F0.0
sI01
F2.4000000000000004
ss(i__main__
State
p1757
(dp1758
g3
F-7.0000000000010685
sg4
F9.0
sg5
F-1.0000000000037947
sg6
F-4.000000000002431
sb(dp1759
I00
F0.0
sI01
F-1.9600000000000002
ss(i__main__
State
p1760
(dp1761
g3
F-2.0000000000032596
sg4
F4.0
sg5
F3.9999999999949685
sg6
F0.9999999999965716
sb(dp1762
I00
I6
sI01
F82.94
ss(i__main__
State
p1763
(dp1764
g3
F-5.000000000001897
sg4
F7.0
sg5
F0.9999999999956134
sg6
F-2.000000000003021
sb(dp1765
I00
I65
sI01
F-16.48
ss(i__main__
State
p1766
(dp1767
g3
F-6.0000000000011235
sg4
F5.0
sg5
F-3.3712708566644853e-12
sg6
F-3.0000000000027263
sb(dp1768
I00
F-56.1602
sI01
F14.38
ss(i__main__
State
p1769
(dp1770
g3
F-8.000000000000295
sg4
F6.0
sg5
F-2.00000000000326
sg6
F-5.000000000001896
sb(dp1771
I00
I62
sI01
F-24.619999999999997
ss(i__main__
State
p1772
(dp1773
g3
F4.999999999994195
sg4
F3.0
sg5
F-7.0000000000010685
sg6
F7.9999999999928315
sb(dp1774
I00
I33
sI01
F-8.419999999999998
ss(i__main__
State
p1775
(dp1776
g3
F-3.0000000000022475
sg4
F9.0
sg5
F2.9999999999950244
sg6
F-3.611123345731779e-12
sb(dp1777
I00
F-15.89224606156
sI01
F-2.4400000000000004
ss(i__main__
State
p1778
(dp1779
g3
F-4.000000000001953
sg4
F1.0
sg5
F1.9999999999950795
sg6
F-1.000000000003555
sb(dp1780
I00
F26.62842324026297
sI01
F54.4
ss(i__main__
State
p1781
(dp1782
g3
F1.9999999999953184
sg4
F0.0
sg5
F7.999999999993311
sg6
F4.999999999993955
sb(dp1783
I00
I-8
sI01
F75.36
ss(i__main__
State
p1784
(dp1785
g3
F7.999999999992832
sg4
F4.0
sg5
F-4.000000000001953
sg6
F-7.0000000000010685
sb(dp1786
I00
I83
sI01
F-62.0
ss(i__main__
State
p1787
(dp1788
g3
F-1.0000000000033151
sg4
F7.0
sg5
F4.999999999994435
sg6
F1.9999999999955596
sb(dp1789
I00
F53.614000000000004
sI01
F-43.64
ss(i__main__
State
p1790
(dp1791
g3
F-3.6110627621129624e-12
sg4
F7.0
sg5
F5.999999999993183
sg6
F2.9999999999952642
sb(dp1792
I00
F-15.120520848070802
sI01
F72.48
ss(i__main__
State
p1793
(dp1794
g3
F-1.0000000000028373
sg4
F7.0
sg5
F4.999999999993478
sg6
F1.99999999999532
sb(dp1795
I00
I-80
sI01
F14.76
ss(i__main__
State
p1796
(dp1797
g3
F6.999999999993844
sg4
F1.0
sg5
F-5.000000000001658
sg6
F-8.000000000000295
sb(dp1798
I00
F20.740666982
sI01
F73.58
ss(i__main__
State
p1799
(dp1800
g3
F3.9999999999947278
sg4
F1.0
sg5
F-8.000000000000535
sg6
F6.999999999993845
sb(dp1801
I00
I-91
sI01
F83.98
ss(i__main__
State
p1802
(dp1803
g3
F3.999999999994251
sg4
F2.0
sg5
F-8.000000000000295
sg6
F6.999999999993368
sb(dp1804
I00
F67.1
sI01
F27.5
ss(i__main__
State
p1805
(dp1806
g3
F-3.0000000000024873
sg4
F9.0
sg5
F2.9999999999947855
sg6
F-4.089402000893173e-12
sb(dp1807
I00
F0.0
sI01
F3.7600000000000002
ss(i__main__
State
p1808
(dp1809
g3
F-3.0000000000024865
sg4
F4.0
sg5
F2.999999999994306
sg6
F-3.3725868564234788e-12
sb(dp1810
I00
F40.84288799999999
sI01
F-37.02
ss(i__main__
State
p1811
(dp1812
g3
F-4.000000000001953
sg4
F5.0
sg5
F1.9999999999953193
sg6
F-1.000000000003555
sb(dp1813
I00
F-42.397762
sI01
F-75.82
ss(i__main__
State
p1814
(dp1815
g3
F-8.0
sg4
F0.0
sg5
F8.0
sg6
F0.0
sb(dp1816
I00
F0.05999999999999994
sI01
F2.76
ss(i__main__
State
p1817
(dp1818
g3
F6.999999999993605
sg4
F7.0
sg5
F-5.000000000001897
sg6
F-8.000000000000295
sb(dp1819
I00
F17.4636694
sI01
F-4.039999999999999
ss(i__main__
State
p1820
(dp1821
g3
F2.999999999994785
sg4
F6.0
sg5
F8.999999999992777
sg6
F5.9999999999946185
sb(dp1822
I00
F18.56
sI01
F-25.0
ss(i__main__
State
p1823
(dp1824
g3
F-2.0000000000032605
sg4
F1.0
sg5
F3.9999999999954468
sg6
F0.9999999999956151
sb(dp1825
I00
F-5.6
sI01
F-15.5
ss(i__main__
State
p1826
(dp1827
g3
F4.999999999993956
sg4
F8.0
sg5
F-7.00000000000083
sg6
F7.9999999999928315
sb(dp1828
I00
F33.580000000000005
sI01
F-49.4
ss(i__main__
State
p1829
(dp1830
g3
F-3.0000000000024865
sg4
F5.0
sg5
F2.999999999994546
sg6
F-4.088474930572338e-12
sb(dp1831
I00
I65
sI01
F34.66
ss(i__main__
State
p1832
(dp1833
g3
F-2.0000000000030207
sg4
F5.0
sg5
F3.999999999994011
sg6
F0.9999999999953755
sb(dp1834
I00
I-90
sI01
F68.52
ss(i__main__
State
p1835
(dp1836
g3
F7.9999999999925935
sg4
F7.0
sg5
F-4.000000000001713
sg6
F-7.000000000000829
sb(dp1837
I00
I95
sI01
F-84.28
ss(i__main__
State
p1838
(dp1839
g3
F1.9999999999950777
sg4
F3.0
sg5
F7.999999999992833
sg6
F4.999999999993956
sb(dp1840
I00
F54.4608
sI01
F10.98
ss(i__main__
State
p1841
(dp1842
g3
F-8.000000000000295
sg4
F0.0
sg5
F-2.000000000003021
sg6
F-5.000000000001418
sb(dp1843
I00
I46
sI01
F-83.36
ss(i__main__
State
p1844
(dp1845
g3
F-5.000000000001418
sg4
F3.0
sg5
F0.9999999999958548
sg6
F-2.000000000002781
sb(dp1846
I00
I-38
sI01
F-68.96
ss(i__main__
State
p1847
(dp1848
g3
F-6.000000000000885
sg4
F8.0
sg5
F-3.6111450369683664e-12
sg6
F-3.0000000000027263
sb(dp1849
I00
I10
sI01
F-69.2
ss(i__main__
State
p1850
(dp1851
g3
F0.9999999999956121
sg4
F2.0
sg5
F6.999999999993367
sg6
F3.99999999999449
sb(dp1852
I00
F-21.493399999999998
sI01
F45.76
ss(i__main__
State
p1853
(dp1854
g3
F7.999999999992594
sg4
F0.0
sg5
F-4.000000000002431
sg6
F-7.00000000000083
sb(dp1855
I00
I13
sI01
F57.08
ss(i__main__
State
p1856
(dp1857
g3
F1.999999999995319
sg4
F7.0
sg5
F7.999999999992833
sg6
F4.999999999993716
sb(dp1858
I00
F26.549879491600002
sI01
F-88.94
ss(i__main__
State
p1859
(dp1860
g3
F4.999999999994435
sg4
F6.0
sg5
F-7.00000000000059
sg6
F7.9999999999923554
sb(dp1861
I00
I-37
sI01
F-34.24
ss(i__main__
State
p1862
(dp1863
g3
F6.999999999993365
sg4
F9.0
sg5
F-5.000000000001657
sg6
F-8.000000000000295
sb(dp1864
I00
F7.37118
sI01
F1.8
ss(i__main__
State
p1865
(dp1866
g3
F0.9999999999958532
sg4
F9.0
sg5
F6.999999999993128
sg6
F3.9999999999942504
sb(dp1867
I00
F0.0
sI01
F3.1200000000000006
ss(i__main__
State
p1868
(dp1869
g3
F-3.850432267016833e-12
sg4
F0.0
sg5
F5.999999999993661
sg6
F2.9999999999947846
sb(dp1870
I00
F-22.457854729650922
sI01
F-41.5
ss(i__main__
State
p1871
(dp1872
g3
F-3.6115014264985283e-12
sg4
F9.0
sg5
F5.9999999999939
sg6
F2.9999999999952647
sb(dp1873
I00
F0.0
sI01
F-2.6
ss(i__main__
State
p1874
(dp1875
g3
F-1.000000000003316
sg4
F5.0
sg5
F4.999999999993956
sg6
F1.999999999996037
sb(dp1876
I00
F-28.3
sI01
F-36.4
ss(i__main__
State
p1877
(dp1878
g3
F-5.000000000001657
sg4
F2.0
sg5
F0.9999999999958524
sg6
F-2.0000000000025424
sb(dp1879
I00
F72.72
sI01
F9.9
ss(i__main__
State
p1880
(dp1881
g3
F6.999999999993366
sg4
F1.0
sg5
F-5.000000000001657
sg6
F-8.000000000000535
sb(dp1882
I00
I33
sI01
F-50.4
ss(i__main__
State
p1883
(dp1884
g3
F6.9999999999928875
sg4
F6.0
sg5
F-5.000000000002136
sg6
F-8.000000000000535
sb(dp1885
I00
I57
sI01
F37.22
ss(i__main__
State
p1886
(dp1887
g3
F7.99999999999307
sg4
F4.0
sg5
F-4.000000000001953
sg6
F-7.0000000000010685
sb(dp1888
I00
F6.440282885000001
sI01
F-80.8
ss(i__main__
State
p1889
(dp1890
g3
F7.9999999999925935
sg4
F5.0
sg5
F-4.000000000001713
sg6
F-7.00000000000083
sb(dp1891
I00
F-32.192
sI01
F-45.08
ss(i__main__
State
p1892
(dp1893
g3
F-2.0000000000027813
sg4
F6.0
sg5
F3.99999999999449
sg6
F0.9999999999960921
sb(dp1894
I00
I-90
sI01
F-28.68
ss(i__main__
State
p1895
(dp1896
g3
F-7.0000000000010685
sg4
F6.0
sg5
F-1.0000000000033156
sg6
F-4.000000000001952
sb(dp1897
I00
F6.050122009751741
sI01
F4.54
ss(i__main__
State
p1898
(dp1899
g3
F-4.568080430134538e-12
sg4
F6.0
sg5
F5.999999999994379
sg6
F2.9999999999952633
sb(dp1900
I00
F12.237211209631326
sI01
F-62.92
ss(i__main__
State
p1901
(dp1902
g3
F-5.000000000001418
sg4
F9.0
sg5
F0.9999999999965717
sg6
F-2.0000000000030207
sb(dp1903
I00
F0.0
sI01
F-0.8800000000000001
ss(i__main__
State
p1904
(dp1905
g3
F5.999999999993901
sg4
F7.0
sg5
F-6.0000000000013625
sg6
F8.999999999992776
sb(dp1906
I00
F-73.1
sI01
F-21.8
ss(i__main__
State
p1907
(dp1908
g3
F-8.000000000000295
sg4
F8.0
sg5
F-2.0000000000030207
sg6
F-5.000000000001657
sb(dp1909
I00
F93.53005517265368
sI01
F100.0
ss(i__main__
State
p1910
(dp1911
g3
F-4.000000000001953
sg4
F8.0
sg5
F1.9999999999950806
sg6
F-1.0000000000037943
sb(dp1912
I00
F-15.911
sI01
F45.1
ss(i__main__
State
p1913
(dp1914
g3
F6.999999999993128
sg4
F0.0
sg5
F-5.000000000001657
sg6
F-8.000000000000295
sb(dp1915
I00
I-66
sI01
F-8.419999999999998
ss(i__main__
State
p1916
(dp1917
g3
F-5.000000000001897
sg4
F2.0
sg5
F0.9999999999953751
sg6
F-2.000000000002782
sb(dp1918
I00
I25
sI01
F-35.96
ss(i__main__
State
p1919
(dp1920
g3
F-7.00000000000059
sg4
F7.0
sg5
F-1.000000000003077
sg6
F-4.000000000001952
sb(dp1921
I00
I49
sI01
F51.5
ss(i__main__
State
p1922
(dp1923
g3
F-2.0000000000025433
sg4
F1.0
sg5
F3.999999999994729
sg6
F0.9999999999960929
sb(dp1924
I00
F-39.91484500000001
sI01
F-13.3
ss(i__main__
State
p1925
(dp1926
g3
F0.9999999999953756
sg4
F4.0
sg5
F6.999999999993365
sg6
F3.999999999994251
sb(dp1927
I00
F37.178452
sI01
F7.119999999999999
ss(i__main__
State
p1928
(dp1929
g3
F8.999999999992298
sg4
F9.0
sg5
F-3.000000000002248
sg6
F-6.000000000001363
sb(dp1930
I00
F2.66
sI01
F1.4000000000000001
ss(i__main__
State
p1931
(dp1932
g3
F2.999999999995024
sg4
F2.0
sg5
F8.999999999992538
sg6
F5.999999999992944
sb(dp1933
I00
I-85
sI01
F61.980000000000004
ss(i__main__
State
p1934
(dp1935
g3
F0.9999999999963319
sg4
F5.0
sg5
F6.999999999994324
sg6
F3.999999999994729
sb(dp1936
I00
I66
sI01
F-81.38
ss(i__main__
State
p1937
(dp1938
g3
F-8.000000000000295
sg4
F1.0
sg5
F-2.0000000000025424
sg6
F-5.000000000001418
sb(dp1939
I00
F45.8104
sI01
F-73.75999999999999
ss(i__main__
State
p1940
(dp1941
g3
F-2.0000000000032596
sg4
F2.0
sg5
F3.99999999999425
sg6
F0.999999999995614
sb(dp1942
I00
F-8.8
sI01
F53.3
ss(i__main__
State
p1943
(dp1944
g3
F-4.000000000002431
sg4
F2.0
sg5
F1.9999999999960378
sg6
F-1.0000000000033165
sb(dp1945
I00
F-62.73287044
sI01
F71.66
ss(i__main__
State
p1946
(dp1947
g3
F-1.0000000000033156
sg4
F3.0
sg5
F4.999999999994436
sg6
F1.9999999999955584
sb(dp1948
I00
F9.987191285470196
sI01
F-52.08
ss(i__main__
State
p1949
(dp1950
g3
F7.9999999999923554
sg4
F3.0
sg5
F-4.000000000001713
sg6
F-7.0000000000010685
sb(dp1951
I00
F-60.34
sI01
F-31.54
ss(i__main__
State
p1952
(dp1953
g3
F5.9999999999946185
sg4
F3.0
sg5
F-6.000000000001602
sg6
F8.999999999992058
sb(dp1954
I00
F17.0948
sI01
F89.48
ss(i__main__
State
p1955
(dp1956
g3
F4.999999999994195
sg4
F5.0
sg5
F-7.0000000000010685
sg6
F7.999999999993073
sb(dp1957
I00
F36.73121304
sI01
F-85.56
ss(i__main__
State
p1958
(dp1959
g3
F8.99999999999158
sg4
F9.0
sg5
F-3.000000000002248
sg6
F-6.000000000001602
sb(dp1960
I00
F-3.4688000000000008
sI01
F-1.2800000000000002
ss(i__main__
State
p1961
(dp1962
g3
F0.999999999996332
sg4
F1.0
sg5
F6.999999999993366
sg6
F3.9999999999944897
sb(dp1963
I00
F-42.675
sI01
F-67.2
ss(i__main__
State
p1964
(dp1965
g3
F-7.000000000000829
sg4
F1.0
sg5
F-1.0000000000028368
sg6
F-4.000000000002192
sb(dp1966
I00
I13
sI01
F-86.82
ss(i__main__
State
p1967
(dp1968
g3
F-3.000000000002247
sg4
F8.0
sg5
F2.9999999999950244
sg6
F-4.089352261916171e-12
sb(dp1969
I00
F81.64208012873499
sI01
F100.0
ss(i__main__
State
p1970
(dp1971
g3
F-5.000000000001657
sg4
F6.0
sg5
F0.9999999999953749
sg6
F-2.0000000000030203
sb(dp1972
I00
I-76
sI01
F-5.02
ss(i__main__
State
p1973
(dp1974
g3
F3.9999999999947278
sg4
F9.0
sg5
F-8.000000000000535
sg6
F6.999999999993845
sb(dp1975
I00
F0.0
sI01
F2.3200000000000003
ss(i__main__
State
p1976
(dp1977
g3
F5.999999999993902
sg4
F8.0
sg5
F-6.000000000000885
sg6
F8.999999999992058
sb(dp1978
I00
F18.689527
sI01
F42.4
ss(i__main__
State
p1979
(dp1980
g3
F0.9999999999958533
sg4
F6.0
sg5
F6.999999999993367
sg6
F3.9999999999942504
sb(dp1981
I00
F21.983406425400002
sI01
F53.94
ss(i__main__
State
p1982
(dp1983
g3
F6.999999999994324
sg4
F4.0
sg5
F-5.000000000002136
sg6
F-8.000000000000295
sb(dp1984
I00
F73.1
sI01
F55.1
ss(i__main__
State
p1985
(dp1986
g3
F-1.000000000003555
sg4
F6.0
sg5
F4.999999999993477
sg6
F1.9999999999950806
sb(dp1987
I00
I3
sI01
F87.3
ss(i__main__
State
p1988
(dp1989
g3
F-3.850509121077554e-12
sg4
F0.0
sg5
F5.999999999993184
sg6
F2.9999999999950244
sb(dp1990
I00
F-2.4940064311900594
sI01
F-89.4
ss(i__main__
State
p1991
(dp1992
g3
F0.9999999999958537
sg4
F8.0
sg5
F6.999999999994085
sg6
F3.999999999994968
sb(dp1993
I00
F19.810000000000002
sI01
F-72.8
ss(i__main__
State
p1994
(dp1995
g3
F2.9999999999943063
sg4
F4.0
sg5
F8.999999999992538
sg6
F5.999999999994379
sb(dp1996
I00
F35.06843005368726
sI01
F79.28
ss(i__main__
State
p1997
(dp1998
g3
F-7.000000000000829
sg4
F0.0
sg5
F-1.000000000003555
sg6
F-4.00000000000267
sb(dp1999
I00
F38.718271795999996
sI01
F-65.56
ss(i__main__
State
p2000
(dp2001
g3
F-5.000000000001897
sg4
F1.0
sg5
F0.9999999999963315
sg6
F-2.000000000002782
sb(dp2002
I00
I44
sI01
F58.6
ss(i__main__
State
p2003
(dp2004
g3
F6.999999999993607
sg4
F9.0
sg5
F-5.000000000001418
sg6
F-8.000000000000295
sb(dp2005
I00
F0.0
sI01
F-3.2
ss(i__main__
State
p2006
(dp2007
g3
F4.999999999994673
sg4
F4.0
sg5
F-7.00000000000059
sg6
F7.9999999999925935
sb(dp2008
I00
I-7
sI01
F-1.1800000000000002
ss(i__main__
State
p2009
(dp2010
g3
F5.999999999993901
sg4
F7.0
sg5
F-6.000000000000885
sg6
F8.99999999999182
sb(dp2011
I00
F-31.530586226042004
sI01
F36.879999999999995
ss(i__main__
State
p2012
(dp2013
g3
F-5.000000000001897
sg4
F1.0
sg5
F0.9999999999960925
sg6
F-2.000000000003021
sb(dp2014
I00
I34
sI01
F-61.48
ss(i__main__
State
p2015
(dp2016
g3
F1.9999999999953189
sg4
F6.0
sg5
F7.9999999999925935
sg6
F4.999999999994674
sb(dp2017
I00
I-55
sI01
F-59.3
ss(i__main__
State
p2018
(dp2019
g3
F4.999999999995152
sg4
F5.0
sg5
F-7.0000000000010685
sg6
F7.999999999993311
sb(dp2020
I00
F-74.0
sI01
F75.4
ss(i__main__
State
p2021
(dp2022
g3
F5.99999999999366
sg4
F8.0
sg5
F-6.0000000000011235
sg6
F8.999999999992538
sb(dp2023
I00
F49.7903046256
sI01
F19.0
ss(i__main__
State
p2024
(dp2025
g3
F-1.000000000003555
sg4
F1.0
sg5
F4.999999999993958
sg6
F1.9999999999955596
sb(dp2026
I00
F-9.768155601711602
sI01
F-50.94
ss(i__main__
State
p2027
(dp2028
g3
F1.9999999999955589
sg4
F3.0
sg5
F7.999999999993072
sg6
F4.999999999993718
sb(dp2029
I00
I-80
sI01
F77.56
ss(i__main__
State
p2030
(dp2031
g3
F0.9999999999960931
sg4
F2.0
sg5
F6.999999999993606
sg6
F3.999999999994013
sb(dp2032
I00
I91
sI01
F30.52
ss(i__main__
State
p2033
(dp2034
g3
F-5.000000000001657
sg4
F7.0
sg5
F0.9999999999953745
sg6
F-2.0000000000027818
sb(dp2035
I00
I-45
sI01
F-31.04
ss(i__main__
State
p2036
(dp2037
g3
F-4.000000000001952
sg4
F3.0
sg5
F1.9999999999948401
sg6
F-1.0000000000028382
sb(dp2038
I00
F35.29
sI01
F85.6
ss(i__main__
State
p2039
(dp2040
g3
F-4.000000000001952
sg4
F4.0
sg5
F1.999999999995319
sg6
F-1.000000000003077
sb(dp2041
I00
I-71
sI01
F-60.519999999999996
ss(i__main__
State
p2042
(dp2043
g3
F7.999999999993551
sg4
F6.0
sg5
F-4.000000000002191
sg6
F-7.0000000000010685
sb(dp2044
I00
I37
sI01
F7.18
ss(i__main__
State
p2045
(dp2046
g3
F-7.00000000000083
sg4
F2.0
sg5
F-1.0000000000025984
sg6
F-4.000000000002431
sb(dp2047
I00
I-64
sI01
F59.32
ss(i__main__
State
p2048
(dp2049
g3
F1.9999999999950804
sg4
F7.0
sg5
F7.999999999993551
sg6
F4.9999999999949125
sb(dp2050
I00
F2.978590773015463
sI01
F16.66
ss(i__main__
State
p2051
(dp2052
g3
F-5.000000000001418
sg4
F2.0
sg5
F0.9999999999953745
sg6
F-2.0000000000025433
sb(dp2053
I00
I-49
sI01
F-24.22
ss(i__main__
State
p2054
(dp2055
g3
F-7.00000000000083
sg4
F9.0
sg5
F-1.0000000000033151
sg6
F-4.000000000001713
sb(dp2056
I00
F-11.463259454240001
sI01
F-1.7600000000000002
ss(i__main__
State
p2057
(dp2058
g3
F-3.0000000000024873
sg4
F4.0
sg5
F2.999999999995024
sg6
F-4.0894074247403e-12
sb(dp2059
I00
F91.52
sI01
F1.5200000000000005
ss(i__main__
State
p2060
(dp2061
g3
F0.999999999995376
sg4
F4.0
sg5
F6.999999999992649
sg6
F3.9999999999954468
sb(dp2062
I00
F-22.8
sI01
F-68.7
ss(i__main__
State
p2063
(dp2064
g3
F-7.000000000000829
sg4
F1.0
sg5
F-1.0000000000035554
sg6
F-4.000000000001953
sb(dp2065
I00
F-50.148
sI01
F87.48
ss(i__main__
State
p2066
(dp2067
g3
F-1.000000000003555
sg4
F3.0
sg5
F4.999999999993716
sg6
F1.9999999999950813
sb(dp2068
I00
F55.692
sI01
F-25.92
ss(i__main__
State
p2069
(dp2070
g3
F-7.000000000000829
sg4
F7.0
sg5
F-1.0000000000025984
sg6
F-4.000000000002192
sb(dp2071
I00
I2
sI01
F9.6
ss(i__main__
State
p2072
(dp2073
g3
F5.999999999994139
sg4
F5.0
sg5
F-6.000000000000885
sg6
F8.999999999992058
sb(dp2074
I00
F-21.03510752957352
sI01
F-91.34
ss(i__main__
State
p2075
(dp2076
g3
F-7.00000000000083
sg4
F4.0
sg5
F-1.000000000003316
sg6
F-4.000000000002431
sb(dp2077
I00
I29
sI01
F-27.86
ss(i__main__
State
p2078
(dp2079
g3
F8.99999999999206
sg4
F5.0
sg5
F-3.000000000002487
sg6
F-6.000000000001363
sb(dp2080
I00
F31.822629404702784
sI01
F45.5
ss(i__main__
State
p2081
(dp2082
g3
F6.999999999993606
sg4
F6.0
sg5
F-5.000000000001658
sg6
F-8.000000000000295
sb(dp2083
I00
F-64.88
sI01
F-14.48
ss(i__main__
State
p2084
(dp2085
g3
F2.9999999999945457
sg4
F9.0
sg5
F8.999999999993257
sg6
F5.99999999999438
sb(dp2086
I00
F0.0
sI01
F3.24
ss(i__main__
State
p2087
(dp2088
g3
F-6.000000000001124
sg4
F2.0
sg5
F-4.0893576861236815e-12
sg6
F-3.000000000002965
sb(dp2089
I00
I56
sI01
F26.740000000000002
ss(i__main__
State
p2090
(dp2091
g3
F4.999999999994674
sg4
F9.0
sg5
F-7.0000000000010685
sg6
F7.999999999993312
sb(dp2092
I00
F12.625885031944003
sI01
F1.8400000000000003
ss(i__main__
State
p2093
(dp2094
g3
F0.9999999999963314
sg4
F4.0
sg5
F6.999999999993128
sg6
F3.999999999995208
sb(dp2095
I00
F1.0999000000000012
sI01
F-71.0
ss(i__main__
State
p2096
(dp2097
g3
F-6.0000000000013625
sg4
F0.0
sg5
F-4.08940649436244e-12
sg6
F-3.000000000002486
sb(dp2098
I00
F-67.34
sI01
F-78.14
ss(i__main__
State
p2099
(dp2100
g3
F6.999999999992649
sg4
F7.0
sg5
F-5.000000000001418
sg6
F-8.000000000000295
sb(dp2101
I00
F71.33430000000001
sI01
F-64.5
ss(i__main__
State
p2102
(dp2103
g3
F-6.0000000000011235
sg4
F4.0
sg5
F-3.850476582582422e-12
sg6
F-3.000000000002486
sb(dp2104
I00
F23.96
sI01
F63.56
ss(i__main__
State
p2105
(dp2106
g3
F5.999999999993182
sg4
F9.0
sg5
F-6.0000000000013625
sg6
F8.999999999992538
sb(dp2107
I00
F2.888000000000001
sI01
F1.5200000000000002
ss(i__main__
State
p2108
(dp2109
g3
F3.999999999994729
sg4
F8.0
sg5
F-8.000000000000535
sg6
F6.999999999992649
sb(dp2110
I00
I83
sI01
F-66.5
ss(i__main__
State
p2111
(dp2112
g3
F-4.000000000002192
sg4
F0.0
sg5
F1.999999999996276
sg6
F-1.0000000000033147
sb(dp2113
I00
I-71
sI01
F-62.5
ss(i__main__
State
p2114
(dp2115
g3
F-2.0000000000030203
sg4
F2.0
sg5
F3.9999999999947287
sg6
F0.9999999999965716
sb(dp2116
I00
F18.148853861060005
sI01
F-17.86
ss(i__main__
State
p2117
(dp2118
g3
F7.999999999993071
sg4
F8.0
sg5
F-4.000000000002431
sg6
F-7.00000000000059
sb(dp2119
I00
F-4.975999999999999
sI01
F-14.299999999999999
ss(i__main__
State
p2120
(dp2121
g3
F-8.000000000000535
sg4
F0.0
sg5
F-2.0000000000030203
sg6
F-5.000000000001897
sb(dp2122
I00
I7
sI01
F32.92
ss(i__main__
State
p2123
(dp2124
g3
F7.99999999999331
sg4
F2.0
sg5
F-4.000000000002192
sg6
F-7.000000000000829
sb(dp2125
I00
F-17.968
sI01
F-63.22
ss(i__main__
State
p2126
(dp2127
g3
F1.999999999995559
sg4
F8.0
sg5
F7.999999999992594
sg6
F4.999999999994435
sb(dp2128
I00
F8.474050000000005
sI01
F46.9
ss(i__main__
State
p2129
(dp2130
g3
F5.999999999993901
sg4
F6.0
sg5
F-6.0000000000011235
sg6
F8.99999999999134
sb(dp2131
I00
I-97
sI01
F-60.46
ss(i__main__
State
p2132
(dp2133
g3
F4.999999999994195
sg4
F8.0
sg5
F-7.00000000000083
sg6
F7.999999999993311
sb(dp2134
I00
F82.9
sI01
F-30.5
ss(i__main__
State
p2135
(dp2136
g3
F8.999999999992298
sg4
F6.0
sg5
F-3.0000000000029647
sg6
F-6.0000000000011235
sb(dp2137
I00
I66
sI01
F-65.06
ss(i__main__
State
p2138
(dp2139
g3
F6.999999999993367
sg4
F3.0
sg5
F-5.000000000001657
sg6
F-8.000000000000295
sb(dp2140
I00
F-4.977211548788374
sI01
F70.54
ss(i__main__
State
p2141
(dp2142
g3
F4.999999999994674
sg4
F2.0
sg5
F-7.000000000000829
sg6
F7.999999999994029
sb(dp2143
I00
I58
sI01
F47.82
ss(i__main__
State
p2144
(dp2145
g3
F2.999999999995503
sg4
F4.0
sg5
F8.999999999992538
sg6
F5.999999999993183
sb(dp2146
I00
F-47.769079999999995
sI01
F82.48
ss(i__main__
State
p2147
(dp2148
g3
F-4.08985151395015e-12
sg4
F6.0
sg5
F5.99999999999438
sg6
F2.999999999995503
sb(dp2149
I00
I23
sI01
F55.18
ss(i__main__
State
p2150
(dp2151
g3
F-3.000000000002247
sg4
F7.0
sg5
F2.9999999999947864
sg6
F-3.6111179218846513e-12
sb(dp2152
I00
F28.34352
sI01
F83.7
ss(i__main__
State
p2153
(dp2154
g3
F-4.088902751911632e-12
sg4
F6.0
sg5
F5.99999999999414
sg6
F2.999999999995982
sb(dp2155
I00
I-74
sI01
F56.64
ss(i__main__
State
p2156
(dp2157
g3
F-8.000000000000535
sg4
F6.0
sg5
F-2.0000000000030207
sg6
F-5.000000000002136
sb(dp2158
I00
I-57
sI01
F54.82
ss(i__main__
State
p2159
(dp2160
g3
F-2.0000000000027818
sg4
F2.0
sg5
F3.9999999999949694
sg6
F0.9999999999956136
sb(dp2161
I00
F49.74
sI01
F8.34
ss(i__main__
State
p2162
(dp2163
g3
F4.999999999994436
sg4
F0.0
sg5
F-7.000000000000829
sg6
F7.999999999992832
sb(dp2164
I00
I35
sI01
F-70.4
ss(i__main__
State
p2165
(dp2166
g3
F0.9999999999953748
sg4
F3.0
sg5
F6.999999999993367
sg6
F3.999999999995208
sb(dp2167
I00
I-27
sI01
F-6.54
ss(i__main__
State
p2168
(dp2169
g3
F3.9999999999944897
sg4
F8.0
sg5
F-8.000000000000295
sg6
F6.999999999993128
sb(dp2170
I00
F3.772000000000004
sI01
F81.1
ss(i__main__
State
p2171
(dp2172
g3
F-2.000000000003021
sg4
F4.0
sg5
F3.999999999994251
sg6
F0.9999999999958541
sb(dp2173
I00
F22.66628
sI01
F-19.48
ss(i__main__
State
p2174
(dp2175
g3
F-6.0000000000011235
sg4
F1.0
sg5
F-4.089867781264986e-12
sg6
F-3.000000000003204
sb(dp2176
I00
I81
sI01
F86.62
ss(i__main__
State
p2177
(dp2178
g3
F-6.0000000000011235
sg4
F9.0
sg5
F-3.6106186729031124e-12
sg6
F-3.000000000002247
sb(dp2179
I00
F0.0
sI01
F2.4400000000000004
ss(i__main__
State
p2180
(dp2181
g3
F-5.000000000001658
sg4
F9.0
sg5
F0.9999999999958523
sg6
F-2.000000000002782
sb(dp2182
I00
F-3.9892400000000006
sI01
F-1.1600000000000001
ss(i__main__
State
p2183
(dp2184
g3
F7.999999999992354
sg4
F4.0
sg5
F-4.00000000000267
sg6
F-7.0000000000010685
sb(dp2185
I00
F16.151999999999997
sI01
F10.68
ss(i__main__
State
p2186
(dp2187
g3
F-8.000000000000535
sg4
F3.0
sg5
F-2.0000000000027818
sg6
F-5.000000000001897
sb(dp2188
I00
F-6.256417599999998
sI01
F83.06
ss(i__main__
State
p2189
(dp2190
g3
F-7.00000000000059
sg4
F0.0
sg5
F-1.0000000000037947
sg6
F-4.00000000000267
sb(dp2191
I00
I-96
sI01
F-65.58
ss(i__main__
State
p2192
(dp2193
g3
F3.9999999999944893
sg4
F8.0
sg5
F-8.000000000000535
sg6
F6.999999999992649
sb(dp2194
I00
F33.580000000000005
sI01
F-9.799999999999999
ss(i__main__
State
p2195
(dp2196
g3
F-6.000000000000885
sg4
F8.0
sg5
F-3.372181657871796e-12
sg6
F-3.0000000000024865
sb(dp2197
I00
I-20
sI01
F14.5
ss(i__main__
State
p2198
(dp2199
g3
F-3.000000000002248
sg4
F7.0
sg5
F2.999999999995024
sg6
F-4.088936220644318e-12
sb(dp2200
I00
I-96
sI01
F-19.1
ss(i__main__
State
p2201
(dp2202
g3
F5.999999999992944
sg4
F5.0
sg5
F-6.000000000001124
sg6
F8.999999999992538
sb(dp2203
I00
F-12.671936020000006
sI01
F-80.92
ss(i__main__
State
p2204
(dp2205
g3
F3.99999999999449
sg4
F7.0
sg5
F-8.000000000000535
sg6
F6.999999999993126
sb(dp2206
I00
F-20.764010896019997
sI01
F53.82
ss(i__main__
State
p2207
(dp2208
g3
F3.9999999999944906
sg4
F2.0
sg5
F-8.000000000000295
sg6
F6.9999999999928875
sb(dp2209
I00
F21.67862838
sI01
F34.08
ss(i__main__
State
p2210
(dp2211
g3
F6.999999999993127
sg4
F3.0
sg5
F-5.000000000001658
sg6
F-8.000000000000535
sb(dp2212
I00
F6.92
sI01
F-6.579999999999999
ss(i__main__
State
p2213
(dp2214
g3
F-2.0000000000032605
sg4
F3.0
sg5
F3.999999999994251
sg6
F0.9999999999956145
sb(dp2215
I00
F-4.535249051999998
sI01
F85.02
ss(i__main__
State
p2216
(dp2217
g3
F8.99999999999206
sg4
F9.0
sg5
F-3.000000000002247
sg6
F-6.000000000000885
sb(dp2218
I00
F0.0
sI01
F2.4400000000000004
ss(i__main__
State
p2219
(dp2220
g3
F1.999999999995318
sg4
F0.0
sg5
F7.999999999992832
sg6
F4.999999999993955
sb(dp2221
I00
F-22.541675999999995
sI01
F-60.36
ss(i__main__
State
p2222
(dp2223
g3
F8.999999999991822
sg4
F5.0
sg5
F-3.0000000000027263
sg6
F-6.000000000001602
sb(dp2224
I00
F64.72
sI01
F80.92
ss(i__main__
State
p2225
(dp2226
g3
F-4.000000000002191
sg4
F7.0
sg5
F1.9999999999957976
sg6
F-1.0000000000033165
sb(dp2227
I00
I35
sI01
F30.64
ss(i__main__
State
p2228
(dp2229
g3
F-3.849971910506166e-12
sg4
F9.0
sg5
F5.9999999999948574
sg6
F2.9999999999940674
sb(dp2230
I00
F-0.52
sI01
F-0.52
ss(i__main__
State
p2231
(dp2232
g3
F-4.000000000001952
sg4
F0.0
sg5
F1.9999999999960378
sg6
F-1.000000000002598
sb(dp2233
I00
I15
sI01
F-77.08
ss(i__main__
State
p2234
(dp2235
g3
F3.9999999999942504
sg4
F7.0
sg5
F-8.000000000000295
sg6
F6.999999999993606
sb(dp2236
I00
I55
sI01
F60.376
ss(i__main__
State
p2237
(dp2238
g3
F-3.000000000002487
sg4
F4.0
sg5
F2.999999999995502
sg6
F-3.850498277377184e-12
sb(dp2239
I00
I37
sI01
F-47.34
ss(i__main__
State
p2240
(dp2241
g3
F-3.3712880575266145e-12
sg4
F1.0
sg5
F5.999999999993901
sg6
F2.999999999994547
sb(dp2242
I00
I-63
sI01
F-48.56
ss(i__main__
State
p2243
(dp2244
g3
F-2.0000000000027813
sg4
F8.0
sg5
F3.9999999999944915
sg6
F0.999999999995853
sb(dp2245
I00
F34.39
sI01
F-36.8
ss(i__main__
State
p2246
(dp2247
g3
F0.9999999999953758
sg4
F5.0
sg5
F6.999999999994085
sg6
F3.9999999999942504
sb(dp2248
I00
I-6
sI01
F-67.6
ss(i__main__
State
p2249
(dp2250
g3
F2.9999999999950244
sg4
F9.0
sg5
F8.999999999992777
sg6
F5.999999999994141
sb(dp2251
I00
F0.0
sI01
F-1.3200000000000003
ss(i__main__
State
p2252
(dp2253
g3
F-5.000000000001657
sg4
F5.0
sg5
F0.9999999999958531
sg6
F-2.0000000000030203
sb(dp2254
I00
F46.1
sI01
F56.9
ss(i__main__
State
p2255
(dp2256
g3
F-5.000000000001897
sg4
F6.0
sg5
F0.999999999995614
sg6
F-2.0000000000027813
sb(dp2257
I00
F14.3
sI01
F-44.2
ss(i__main__
State
p2258
(dp2259
g3
F6.999999999994085
sg4
F7.0
sg5
F-5.000000000001658
sg6
F-8.000000000000535
sb(dp2260
I00
F14.373893999999998
sI01
F87.24
ss(i__main__
State
p2261
(dp2262
g3
F8.999999999992298
sg4
F6.0
sg5
F-3.000000000002726
sg6
F-6.0000000000011235
sb(dp2263
I00
I96
sI01
F-77.94
ss(i__main__
State
p2264
(dp2265
g3
F-6.000000000001363
sg4
F3.0
sg5
F-3.850482005993839e-12
sg6
F-3.0000000000027254
sb(dp2266
I00
F69.88
sI01
F38.38
ss(i__main__
State
p2267
(dp2268
g3
F-2.00000000000326
sg4
F3.0
sg5
F3.999999999994013
sg6
F0.9999999999960925
sb(dp2269
I00
F-2.0108358599999985
sI01
F33.24
ss(i__main__
State
p2270
(dp2271
g3
F7.999999999992832
sg4
F8.0
sg5
F-4.000000000002192
sg6
F-7.0000000000010685
sb(dp2272
I00
F47.698233985
sI01
F63.1
ss(i__main__
State
p2273
(dp2274
g3
F0.9999999999958535
sg4
F4.0
sg5
F6.99999999999265
sg6
F3.9999999999942513
sb(dp2275
I00
I92
sI01
F-11.68
ss(i__main__
State
p2276
(dp2277
g3
F3.999999999994969
sg4
F1.0
sg5
F-8.000000000000535
sg6
F6.999999999993128
sb(dp2278
I00
F12.493540352199997
sI01
F28.12
ss(i__main__
State
p2279
(dp2280
g3
F1.9999999999953189
sg4
F2.0
sg5
F7.999999999992355
sg6
F4.999999999993957
sb(dp2281
I00
F-64.0112
sI01
F41.08
ss(i__main__
State
p2282
(dp2283
g3
F-1.0000000000040337
sg4
F5.0
sg5
F4.9999999999949125
sg6
F1.9999999999955584
sb(dp2284
I00
F-10.607199999999999
sI01
F32.78
ss(i__main__
State
p2285
(dp2286
g3
F3.9999999999940115
sg4
F5.0
sg5
F-8.000000000000295
sg6
F6.999999999994084
sb(dp2287
I00
I92
sI01
F-56.16
ss(i__main__
State
p2288
(dp2289
g3
F-1.0000000000030762
sg4
F7.0
sg5
F4.999999999994435
sg6
F1.9999999999955582
sb(dp2290
I00
F3.3935980000000026
sI01
F-39.019999999999996
ss(i__main__
State
p2291
(dp2292
g3
F2.999999999994305
sg4
F4.0
sg5
F8.999999990255144
sg6
F5.999999999994141
sb(dp2293
I00
F10.389827100000002
sI01
F-42.0
ss(i__main__
State
p2294
(dp2295
g3
F1.9999999999960372
sg4
F3.0
sg5
F7.999999999993071
sg6
F4.999999999994433
sb(dp2296
I00
F-10.403906360531
sI01
F68.8
ss(i__main__
State
p2297
(dp2298
g3
F6.999999999993604
sg4
F3.0
sg5
F-5.000000000001658
sg6
F-8.000000000000535
sb(dp2299
I00
I-44
sI01
F15.6
ss(i__main__
State
p2300
(dp2301
g3
F-8.000000000000535
sg4
F4.0
sg5
F-2.0000000000030207
sg6
F-5.000000000002136
sb(dp2302
I00
I91
sI01
F-78.8
ss(i__main__
State
p2303
(dp2304
g3
F0.999999999996092
sg4
F9.0
sg5
F6.999999999994084
sg6
F3.999999999995207
sb(dp2305
I00
F0.0
sI01
F3.08
ss(i__main__
State
p2306
(dp2307
g3
F-6.000000000001124
sg4
F3.0
sg5
F-3.6106186729031124e-12
sg6
F-3.000000000002965
sb(dp2308
I00
F28.4648918
sI01
F-57.28
ss(i__main__
State
p2309
(dp2310
g3
F-7.000000000000829
sg4
F1.0
sg5
F-1.0000000000028382
sg6
F-4.000000000001474
sb(dp2311
I00
F15.478213999999998
sI01
F-63.76
ss(i__main__
State
p2312
(dp2313
g3
F-4.000000000002431
sg4
F2.0
sg5
F1.9999999999957971
sg6
F-1.000000000003077
sb(dp2314
I00
I12
sI01
F24.82
ss(i__main__
State
p2315
(dp2316
g3
F-5.000000000001418
sg4
F2.0
sg5
F0.9999999999956141
sg6
F-2.000000000002543
sb(dp2317
I00
I-63
sI01
F-67.68
ss(i__main__
State
p2318
(dp2319
g3
F-1.0000000000033165
sg4
F9.0
sg5
F4.999999999994435
sg6
F1.999999999995319
sb(dp2320
I00
F0.9254784905404682
sI01
F0.12000000000000002
ss(i__main__
State
p2321
(dp2322
g3
F2.999999999995742
sg4
F4.0
sg5
F8.999999999992777
sg6
F5.999999999994138
sb(dp2323
I00
F17.9132
sI01
F-70.78
ss(i__main__
State
p2324
(dp2325
g3
F-4.089341416297198e-12
sg4
F4.0
sg5
F5.999999999994858
sg6
F2.9999999999957425
sb(dp2326
I00
F79.76
sI01
F6.86
ss(i__main__
State
p2327
(dp2328
g3
F-3.0000000000027263
sg4
F0.0
sg5
F2.9999999999950244
sg6
F-3.849620942657854e-12
sb(dp2329
I00
F-9.506960420795137
sI01
F-12.66
ss(i__main__
State
p2330
(dp2331
g3
F0.9999999999958534
sg4
F7.0
sg5
F6.999999999993606
sg6
F3.999999999994969
sb(dp2332
I00
I-18
sI01
F28.5
ss(i__main__
State
p2333
(dp2334
g3
F-3.000000000002487
sg4
F9.0
sg5
F2.999999999995023
sg6
F-3.371320593809984e-12
sb(dp2335
I00
F0.0
sI01
F1.9200000000000004
ss(i__main__
State
p2336
(dp2337
g3
F3.999999999994251
sg4
F4.0
sg5
F-8.000000000000535
sg6
F6.999999999993606
sb(dp2338
I00
F43.364000000000004
sI01
F-30.939999999999998
ss(i__main__
State
p2339
(dp2340
g3
F5.999999999993184
sg4
F5.0
sg5
F-6.0000000000011235
sg6
F8.999999999992777
sb(dp2341
I00
I-37
sI01
F-46.48
ss(i__main__
State
p2342
(dp2343
g3
F4.999999999993238
sg4
F6.0
sg5
F-7.00000000000083
sg6
F7.999999999993073
sb(dp2344
I00
I72
sI01
F81.26
ss(i__main__
State
p2345
(dp2346
g3
F-3.000000000002965
sg4
F3.0
sg5
F2.9999999999955023
sg6
F-3.6115502366742367e-12
sb(dp2347
I00
I15
sI01
F55.76
ss(i__main__
State
p2348
(dp2349
g3
F-2.0000000000025424
sg4
F9.0
sg5
F3.9999999999944893
sg6
F0.9999999999963317
sb(dp2350
I00
F0.0
sI01
F2.0
ss(i__main__
State
p2351
(dp2352
g3
F-6.000000000001602
sg4
F9.0
sg5
F-4.088957911683323e-12
sg6
F-3.0000000000027263
sb(dp2353
I00
F4.0
sI01
F4.0
ss(i__main__
State
p2354
(dp2355
g3
F-4.000000000001952
sg4
F4.0
sg5
F1.9999999999953197
sg6
F-1.0000000000033156
sb(dp2356
I00
F70.46
sI01
F7.460000000000001
ss(i__main__
State
p2357
(dp2358
g3
F-8.000000000000295
sg4
F3.0
sg5
F-2.000000000003021
sg6
F-5.000000000001657
sb(dp2359
I00
F-54.952
sI01
F90.92
ss(i__main__
State
p2360
(dp2361
g3
F-8.000000000000295
sg4
F6.0
sg5
F-2.0000000000023035
sg6
F-5.000000000001658
sb(dp2362
I00
I-84
sI01
F24.7
ss(i__main__
State
p2363
(dp2364
g3
F-7.0000000000010685
sg4
F8.0
sg5
F-1.0000000000025984
sg6
F-4.000000000001953
sb(dp2365
I00
I-82
sI01
F-56.599999999999994
ss(i__main__
State
p2366
(dp2367
g3
F-3.6106846779191652e-12
sg4
F3.0
sg5
F5.9999999999946185
sg6
F2.9999999999950235
sb(dp2368
I00
I-12
sI01
F-54.48
ss(i__main__
State
p2369
(dp2370
g3
F-3.000000000002726
sg4
F6.0
sg5
F2.999999999995025
sg6
F-3.3717755289374337e-12
sb(dp2371
I00
F11.995709866536039
sI01
F-47.62
ss(i__main__
State
p2372
(dp2373
g3
F-3.000000000002248
sg4
F1.0
sg5
F2.9999999999947833
sg6
F-3.849988177806983e-12
sb(dp2374
I00
I15
sI01
F60.16
ss(i__main__
State
p2375
(dp2376
g3
F-3.3717755289374337e-12
sg4
F2.0
sg5
F5.99999999999366
sg6
F2.9999999999955027
sb(dp2377
I00
F-56.83219999999999
sI01
F61.48
ss(i__main__
State
p2378
(dp2379
g3
F-3.3717592616225974e-12
sg4
F4.0
sg5
F5.9999999999946185
sg6
F2.999999999995024
sb(dp2380
I00
F-28.318739999999995
sI01
F77.34
ss(i__main__
State
p2381
(dp2382
g3
F-4.089780083825204e-12
sg4
F6.0
sg5
F5.999999999993901
sg6
F2.999999999995025
sb(dp2383
I00
F11.586696690519998
sI01
F26.38
ss(i__main__
State
p2384
(dp2385
g3
F-4.000000000001952
sg4
F3.0
sg5
F1.9999999999948401
sg6
F-1.0000000000037939
sb(dp2386
I00
I-72
sI01
F-36.36
ss(i__main__
State
p2387
(dp2388
g3
F3.9999999999954468
sg4
F9.0
sg5
F-8.000000000000535
sg6
F6.999999999993605
sb(dp2389
I00
F3.1200000000000006
sI01
F3.1200000000000006
ss(i__main__
State
p2390
(dp2391
g3
F1.9999999999955587
sg4
F1.0
sg5
F7.999999999992355
sg6
F4.999999999993478
sb(dp2392
I00
F53.47966399999999
sI01
F-29.26
ss(i__main__
State
p2393
(dp2394
g3
F-2.0000000000034994
sg4
F6.0
sg5
F3.9999999999947295
sg6
F0.9999999999958529
sb(dp2395
I00
F40.166771816996665
sI01
F-2.3
ss(i__main__
State
p2396
(dp2397
g3
F-1.0000000000037939
sg4
F3.0
sg5
F4.999999999993955
sg6
F1.999999999995319
sb(dp2398
I00
F43.25955999999999
sI01
F29.14
ss(i__main__
State
p2399
(dp2400
g3
F-3.0000000000027263
sg4
F3.0
sg5
F2.999999999994785
sg6
F-3.610229743464951e-12
sb(dp2401
I00
F2.883746
sI01
F58.16
ss(i__main__
State
p2402
(dp2403
g3
F1.9999999999955582
sg4
F6.0
sg5
F7.999999999992116
sg6
F4.999999999993957
sb(dp2404
I00
I-75
sI01
F69.9
ss(i__main__
State
p2405
(dp2406
g3
F-8.000000000000295
sg4
F8.0
sg5
F-2.0000000000027818
sg6
F-5.000000000001657
sb(dp2407
I00
F70.81561456362999
sI01
F-9.799999999999999
ss(i__main__
State
p2408
(dp2409
g3
F7.999999999992115
sg4
F2.0
sg5
F-4.000000000002431
sg6
F-7.0000000000010685
sb(dp2410
I00
F66.116
sI01
F-85.66
ss(i__main__
State
p2411
(dp2412
g3
F-7.0000000000010685
sg4
F5.0
sg5
F-1.0000000000028377
sg6
F-4.000000000002192
sb(dp2413
I00
I71
sI01
F23.1
ss(i__main__
State
p2414
(dp2415
g3
F3.9999999999944897
sg4
F4.0
sg5
F-8.000000000000535
sg6
F6.999999999993365
sb(dp2416
I00
F41.91566
sI01
F75.74
ss(i__main__
State
p2417
(dp2418
g3
F8.999999999992538
sg4
F8.0
sg5
F-3.000000000002965
sg6
F-6.0000000000011235
sb(dp2419
I00
F78.99910452634582
sI01
F-65.6
ss(i__main__
State
p2420
(dp2421
g3
F-1.000000000003555
sg4
F5.0
sg5
F4.999999999994195
sg6
F1.9999999999955596
sb(dp2422
I00
F-17.759999999999998
sI01
F-34.86
ss(i__main__
State
p2423
(dp2424
g3
F2.9999999999943063
sg4
F5.0
sg5
F8.999999999992777
sg6
F5.999999999993183
sb(dp2425
I00
I28
sI01
F-16.38
ss(i__main__
State
p2426
(dp2427
g3
F2.999999999994784
sg4
F7.0
sg5
F8.99999999999206
sg6
F5.999999999993183
sb(dp2428
I00
F6.228
sI01
F59.22
ss(i__main__
State
p2429
(dp2430
g3
F-2.0000000000025424
sg4
F0.0
sg5
F3.9999999999952083
sg6
F0.9999999999956144
sb(dp2431
I00
F-64.88
sI01
F-16.28
ss(i__main__
State
p2432
(dp2433
g3
F-5.000000000001658
sg4
F6.0
sg5
F0.9999999999953751
sg6
F-2.0000000000027813
sb(dp2434
I00
F-30.572050000000004
sI01
F-63.4
ss(i__main__
State
p2435
(dp2436
g3
F-3.0000000000020086
sg4
F9.0
sg5
F2.9999999999945453
sg6
F-3.3717429910546177e-12
sb(dp2437
I00
F0.0
sI01
F2.8800000000000003
ss(i__main__
State
p2438
(dp2439
g3
F-1.0000000000030775
sg4
F8.0
sg5
F4.9999999999949125
sg6
F1.9999999999960363
sb(dp2440
I00
F-22.6907
sI01
F-19.7
ss(i__main__
State
p2441
(dp2442
g3
F3.9999999999947295
sg4
F8.0
sg5
F-8.000000000000535
sg6
F6.999999999992888
sb(dp2443
I00
F29.53
sI01
F44.2
ss(i__main__
State
p2444
(dp2445
g3
F5.999999999993182
sg4
F1.0
sg5
F-6.000000000001602
sg6
F8.9999999999923
sb(dp2446
I00
F9.695152312800003
sI01
F-46.92
ss(i__main__
State
p2447
(dp2448
g3
F4.999999999993956
sg4
F4.0
sg5
F-7.0000000000010685
sg6
F7.999999999992116
sb(dp2449
I00
F-48.0056
sI01
F66.64
ss(i__main__
State
p2450
(dp2451
g3
F2.9999999999947846
sg4
F4.0
sg5
F8.999999999992776
sg6
F5.999999999994378
sb(dp2452
I00
I66
sI01
F-26.759999999999998
ss(i__main__
State
p2453
(dp2454
g3
F0.9999999999968102
sg4
F2.0
sg5
F6.999999999993606
sg6
F3.9999999999942513
sb(dp2455
I00
I66
sI01
F32.24
ss(i__main__
State
p2456
(dp2457
g3
F-1.0000000000030767
sg4
F8.0
sg5
F4.999999999994196
sg6
F1.9999999999948401
sb(dp2458
I00
F40.87
sI01
F-11.6
ss(i__main__
State
p2459
(dp2460
g3
F-3.000000000002486
sg4
F6.0
sg5
F2.9999999999952633
sg6
F-3.849599251421266e-12
sb(dp2461
I00
F32.07370089724161
sI01
F-22.68
ss(i__main__
State
p2462
(dp2463
g3
F-4.000000000002191
sg4
F3.0
sg5
F1.9999999999953197
sg6
F-1.0000000000037939
sb(dp2464
I00
I25
sI01
F11.780000000000001
ss(i__main__
State
p2465
(dp2466
g3
F-8.000000000000295
sg4
F9.0
sg5
F-2.0000000000027813
sg6
F-5.000000000001897
sb(dp2467
I00
F0.0
sI01
F2.8800000000000003
ss(i__main__
State
p2468
(dp2469
g3
F5.999999999993422
sg4
F2.0
sg5
F-6.000000000001363
sg6
F8.999999999993017
sb(dp2470
I00
I28
sI01
F74.86
ss(i__main__
State
p2471
(dp2472
g3
F6.999999999993367
sg4
F6.0
sg5
F-5.000000000001658
sg6
F-8.000000000000535
sb(dp2473
I00
I48
sI01
F49.14
ss(i__main__
State
p2474
(dp2475
g3
F3.99999999999449
sg4
F6.0
sg5
F-8.000000000000295
sg6
F6.999999999993367
sb(dp2476
I00
F19.238599999999998
sI01
F88.75999999999999
ss(i__main__
State
p2477
(dp2478
g3
F4.999999999993716
sg4
F3.0
sg5
F-7.0000000000010685
sg6
F7.999999999993311
sb(dp2479
I00
F8.00392082446
sI01
F10.54
ss(i__main__
State
p2480
(dp2481
g3
F2.9999999999952642
sg4
F4.0
sg5
F8.999999999992538
sg6
F5.999999999994378
sb(dp2482
I00
F76.114
sI01
F47.8
ss(i__main__
State
p2483
(dp2484
g3
F-8.000000000000535
sg4
F6.0
sg5
F-2.0000000000032605
sg6
F-5.000000000002136
sb(dp2485
I00
I-31
sI01
F82.2
ss(i__main__
State
p2486
(dp2487
g3
F-5.000000000001897
sg4
F0.0
sg5
F0.9999999999965713
sg6
F-2.0000000000025424
sb(dp2488
I00
F-11.025861172570597
sI01
F83.36
ss(i__main__
State
p2489
(dp2490
g3
F0.9999999999956124
sg4
F0.0
sg5
F6.99999999999313
sg6
F3.99999999999473
sb(dp2491
I00
I38
sI01
F-9.78
ss(i__main__
State
p2492
(dp2493
g3
F-2.0000000000027827
sg4
F7.0
sg5
F3.999999999995208
sg6
F0.9999999999965705
sb(dp2494
I00
F-34.62
sI01
F14.879999999999999
ss(i__main__
State
p2495
(dp2496
g3
F7.999999999993311
sg4
F2.0
sg5
F-4.000000000002191
sg6
F-7.00000000000059
sb(dp2497
I00
F3.396540000000001
sI01
F-14.64
ss(i__main__
State
p2498
(dp2499
g3
F-4.000000000002431
sg4
F9.0
sg5
F1.9999999999953189
sg6
F-1.0000000000035545
sb(dp2500
I00
F0.0
sI01
F2.2
ss(i__main__
State
p2501
(dp2502
g3
F2.9999999999950244
sg4
F4.0
sg5
F8.9999999999923
sg6
F5.9999999999939
sb(dp2503
I00
F25.214593710208838
sI01
F-38.36
ss(i__main__
State
p2504
(dp2505
g3
F-7.00000000000083
sg4
F2.0
sg5
F-1.0000000000035554
sg6
F-4.000000000002191
sb(dp2506
I00
F-21.764
sI01
F-80.66
ss(i__main__
State
p2507
(dp2508
g3
F6.999999999993846
sg4
F1.0
sg5
F-5.000000000001896
sg6
F-8.000000000000535
sb(dp2509
I00
F30.089449690648884
sI01
F38.92
ss(i__main__
State
p2510
(dp2511
g3
F-8.000000000000535
sg4
F6.0
sg5
F-2.000000000003021
sg6
F-5.000000000001897
sb(dp2512
I00
I80
sI01
F-84.78
ss(i__main__
State
p2513
(dp2514
g3
F4.999999999993956
sg4
F9.0
sg5
F-7.00000000000059
sg6
F7.999999999992833
sb(dp2515
I00
F0.0
sI01
F1.0
ss(i__main__
State
p2516
(dp2517
g3
F-3.0000000000022475
sg4
F1.0
sg5
F2.9999999999947846
sg6
F-3.1323734845527622e-12
sb(dp2518
I00
I56
sI01
F-53.08
ss(i__main__
State
p2519
(dp2520
g3
F7.999999999992593
sg4
F3.0
sg5
F-4.000000000001952
sg6
F-7.00000000000059
sb(dp2521
I00
I20
sI01
F60.28
ss(i__main__
State
p2522
(dp2523
g3
F6.999999999993367
sg4
F2.0
sg5
F-5.000000000001657
sg6
F-8.000000000000535
sb(dp2524
I00
I-36
sI01
F-32.38
ss(i__main__
State
p2525
(dp2526
g3
F2.9999999999952633
sg4
F4.0
sg5
F8.999999999993017
sg6
F5.99999999999414
sb(dp2527
I00
I64
sI01
F-82.44
ss(i__main__
State
p2528
(dp2529
g3
F-3.0000000000027254
sg4
F9.0
sg5
F2.999999999995263
sg6
F-3.850482005993839e-12
sb(dp2530
I00
F0.0
sI01
F3.9200000000000004
ss(i__main__
State
p2531
(dp2532
g3
F3.9999999999947287
sg4
F5.0
sg5
F-8.000000000000295
sg6
F6.999999999993127
sb(dp2533
I00
F71.34
sI01
F34.44
ss(i__main__
State
p2534
(dp2535
g3
F2.999999999994784
sg4
F1.0
sg5
F8.999999999993015
sg6
F5.99999999999366
sb(dp2536
I00
I-99
sI01
F-1.5199999999999996
ss(i__main__
State
p2537
(dp2538
g3
F-6.000000000000885
sg4
F8.0
sg5
F-3.3716932531794945e-12
sg6
F-3.0000000000020086
sb(dp2539
I00
F13.600000000000001
sI01
F-50.3
ss(i__main__
State
p2540
(dp2541
g3
F2.999999999994786
sg4
F6.0
sg5
F8.999999999992538
sg6
F5.999999999994141
sb(dp2542
I00
I-82
sI01
F-0.9600000000000002
ss(i__main__
State
p2543
(dp2544
g3
F2.999999999995263
sg4
F2.0
sg5
F8.99999999999182
sg6
F5.999999999993661
sb(dp2545
I00
I18
sI01
F16.82
ss(i__main__
State
p2546
(dp2547
g3
F-1.0000000000028373
sg4
F1.0
sg5
F4.999999999994913
sg6
F1.9999999999950802
sb(dp2548
I00
F39.94
sI01
F80.44
ss(i__main__
State
p2549
(dp2550
g3
F3.999999999994968
sg4
F9.0
sg5
F-8.000000000000535
sg6
F6.999999999994084
sb(dp2551
I00
F0.0
sI01
F2.9200000000000004
ss(i__main__
State
p2552
(dp2553
g3
F2.999999999994786
sg4
F1.0
sg5
F8.999999999992488
sg6
F5.999999999993902
sb(dp2554
I00
F2.2218905653132612
sI01
F-46.7
ss(i__main__
State
p2555
(dp2556
g3
F-1.0000000000037943
sg4
F6.0
sg5
F4.999999999994195
sg6
F1.99999999999508
sb(dp2557
I00
F8.400787400000002
sI01
F68.96
ss(i__main__
State
p2558
(dp2559
g3
F6.99999999999241
sg4
F7.0
sg5
F-5.000000000001658
sg6
F-8.000000000000535
sb(dp2560
I00
I88
sI01
F56.58
ss(i__main__
State
p2561
(dp2562
g3
F-8.000000000000295
sg4
F0.0
sg5
F-2.000000000002782
sg6
F-5.000000000001897
sb(dp2563
I00
F-27.759999999999998
sI01
F-58.36
ss(i__main__
State
p2564
(dp2565
g3
F-3.611101652771128e-12
sg4
F6.0
sg5
F5.99999999999414
sg6
F2.9999999999945466
sb(dp2566
I00
I58
sI01
F-76.62
ss(i__main__
State
p2567
(dp2568
g3
F-1.0000000000030775
sg4
F3.0
sg5
F4.999999999994196
sg6
F1.999999999996037
sb(dp2569
I00
I14
sI01
F39.08
ss(i__main__
State
p2570
(dp2571
g3
F3.9999999999947295
sg4
F2.0
sg5
F-8.000000000000535
sg6
F6.9999999999928875
sb(dp2572
I00
I82
sI01
F-54.98
ss(i__main__
State
p2573
(dp2574
g3
F-3.0000000000027254
sg4
F3.0
sg5
F2.9999999999955027
sg6
F-3.1323897536662854e-12
sb(dp2575
I00
I17
sI01
F45.04
ss(i__main__
State
p2576
(dp2577
g3
F0.9999999999956141
sg4
F9.0
sg5
F6.999999999993606
sg6
F3.9999999999949685
sb(dp2578
I00
F3.1638800000000007
sI01
F0.9200000000000002
ss(i__main__
State
p2579
(dp2580
g3
F-5.000000000001658
sg4
F7.0
sg5
F0.9999999999953755
sg6
F-2.0000000000034994
sb(dp2581
I00
I8
sI01
F3.3600000000000003
ss(i__main__
State
p2582
(dp2583
g3
F-4.000000000001952
sg4
F5.0
sg5
F1.9999999999950806
sg6
F-1.000000000003316
sb(dp2584
I00
I-22
sI01
F-49.1
ss(i__main__
State
p2585
(dp2586
g3
F0.9999999999960919
sg4
F1.0
sg5
F6.9999999999928875
sg6
F3.99999999999449
sb(dp2587
I00
I-42
sI01
F84.42
ss(i__main__
State
p2588
(dp2589
g3
F3.9999999999947287
sg4
F9.0
sg5
F-8.000000000000295
sg6
F6.999999999993128
sb(dp2590
I00
F21.240085720162405
sI01
F2.9600000000000004
ss(i__main__
State
p2591
(dp2592
g3
F-6.000000000001363
sg4
F7.0
sg5
F-4.3291604352352045e-12
sg6
F-3.0000000000029647
sb(dp2593
I00
F-11.255264498999992
sI01
F69.9
ss(i__main__
State
p2594
(dp2595
g3
F-3.610240588709315e-12
sg4
F1.0
sg5
F5.999999999993662
sg6
F2.999999999995025
sb(dp2596
I00
F-0.1674633133159975
sI01
F42.4
ss(i__main__
State
p2597
(dp2598
g3
F-4.000000000001952
sg4
F8.0
sg5
F1.9999999999950795
sg6
F-1.000000000003316
sb(dp2599
I00
F65.261167012837
sI01
F0.10000000000000142
ss(i__main__
State
p2600
(dp2601
g3
F0.9999999999958543
sg4
F2.0
sg5
F6.999999999993128
sg6
F3.99999999999473
sb(dp2602
I00
F18.85735
sI01
F-65.6
ss(i__main__
State
p2603
(dp2604
g3
F3.999999999994729
sg4
F4.0
sg5
F-8.000000000000295
sg6
F6.9999999999926485
sb(dp2605
I00
F1.874
sI01
F79.76
ss(i__main__
State
p2606
(dp2607
g3
F0.9999999999958525
sg4
F9.0
sg5
F6.999999999994323
sg6
F3.9999999999947273
sb(dp2608
I00
F7.5349840000000015
sI01
F1.8400000000000003
ss(i__main__
State
p2609
(dp2610
g3
F0.9999999999951351
sg4
F6.0
sg5
F6.999999999993606
sg6
F3.9999999999942513
sb(dp2611
I00
F-12.191864153159436
sI01
F27.26
ss(i__main__
State
p2612
(dp2613
g3
F-2.000000000002303
sg4
F1.0
sg5
F3.9999999999942504
sg6
F0.9999999999958549
sb(dp2614
I00
I-26
sI01
F84.96
ss(i__main__
State
p2615
(dp2616
g3
F-2.000000000003021
sg4
F4.0
sg5
F3.9999999999949685
sg6
F0.9999999999958532
sb(dp2617
I00
I-94
sI01
F-44.019999999999996
ss(i__main__
State
p2618
(dp2619
g3
F5.99999999999414
sg4
F3.0
sg5
F-6.000000000001363
sg6
F8.999999999993014
sb(dp2620
I00
F22.206939201697
sI01
F17.5
ss(i__main__
State
p2621
(dp2622
g3
F-5.000000000001658
sg4
F9.0
sg5
F0.9999999999958534
sg6
F-2.0000000000030207
sb(dp2623
I00
F0.0
sI01
F-3.08
ss(i__main__
State
p2624
(dp2625
g3
F-2.0000000000032605
sg4
F4.0
sg5
F3.999999999994729
sg6
F0.999999999995854
sb(dp2626
I00
I-6
sI01
F76.48
ss(i__main__
State
p2627
(dp2628
g3
F7.99999999999307
sg4
F2.0
sg5
F-4.000000000001714
sg6
F-7.00000000000059
sb(dp2629
I00
F-26.330263730979063
sI01
F68.64
ss(i__main__
State
p2630
(dp2631
g3
F-8.000000000000535
sg4
F4.0
sg5
F-2.0000000000027813
sg6
F-5.000000000001897
sb(dp2632
I00
F-41.475685999999996
sI01
F-49.46
ss(i__main__
State
p2633
(dp2634
g3
F6.999999999993366
sg4
F0.0
sg5
F-5.000000000001658
sg6
F-8.000000000000295
sb(dp2635
I00
F-33.945674800000006
sI01
F64.58
ss(i__main__
State
p2636
(dp2637
g3
F-5.000000000001657
sg4
F3.0
sg5
F0.9999999999958533
sg6
F-2.000000000002782
sb(dp2638
I00
I-57
sI01
F-46.82
ss(i__main__
State
p2639
(dp2640
g3
F-7.00000000000059
sg4
F7.0
sg5
F-1.000000000003077
sg6
F-4.000000000002431
sb(dp2641
I00
F-64.85822
sI01
F-8.18
ss(i__main__
State
p2642
(dp2643
g3
F3.9999999999937725
sg4
F0.0
sg5
F-8.000000000000535
sg6
F6.999999999992649
sb(dp2644
I00
I33
sI01
F-44.84
ss(i__main__
State
p2645
(dp2646
g3
F-7.00000000000059
sg4
F5.0
sg5
F-1.0000000000033156
sg6
F-4.000000000002431
sb(dp2647
I00
F-81.82
sI01
F26.18
ss(i__main__
State
p2648
(dp2649
g3
F-6.0000000000013625
sg4
F8.0
sg5
F-4.089780083825204e-12
sg6
F-3.0000000000027263
sb(dp2650
I00
F22.515902200000006
sI01
F-48.5
ss(i__main__
State
p2651
(dp2652
g3
F-8.000000000000535
sg4
F5.0
sg5
F-2.0000000000027813
sg6
F-5.000000000001418
sb(dp2653
I00
I7
sI01
F64.84
ss(i__main__
State
p2654
(dp2655
g3
F7.9999999999925935
sg4
F9.0
sg5
F-4.000000000002431
sg6
F-7.00000000000059
sb(dp2656
I00
F0.0
sI01
F0.0
ss(i__main__
State
p2657
(dp2658
g3
F2.999999999995742
sg4
F5.0
sg5
F8.999999999992538
sg6
F5.999999999993183
sb(dp2659
I00
I-64
sI01
F65.46
ss(i__main__
State
p2660
(dp2661
g3
F-2.0000000000030207
sg4
F2.0
sg5
F3.999999999995448
sg6
F0.9999999999968111
sb(dp2662
I00
I-80
sI01
F-12.379999999999999
ss(i__main__
State
p2663
(dp2664
g3
F-7.00000000000083
sg4
F7.0
sg5
F-1.000000000003555
sg6
F-4.000000000001952
sb(dp2665
I00
I-95
sI01
F51.76
ss(i__main__
State
p2666
(dp2667
g3
F-6.000000000001602
sg4
F1.0
sg5
F-3.3713260199489646e-12
sg6
F-3.000000000002248
sb(dp2668
I00
I-43
sI01
F-79.48
ss(i__main__
State
p2669
(dp2670
g3
F7.9999999999925935
sg4
F3.0
sg5
F-4.00000000000243
sg6
F-7.0000000000010685
sb(dp2671
I00
I-83
sI01
F2.1
ss(i__main__
State
p2672
(dp2673
g3
F-4.000000000002192
sg4
F8.0
sg5
F1.9999999999955576
sg6
F-1.0000000000030762
sb(dp2674
I00
F-18.826999999999998
sI01
F-7.1
ss(i__main__
State
p2675
(dp2676
g3
F4.999999999993957
sg4
F4.0
sg5
F-7.00000000000083
sg6
F7.999999999992833
sb(dp2677
I00
I55
sI01
F82.16
ss(i__main__
State
p2678
(dp2679
g3
F3.9999999999944897
sg4
F5.0
sg5
F-8.000000000000535
sg6
F6.999999999993128
sb(dp2680
I00
F87.03999999999999
sI01
F69.94
ss(i__main__
State
p2681
(dp2682
g3
F7.99999999999355
sg4
F6.0
sg5
F-4.000000000001474
sg6
F-7.0000000000010685
sb(dp2683
I00
I27
sI01
F33.34
ss(i__main__
State
p2684
(dp2685
g3
F-8.000000000000535
sg4
F1.0
sg5
F-2.000000000003021
sg6
F-5.000000000001897
sb(dp2686
I00
F12.105862260419993
sI01
F-85.02
ss(i__main__
State
p2687
(dp2688
g3
F-3.0000000000024873
sg4
F6.0
sg5
F2.999999999994785
sg6
F-4.089352261916171e-12
sb(dp2689
I00
I62
sI01
F-6.76
ss(i__main__
State
p2690
(dp2691
g3
F2.999999999994785
sg4
F1.0
sg5
F8.999999999992298
sg6
F5.999999999993902
sb(dp2692
I00
I-32
sI01
F47.84
ss(i__main__
State
p2693
(dp2694
g3
F-3.3721590350841854e-12
sg4
F0.0
sg5
F5.999999999993182
sg6
F2.9999999999950244
sb(dp2695
I00
F-81.78
sI01
F68.52
ss(i__main__
State
p2696
(dp2697
g3
F3.999999999994728
sg4
F8.0
sg5
F-8.000000000000535
sg6
F6.999999999992649
sb(dp2698
I00
F20.62
sI01
F-31.4
ss(i__main__
State
p2699
(dp2700
g3
F4.999999999993716
sg4
F8.0
sg5
F-7.000000000000829
sg6
F7.999999999993072
sb(dp2701
I00
F62.436871648027
sI01
F91.9
ss(i__main__
State
p2702
(dp2703
g3
F3.9999999999949694
sg4
F4.0
sg5
F-8.000000000000295
sg6
F6.999999999993607
sb(dp2704
I00
I-23
sI01
F-10.36
ss(i__main__
State
p2705
(dp2706
g3
F5.999999999993182
sg4
F5.0
sg5
F-6.000000000001602
sg6
F8.99999999999182
sb(dp2707
I00
F1.6604580000000007
sI01
F-49.92
ss(i__main__
State
p2708
(dp2709
g3
F-5.0000000000011795
sg4
F9.0
sg5
F0.9999999999963315
sg6
F-2.0000000000027813
sb(dp2710
I00
F0.0
sI01
F-0.56
ss(i__main__
State
p2711
(dp2712
g3
F2.999999999995502
sg4
F8.0
sg5
F8.999999999993735
sg6
F5.999999999994141
sb(dp2713
I00
F92.7829
sI01
F15.4
ss(i__main__
State
p2714
(dp2715
g3
F-3.000000000002487
sg4
F1.0
sg5
F2.9999999999952633
sg6
F-3.132368062627281e-12
sb(dp2716
I00
F81.63799999999999
sI01
F-47.08
ss(i__main__
State
p2717
(dp2718
g3
F-3.000000000002487
sg4
F2.0
sg5
F2.9999999999945453
sg6
F-3.6106629859539497e-12
sb(dp2719
I00
I-78
sI01
F-76.56
ss(i__main__
State
p2720
(dp2721
g3
F-3.0000000000027263
sg4
F0.0
sg5
F2.999999999995025
sg6
F-3.1323951775134136e-12
sb(dp2722
I00
F-77.42
sI01
F57.58
ss(i__main__
State
p2723
(dp2724
g3
F7.99999999999379
sg4
F4.0
sg5
F-4.000000000001713
sg6
F-7.00000000000059
sb(dp2725
I00
F-37.604365238
sI01
F61.18
ss(i__main__
State
p2726
(dp2727
g3
F-4.000000000002191
sg4
F1.0
sg5
F1.9999999999953184
sg6
F-1.0000000000035554
sb(dp2728
I00
I96
sI01
F-41.82
ss(i__main__
State
p2729
(dp2730
g3
F-3.0000000000024873
sg4
F2.0
sg5
F2.99999999025763
sg6
F-3.3712491639696444e-12
sb(dp2731
I00
F36.60980000000001
sI01
F64.58
ss(i__main__
State
p2732
(dp2733
g3
F-6.0000000000011235
sg4
F8.0
sg5
F-2.893464335355535e-12
sg6
F-3.000000000002487
sb(dp2734
I00
F-47.419999999999995
sI01
F23.5
ss(i__main__
State
p2735
(dp2736
g3
F6.999999999993607
sg4
F9.0
sg5
F-5.0000000000011795
sg6
F-8.000000000000295
sb(dp2737
I00
F-2.7600000000000002
sI01
F-2.7600000000000002
ss(i__main__
State
p2738
(dp2739
g3
F2.9999999999952625
sg4
F7.0
sg5
F8.999999999992298
sg6
F5.999999999993901
sb(dp2740
I00
F15.215935082421392
sI01
F-27.48
ss(i__main__
State
p2741
(dp2742
g3
F5.99999999999414
sg4
F5.0
sg5
F-6.000000000001124
sg6
F8.99999999999206
sb(dp2743
I00
I-50
sI01
F-29.52
ss(i__main__
State
p2744
(dp2745
g3
F6.999999999993606
sg4
F9.0
sg5
F-5.000000000001658
sg6
F-8.000000000000295
sb(dp2746
I00
F0.0
sI01
F-1.3200000000000003
ss(i__main__
State
p2747
(dp2748
g3
F-8.000000000000535
sg4
F3.0
sg5
F-2.0000000000030207
sg6
F-5.000000000001418
sb(dp2749
I00
I72
sI01
F-77.06
ss(i__main__
State
p2750
(dp2751
g3
F-3.850037916783989e-12
sg4
F6.0
sg5
F5.999999999993423
sg6
F2.999999999995264
sb(dp2752
I00
I37
sI01
F46.98
ss(i__main__
State
p2753
(dp2754
g3
F-8.000000000000535
sg4
F1.0
sg5
F-2.000000000003021
sg6
F-5.000000000001657
sb(dp2755
I00
I54
sI01
F69.74
ss(i__main__
State
p2756
(dp2757
g3
F5.999999999993662
sg4
F5.0
sg5
F-6.000000000001363
sg6
F8.99999999999254
sb(dp2758
I00
I-91
sI01
F28.14
ss(i__main__
State
p2759
(dp2760
g3
F-7.000000000000829
sg4
F1.0
sg5
F-1.0000000000037947
sg6
F-4.000000000002191
sb(dp2761
I00
F-0.3294879218392257
sI01
F-85.72
ss(i__main__
State
p2762
(dp2763
g3
F-4.00000000000243
sg4
F0.0
sg5
F1.9999999999948406
sg6
F-1.0000000000028377
sb(dp2764
I00
I-87
sI01
F9.08
ss(i__main__
State
p2765
(dp2766
g3
F-1.0000000000030767
sg4
F1.0
sg5
F4.9999999999946745
sg6
F1.9999999999957976
sb(dp2767
I00
F-23.307158200000003
sI01
F79.7
ss(i__main__
State
p2768
(dp2769
g3
F6.999999999993127
sg4
F9.0
sg5
F-5.000000000001896
sg6
F-8.000000000000295
sb(dp2770
I00
F3.4398840000000006
sI01
F0.8400000000000001
ss(i__main__
State
p2771
(dp2772
g3
F-4.000000000001952
sg4
F7.0
sg5
F1.9999999999955587
sg6
F-1.000000000003555
sb(dp2773
I00
I-48
sI01
F36.4
ss(i__main__
State
p2774
(dp2775
g3
F-5.000000000001897
sg4
F7.0
sg5
F0.9999999999960918
sg6
F-2.000000000002542
sb(dp2776
I00
I45
sI01
F59.54
ss(i__main__
State
p2777
(dp2778
g3
F4.999999999993957
sg4
F0.0
sg5
F-7.00000000000059
sg6
F7.99999999999403
sb(dp2779
I00
I70
sI01
F44.6
ss(i__main__
State
p2780
(dp2781
g3
F6.999999999993127
sg4
F4.0
sg5
F-5.0000000000011795
sg6
F-8.000000000000535
sb(dp2782
I00
F-49.917289800000006
sI01
F80.88
ss(i__main__
State
p2783
(dp2784
g3
F-3.0000000000017693
sg4
F1.0
sg5
F2.9999999999955023
sg6
F-3.849961065567431e-12
sb(dp2785
I00
I15
sI01
F93.44
ss(i__main__
State
p2786
(dp2787
g3
F1.999999999995559
sg4
F7.0
sg5
F7.99999999999355
sg6
F4.999999999993717
sb(dp2788
I00
F76.3
sI01
F-16.4
ss(i__main__
State
p2789
(dp2790
g3
F0.9999999999958529
sg4
F7.0
sg5
F6.999999999993127
sg6
F3.999999999994729
sb(dp2791
I00
I40
sI01
F16.36
ss(i__main__
State
p2792
(dp2793
g3
F1.9999999999957974
sg4
F2.0
sg5
F7.999999999992355
sg6
F4.999999999993238
sb(dp2794
I00
I55
sI01
F3.34
ss(i__main__
State
p2795
(dp2796
g3
F-3.000000000002486
sg4
F8.0
sg5
F2.999999999995742
sg6
F-3.371687831497651e-12
sb(dp2797
I00
F91.496944
sI01
F31.6
ss(i__main__
State
p2798
(dp2799
g3
F-3.0000000000024873
sg4
F8.0
sg5
F2.999999999995263
sg6
F-3.1323508617651516e-12
sb(dp2800
I00
F79.0048
sI01
F37.9
ss(i__main__
State
p2801
(dp2802
g3
F2.999999999995025
sg4
F4.0
sg5
F8.999999999992777
sg6
F5.999999999993184
sb(dp2803
I00
I-42
sI01
F-33.78
ss(i__main__
State
p2804
(dp2805
g3
F-2.0000000000027813
sg4
F3.0
sg5
F3.9999999999947295
sg6
F0.999999999995136
sb(dp2806
I00
I33
sI01
F-28.06
ss(i__main__
State
p2807
(dp2808
g3
F-2.00000000000326
sg4
F0.0
sg5
F3.999999999994491
sg6
F0.9999999999958543
sb(dp2809
I00
F-32.58512362
sI01
F54.08
ss(i__main__
State
p2810
(dp2811
g3
F8.999999999992538
sg4
F6.0
sg5
F-3.000000000002487
sg6
F-6.000000000001363
sb(dp2812
I00
I-49
sI01
F3.68
ss(i__main__
State
p2813
(dp2814
g3
F4.999999999993718
sg4
F0.0
sg5
F-7.000000000000829
sg6
F7.999999999993072
sb(dp2815
I00
I-53
sI01
F9.719999999999999
ss(i__main__
State
p2816
(dp2817
g3
F4.999999999994435
sg4
F4.0
sg5
F-7.0000000000010685
sg6
F7.999999999993789
sb(dp2818
I00
I-29
sI01
F81.94
ss(i__main__
State
p2819
(dp2820
g3
F3.9999999999944897
sg4
F3.0
sg5
F-8.000000000000535
sg6
F6.9999999999924105
sb(dp2821
I00
I87
sI01
F-83.44
ss(i__main__
State
p2822
(dp2823
g3
F8.999999999992776
sg4
F5.0
sg5
F-3.000000000002248
sg6
F-6.000000000001363
sb(dp2824
I00
F19.87436
sI01
F-30.76
ss(i__main__
State
p2825
(dp2826
g3
F-8.000000000000295
sg4
F2.0
sg5
F-2.0000000000030203
sg6
F-5.000000000001657
sb(dp2827
I00
I44
sI01
F-83.44
ss(i__main__
State
p2828
(dp2829
g3
F-3.0000000000024865
sg4
F4.0
sg5
F2.999999999994785
sg6
F-3.8504874298409665e-12
sb(dp2830
I00
F33.6117822641893
sI01
F37.52
ss(i__main__
State
p2831
(dp2832
g3
F-7.00000000000059
sg4
F1.0
sg5
F-1.000000000003077
sg6
F-4.000000000001713
sb(dp2833
I00
F15.111239999999999
sI01
F27.96
ss(i__main__
State
p2834
(dp2835
g3
F-6.000000000001124
sg4
F2.0
sg5
F-4.568085854342049e-12
sg6
F-3.000000000002248
sb(dp2836
I00
F1.5894334000000014
sI01
F86.86
ss(i__main__
State
p2837
(dp2838
g3
F5.999999999994139
sg4
F9.0
sg5
F-6.000000000001363
sg6
F8.999999999993255
sb(dp2839
I00
F0.0
sI01
F2.6400000000000006
ss(i__main__
State
p2840
(dp2841
g3
F-2.0000000000034985
sg4
F2.0
sg5
F3.9999999999949694
sg6
F0.9999999999956137
sb(dp2842
I00
I-98
sI01
F8.64
ss(i__main__
State
p2843
(dp2844
g3
F7.9999999999925935
sg4
F0.0
sg5
F-4.000000000002431
sg6
F-7.000000000000829
sb(dp2845
I00
I23
sI01
F9.56
ss(i__main__
State
p2846
(dp2847
g3
F4.999999999994435
sg4
F3.0
sg5
F-7.0000000000010685
sg6
F7.999999999993551
sb(dp2848
I00
F42.153667366536204
sI01
F-29.32
ss(i__main__
State
p2849
(dp2850
g3
F6.999999999994324
sg4
F9.0
sg5
F-5.000000000001657
sg6
F-8.000000000000535
sb(dp2851
I00
F0.0
sI01
F1.5200000000000002
ss(i__main__
State
p2852
(dp2853
g3
F-8.000000000000535
sg4
F9.0
sg5
F-2.000000000002542
sg6
F-5.000000000001657
sb(dp2854
I00
F-0.36000000000000004
sI01
F-0.36000000000000004
ss(i__main__
State
p2855
(dp2856
g3
F-3.37216988225778e-12
sg4
F3.0
sg5
F5.99999999999342
sg6
F2.9999999999952633
sb(dp2857
I00
F-20.06
sI01
F-33.56
ss(i__main__
State
p2858
(dp2859
g3
F6.999999999994323
sg4
F7.0
sg5
F-5.000000000001897
sg6
F-8.000000000000535
sb(dp2860
I00
F-22.63687958
sI01
F66.22
ss(i__main__
State
p2861
(dp2862
g3
F-8.000000000000535
sg4
F7.0
sg5
F-2.0000000000037383
sg6
F-5.000000000001657
sb(dp2863
I00
I-25
sI01
F82.12
ss(i__main__
State
p2864
(dp2865
g3
F-4.000000000002192
sg4
F0.0
sg5
F1.9999999999957976
sg6
F-1.0000000000028373
sb(dp2866
I00
F-1.5493324051931996
sI01
F-72.78
ss(i__main__
State
p2867
(dp2868
g3
F-2.0000000000025433
sg4
F2.0
sg5
F3.9999999999947295
sg6
F0.9999999999963318
sb(dp2869
I00
F-34.24
sI01
F10.76
ss(i__main__
State
p2870
(dp2871
g3
F4.999999999994195
sg4
F0.0
sg5
F-7.0000000000010685
sg6
F7.999999999993073
sb(dp2872
I00
I-33
sI01
F-74.4
ss(i__main__
State
p2873
(dp2874
g3
F8.999999999992298
sg4
F0.0
sg5
F-3.0000000000022475
sg6
F-6.0000000000011235
sb(dp2875
I00
I-34
sI01
F24.740000000000002
ss(i__main__
State
p2876
(dp2877
g3
F8.999999999992058
sg4
F8.0
sg5
F-3.000000000003204
sg6
F-6.000000000001363
sb(dp2878
I00
F100.0
sI01
F77.5
ss(i__main__
State
p2879
(dp2880
g3
F5.999999999994618
sg4
F6.0
sg5
F-6.000000000001363
sg6
F8.99999999999254
sb(dp2881
I00
I1
sI01
F23.62
ss(i__main__
State
p2882
(dp2883
g3
F7.999999999993789
sg4
F8.0
sg5
F-4.000000000002192
sg6
F-7.0000000000010685
sb(dp2884
I00
F66.29441745700001
sI01
F-47.599999999999994
ss(i__main__
State
p2885
(dp2886
g3
F3.9999999999937725
sg4
F6.0
sg5
F-8.000000000000535
sg6
F6.9999999999928875
sb(dp2887
I00
F1.612928800000002
sI01
F-43.28
ss(i__main__
State
p2888
(dp2889
g3
F5.999999999994141
sg4
F2.0
sg5
F-6.000000000000885
sg6
F8.999999999991822
sb(dp2890
I00
I-8
sI01
F-22.28
ss(i__main__
State
p2891
(dp2892
g3
F-4.08887563490444e-12
sg4
F7.0
sg5
F5.999999999993901
sg6
F2.999999999994785
sb(dp2893
I00
F8.62
sI01
F-47.18
ss(i__main__
State
p2894
(dp2895
g3
F-2.00000000000326
sg4
F5.0
sg5
F3.9999999999952087
sg6
F0.9999999999958532
sb(dp2896
I00
F11.392037718
sI01
F-71.58
ss(i__main__
State
p2897
(dp2898
g3
F5.9999999999948574
sg4
F6.0
sg5
F-6.000000000001602
sg6
F8.999999999992776
sb(dp2899
I00
F-33.356
sI01
F-66.44
ss(i__main__
State
p2900
(dp2901
g3
F4.999999999994673
sg4
F8.0
sg5
F-7.0000000000010685
sg6
F7.99999999999379
sb(dp2902
I00
F4.8720610000000075
sI01
F-33.2
ss(i__main__
State
p2903
(dp2904
g3
F3.999999999994011
sg4
F9.0
sg5
F-8.000000000000295
sg6
F6.999999999993844
sb(dp2905
I00
F2.9200000000000004
sI01
F2.9200000000000004
ss(i__main__
State
p2906
(dp2907
g3
F-5.000000000001419
sg4
F6.0
sg5
F0.999999999996092
sg6
F-2.0000000000025424
sb(dp2908
I00
F-29.303925999999993
sI01
F-25.36
ss(i__main__
State
p2909
(dp2910
g3
F0.9999999999958529
sg4
F0.0
sg5
F6.999999999993367
sg6
F3.9999999999940115
sb(dp2911
I00
I-78
sI01
F84.6
ss(i__main__
State
p2912
(dp2913
g3
F-5.000000000001657
sg4
F1.0
sg5
F0.9999999999958541
sg6
F-2.0000000000032596
sb(dp2914
I00
I57
sI01
F82.68
ss(i__main__
State
p2915
(dp2916
g3
F7.999999999993311
sg4
F0.0
sg5
F-4.000000000001952
sg6
F-7.000000000000829
sb(dp2917
I00
F-11.6316
sI01
F48.24
ss(i__main__
State
p2918
(dp2919
g3
F-6.000000000001124
sg4
F7.0
sg5
F-3.849511550795253e-12
sg6
F-3.000000000002726
sb(dp2920
I00
I-72
sI01
F21.2
ss(i__main__
State
p2921
(dp2922
g3
F1.999999999995558
sg4
F1.0
sg5
F7.999999999993072
sg6
F4.999999999993478
sb(dp2923
I00
I-80
sI01
F2.6
ss(i__main__
State
p2924
(dp2925
g3
F0.9999999999956153
sg4
F4.0
sg5
F6.999999999993607
sg6
F3.999999999994969
sb(dp2926
I00
I-14
sI01
F56.92
ss(i__main__
State
p2927
(dp2928
g3
F4.999999999994674
sg4
F0.0
sg5
F-7.00000000000059
sg6
F7.999999999992355
sb(dp2929
I00
F6.8238891000000015
sI01
F-43.2
ss(i__main__
State
p2930
(dp2931
g3
F-3.000000000003204
sg4
F0.0
sg5
F2.9999999999938285
sg6
F-3.6101854286954623e-12
sb(dp2932
I00
F-5.288801279999997
sI01
F-57.48
ss(i__main__
State
p2933
(dp2934
g3
F-6.000000000000885
sg4
F0.0
sg5
F-3.3717484143640523e-12
sg6
F-3.0000000000024865
sb(dp2935
I00
I82
sI01
F73.68
ss(i__main__
State
p2936
(dp2937
g3
F-7.0000000000010685
sg4
F0.0
sg5
F-1.000000000003316
sg6
F-4.000000000002192
sb(dp2938
I00
F35.70621310234
sI01
F-79.64
ss(i__main__
State
p2939
(dp2940
g3
F-7.00000000000083
sg4
F2.0
sg5
F-1.0000000000033165
sg6
F-4.000000000002191
sb(dp2941
I00
F-64.466
sI01
F73.36
ss(i__main__
State
p2942
(dp2943
g3
F1.99999999999556
sg4
F3.0
sg5
F7.99999999999331
sg6
F4.999999999993475
sb(dp2944
I00
I-36
sI01
F-32.3
ss(i__main__
State
p2945
(dp2946
g3
F-7.00000000000083
sg4
F5.0
sg5
F-1.0000000000028377
sg6
F-4.000000000002192
sb(dp2947
I00
F70.96
sI01
F-73.03999999999999
ss(i__main__
State
p2948
(dp2949
g3
F-2.0000000000032605
sg4
F4.0
sg5
F3.999999999994729
sg6
F0.9999999999965719
sb(dp2950
I00
F-50.16
sI01
F-81.66
ss(i__main__
State
p2951
(dp2952
g3
F8.99999999999158
sg4
F6.0
sg5
F-3.0000000000027263
sg6
F-6.000000000001363
sb(dp2953
I00
F25.56953279
sI01
F-36.1
ss(i__main__
State
p2954
(dp2955
g3
F-2.000000000002303
sg4
F3.0
sg5
F3.9999999999949685
sg6
F0.9999999999953749
sb(dp2956
I00
F29.62571848963701
sI01
F29.16
ss(i__main__
State
p2957
(dp2958
g3
F0.999999999995614
sg4
F7.0
sg5
F6.999999999993606
sg6
F3.9999999999944906
sb(dp2959
I00
F-22.95083836330333
sI01
F-21.38
ss(i__main__
State
p2960
(dp2961
g3
F-4.000000000002192
sg4
F9.0
sg5
F1.9999999999950804
sg6
F-1.000000000003555
sb(dp2962
I00
F1.976
sI01
F1.04
ss(i__main__
State
p2963
(dp2964
g3
F7.999999999993072
sg4
F4.0
sg5
F-4.000000000001952
sg6
F-7.000000000000829
sb(dp2965
I00
F-0.4274746990780014
sI01
F3.92
ss(i__main__
State
p2966
(dp2967
g3
F-7.000000000000829
sg4
F3.0
sg5
F-1.0000000000037943
sg6
F-4.000000000002431
sb(dp2968
I00
F23.69973135790374
sI01
F-51.0
ss(i__main__
State
p2969
(dp2970
g3
F-3.000000000002726
sg4
F3.0
sg5
F2.9999999999955036
sg6
F-3.8508655106077104e-12
sb(dp2971
I00
I-76
sI01
F-71.24
ss(i__main__
State
p2972
(dp2973
g3
F-4.0893576861236815e-12
sg4
F7.0
sg5
F5.999999999994379
sg6
F2.999999999995264
sb(dp2974
I00
I79
sI01
F57.18
ss(i__main__
State
p2975
(dp2976
g3
F8.999999999992058
sg4
F4.0
sg5
F-3.000000000002725
sg6
F-6.000000000001363
sb(dp2977
I00
F0.36000000000000076
sI01
F71.1
ss(i__main__
State
p2978
(dp2979
g3
F3.9999999999949685
sg4
F1.0
sg5
F-8.000000000000295
sg6
F6.999999999994324
sb(dp2980
I00
F33.677570944372135
sI01
F70.72
ss(i__main__
State
p2981
(dp2982
g3
F5.999999999993662
sg4
F5.0
sg5
F-6.000000000000885
sg6
F8.999999999993017
sb(dp2983
I00
F-9.1392104
sI01
F56.14
ss(i__main__
State
p2984
(dp2985
g3
F2.9999999999955027
sg4
F4.0
sg5
F8.99999999999206
sg6
F5.99999999999414
sb(dp2986
I00
I80
sI01
F40.12
ss(i__main__
State
p2987
(dp2988
g3
F1.9999999999957971
sg4
F8.0
sg5
F7.999999999993071
sg6
F4.999999999994674
sb(dp2989
I00
F90.28
sI01
F-75.5
ss(i__main__
State
p2990
(dp2991
g3
F-5.000000000001658
sg4
F1.0
sg5
F0.9999999999958533
sg6
F-2.0000000000025424
sb(dp2992
I00
I21
sI01
F-18.78
ss(i__main__
State
p2993
(dp2994
g3
F5.99999999999414
sg4
F8.0
sg5
F-6.000000000000885
sg6
F8.99999999999206
sb(dp2995
I00
F37.0
sI01
F9.100000000000001
ss(i__main__
State
p2996
(dp2997
g3
F-6.000000000001602
sg4
F0.0
sg5
F-3.3721979269853192e-12
sg6
F-3.000000000002248
sb(dp2998
I00
I30
sI01
F54.76
ss.