(dp0
(i__main__
State
p1
(dp2
S'y1'
p3
F8.0
sS'x'
p4
F3.0
sS'y3'
p5
F-3.0
sS'y2'
p6
F-6.0
sb(dp7
I00
F50.00297272554397
sI01
F-22.652973919249547
ss(i__main__
State
p8
(dp9
g3
F4.0
sg4
F7.0
sg5
F-7.0
sg6
F7.0
sb(dp10
I00
F76.09680253868957
sI01
F228.90178227991967
ss(i__main__
State
p11
(dp12
g3
F-7.0
sg4
F5.0
sg5
F-1.0
sg6
F-4.0
sb(dp13
I00
F60.16848547766199
sI01
F-28.533612
ss(i__main__
State
p14
(dp15
g3
F-5.0
sg4
F2.0
sg5
F1.0
sg6
F-2.0
sb(dp16
I00
F-3.684444240662885
sI01
F62.28867865936311
ss(i__main__
State
p17
(dp18
g3
F7.0
sg4
F6.0
sg5
F-4.0
sg6
F-7.0
sb(dp19
I00
F19.951579946205662
sI01
F-38.95408974922883
ss(i__main__
State
p20
(dp21
g3
F0.0
sg4
F7.0
sg5
F6.0
sg6
F3.0
sb(dp22
I00
F180.78428537239753
sI01
F385.02624857864055
ss(i__main__
State
p23
(dp24
g3
F-1.0
sg4
F3.0
sg5
F5.0
sg6
F2.0
sb(dp25
I00
F34.40160723323058
sI01
F240.86222465196357
ss(i__main__
State
p26
(dp27
g3
F1.0
sg4
F4.0
sg5
F7.0
sg6
F4.0
sb(dp28
I00
F114.96751638174642
sI01
F46.979134926378734
ss(i__main__
State
p29
(dp30
g3
F-1.0
sg4
F7.0
sg5
F5.0
sg6
F2.0
sb(dp31
I00
F160.8161332209334
sI01
F-2397.513251207977
ss(i__main__
State
p32
(dp33
g3
F2.0
sg4
F7.0
sg5
F8.0
sg6
F5.0
sb(dp34
I00
F212.63280821953936
sI01
F-0.3957599999999992
ss(i__main__
State
p35
(dp36
g3
F-6.0
sg4
F5.0
sg5
F0.0
sg6
F-3.0
sb(dp37
I00
F85.17139030007957
sI01
F27.902048955296856
ss(i__main__
State
p38
(dp39
g3
F-2.0
sg4
F8.0
sg5
F4.0
sg6
F1.0
sb(dp40
I00
F93.58815809332107
sI01
F8.165095944752805
ss(i__main__
State
p41
(dp42
g3
F6.0
sg4
F0.0
sg5
F-5.0
sg6
F-8.0
sb(dp43
I00
F51.43713172471007
sI01
F22.780547923199105
ss(i__main__
State
p44
(dp45
g3
F0.0
sg4
F1.0
sg5
F6.0
sg6
F3.0
sb(dp46
I00
F17.766942650074252
sI01
F-50.54666246300499
ss(i__main__
State
p47
(dp48
g3
F-4.0
sg4
F7.0
sg5
F2.0
sg6
F-1.0
sb(dp49
I00
F66.24029759380343
sI01
F-291.08816176852037
ss(i__main__
State
p50
(dp51
g3
F-3.0
sg4
F2.0
sg5
F3.0
sg6
F0.0
sb(dp52
I00
F4.125424819938305
sI01
F162.16903481498937
ss(i__main__
State
p53
(dp54
g3
F5.0
sg4
F0.0
sg5
F-6.0
sg6
F8.0
sb(dp55
I00
F-41.35138134335559
sI01
F16.463900170873686
ss(i__main__
State
p56
(dp57
g3
F3.0
sg4
F2.0
sg5
F-8.0
sg6
F6.0
sb(dp58
I00
F27.842634198255382
sI01
F-12.40282638415301
ss(i__main__
State
p59
(dp60
g3
F3.0
sg4
F3.0
sg5
F-8.0
sg6
F6.0
sb(dp61
I00
F26.144754444160544
sI01
F-36.363241987362684
ss(i__main__
State
p62
(dp63
g3
F-5.0
sg4
F8.0
sg5
F1.0
sg6
F-2.0
sb(dp64
I00
F164.57407103838065
sI01
F38.76628143498199
ss(i__main__
State
p65
(dp66
g3
F2.0
sg4
F0.0
sg5
F8.0
sg6
F5.0
sb(dp67
I00
F-13.453606284866327
sI01
F32.768165098661136
ss(i__main__
State
p68
(dp69
g3
F4.0
sg4
F4.0
sg5
F-7.0
sg6
F7.0
sb(dp70
I00
F9.93471576900953
sI01
F1.1185095375065397
ss(i__main__
State
p71
(dp72
g3
F-2.0
sg4
F2.0
sg5
F4.0
sg6
F1.0
sb(dp73
I00
F-68.19969454464267
sI01
F88.45408386025292
ss(i__main__
State
p74
(dp75
g3
F-4.0
sg4
F2.0
sg5
F2.0
sg6
F-1.0
sb(dp76
I00
F77.16331681300609
sI01
F-22.384992480668977
ss(i__main__
State
p77
(dp78
g3
F-6.0
sg4
F3.0
sg5
F0.0
sg6
F-3.0
sb(dp79
I00
F56.705985044011555
sI01
F-28.928748156016326
ss(i__main__
State
p80
(dp81
g3
F2.0
sg4
F8.0
sg5
F8.0
sg6
F5.0
sb(dp82
I00
F475.1380202747965
sI01
F73.72755492964892
ss(i__main__
State
p83
(dp84
g3
F-7.0
sg4
F3.0
sg5
F-1.0
sg6
F-4.0
sb(dp85
I00
F7.38300292604021
sI01
F76.34146295029886
ss(i__main__
State
p86
(dp87
g3
F5.0
sg4
F6.0
sg5
F-6.0
sg6
F8.0
sb(dp88
I00
F85.41197326802113
sI01
F307.9646661224548
ss(i__main__
State
p89
(dp90
g3
F8.0
sg4
F1.0
sg5
F-3.0
sg6
F-6.0
sb(dp91
I00
F-81.79567259968391
sI01
F38.88782479500747
ss(i__main__
State
p92
(dp93
g3
F-2.0
sg4
F5.0
sg5
F4.0
sg6
F1.0
sb(dp94
I00
F-10.50070615412088
sI01
F234.32481029901408
ss(i__main__
State
p95
(dp96
g3
F-5.0
sg4
F5.0
sg5
F1.0
sg6
F-2.0
sb(dp97
I00
F17.368339539914484
sI01
F109.48793595332765
ss(i__main__
State
p98
(dp99
g3
F-2.0
sg4
F1.0
sg5
F4.0
sg6
F1.0
sb(dp100
I00
F-58.23
sI01
F41.31355295723189
ss(i__main__
State
p101
(dp102
g3
F7.0
sg4
F5.0
sg5
F-4.0
sg6
F-7.0
sb(dp103
I00
F44.50445142920929
sI01
F-65.86951844871314
ss(i__main__
State
p104
(dp105
g3
F-6.0
sg4
F0.0
sg5
F0.0
sg6
F-3.0
sb(dp106
I00
F44.95334742786857
sI01
F83.67218592698376
ss(i__main__
State
p107
(dp108
g3
F3.0
sg4
F6.0
sg5
F-8.0
sg6
F6.0
sb(dp109
I00
F43.389351977998665
sI01
F110.86707106285309
ss(i__main__
State
p110
(dp111
g3
F8.0
sg4
F7.0
sg5
F-3.0
sg6
F-6.0
sb(dp112
I00
F31.9476247203795
sI01
F2.7805292147920007
ss(i__main__
State
p113
(dp114
g3
F8.0
sg4
F4.0
sg5
F-3.0
sg6
F-6.0
sb(dp115
I00
F31.99534127978776
sI01
F-8.83461434792535
ss(i__main__
State
p116
(dp117
g3
F6.0
sg4
F3.0
sg5
F-5.0
sg6
F-8.0
sb(dp118
I00
F38.74397821338069
sI01
F18.62840171012737
ss(i__main__
State
p119
(dp120
g3
F8.0
sg4
F8.0
sg5
F-3.0
sg6
F-6.0
sb(dp121
I00
F249.25143477401141
sI01
F123.43653662451023
ss(i__main__
State
p122
(dp123
g3
F7.0
sg4
F8.0
sg5
F-4.0
sg6
F-7.0
sb(dp124
I00
F343.26612032205287
sI01
F115.98824963075185
ss(i__main__
State
p125
(dp126
g3
F-7.0
sg4
F8.0
sg5
F-1.0
sg6
F-4.0
sb(dp127
I00
F-405.51735643300003
sI01
F102.20470985214266
ss(i__main__
State
p128
(dp129
g3
F-6.0
sg4
F8.0
sg5
F0.0
sg6
F-3.0
sb(dp130
I00
F-2692.547444068562
sI01
F-3414.33735580251
ss(i__main__
State
p131
(dp132
g3
F8.0
sg4
F2.0
sg5
F-3.0
sg6
F-6.0
sb(dp133
I00
F49.598140838381354
sI01
F-48.73298400375285
ss(i__main__
State
p134
(dp135
g3
F-5.0
sg4
F3.0
sg5
F1.0
sg6
F-2.0
sb(dp136
I00
F68.20113928016907
sI01
F31.531392514256815
ss(i__main__
State
p137
(dp138
g3
F6.0
sg4
F6.0
sg5
F-5.0
sg6
F-8.0
sb(dp139
I00
F43.259176250125385
sI01
F178.7738179637038
ss(i__main__
State
p140
(dp141
g3
F-8.0
sg4
F6.0
sg5
F-2.0
sg6
F-5.0
sb(dp142
I00
F34.871689387594266
sI01
F-68.69012057181189
ss(i__main__
State
p143
(dp144
g3
F8.0
sg4
F5.0
sg5
F-3.0
sg6
F-6.0
sb(dp145
I00
F47.026521832895796
sI01
F-60.00575014233
ss(i__main__
State
p146
(dp147
g3
F1.0
sg4
F3.0
sg5
F7.0
sg6
F4.0
sb(dp148
I00
F35.899884099021506
sI01
F133.92023161680638
ss(i__main__
State
p149
(dp150
g3
F1.0
sg4
F1.0
sg5
F7.0
sg6
F4.0
sb(dp151
I00
F24.479412044691486
sI01
F26.28558506273601
ss(i__main__
State
p152
(dp153
g3
F2.0
sg4
F5.0
sg5
F8.0
sg6
F5.0
sb(dp154
I00
F160.90885032538338
sI01
F-25.409989955689433
ss(i__main__
State
p155
(dp156
g3
F0.0
sg4
F2.0
sg5
F6.0
sg6
F3.0
sb(dp157
I00
F38.156609399661754
sI01
F79.32481837266991
ss(i__main__
State
p158
(dp159
g3
F-1.0
sg4
F4.0
sg5
F5.0
sg6
F2.0
sb(dp160
I00
F169.59638643696985
sI01
F35.5315
ss(i__main__
State
p161
(dp162
g3
F2.0
sg4
F6.0
sg5
F8.0
sg6
F5.0
sb(dp163
I00
F41.7999555561728
sI01
F323.2116491244295
ss(i__main__
State
p164
(dp165
g3
F-1.0
sg4
F1.0
sg5
F5.0
sg6
F2.0
sb(dp166
I00
F4.841127505500751
sI01
F-40.857125396586916
ss(i__main__
State
p167
(dp168
g3
F-1.0
sg4
F5.0
sg5
F5.0
sg6
F2.0
sb(dp169
I00
F-24.59075
sI01
F57.88397718060503
ss(i__main__
State
p170
(dp171
g3
F-7.0
sg4
F1.0
sg5
F-1.0
sg6
F-4.0
sb(dp172
I00
F-2.2919762895074047
sI01
F53.058298844561214
ss(i__main__
State
p173
(dp174
g3
F-5.0
sg4
F6.0
sg5
F1.0
sg6
F-2.0
sb(dp175
I00
F-47.300181737580196
sI01
F29.338831912572225
ss(i__main__
State
p176
(dp177
g3
F-6.0
sg4
F7.0
sg5
F0.0
sg6
F-3.0
sb(dp178
I00
F-1.5844407273742132
sI01
F114.98792044347388
ss(i__main__
State
p179
(dp180
g3
F3.0
sg4
F4.0
sg5
F-8.0
sg6
F6.0
sb(dp181
I00
F27.294811545049768
sI01
F239.88716240874905
ss(i__main__
State
p182
(dp183
g3
F4.0
sg4
F1.0
sg5
F-7.0
sg6
F7.0
sb(dp184
I00
F38.03961640999883
sI01
I2
ss(i__main__
State
p185
(dp186
g3
F1.0
sg4
F7.0
sg5
F7.0
sg6
F4.0
sb(dp187
I00
F8.298155680003074
sI01
F334.672701767587
ss(i__main__
State
p188
(dp189
g3
F1.0
sg4
F5.0
sg5
F7.0
sg6
F4.0
sb(dp190
I00
F95.49309355565599
sI01
F296.59432266205624
ss(i__main__
State
p191
(dp192
g3
F-3.0
sg4
F0.0
sg5
F3.0
sg6
F0.0
sb(dp193
I00
F-2.0034539528078423
sI01
F-2.2505937062458874
ss(i__main__
State
p194
(dp195
g3
F-8.0
sg4
F4.0
sg5
F-2.0
sg6
F-5.0
sb(dp196
I00
F46.15688265652519
sI01
F15.166161975658863
ss(i__main__
State
p197
(dp198
g3
F1.0
sg4
F2.0
sg5
F7.0
sg6
F4.0
sb(dp199
I00
F28.370033666423772
sI01
I23
ss(i__main__
State
p200
(dp201
g3
F5.0
sg4
F4.0
sg5
F-6.0
sg6
F8.0
sb(dp202
I00
F-2.5631494487572297
sI01
F8.969436675091197
ss(i__main__
State
p203
(dp204
g3
F7.0
sg4
F2.0
sg5
F-4.0
sg6
F-7.0
sb(dp205
I00
F36.81178098227469
sI01
F14.83169074837568
ss(i__main__
State
p206
(dp207
g3
F-8.0
sg4
F2.0
sg5
F-2.0
sg6
F-5.0
sb(dp208
I00
F-21.833100645327292
sI01
F63.91342601856727
ss(i__main__
State
p209
(dp210
g3
F-8.0
sg4
F7.0
sg5
F-2.0
sg6
F-5.0
sb(dp211
I00
F42.803026174393665
sI01
F62.30877628674719
ss(i__main__
State
p212
(dp213
g3
F1.0
sg4
F8.0
sg5
F7.0
sg6
F4.0
sb(dp214
I00
F476.5715848300047
sI01
F131.82923765151023
ss(i__main__
State
p215
(dp216
g3
F0.0
sg4
F5.0
sg5
F6.0
sg6
F3.0
sb(dp217
I00
F-21.79839191842549
sI01
F-0.585223710050089
ss(i__main__
State
p218
(dp219
g3
F-4.0
sg4
F3.0
sg5
F2.0
sg6
F-1.0
sb(dp220
I00
F91.60977891386602
sI01
F9.52864976157406
ss(i__main__
State
p221
(dp222
g3
F-8.0
sg4
F5.0
sg5
F-2.0
sg6
F-5.0
sb(dp223
I00
F48.711528171117386
sI01
F-9.437880567783795
ss(i__main__
State
p224
(dp225
g3
F-3.0
sg4
F6.0
sg5
F3.0
sg6
F0.0
sb(dp226
I00
F24.402654002257947
sI01
F127.33529289973102
ss(i__main__
State
p227
(dp228
g3
F7.0
sg4
F3.0
sg5
F-4.0
sg6
F-7.0
sb(dp229
I00
F43.42531875354739
sI01
F31.186698890786268
ss(i__main__
State
p230
(dp231
g3
F5.0
sg4
F5.0
sg5
F-6.0
sg6
F8.0
sb(dp232
I00
F-25.92380245878454
sI01
F91.58586339539956
ss(i__main__
State
p233
(dp234
g3
F-5.0
sg4
F7.0
sg5
F1.0
sg6
F-2.0
sb(dp235
I00
F64.5419246811173
sI01
I33
ss(i__main__
State
p236
(dp237
g3
F-4.0
sg4
F4.0
sg5
F2.0
sg6
F-1.0
sb(dp238
I00
F146.18660243411338
sI01
F-28.57657656496078
ss(i__main__
State
p239
(dp240
g3
F3.0
sg4
F7.0
sg5
F-8.0
sg6
F6.0
sb(dp241
I00
F52.404665391048574
sI01
F368.06312322006585
ss(i__main__
State
p242
(dp243
g3
F7.0
sg4
F0.0
sg5
F-4.0
sg6
F-7.0
sb(dp244
I00
F41.186648240323244
sI01
F32.99753015718015
ss(i__main__
State
p245
(dp246
g3
F-6.0
sg4
F6.0
sg5
F0.0
sg6
F-3.0
sb(dp247
I00
F-24.830013
sI01
I-65
ss(i__main__
State
p248
(dp249
g3
F5.0
sg4
F8.0
sg5
F-6.0
sg6
F8.0
sb(dp250
I00
F429.211361160873
sI01
F115.77428403832894
ss(i__main__
State
p251
(dp252
g3
F-8.0
sg4
F0.0
sg5
F-2.0
sg6
F-5.0
sb(dp253
I00
F48.26489453080142
sI01
F-30.433218118723914
ss(i__main__
State
p254
(dp255
g3
F-3.0
sg4
F3.0
sg5
F3.0
sg6
F0.0
sb(dp256
I00
F133.38853678569546
sI01
F-34.03662754974984
ss(i__main__
State
p257
(dp258
g3
F0.0
sg4
F0.0
sg5
F6.0
sg6
F3.0
sb(dp259
I00
F27.29864995919776
sI01
F29.8053990492595
ss(i__main__
State
p260
(dp261
g3
F5.0
sg4
F2.0
sg5
F-6.0
sg6
F8.0
sb(dp262
I00
F-0.03336428553887627
sI01
F9.307315921743848
ss(i__main__
State
p263
(dp264
g3
F-8.0
sg4
F3.0
sg5
F-2.0
sg6
F-5.0
sb(dp265
I00
F43.464976504203584
sI01
F57.83255256656768
ss(i__main__
State
p266
(dp267
g3
F-2.0
sg4
F7.0
sg5
F4.0
sg6
F1.0
sb(dp268
I00
F23.43120241511985
sI01
F130.43845189645418
ss(i__main__
State
p269
(dp270
g3
F0.0
sg4
F6.0
sg5
F6.0
sg6
F3.0
sb(dp271
I00
F-22.430181976419703
sI01
F152.86270211613726
ss(i__main__
State
p272
(dp273
g3
F-4.0
sg4
F8.0
sg5
F2.0
sg6
F-1.0
sb(dp274
I00
F-628.2554796000001
sI01
F96.215071819628
ss(i__main__
State
p275
(dp276
g3
F-8.0
sg4
F1.0
sg5
F-2.0
sg6
F-5.0
sb(dp277
I00
F48.40010284294503
sI01
F17.443778773069063
ss(i__main__
State
p278
(dp279
g3
F-3.0
sg4
F1.0
sg5
F3.0
sg6
F0.0
sb(dp280
I00
F23.431089726932765
sI01
F-48.9511934554637
ss(i__main__
State
p281
(dp282
g3
F7.0
sg4
F7.0
sg5
F-4.0
sg6
F-7.0
sb(dp283
I00
F29.831688943522753
sI01
F224.64009961066677
ss(i__main__
State
p284
(dp285
g3
F-3.0
sg4
F7.0
sg5
F3.0
sg6
F0.0
sb(dp286
I00
F110.47503345493065
sI01
F38.828401693823984
ss(i__main__
State
p287
(dp288
g3
F4.0
sg4
F5.0
sg5
F-7.0
sg6
F7.0
sb(dp289
I00
F46.198040057622286
sI01
F285.1113486675643
ss(i__main__
State
p290
(dp291
g3
F7.0
sg4
F4.0
sg5
F-4.0
sg6
F-7.0
sb(dp292
I00
F21.771895693069435
sI01
F-7.1642584432835825
ss(i__main__
State
p293
(dp294
g3
F-5.0
sg4
F4.0
sg5
F1.0
sg6
F-2.0
sb(dp295
I00
F112.63561205981358
sI01
F46.73413796971407
ss(i__main__
State
p296
(dp297
g3
F-3.0
sg4
F8.0
sg5
F3.0
sg6
F0.0
sb(dp298
I00
F-3430.066189092
sI01
F-3447.1224334900576
ss(i__main__
State
p299
(dp300
g3
F0.0
sg4
F8.0
sg5
F6.0
sg6
F3.0
sb(dp301
I00
F-6751.278904736307
sI01
F-6495.000971580436
ss(i__main__
State
p302
(dp303
g3
F-5.0
sg4
F0.0
sg5
F1.0
sg6
F-2.0
sb(dp304
I00
F34.04197915369544
sI01
F63.56266641138806
ss(i__main__
State
p305
(dp306
g3
F8.0
sg4
F0.0
sg5
F-3.0
sg6
F-6.0
sb(dp307
I00
F17.123411749574757
sI01
F44.73747001414455
ss(i__main__
State
p308
(dp309
g3
F5.0
sg4
F3.0
sg5
F-6.0
sg6
F8.0
sb(dp310
I00
F33.712842666581764
sI01
F22.955210206901274
ss(i__main__
State
p311
(dp312
g3
F-1.0
sg4
F6.0
sg5
F5.0
sg6
F2.0
sb(dp313
I00
F48.27365465007996
sI01
F295.9856061422272
ss(i__main__
State
p314
(dp315
g3
F-7.0
sg4
F7.0
sg5
F-1.0
sg6
F-4.0
sb(dp316
I00
F4.4096295609964855
sI01
F-355.88384640000004
ss(i__main__
State
p317
(dp318
g3
F-7.0
sg4
F4.0
sg5
F-1.0
sg6
F-4.0
sb(dp319
I00
F70.47361974634941
sI01
F-1.4865417602046165
ss(i__main__
State
p320
(dp321
g3
F-4.0
sg4
F1.0
sg5
F2.0
sg6
F-1.0
sb(dp322
I00
F-8.58281040444207
sI01
F128.8723510650764
ss(i__main__
State
p323
(dp324
g3
F1.0
sg4
F0.0
sg5
F7.0
sg6
F4.0
sb(dp325
I00
F-21.680272360467917
sI01
F26.749113852691387
ss(i__main__
State
p326
(dp327
g3
F6.0
sg4
F7.0
sg5
F-5.0
sg6
F-8.0
sb(dp328
I00
F121.53614523224186
sI01
F326.4852340088746
ss(i__main__
State
p329
(dp330
g3
F3.0
sg4
F0.0
sg5
F-8.0
sg6
F6.0
sb(dp331
I00
F-0.9904050210944626
sI01
F-14.349149451224484
ss(i__main__
State
p332
(dp333
g3
F7.0
sg4
F1.0
sg5
F-4.0
sg6
F-7.0
sb(dp334
I00
F42.596302916928416
sI01
F36.17117308086757
ss(i__main__
State
p335
(dp336
g3
F4.0
sg4
F2.0
sg5
F-7.0
sg6
F7.0
sb(dp337
I00
F-50.42439140055047
sI01
F27.995579462280133
ss(i__main__
State
p338
(dp339
g3
F-6.0
sg4
F4.0
sg5
F0.0
sg6
F-3.0
sb(dp340
I00
F92.70300576295806
sI01
F56.07213350398566
ss(i__main__
State
p341
(dp342
g3
F-4.0
sg4
F5.0
sg5
F2.0
sg6
F-1.0
sb(dp343
I00
F-15.079230688087746
sI01
F83.07791103211308
ss(i__main__
State
p344
(dp345
g3
F-3.0
sg4
F4.0
sg5
F3.0
sg6
F0.0
sb(dp346
I00
F-0.36214698788274724
sI01
F185.1829014636025
ss(i__main__
State
p347
(dp348
g3
F0.0
sg4
F3.0
sg5
F6.0
sg6
F3.0
sb(dp349
I00
F85.83450337390778
sI01
F-24.344296575772766
ss(i__main__
State
p350
(dp351
g3
F4.0
sg4
F3.0
sg5
F-7.0
sg6
F7.0
sb(dp352
I00
F29.0937030120298
sI01
F-7.873013670133007
ss(i__main__
State
p353
(dp354
g3
F-4.0
sg4
F6.0
sg5
F2.0
sg6
F-1.0
sb(dp355
I00
F119.59495671872573
sI01
F30.470830320793336
ss(i__main__
State
p356
(dp357
g3
F-6.0
sg4
F2.0
sg5
F0.0
sg6
F-3.0
sb(dp358
I00
F32.48449097014454
sI01
F59.45029254515164
ss(i__main__
State
p359
(dp360
g3
F-7.0
sg4
F6.0
sg5
F-1.0
sg6
F-4.0
sb(dp361
I00
I-54
sI01
F73.70640178713333
ss(i__main__
State
p362
(dp363
g3
F6.0
sg4
F2.0
sg5
F-5.0
sg6
F-8.0
sb(dp364
I00
F-13.182225551623901
sI01
I-64
ss(i__main__
State
p365
(dp366
g3
F3.0
sg4
F5.0
sg5
F-8.0
sg6
F6.0
sb(dp367
I00
F230.97215585141407
sI01
F21.872502158996067
ss(i__main__
State
p368
(dp369
g3
F-8.0
sg4
F8.0
sg5
F-2.0
sg6
F-5.0
sb(dp370
I00
F85.64441127050527
sI01
F158.1405623210396
ss(i__main__
State
p371
(dp372
g3
F4.0
sg4
F0.0
sg5
F-7.0
sg6
F7.0
sb(dp373
I00
F-3.1411436532049466
sI01
F-22.079338955650268
ss(i__main__
State
p374
(dp375
g3
F-2.0
sg4
F0.0
sg5
F4.0
sg6
F1.0
sb(dp376
I00
F-53.39327794476217
sI01
F-6.719278760859927
ss(i__main__
State
p377
(dp378
g3
F6.0
sg4
F8.0
sg5
F-5.0
sg6
F-8.0
sb(dp379
I00
F397.0373745845309
sI01
F139.65337130853706
ss(i__main__
State
p380
(dp381
g3
F5.0
sg4
F1.0
sg5
F-6.0
sg6
F8.0
sb(dp382
I00
F24.06005698678041
sI01
F19.86239255051992
ss(i__main__
State
p383
(dp384
g3
F-2.0
sg4
F4.0
sg5
F4.0
sg6
F1.0
sb(dp385
I00
F43.587669714016556
sI01
F-4.401452984868458
ss(i__main__
State
p386
(dp387
g3
F-7.0
sg4
F2.0
sg5
F-1.0
sg6
F-4.0
sb(dp388
I00
F-47.82
sI01
F30.577254607878764
ss(i__main__
State
p389
(dp390
g3
F2.0
sg4
F4.0
sg5
F8.0
sg6
F5.0
sb(dp391
I00
F191.29697500409947
sI01
F78.74754744234795
ss(i__main__
State
p392
(dp393
g3
F-2.0
sg4
F3.0
sg5
F4.0
sg6
F1.0
sb(dp394
I00
F200.91694497363764
sI01
F76.42035315357715
ss(i__main__
State
p395
(dp396
g3
F6.0
sg4
F4.0
sg5
F-5.0
sg6
F-8.0
sb(dp397
I00
F-55.35544682576911
sI01
F35.745692501070536
ss(i__main__
State
p398
(dp399
g3
F-4.0
sg4
F0.0
sg5
F2.0
sg6
F-1.0
sb(dp400
I00
F-70.86459563179552
sI01
F2.264775857668681
ss(i__main__
State
p401
(dp402
g3
F3.0
sg4
F1.0
sg5
F-8.0
sg6
F6.0
sb(dp403
I00
F27.54118268311537
sI01
F30.37456491418296
ss(i__main__
State
p404
(dp405
g3
F-2.0
sg4
F6.0
sg5
F4.0
sg6
F1.0
sb(dp406
I00
F96.51636822412314
sI01
F36.66837348214362
ss(i__main__
State
p407
(dp408
g3
F-6.0
sg4
F1.0
sg5
F0.0
sg6
F-3.0
sb(dp409
I00
F75.06496034482016
sI01
F-37.161348492541904
ss(i__main__
State
p410
(dp411
g3
F2.0
sg4
F1.0
sg5
F8.0
sg6
F5.0
sb(dp412
I00
F3.6196425443318048
sI01
F28.362866975993295
ss(i__main__
State
p413
(dp414
g3
F4.0
sg4
F8.0
sg5
F-7.0
sg6
F7.0
sb(dp415
I00
F448.6198247246436
sI01
F81.02835097686553
ss(i__main__
State
p416
(dp417
g3
F6.0
sg4
F5.0
sg5
F-5.0
sg6
F-8.0
sb(dp418
I00
F-30.35895617952052
sI01
F15.42693473556717
ss(i__main__
State
p419
(dp420
g3
F2.0
sg4
F3.0
sg5
F8.0
sg6
F5.0
sb(dp421
I00
F-5.512588009233663
sI01
F115.97721592854977
ss(i__main__
State
p422
(dp423
g3
F0.0
sg4
F4.0
sg5
F6.0
sg6
F3.0
sb(dp424
I00
F83.62769972206542
sI01
F273.7886788440781
ss(i__main__
State
p425
(dp426
g3
F-1.0
sg4
F8.0
sg5
F5.0
sg6
F2.0
sb(dp427
I00
F-2897.7850517648562
sI01
F130.94377612090125
ss(i__main__
State
p428
(dp429
g3
F8.0
sg4
F6.0
sg5
F-3.0
sg6
F-6.0
sb(dp430
I00
F21.285996932969937
sI01
F9.994268654610785
ss(i__main__
State
p431
(dp432
g3
F5.0
sg4
F7.0
sg5
F-6.0
sg6
F8.0
sb(dp433
I00
F115.6666957975485
sI01
F2.5548121844483855
ss(i__main__
State
p434
(dp435
g3
F2.0
sg4
F2.0
sg5
F8.0
sg6
F5.0
sb(dp436
I00
F24.397689891015816
sI01
F24.951061534346398
ss(i__main__
State
p437
(dp438
g3
F6.0
sg4
F1.0
sg5
F-5.0
sg6
F-8.0
sb(dp439
I00
F4.117756133573092
sI01
F28.066485549224076
ss(i__main__
State
p440
(dp441
g3
F-5.0
sg4
F1.0
sg5
F1.0
sg6
F-2.0
sb(dp442
I00
F108.12781824162653
sI01
F26.54834048014575
ss(i__main__
State
p443
(dp444
g3
F-1.0
sg4
F0.0
sg5
F5.0
sg6
F2.0
sb(dp445
I00
F-13.420837877305999
sI01
I-86
ss(i__main__
State
p446
(dp447
g3
F4.0
sg4
F6.0
sg5
F-7.0
sg6
F7.0
sb(dp448
I00
F157.38394634875095
sI01
F-18.379700018972144
ss(i__main__
State
p449
(dp450
g3
F-3.0
sg4
F5.0
sg5
F3.0
sg6
F0.0
sb(dp451
I00
F-41.12750256188171
sI01
F22.579286444622852
ss(i__main__
State
p452
(dp453
g3
F1.0
sg4
F6.0
sg5
F7.0
sg6
F4.0
sb(dp454
I00
I-73
sI01
F61.64165362517746
ss(i__main__
State
p455
(dp456
g3
F-1.0
sg4
F2.0
sg5
F5.0
sg6
F2.0
sb(dp457
I00
F54.61598399255957
sI01
F32.3
ss(i__main__
State
p458
(dp459
g3
F3.0
sg4
F8.0
sg5
F-8.0
sg6
F6.0
sb(dp460
I00
F445.1708047742543
sI01
F62.11041286377588
ss(i__main__
State
p461
(dp462
g3
F-7.0
sg4
F0.0
sg5
F-1.0
sg6
F-4.0
sb(dp463
I00
F68.37981197264581
sI01
F49.5027002868382
ss.