(dp0
(i__main__
State
p1
(dp2
S'y1'
p3
F8.0
sS'x'
p4
F3.0
sS'y3'
p5
F-3.0
sS'y2'
p6
F-6.0
sb(dp7
I00
F502.10899325880035
sI01
F33.91014984118177
ss(i__main__
State
p8
(dp9
g3
F4.0
sg4
F7.0
sg5
F-7.0
sg6
F7.0
sb(dp10
I00
F300.6359834491788
sI01
F939.8058759983618
ss(i__main__
State
p11
(dp12
g3
F-7.0
sg4
F5.0
sg5
F-1.0
sg6
F-4.0
sb(dp13
I00
F154.94152312094516
sI01
F89.97741344178075
ss(i__main__
State
p14
(dp15
g3
F-5.0
sg4
F2.0
sg5
F1.0
sg6
F-2.0
sb(dp16
I00
F636.9860206894098
sI01
F69.60245692377067
ss(i__main__
State
p17
(dp18
g3
F7.0
sg4
F6.0
sg5
F-4.0
sg6
F-7.0
sb(dp19
I00
F657.1196808789789
sI01
F393.6687915095517
ss(i__main__
State
p20
(dp21
g3
F0.0
sg4
F7.0
sg5
F6.0
sg6
F3.0
sb(dp22
I00
F919.7109177902714
sI01
F1264.4454849833912
ss(i__main__
State
p23
(dp24
g3
F-1.0
sg4
F3.0
sg5
F5.0
sg6
F2.0
sb(dp25
I00
F-53.75052107173185
sI01
F57.90657692655206
ss(i__main__
State
p26
(dp27
g3
F1.0
sg4
F4.0
sg5
F7.0
sg6
F4.0
sb(dp28
I00
F155.99019462917843
sI01
F283.89514214182
ss(i__main__
State
p29
(dp30
g3
F-1.0
sg4
F7.0
sg5
F5.0
sg6
F2.0
sb(dp31
I00
F1137.3604153899419
sI01
F-4464.180020037543
ss(i__main__
State
p32
(dp33
g3
F-1.0
sg4
F5.0
sg5
F5.0
sg6
F2.0
sb(dp34
I00
F973.9248369003401
sI01
F641.8176694867657
ss(i__main__
State
p35
(dp36
g3
F-6.0
sg4
F5.0
sg5
F0.0
sg6
F-3.0
sb(dp37
I00
F92.96847821155856
sI01
F219.3355054793759
ss(i__main__
State
p38
(dp39
g3
F-2.0
sg4
F8.0
sg5
F4.0
sg6
F1.0
sb(dp40
I00
F299.3230760704054
sI01
F718.7734182880238
ss(i__main__
State
p41
(dp42
g3
F6.0
sg4
F0.0
sg5
F-5.0
sg6
F-8.0
sb(dp43
I00
F417.8500448547069
sI01
F168.86598548557515
ss(i__main__
State
p44
(dp45
g3
F6.0
sg4
F4.0
sg5
F-5.0
sg6
F-8.0
sb(dp46
I00
F163.58959487812564
sI01
F724.8445929593621
ss(i__main__
State
p47
(dp48
g3
F-4.0
sg4
F7.0
sg5
F2.0
sg6
F-1.0
sb(dp49
I00
F434.72720095168586
sI01
F-2114.0635475558893
ss(i__main__
State
p50
(dp51
g3
F-3.0
sg4
F2.0
sg5
F3.0
sg6
F0.0
sb(dp52
I00
F308.6157810084622
sI01
F154.50437991767157
ss(i__main__
State
p53
(dp54
g3
F5.0
sg4
F0.0
sg5
F-6.0
sg6
F8.0
sb(dp55
I00
F290.24981971267107
sI01
F67.24336608084673
ss(i__main__
State
p56
(dp57
g3
F3.0
sg4
F2.0
sg5
F-8.0
sg6
F6.0
sb(dp58
I00
F218.69820564710898
sI01
F696.5400905089133
ss(i__main__
State
p59
(dp60
g3
F3.0
sg4
F3.0
sg5
F-8.0
sg6
F6.0
sb(dp61
I00
F639.3103020517738
sI01
F719.7783886272218
ss(i__main__
State
p62
(dp63
g3
F2.0
sg4
F0.0
sg5
F8.0
sg6
F5.0
sb(dp64
I00
F176.57509180103708
sI01
F47.60880252014438
ss(i__main__
State
p65
(dp66
g3
F4.0
sg4
F4.0
sg5
F-7.0
sg6
F7.0
sb(dp67
I00
F736.2562760103079
sI01
F456.8909906838169
ss(i__main__
State
p68
(dp69
g3
F-2.0
sg4
F2.0
sg5
F4.0
sg6
F1.0
sb(dp70
I00
F454.8846488195131
sI01
F10.331812505181144
ss(i__main__
State
p71
(dp72
g3
F-4.0
sg4
F2.0
sg5
F2.0
sg6
F-1.0
sb(dp73
I00
F202.28355007979948
sI01
F889.7076026674581
ss(i__main__
State
p74
(dp75
g3
F-6.0
sg4
F3.0
sg5
F0.0
sg6
F-3.0
sb(dp76
I00
F497.8600414517162
sI01
F997.0427101412129
ss(i__main__
State
p77
(dp78
g3
F2.0
sg4
F8.0
sg5
F8.0
sg6
F5.0
sb(dp79
I00
F1277.239561724461
sI01
F314.15369758965016
ss(i__main__
State
p80
(dp81
g3
F6.0
sg4
F1.0
sg5
F-5.0
sg6
F-8.0
sb(dp82
I00
F1.116400004636236
sI01
F280.7405890451425
ss(i__main__
State
p83
(dp84
g3
F5.0
sg4
F6.0
sg5
F-6.0
sg6
F8.0
sb(dp85
I00
F304.5360226118342
sI01
F164.99067054890213
ss(i__main__
State
p86
(dp87
g3
F8.0
sg4
F1.0
sg5
F-3.0
sg6
F-6.0
sb(dp88
I00
F68.77256842027015
sI01
F702.4192924073606
ss(i__main__
State
p89
(dp90
g3
F-5.0
sg4
F5.0
sg5
F1.0
sg6
F-2.0
sb(dp91
I00
F467.3403557398323
sI01
F49.11161832977981
ss(i__main__
State
p92
(dp93
g3
F-5.0
sg4
F8.0
sg5
F1.0
sg6
F-2.0
sb(dp94
I00
F826.4363242794402
sI01
F591.4529853861854
ss(i__main__
State
p95
(dp96
g3
F0.0
sg4
F1.0
sg5
F6.0
sg6
F3.0
sb(dp97
I00
F549.9785506315446
sI01
F682.501797844088
ss(i__main__
State
p98
(dp99
g3
F5.0
sg4
F8.0
sg5
F-6.0
sg6
F8.0
sb(dp100
I00
F1220.0200417322758
sI01
F388.6846029893895
ss(i__main__
State
p101
(dp102
g3
F3.0
sg4
F6.0
sg5
F-8.0
sg6
F6.0
sb(dp103
I00
F423.2174327158616
sI01
F47.19823914559364
ss(i__main__
State
p104
(dp105
g3
F3.0
sg4
F1.0
sg5
F-8.0
sg6
F6.0
sb(dp106
I00
F74.56540922619425
sI01
F1.3284319272537655
ss(i__main__
State
p107
(dp108
g3
F8.0
sg4
F4.0
sg5
F-3.0
sg6
F-6.0
sb(dp109
I00
F17.40426996111509
sI01
F544.2554498710984
ss(i__main__
State
p110
(dp111
g3
F6.0
sg4
F3.0
sg5
F-5.0
sg6
F-8.0
sb(dp112
I00
F49.96514276334238
sI01
F158.47358693842696
ss(i__main__
State
p113
(dp114
g3
F8.0
sg4
F8.0
sg5
F-3.0
sg6
F-6.0
sb(dp115
I00
F1079.0453759443794
sI01
F471.9128125329247
ss(i__main__
State
p116
(dp117
g3
F7.0
sg4
F8.0
sg5
F-4.0
sg6
F-7.0
sb(dp118
I00
F1135.0152542495996
sI01
F307.9038838556632
ss(i__main__
State
p119
(dp120
g3
F-7.0
sg4
F8.0
sg5
F-1.0
sg6
F-4.0
sb(dp121
I00
F-9258.233098967521
sI01
F932.8575847566675
ss(i__main__
State
p122
(dp123
g3
F-6.0
sg4
F8.0
sg5
F0.0
sg6
F-3.0
sb(dp124
I00
F-9225.864558476705
sI01
F-9740.709676183924
ss(i__main__
State
p125
(dp126
g3
F4.0
sg4
F1.0
sg5
F-7.0
sg6
F7.0
sb(dp127
I00
F28.293144575516493
sI01
F220.43297165044444
ss(i__main__
State
p128
(dp129
g3
F-5.0
sg4
F3.0
sg5
F1.0
sg6
F-2.0
sb(dp130
I00
F144.8837564998064
sI01
F720.2214207551913
ss(i__main__
State
p131
(dp132
g3
F6.0
sg4
F6.0
sg5
F-5.0
sg6
F-8.0
sb(dp133
I00
F266.61146768930286
sI01
F419.12753011018094
ss(i__main__
State
p134
(dp135
g3
F-8.0
sg4
F6.0
sg5
F-2.0
sg6
F-5.0
sb(dp136
I00
F731.6156806379055
sI01
F798.8266443291319
ss(i__main__
State
p137
(dp138
g3
F6.0
sg4
F7.0
sg5
F-5.0
sg6
F-8.0
sb(dp139
I00
F8.872260590770637
sI01
F617.6071667258783
ss(i__main__
State
p140
(dp141
g3
F1.0
sg4
F3.0
sg5
F7.0
sg6
F4.0
sb(dp142
I00
F136.06038961868717
sI01
F405.46714520025625
ss(i__main__
State
p143
(dp144
g3
F1.0
sg4
F1.0
sg5
F7.0
sg6
F4.0
sb(dp145
I00
F385.639918907181
sI01
F635.2129662969137
ss(i__main__
State
p146
(dp147
g3
F2.0
sg4
F5.0
sg5
F8.0
sg6
F5.0
sb(dp148
I00
F487.9024819829964
sI01
F186.97849977946436
ss(i__main__
State
p149
(dp150
g3
F0.0
sg4
F2.0
sg5
F6.0
sg6
F3.0
sb(dp151
I00
F679.5018309847529
sI01
F276.5591935834875
ss(i__main__
State
p152
(dp153
g3
F1.0
sg4
F5.0
sg5
F7.0
sg6
F4.0
sb(dp154
I00
F385.9844058880321
sI01
F156.2564391146321
ss(i__main__
State
p155
(dp156
g3
F2.0
sg4
F6.0
sg5
F8.0
sg6
F5.0
sb(dp157
I00
F105.59233744536658
sI01
F628.5721639128781
ss(i__main__
State
p158
(dp159
g3
F-1.0
sg4
F1.0
sg5
F5.0
sg6
F2.0
sb(dp160
I00
F532.2076372901859
sI01
F655.5747379405678
ss(i__main__
State
p161
(dp162
g3
F2.0
sg4
F7.0
sg5
F8.0
sg6
F5.0
sb(dp163
I00
F596.9345806729716
sI01
F1158.132535767315
ss(i__main__
State
p164
(dp165
g3
F-7.0
sg4
F1.0
sg5
F-1.0
sg6
F-4.0
sb(dp166
I00
F100.40477634771786
sI01
F-11.690890768601262
ss(i__main__
State
p167
(dp168
g3
F-5.0
sg4
F6.0
sg5
F1.0
sg6
F-2.0
sb(dp169
I00
F380.30336936860493
sI01
F199.80414102238888
ss(i__main__
State
p170
(dp171
g3
F-6.0
sg4
F7.0
sg5
F0.0
sg6
F-3.0
sb(dp172
I00
F637.4105669813295
sI01
F818.9705181674345
ss(i__main__
State
p173
(dp174
g3
F3.0
sg4
F4.0
sg5
F-8.0
sg6
F6.0
sb(dp175
I00
F677.1226201896807
sI01
F147.6069689097547
ss(i__main__
State
p176
(dp177
g3
F7.0
sg4
F4.0
sg5
F-4.0
sg6
F-7.0
sb(dp178
I00
F358.60501166972267
sI01
F158.74711955424073
ss(i__main__
State
p179
(dp180
g3
F8.0
sg4
F2.0
sg5
F-3.0
sg6
F-6.0
sb(dp181
I00
F512.2260367027623
sI01
F786.5773138849479
ss(i__main__
State
p182
(dp183
g3
F1.0
sg4
F7.0
sg5
F7.0
sg6
F4.0
sb(dp184
I00
F508.62077693154475
sI01
F1131.5458968686053
ss(i__main__
State
p185
(dp186
g3
F-1.0
sg4
F4.0
sg5
F5.0
sg6
F2.0
sb(dp187
I00
F103.69235124466768
sI01
F915.0715148655457
ss(i__main__
State
p188
(dp189
g3
F-3.0
sg4
F0.0
sg5
F3.0
sg6
F0.0
sb(dp190
I00
F648.1595763671874
sI01
F533.3597056012557
ss(i__main__
State
p191
(dp192
g3
F-8.0
sg4
F4.0
sg5
F-2.0
sg6
F-5.0
sb(dp193
I00
F23.999693212437865
sI01
F104.17420308240858
ss(i__main__
State
p194
(dp195
g3
F1.0
sg4
F2.0
sg5
F7.0
sg6
F4.0
sb(dp196
I00
F614.4107822549595
sI01
F694.8568390164841
ss(i__main__
State
p197
(dp198
g3
F5.0
sg4
F4.0
sg5
F-6.0
sg6
F8.0
sb(dp199
I00
F656.2952936830063
sI01
F749.2214039223812
ss(i__main__
State
p200
(dp201
g3
F-2.0
sg4
F5.0
sg5
F4.0
sg6
F1.0
sb(dp202
I00
F370.03765964846576
sI01
F1054.5623158807764
ss(i__main__
State
p203
(dp204
g3
F-8.0
sg4
F2.0
sg5
F-2.0
sg6
F-5.0
sb(dp205
I00
F221.42639053908147
sI01
F874.1783074825623
ss(i__main__
State
p206
(dp207
g3
F-5.0
sg4
F0.0
sg5
F1.0
sg6
F-2.0
sb(dp208
I00
F399.9527604191972
sI01
F125.07475514745809
ss(i__main__
State
p209
(dp210
g3
F1.0
sg4
F8.0
sg5
F7.0
sg6
F4.0
sb(dp211
I00
F1309.446045442422
sI01
F203.29038735830392
ss(i__main__
State
p212
(dp213
g3
F0.0
sg4
F5.0
sg5
F6.0
sg6
F3.0
sb(dp214
I00
F280.6214183013544
sI01
F1009.8567971890584
ss(i__main__
State
p215
(dp216
g3
F-4.0
sg4
F3.0
sg5
F2.0
sg6
F-1.0
sb(dp217
I00
F449.33686381080344
sI01
F74.88246151132148
ss(i__main__
State
p218
(dp219
g3
F-8.0
sg4
F5.0
sg5
F-2.0
sg6
F-5.0
sb(dp220
I00
F121.62321838868934
sI01
F715.595002784922
ss(i__main__
State
p221
(dp222
g3
F-3.0
sg4
F6.0
sg5
F3.0
sg6
F0.0
sb(dp223
I00
F107.18001561779123
sI01
F543.1104911545732
ss(i__main__
State
p224
(dp225
g3
F7.0
sg4
F3.0
sg5
F-4.0
sg6
F-7.0
sb(dp226
I00
F245.36056758647123
sI01
F141.23214104774817
ss(i__main__
State
p227
(dp228
g3
F5.0
sg4
F5.0
sg5
F-6.0
sg6
F8.0
sb(dp229
I00
F640.4222974742167
sI01
F297.9720611929233
ss(i__main__
State
p230
(dp231
g3
F-5.0
sg4
F7.0
sg5
F1.0
sg6
F-2.0
sb(dp232
I00
F242.2891629455909
sI01
F687.7410035563004
ss(i__main__
State
p233
(dp234
g3
F-4.0
sg4
F4.0
sg5
F2.0
sg6
F-1.0
sb(dp235
I00
F198.14623236983033
sI01
F988.0858463726048
ss(i__main__
State
p236
(dp237
g3
F3.0
sg4
F7.0
sg5
F-8.0
sg6
F6.0
sb(dp238
I00
F800.7300161075051
sI01
F606.7209884317969
ss(i__main__
State
p239
(dp240
g3
F7.0
sg4
F0.0
sg5
F-4.0
sg6
F-7.0
sb(dp241
I00
F129.49210962853067
sI01
F568.9884870590006
ss(i__main__
State
p242
(dp243
g3
F-6.0
sg4
F6.0
sg5
F0.0
sg6
F-3.0
sb(dp244
I00
F286.39968085891303
sI01
F174.2513784150753
ss(i__main__
State
p245
(dp246
g3
F-6.0
sg4
F0.0
sg5
F0.0
sg6
F-3.0
sb(dp247
I00
F256.90484700814017
sI01
F853.7822086491087
ss(i__main__
State
p248
(dp249
g3
F-8.0
sg4
F0.0
sg5
F-2.0
sg6
F-5.0
sb(dp250
I00
F622.9846799196886
sI01
F12.04954379050504
ss(i__main__
State
p251
(dp252
g3
F6.0
sg4
F8.0
sg5
F-5.0
sg6
F-8.0
sb(dp253
I00
F1187.0258704328005
sI01
F471.41311870596644
ss(i__main__
State
p254
(dp255
g3
F-3.0
sg4
F3.0
sg5
F3.0
sg6
F0.0
sb(dp256
I00
F504.85099243464623
sI01
F911.9508729261709
ss(i__main__
State
p257
(dp258
g3
F0.0
sg4
F0.0
sg5
F6.0
sg6
F3.0
sb(dp259
I00
F170.98923779512234
sI01
F550.9098508949086
ss(i__main__
State
p260
(dp261
g3
F5.0
sg4
F2.0
sg5
F-6.0
sg6
F8.0
sb(dp262
I00
F445.02892767378904
sI01
F45.81190768397224
ss(i__main__
State
p263
(dp264
g3
F-8.0
sg4
F3.0
sg5
F-2.0
sg6
F-5.0
sb(dp265
I00
F889.0805622288198
sI01
F88.29448971276933
ss(i__main__
State
p266
(dp267
g3
F-2.0
sg4
F7.0
sg5
F4.0
sg6
F1.0
sb(dp268
I00
F857.1579838647251
sI01
F127.55355634997338
ss(i__main__
State
p269
(dp270
g3
F0.0
sg4
F6.0
sg5
F6.0
sg6
F3.0
sb(dp271
I00
F151.91403025727385
sI01
F955.7346550597302
ss(i__main__
State
p272
(dp273
g3
F-2.0
sg4
F1.0
sg5
F4.0
sg6
F1.0
sb(dp274
I00
F619.7881564699336
sI01
F452.25209645743774
ss(i__main__
State
p275
(dp276
g3
F-4.0
sg4
F8.0
sg5
F2.0
sg6
F-1.0
sb(dp277
I00
F-9322.539387777193
sI01
F737.7005769200133
ss(i__main__
State
p278
(dp279
g3
F-8.0
sg4
F1.0
sg5
F-2.0
sg6
F-5.0
sb(dp280
I00
F22.00269400384502
sI01
F183.61620852624594
ss(i__main__
State
p281
(dp282
g3
F-3.0
sg4
F1.0
sg5
F3.0
sg6
F0.0
sb(dp283
I00
F584.4152730642458
sI01
F227.80952928839292
ss(i__main__
State
p284
(dp285
g3
F7.0
sg4
F7.0
sg5
F-4.0
sg6
F-7.0
sb(dp286
I00
F459.920485894783
sI01
F627.5594370183788
ss(i__main__
State
p287
(dp288
g3
F-3.0
sg4
F7.0
sg5
F3.0
sg6
F0.0
sb(dp289
I00
F397.79071605500127
sI01
F628.4280243119728
ss(i__main__
State
p290
(dp291
g3
F4.0
sg4
F5.0
sg5
F-7.0
sg6
F7.0
sb(dp292
I00
F204.54484154596378
sI01
F219.49432614185952
ss(i__main__
State
p293
(dp294
g3
F4.0
sg4
F0.0
sg5
F-7.0
sg6
F7.0
sb(dp295
I00
F104.55766894197924
sI01
F356.3909176023402
ss(i__main__
State
p296
(dp297
g3
F6.0
sg4
F5.0
sg5
F-5.0
sg6
F-8.0
sb(dp298
I00
F762.6314061035732
sI01
F584.1201452477333
ss(i__main__
State
p299
(dp300
g3
F-5.0
sg4
F4.0
sg5
F1.0
sg6
F-2.0
sb(dp301
I00
F624.7211328858438
sI01
F1031.5838783702293
ss(i__main__
State
p302
(dp303
g3
F-3.0
sg4
F8.0
sg5
F3.0
sg6
F0.0
sb(dp304
I00
F-9370.75761223649
sI01
F-9527.432780109268
ss(i__main__
State
p305
(dp306
g3
F-1.0
sg4
F0.0
sg5
F5.0
sg6
F2.0
sb(dp307
I00
F444.9210153368374
sI01
F670.016749984156
ss(i__main__
State
p308
(dp309
g3
F-8.0
sg4
F7.0
sg5
F-2.0
sg6
F-5.0
sb(dp310
I00
F772.509002554708
sI01
F527.104381283392
ss(i__main__
State
p311
(dp312
g3
F-1.0
sg4
F2.0
sg5
F5.0
sg6
F2.0
sb(dp313
I00
F598.8525440076006
sI01
F45.95243464355804
ss(i__main__
State
p314
(dp315
g3
F5.0
sg4
F3.0
sg5
F-6.0
sg6
F8.0
sb(dp316
I00
F62.21559842344263
sI01
F573.4037688076976
ss(i__main__
State
p317
(dp318
g3
F-1.0
sg4
F6.0
sg5
F5.0
sg6
F2.0
sb(dp319
I00
F556.0649430369194
sI01
F1215.960852060707
ss(i__main__
State
p320
(dp321
g3
F-7.0
sg4
F4.0
sg5
F-1.0
sg6
F-4.0
sb(dp322
I00
F86.24151988175704
sI01
F131.25980667395413
ss(i__main__
State
p323
(dp324
g3
F-4.0
sg4
F1.0
sg5
F2.0
sg6
F-1.0
sb(dp325
I00
F404.5563156604129
sI01
F58.15349518440282
ss(i__main__
State
p326
(dp327
g3
F1.0
sg4
F0.0
sg5
F7.0
sg6
F4.0
sb(dp328
I00
F48.43140865944934
sI01
F326.670308014708
ss(i__main__
State
p329
(dp330
g3
F8.0
sg4
F5.0
sg5
F-3.0
sg6
F-6.0
sb(dp331
I00
F644.2654451625737
sI01
F789.9308542109057
ss(i__main__
State
p332
(dp333
g3
F3.0
sg4
F0.0
sg5
F-8.0
sg6
F6.0
sb(dp334
I00
F285.7045866464746
sI01
F81.34782165195456
ss(i__main__
State
p335
(dp336
g3
F7.0
sg4
F1.0
sg5
F-4.0
sg6
F-7.0
sb(dp337
I00
F211.83358572349528
sI01
F343.91182465440596
ss(i__main__
State
p338
(dp339
g3
F4.0
sg4
F2.0
sg5
F-7.0
sg6
F7.0
sb(dp340
I00
F319.47826331141545
sI01
F164.91984171637202
ss(i__main__
State
p341
(dp342
g3
F-6.0
sg4
F4.0
sg5
F0.0
sg6
F-3.0
sb(dp343
I00
F763.4862504153748
sI01
F124.09910288307113
ss(i__main__
State
p344
(dp345
g3
F-4.0
sg4
F5.0
sg5
F2.0
sg6
F-1.0
sb(dp346
I00
F1066.7718265992162
sI01
F312.01465833477454
ss(i__main__
State
p347
(dp348
g3
F-3.0
sg4
F4.0
sg5
F3.0
sg6
F0.0
sb(dp349
I00
F-59.14260191522699
sI01
F595.2296318462189
ss(i__main__
State
p350
(dp351
g3
F0.0
sg4
F3.0
sg5
F6.0
sg6
F3.0
sb(dp352
I00
F118.03786780875875
sI01
F81.29383022371434
ss(i__main__
State
p353
(dp354
g3
F4.0
sg4
F3.0
sg5
F-7.0
sg6
F7.0
sb(dp355
I00
F435.1737590884139
sI01
F717.8021086963666
ss(i__main__
State
p356
(dp357
g3
F-4.0
sg4
F6.0
sg5
F2.0
sg6
F-1.0
sb(dp358
I00
F141.71616136708
sI01
F498.2908308544219
ss(i__main__
State
p359
(dp360
g3
F-6.0
sg4
F2.0
sg5
F0.0
sg6
F-3.0
sb(dp361
I00
F124.75413817283786
sI01
F-28.244084507230944
ss(i__main__
State
p362
(dp363
g3
F-7.0
sg4
F6.0
sg5
F-1.0
sg6
F-4.0
sb(dp364
I00
F219.34098050319872
sI01
F780.9378135563359
ss(i__main__
State
p365
(dp366
g3
F6.0
sg4
F2.0
sg5
F-5.0
sg6
F-8.0
sb(dp367
I00
F576.2148887256577
sI01
F152.52947901556468
ss(i__main__
State
p368
(dp369
g3
F3.0
sg4
F5.0
sg5
F-8.0
sg6
F6.0
sb(dp370
I00
F62.65531516487884
sI01
F611.6458601491224
ss(i__main__
State
p371
(dp372
g3
F-8.0
sg4
F8.0
sg5
F-2.0
sg6
F-5.0
sb(dp373
I00
F1007.8965550958153
sI01
F499.14444087798364
ss(i__main__
State
p374
(dp375
g3
F-2.0
sg4
F0.0
sg5
F4.0
sg6
F1.0
sb(dp376
I00
F656.8843593992009
sI01
F590.0481414386962
ss(i__main__
State
p377
(dp378
g3
F2.0
sg4
F2.0
sg5
F8.0
sg6
F5.0
sb(dp379
I00
F673.2133469356286
sI01
F516.1402414132546
ss(i__main__
State
p380
(dp381
g3
F5.0
sg4
F1.0
sg5
F-6.0
sg6
F8.0
sb(dp382
I00
F141.13991980626832
sI01
F431.290135974783
ss(i__main__
State
p383
(dp384
g3
F-2.0
sg4
F4.0
sg5
F4.0
sg6
F1.0
sb(dp385
I00
F545.7801297912113
sI01
F941.1206735256364
ss(i__main__
State
p386
(dp387
g3
F-7.0
sg4
F2.0
sg5
F-1.0
sg6
F-4.0
sb(dp388
I00
F-25.6522035951864
sI01
F611.1586441435156
ss(i__main__
State
p389
(dp390
g3
F2.0
sg4
F4.0
sg5
F8.0
sg6
F5.0
sb(dp391
I00
F531.8572391142186
sI01
F191.53658202932684
ss(i__main__
State
p392
(dp393
g3
F-2.0
sg4
F3.0
sg5
F4.0
sg6
F1.0
sb(dp394
I00
F-58.94499523796257
sI01
F761.2595851048219
ss(i__main__
State
p395
(dp396
g3
F7.0
sg4
F5.0
sg5
F-4.0
sg6
F-7.0
sb(dp397
I00
F778.6649289577174
sI01
F670.6480512808387
ss(i__main__
State
p398
(dp399
g3
F-4.0
sg4
F0.0
sg5
F2.0
sg6
F-1.0
sb(dp400
I00
F421.62295223982477
sI01
F538.5353557271412
ss(i__main__
State
p401
(dp402
g3
F8.0
sg4
F7.0
sg5
F-3.0
sg6
F-6.0
sb(dp403
I00
F296.89329794433405
sI01
F691.4531473644114
ss(i__main__
State
p404
(dp405
g3
F-2.0
sg4
F6.0
sg5
F4.0
sg6
F1.0
sb(dp406
I00
F1153.6951288758937
sI01
F834.9174573729975
ss(i__main__
State
p407
(dp408
g3
F-6.0
sg4
F1.0
sg5
F0.0
sg6
F-3.0
sb(dp409
I00
F92.32751360700769
sI01
F362.5325308474068
ss(i__main__
State
p410
(dp411
g3
F2.0
sg4
F1.0
sg5
F8.0
sg6
F5.0
sb(dp412
I00
F27.68285091808965
sI01
F532.974745367903
ss(i__main__
State
p413
(dp414
g3
F4.0
sg4
F8.0
sg5
F-7.0
sg6
F7.0
sb(dp415
I00
F1248.99711283413
sI01
F293.7386465712931
ss(i__main__
State
p416
(dp417
g3
F7.0
sg4
F2.0
sg5
F-4.0
sg6
F-7.0
sb(dp418
I00
F676.6477499079133
sI01
F257.42386729451914
ss(i__main__
State
p419
(dp420
g3
F2.0
sg4
F3.0
sg5
F8.0
sg6
F5.0
sb(dp421
I00
F704.3575721556574
sI01
F627.8461692516926
ss(i__main__
State
p422
(dp423
g3
F0.0
sg4
F4.0
sg5
F6.0
sg6
F3.0
sb(dp424
I00
F190.130565870127
sI01
F23.44241859559714
ss(i__main__
State
p425
(dp426
g3
F-1.0
sg4
F8.0
sg5
F5.0
sg6
F2.0
sb(dp427
I00
F-5135.261131861891
sI01
F405.4852191470263
ss(i__main__
State
p428
(dp429
g3
F8.0
sg4
F6.0
sg5
F-3.0
sg6
F-6.0
sb(dp430
I00
F590.8741172411153
sI01
F733.8096842705144
ss(i__main__
State
p431
(dp432
g3
F5.0
sg4
F7.0
sg5
F-6.0
sg6
F8.0
sb(dp433
I00
F166.21214071821575
sI01
F975.4926642186967
ss(i__main__
State
p434
(dp435
g3
F-7.0
sg4
F7.0
sg5
F-1.0
sg6
F-4.0
sb(dp436
I00
F809.325094264844
sI01
F-9281.162035421332
ss(i__main__
State
p437
(dp438
g3
F-7.0
sg4
F3.0
sg5
F-1.0
sg6
F-4.0
sb(dp439
I00
F971.038511418035
sI01
F516.3969620341844
ss(i__main__
State
p440
(dp441
g3
F-5.0
sg4
F1.0
sg5
F1.0
sg6
F-2.0
sb(dp442
I00
F234.14504075997138
sI01
F869.591014203758
ss(i__main__
State
p443
(dp444
g3
F0.0
sg4
F8.0
sg5
F6.0
sg6
F3.0
sb(dp445
I00
F-7855.511073958169
sI01
F-7860.731595490182
ss(i__main__
State
p446
(dp447
g3
F4.0
sg4
F6.0
sg5
F-7.0
sg6
F7.0
sb(dp448
I00
F93.37656833361083
sI01
F782.8722672409367
ss(i__main__
State
p449
(dp450
g3
F-3.0
sg4
F5.0
sg5
F3.0
sg6
F0.0
sb(dp451
I00
F804.5231040211611
sI01
F1110.202790824572
ss(i__main__
State
p452
(dp453
g3
F1.0
sg4
F6.0
sg5
F7.0
sg6
F4.0
sb(dp454
I00
F432.18481260095797
sI01
F1068.8384163481137
ss(i__main__
State
p455
(dp456
g3
F8.0
sg4
F0.0
sg5
F-3.0
sg6
F-6.0
sb(dp457
I00
F401.6056077420915
sI01
F22.777272096903772
ss(i__main__
State
p458
(dp459
g3
F3.0
sg4
F8.0
sg5
F-8.0
sg6
F6.0
sb(dp460
I00
F1267.7225838487686
sI01
F365.6258190458306
ss(i__main__
State
p461
(dp462
g3
F-7.0
sg4
F0.0
sg5
F-1.0
sg6
F-4.0
sb(dp463
I00
F762.3215125829531
sI01
F154.2416286161237
ss.