(dp0
(i__main__
State
p1
(dp2
S'y1'
p3
F8.0
sS'x'
p4
F3.0
sS'y3'
p5
F-3.0
sS'y2'
p6
F-6.0
sb(dp7
I00
F2362.9257772186634
sI01
F288.84738736264006
ss(i__main__
State
p8
(dp9
g3
F4.0
sg4
F7.0
sg5
F-7.0
sg6
F7.0
sb(dp10
I00
F1276.7928727784094
sI01
F2895.5495210122035
ss(i__main__
State
p11
(dp12
g3
F-7.0
sg4
F5.0
sg5
F-1.0
sg6
F-4.0
sb(dp13
I00
F842.1141847458191
sI01
F1027.664125593709
ss(i__main__
State
p14
(dp15
g3
F-5.0
sg4
F2.0
sg5
F1.0
sg6
F-2.0
sb(dp16
I00
F2401.7345178861933
sI01
F754.816135345863
ss(i__main__
State
p17
(dp18
g3
F7.0
sg4
F6.0
sg5
F-4.0
sg6
F-7.0
sb(dp19
I00
F2443.463274143628
sI01
F1535.3333492572067
ss(i__main__
State
p20
(dp21
g3
F0.0
sg4
F7.0
sg5
F6.0
sg6
F3.0
sb(dp22
I00
F2820.293212698767
sI01
F3316.4133441170025
ss(i__main__
State
p23
(dp24
g3
F-1.0
sg4
F3.0
sg5
F5.0
sg6
F2.0
sb(dp25
I00
F73.06430563762501
sI01
F1128.4879454367572
ss(i__main__
State
p26
(dp27
g3
F1.0
sg4
F4.0
sg5
F7.0
sg6
F4.0
sb(dp28
I00
F655.5536932161017
sI01
F2089.9442618251874
ss(i__main__
State
p29
(dp30
g3
F-1.0
sg4
F7.0
sg5
F5.0
sg6
F2.0
sb(dp31
I00
F3090.0957034056096
sI01
F-7160.186569016472
ss(i__main__
State
p32
(dp33
g3
F-1.0
sg4
F5.0
sg5
F5.0
sg6
F2.0
sb(dp34
I00
F3006.4063539455565
sI01
F2671.1825942302225
ss(i__main__
State
p35
(dp36
g3
F-6.0
sg4
F5.0
sg5
F0.0
sg6
F-3.0
sb(dp37
I00
F659.1214676294968
sI01
F1143.223002078281
ss(i__main__
State
p38
(dp39
g3
F-2.0
sg4
F8.0
sg5
F4.0
sg6
F1.0
sb(dp40
I00
F1544.7525365815352
sI01
F2017.4477057224715
ss(i__main__
State
p41
(dp42
g3
F6.0
sg4
F0.0
sg5
F-5.0
sg6
F-8.0
sb(dp43
I00
F2508.706308610917
sI01
F1678.474180019802
ss(i__main__
State
p44
(dp45
g3
F6.0
sg4
F4.0
sg5
F-5.0
sg6
F-8.0
sb(dp46
I00
F1235.6960924621942
sI01
F2454.9020809333465
ss(i__main__
State
p47
(dp48
g3
F-4.0
sg4
F7.0
sg5
F2.0
sg6
F-1.0
sb(dp49
I00
F1602.7040315305758
sI01
F-5267.593363061245
ss(i__main__
State
p50
(dp51
g3
F-3.0
sg4
F2.0
sg5
F3.0
sg6
F0.0
sb(dp52
I00
F1454.0344126463403
sI01
F2612.301377789675
ss(i__main__
State
p53
(dp54
g3
F5.0
sg4
F0.0
sg5
F-6.0
sg6
F8.0
sb(dp55
I00
F2369.0601676522506
sI01
F1622.3904268592028
ss(i__main__
State
p56
(dp57
g3
F3.0
sg4
F2.0
sg5
F-8.0
sg6
F6.0
sb(dp58
I00
F1583.2836636051393
sI01
F2068.834062328716
ss(i__main__
State
p59
(dp60
g3
F3.0
sg4
F3.0
sg5
F-8.0
sg6
F6.0
sb(dp61
I00
F2022.4282870237369
sI01
F2433.576553534659
ss(i__main__
State
p62
(dp63
g3
F2.0
sg4
F0.0
sg5
F8.0
sg6
F5.0
sb(dp64
I00
F1771.5902740110694
sI01
F492.23102799532217
ss(i__main__
State
p65
(dp66
g3
F4.0
sg4
F4.0
sg5
F-7.0
sg6
F7.0
sb(dp67
I00
F2525.6358692588983
sI01
F2049.0073417115095
ss(i__main__
State
p68
(dp69
g3
F-2.0
sg4
F2.0
sg5
F4.0
sg6
F1.0
sb(dp70
I00
F1856.8591036035155
sI01
F381.5052616876187
ss(i__main__
State
p71
(dp72
g3
F-4.0
sg4
F2.0
sg5
F2.0
sg6
F-1.0
sb(dp73
I00
F2306.3161130162116
sI01
F2883.000572802289
ss(i__main__
State
p74
(dp75
g3
F-6.0
sg4
F3.0
sg5
F0.0
sg6
F-3.0
sb(dp76
I00
F2349.904628629875
sI01
F2931.1731361071666
ss(i__main__
State
p77
(dp78
g3
F2.0
sg4
F8.0
sg5
F8.0
sg6
F5.0
sb(dp79
I00
F3328.7471389599527
sI01
F1810.5896574462279
ss(i__main__
State
p80
(dp81
g3
F6.0
sg4
F1.0
sg5
F-5.0
sg6
F-8.0
sb(dp82
I00
F470.4754034326996
sI01
F2364.7141485876164
ss(i__main__
State
p83
(dp84
g3
F5.0
sg4
F6.0
sg5
F-6.0
sg6
F8.0
sb(dp85
I00
F1733.1563178523534
sI01
F164.99067054890213
ss(i__main__
State
p86
(dp87
g3
F8.0
sg4
F1.0
sg5
F-3.0
sg6
F-6.0
sb(dp88
I00
F1794.9758915049947
sI01
F2677.7200755437134
ss(i__main__
State
p89
(dp90
g3
F-5.0
sg4
F5.0
sg5
F1.0
sg6
F-2.0
sb(dp91
I00
F1795.7407202802024
sI01
F342.4594119465899
ss(i__main__
State
p92
(dp93
g3
F-5.0
sg4
F8.0
sg5
F1.0
sg6
F-2.0
sb(dp94
I00
F2120.896502110497
sI01
F1939.709653527509
ss(i__main__
State
p95
(dp96
g3
F0.0
sg4
F1.0
sg5
F6.0
sg6
F3.0
sb(dp97
I00
F1853.2385542774002
sI01
F2084.3694308122926
ss(i__main__
State
p98
(dp99
g3
F5.0
sg4
F8.0
sg5
F-6.0
sg6
F8.0
sb(dp100
I00
F3148.530088409888
sI01
F2396.827843868618
ss(i__main__
State
p101
(dp102
g3
F3.0
sg4
F6.0
sg5
F-8.0
sg6
F6.0
sb(dp103
I00
F2051.1415849872105
sI01
F679.645456558743
ss(i__main__
State
p104
(dp105
g3
F3.0
sg4
F1.0
sg5
F-8.0
sg6
F6.0
sb(dp106
I00
F339.1176438925713
sI01
F1184.8236332100582
ss(i__main__
State
p107
(dp108
g3
F8.0
sg4
F4.0
sg5
F-3.0
sg6
F-6.0
sb(dp109
I00
F158.03000084359317
sI01
F1750.3976673739985
ss(i__main__
State
p110
(dp111
g3
F6.0
sg4
F3.0
sg5
F-5.0
sg6
F-8.0
sb(dp112
I00
F381.4410086477798
sI01
F1082.353359193954
ss(i__main__
State
p113
(dp114
g3
F8.0
sg4
F8.0
sg5
F-3.0
sg6
F-6.0
sb(dp115
I00
F2961.1936313749434
sI01
F2380.1716859126077
ss(i__main__
State
p116
(dp117
g3
F7.0
sg4
F8.0
sg5
F-4.0
sg6
F-7.0
sb(dp118
I00
F3024.236101702512
sI01
F2321.0152038117117
ss(i__main__
State
p119
(dp120
g3
F-7.0
sg4
F8.0
sg5
F-1.0
sg6
F-4.0
sb(dp121
I00
F-7844.356963979668
sI01
F2879.0300697797356
ss(i__main__
State
p122
(dp123
g3
F-6.0
sg4
F8.0
sg5
F0.0
sg6
F-3.0
sb(dp124
I00
F-7904.462389643929
sI01
F-8532.169352645207
ss(i__main__
State
p125
(dp126
g3
F4.0
sg4
F1.0
sg5
F-7.0
sg6
F7.0
sb(dp127
I00
F515.6189287590531
sI01
F1444.6150515862712
ss(i__main__
State
p128
(dp129
g3
F-5.0
sg4
F3.0
sg5
F1.0
sg6
F-2.0
sb(dp130
I00
F578.0197828401442
sI01
F2622.7453488526608
ss(i__main__
State
p131
(dp132
g3
F6.0
sg4
F6.0
sg5
F-5.0
sg6
F-8.0
sb(dp133
I00
F1379.2864094316678
sI01
F2073.007778982675
ss(i__main__
State
p134
(dp135
g3
F-8.0
sg4
F6.0
sg5
F-2.0
sg6
F-5.0
sb(dp136
I00
F1969.8814385917929
sI01
F2058.043205631119
ss(i__main__
State
p137
(dp138
g3
F6.0
sg4
F7.0
sg5
F-5.0
sg6
F-8.0
sb(dp139
I00
F126.57424960085676
sI01
F1860.4544297001316
ss(i__main__
State
p140
(dp141
g3
F1.0
sg4
F3.0
sg5
F7.0
sg6
F4.0
sb(dp142
I00
F1578.1303270423077
sI01
F1712.3720959653065
ss(i__main__
State
p143
(dp144
g3
F1.0
sg4
F1.0
sg5
F7.0
sg6
F4.0
sb(dp145
I00
F1582.4760541174005
sI01
F1937.374028684843
ss(i__main__
State
p146
(dp147
g3
F2.0
sg4
F5.0
sg5
F8.0
sg6
F5.0
sb(dp148
I00
F2402.3956755589497
sI01
F1312.3516871825748
ss(i__main__
State
p149
(dp150
g3
F0.0
sg4
F2.0
sg5
F6.0
sg6
F3.0
sb(dp151
I00
F2149.450767126223
sI01
F1619.903739290342
ss(i__main__
State
p152
(dp153
g3
F1.0
sg4
F5.0
sg5
F7.0
sg6
F4.0
sb(dp154
I00
F2173.8441113782005
sI01
F967.4945372234652
ss(i__main__
State
p155
(dp156
g3
F2.0
sg4
F6.0
sg5
F8.0
sg6
F5.0
sb(dp157
I00
F951.8564233328598
sI01
F2273.2372965328204
ss(i__main__
State
p158
(dp159
g3
F-1.0
sg4
F1.0
sg5
F5.0
sg6
F2.0
sb(dp160
I00
F1877.3688867410972
sI01
F2066.9558610773042
ss(i__main__
State
p161
(dp162
g3
F2.0
sg4
F7.0
sg5
F8.0
sg6
F5.0
sb(dp163
I00
F2222.178733309106
sI01
F3203.086384634179
ss(i__main__
State
p164
(dp165
g3
F-7.0
sg4
F1.0
sg5
F-1.0
sg6
F-4.0
sb(dp166
I00
F1229.705954481693
sI01
F123.98472533227242
ss(i__main__
State
p167
(dp168
g3
F-5.0
sg4
F6.0
sg5
F1.0
sg6
F-2.0
sb(dp169
I00
F1374.4923266220032
sI01
F707.9652636356047
ss(i__main__
State
p170
(dp171
g3
F-6.0
sg4
F7.0
sg5
F0.0
sg6
F-3.0
sb(dp172
I00
F1912.4468125552178
sI01
F2103.1271005985195
ss(i__main__
State
p173
(dp174
g3
F3.0
sg4
F4.0
sg5
F-8.0
sg6
F6.0
sb(dp175
I00
F2168.5617706429744
sI01
F1394.0092713709023
ss(i__main__
State
p176
(dp177
g3
F7.0
sg4
F4.0
sg5
F-4.0
sg6
F-7.0
sb(dp178
I00
F1524.7622766632544
sI01
F1106.1388556771444
ss(i__main__
State
p179
(dp180
g3
F8.0
sg4
F2.0
sg5
F-3.0
sg6
F-6.0
sb(dp181
I00
F2134.753243955347
sI01
F2725.347180289152
ss(i__main__
State
p182
(dp183
g3
F1.0
sg4
F7.0
sg5
F7.0
sg6
F4.0
sb(dp184
I00
F2169.330375190031
sI01
F3188.551802617557
ss(i__main__
State
p185
(dp186
g3
F-1.0
sg4
F4.0
sg5
F5.0
sg6
F2.0
sb(dp187
I00
F1122.3178343513346
sI01
F3000.2806529818617
ss(i__main__
State
p188
(dp189
g3
F-3.0
sg4
F0.0
sg5
F3.0
sg6
F0.0
sb(dp190
I00
F1950.5143582757782
sI01
F1890.7636536156779
ss(i__main__
State
p191
(dp192
g3
F-8.0
sg4
F4.0
sg5
F-2.0
sg6
F-5.0
sb(dp193
I00
F47.5083859608757
sI01
F613.9080801543996
ss(i__main__
State
p194
(dp195
g3
F1.0
sg4
F2.0
sg5
F7.0
sg6
F4.0
sb(dp196
I00
F1954.0637444779627
sI01
F2245.8635316449554
ss(i__main__
State
p197
(dp198
g3
F5.0
sg4
F4.0
sg5
F-6.0
sg6
F8.0
sb(dp199
I00
F2199.215273195008
sI01
F2614.1854382969595
ss(i__main__
State
p200
(dp201
g3
F-2.0
sg4
F5.0
sg5
F4.0
sg6
F1.0
sb(dp202
I00
F1577.0269714204196
sI01
F2972.43436768513
ss(i__main__
State
p203
(dp204
g3
F-8.0
sg4
F2.0
sg5
F-2.0
sg6
F-5.0
sb(dp205
I00
F1950.746688738759
sI01
F2789.884112280036
ss(i__main__
State
p206
(dp207
g3
F-5.0
sg4
F0.0
sg5
F1.0
sg6
F-2.0
sb(dp208
I00
F1869.6365403556579
sI01
F1361.5725507823156
ss(i__main__
State
p209
(dp210
g3
F1.0
sg4
F8.0
sg5
F7.0
sg6
F4.0
sb(dp211
I00
F3371.257366311874
sI01
F1611.2177956787243
ss(i__main__
State
p212
(dp213
g3
F0.0
sg4
F5.0
sg5
F6.0
sg6
F3.0
sb(dp214
I00
F1964.7050834196393
sI01
F3095.349075660833
ss(i__main__
State
p215
(dp216
g3
F-4.0
sg4
F3.0
sg5
F2.0
sg6
F-1.0
sb(dp217
I00
F1693.8787088774384
sI01
F245.69115052568753
ss(i__main__
State
p218
(dp219
g3
F-8.0
sg4
F5.0
sg5
F-2.0
sg6
F-5.0
sb(dp220
I00
F614.4246292931768
sI01
F1954.1250554406238
ss(i__main__
State
p221
(dp222
g3
F-3.0
sg4
F6.0
sg5
F3.0
sg6
F0.0
sb(dp223
I00
F1911.114259294554
sI01
F2377.060491178856
ss(i__main__
State
p224
(dp225
g3
F7.0
sg4
F3.0
sg5
F-4.0
sg6
F-7.0
sb(dp226
I00
F1661.1128983919107
sI01
F495.83518918111366
ss(i__main__
State
p227
(dp228
g3
F5.0
sg4
F5.0
sg5
F-6.0
sg6
F8.0
sb(dp229
I00
F2309.178442206113
sI01
F1536.0313576449469
ss(i__main__
State
p230
(dp231
g3
F-5.0
sg4
F7.0
sg5
F1.0
sg6
F-2.0
sb(dp232
I00
F1311.3651578205652
sI01
F1985.3649246261425
ss(i__main__
State
p233
(dp234
g3
F-4.0
sg4
F4.0
sg5
F2.0
sg6
F-1.0
sb(dp235
I00
F1098.379964307399
sI01
F2924.34479187525
ss(i__main__
State
p236
(dp237
g3
F3.0
sg4
F7.0
sg5
F-8.0
sg6
F6.0
sb(dp238
I00
F2637.1958245885935
sI01
F2293.746615765667
ss(i__main__
State
p239
(dp240
g3
F7.0
sg4
F0.0
sg5
F-4.0
sg6
F-7.0
sb(dp241
I00
F1829.237275421751
sI01
F2598.095348679171
ss(i__main__
State
p242
(dp243
g3
F-6.0
sg4
F6.0
sg5
F0.0
sg6
F-3.0
sb(dp244
I00
F969.1123020826925
sI01
F1817.3329354872694
ss(i__main__
State
p245
(dp246
g3
F-6.0
sg4
F0.0
sg5
F0.0
sg6
F-3.0
sb(dp247
I00
F1802.162362607766
sI01
F2817.951075829761
ss(i__main__
State
p248
(dp249
g3
F-8.0
sg4
F0.0
sg5
F-2.0
sg6
F-5.0
sb(dp250
I00
F2600.6146594054767
sI01
F606.1271370579547
ss(i__main__
State
p251
(dp252
g3
F6.0
sg4
F8.0
sg5
F-5.0
sg6
F-8.0
sb(dp253
I00
F3088.9815081196944
sI01
F2511.72537193866
ss(i__main__
State
p254
(dp255
g3
F-3.0
sg4
F3.0
sg5
F3.0
sg6
F0.0
sb(dp256
I00
F2612.6764631373535
sI01
F2921.2496208718394
ss(i__main__
State
p257
(dp258
g3
F0.0
sg4
F0.0
sg5
F6.0
sg6
F3.0
sb(dp259
I00
F985.9774153761698
sI01
F1844.870968018883
ss(i__main__
State
p260
(dp261
g3
F5.0
sg4
F2.0
sg5
F-6.0
sg6
F8.0
sb(dp262
I00
F2195.2555018617495
sI01
F457.6427419682984
ss(i__main__
State
p263
(dp264
g3
F-8.0
sg4
F3.0
sg5
F-2.0
sg6
F-5.0
sb(dp265
I00
F2806.445108577782
sI01
F1020.8775897102639
ss(i__main__
State
p266
(dp267
g3
F-2.0
sg4
F7.0
sg5
F4.0
sg6
F1.0
sb(dp268
I00
F2712.780786418969
sI01
F985.2592592398573
ss(i__main__
State
p269
(dp270
g3
F0.0
sg4
F6.0
sg5
F6.0
sg6
F3.0
sb(dp271
I00
F1830.8990031217843
sI01
F2975.412942897125
ss(i__main__
State
p272
(dp273
g3
F-2.0
sg4
F1.0
sg5
F4.0
sg6
F1.0
sb(dp274
I00
F2002.8221000732724
sI01
F1747.1474372711534
ss(i__main__
State
p275
(dp276
g3
F-4.0
sg4
F8.0
sg5
F2.0
sg6
F-1.0
sb(dp277
I00
F-8028.167547847894
sI01
F2036.4845536041373
ss(i__main__
State
p278
(dp279
g3
F-8.0
sg4
F1.0
sg5
F-2.0
sg6
F-5.0
sb(dp280
I00
F348.33833516883954
sI01
F2398.2802933739895
ss(i__main__
State
p281
(dp282
g3
F-3.0
sg4
F1.0
sg5
F3.0
sg6
F0.0
sb(dp283
I00
F1959.2833138012666
sI01
F1648.9955658797692
ss(i__main__
State
p284
(dp285
g3
F7.0
sg4
F7.0
sg5
F-4.0
sg6
F-7.0
sb(dp286
I00
F1095.2731819282228
sI01
F2405.408404433648
ss(i__main__
State
p287
(dp288
g3
F-3.0
sg4
F7.0
sg5
F3.0
sg6
F0.0
sb(dp289
I00
F1185.64938383485
sI01
F1860.0653939876768
ss(i__main__
State
p290
(dp291
g3
F4.0
sg4
F5.0
sg5
F-7.0
sg6
F7.0
sb(dp292
I00
F1757.6465224678568
sI01
F435.37976142534785
ss(i__main__
State
p293
(dp294
g3
F4.0
sg4
F0.0
sg5
F-7.0
sg6
F7.0
sb(dp295
I00
F1675.2426441431696
sI01
F2291.7441904747716
ss(i__main__
State
p296
(dp297
g3
F6.0
sg4
F5.0
sg5
F-5.0
sg6
F-8.0
sb(dp298
I00
F2675.929345873991
sI01
F2102.4088688887673
ss(i__main__
State
p299
(dp300
g3
F-5.0
sg4
F4.0
sg5
F1.0
sg6
F-2.0
sb(dp301
I00
F2585.9573264759606
sI01
F2982.217840978611
ss(i__main__
State
p302
(dp303
g3
F-3.0
sg4
F8.0
sg5
F3.0
sg6
F0.0
sb(dp304
I00
F-8071.055975132454
sI01
F-8420.94018711788
ss(i__main__
State
p305
(dp306
g3
F-1.0
sg4
F0.0
sg5
F5.0
sg6
F2.0
sb(dp307
I00
F1779.599744210211
sI01
F2012.4553479558933
ss(i__main__
State
p308
(dp309
g3
F-8.0
sg4
F7.0
sg5
F-2.0
sg6
F-5.0
sb(dp310
I00
F2038.8907539366714
sI01
F2811.2706783410617
ss(i__main__
State
p311
(dp312
g3
F-1.0
sg4
F2.0
sg5
F5.0
sg6
F2.0
sb(dp313
I00
F1985.3483601286753
sI01
F474.60734659752995
ss(i__main__
State
p314
(dp315
g3
F5.0
sg4
F3.0
sg5
F-6.0
sg6
F8.0
sb(dp316
I00
F578.9546521707188
sI01
F2035.1508580529871
ss(i__main__
State
p317
(dp318
g3
F-1.0
sg4
F6.0
sg5
F5.0
sg6
F2.0
sb(dp319
I00
F2618.2727884000483
sI01
F3247.166881109702
ss(i__main__
State
p320
(dp321
g3
F-7.0
sg4
F4.0
sg5
F-1.0
sg6
F-4.0
sb(dp322
I00
F1597.1255554928196
sI01
F672.9524683230679
ss(i__main__
State
p323
(dp324
g3
F-4.0
sg4
F1.0
sg5
F2.0
sg6
F-1.0
sb(dp325
I00
F1899.5255274112785
sI01
F1417.5463090855578
ss(i__main__
State
p326
(dp327
g3
F1.0
sg4
F0.0
sg5
F7.0
sg6
F4.0
sb(dp328
I00
F564.9943929663557
sI01
F1282.9612236846501
ss(i__main__
State
p329
(dp330
g3
F8.0
sg4
F5.0
sg5
F-3.0
sg6
F-6.0
sb(dp331
I00
F1880.3773233042737
sI01
F2037.4721322769117
ss(i__main__
State
p332
(dp333
g3
F3.0
sg4
F0.0
sg5
F-8.0
sg6
F6.0
sb(dp334
I00
F2099.1852446999856
sI01
F939.3775988621443
ss(i__main__
State
p335
(dp336
g3
F7.0
sg4
F1.0
sg5
F-4.0
sg6
F-7.0
sb(dp337
I00
F1392.6886802282002
sI01
F2166.3970679594368
ss(i__main__
State
p338
(dp339
g3
F4.0
sg4
F2.0
sg5
F-7.0
sg6
F7.0
sb(dp340
I00
F1841.209068538663
sI01
F1318.6636912438703
ss(i__main__
State
p341
(dp342
g3
F-6.0
sg4
F4.0
sg5
F0.0
sg6
F-3.0
sb(dp343
I00
F2658.719216907679
sI01
F865.502650183288
ss(i__main__
State
p344
(dp345
g3
F-4.0
sg4
F5.0
sg5
F2.0
sg6
F-1.0
sb(dp346
I00
F3034.6128464249905
sI01
F2104.209193784049
ss(i__main__
State
p347
(dp348
g3
F-3.0
sg4
F4.0
sg5
F3.0
sg6
F0.0
sb(dp349
I00
F736.8215397292654
sI01
F1886.1034719413772
ss(i__main__
State
p350
(dp351
g3
F0.0
sg4
F3.0
sg5
F6.0
sg6
F3.0
sb(dp352
I00
F943.8657163158877
sI01
F337.47370837305334
ss(i__main__
State
p353
(dp354
g3
F4.0
sg4
F3.0
sg5
F-7.0
sg6
F7.0
sb(dp355
I00
F1826.3385921546026
sI01
F2302.909146028483
ss(i__main__
State
p356
(dp357
g3
F-4.0
sg4
F6.0
sg5
F2.0
sg6
F-1.0
sb(dp358
I00
F908.3753249955449
sI01
F1588.0692841280052
ss(i__main__
State
p359
(dp360
g3
F-6.0
sg4
F2.0
sg5
F0.0
sg6
F-3.0
sb(dp361
I00
F935.4796755428916
sI01
F339.0196096939667
ss(i__main__
State
p362
(dp363
g3
F-7.0
sg4
F6.0
sg5
F-1.0
sg6
F-4.0
sb(dp364
I00
F1525.7336701422312
sI01
F2035.7588667327145
ss(i__main__
State
p365
(dp366
g3
F6.0
sg4
F2.0
sg5
F-5.0
sg6
F-8.0
sb(dp367
I00
F2541.508410829098
sI01
F1157.1454325804777
ss(i__main__
State
p368
(dp369
g3
F3.0
sg4
F5.0
sg5
F-8.0
sg6
F6.0
sb(dp370
I00
F948.7781175840504
sI01
F2533.533017918627
ss(i__main__
State
p371
(dp372
g3
F-8.0
sg4
F8.0
sg5
F-2.0
sg6
F-5.0
sb(dp373
I00
F2908.6863093941324
sI01
F2560.047770215485
ss(i__main__
State
p374
(dp375
g3
F-2.0
sg4
F0.0
sg5
F4.0
sg6
F1.0
sb(dp376
I00
F1973.052258022048
sI01
F1926.4221345058254
ss(i__main__
State
p377
(dp378
g3
F2.0
sg4
F2.0
sg5
F8.0
sg6
F5.0
sb(dp379
I00
F2006.13522298662
sI01
F1845.0907431653761
ss(i__main__
State
p380
(dp381
g3
F5.0
sg4
F1.0
sg5
F-6.0
sg6
F8.0
sb(dp382
I00
F1906.0295151907217
sI01
F2388.7166686771584
ss(i__main__
State
p383
(dp384
g3
F-2.0
sg4
F4.0
sg5
F4.0
sg6
F1.0
sb(dp385
I00
F2681.283012566608
sI01
F2961.579066335874
ss(i__main__
State
p386
(dp387
g3
F-7.0
sg4
F2.0
sg5
F-1.0
sg6
F-4.0
sb(dp388
I00
F334.0415397228945
sI01
F2721.5874104522404
ss(i__main__
State
p389
(dp390
g3
F2.0
sg4
F4.0
sg5
F8.0
sg6
F5.0
sb(dp391
I00
F1855.8542145998067
sI01
F1196.9207030561518
ss(i__main__
State
p392
(dp393
g3
F-2.0
sg4
F3.0
sg5
F4.0
sg6
F1.0
sb(dp394
I00
F640.4804229129253
sI01
F2862.508032914437
ss(i__main__
State
p395
(dp396
g3
F7.0
sg4
F5.0
sg5
F-4.0
sg6
F-7.0
sb(dp397
I00
F2022.5971118221423
sI01
F2715.7967789797467
ss(i__main__
State
p398
(dp399
g3
F-4.0
sg4
F0.0
sg5
F2.0
sg6
F-1.0
sb(dp400
I00
F1677.8777252659147
sI01
F1926.2058385622124
ss(i__main__
State
p401
(dp402
g3
F8.0
sg4
F7.0
sg5
F-3.0
sg6
F-6.0
sb(dp403
I00
F1037.5365928471751
sI01
F1985.2877718859124
ss(i__main__
State
p404
(dp405
g3
F-2.0
sg4
F6.0
sg5
F4.0
sg6
F1.0
sb(dp406
I00
F3175.085702451702
sI01
F2779.511397723931
ss(i__main__
State
p407
(dp408
g3
F-6.0
sg4
F1.0
sg5
F0.0
sg6
F-3.0
sb(dp409
I00
F1344.3662492362403
sI01
F2008.3782630133474
ss(i__main__
State
p410
(dp411
g3
F2.0
sg4
F1.0
sg5
F8.0
sg6
F5.0
sb(dp412
I00
F462.2399092210255
sI01
F1819.207013733123
ss(i__main__
State
p413
(dp414
g3
F4.0
sg4
F8.0
sg5
F-7.0
sg6
F7.0
sb(dp415
I00
F3203.8009071403394
sI01
F2323.7865169119837
ss(i__main__
State
p416
(dp417
g3
F7.0
sg4
F2.0
sg5
F-4.0
sg6
F-7.0
sb(dp418
I00
F2647.1523135317857
sI01
F1975.2289078041572
ss(i__main__
State
p419
(dp420
g3
F2.0
sg4
F3.0
sg5
F8.0
sg6
F5.0
sb(dp421
I00
F2338.937678234978
sI01
F1971.1602923365217
ss(i__main__
State
p422
(dp423
g3
F0.0
sg4
F4.0
sg5
F6.0
sg6
F3.0
sb(dp424
I00
F1691.0775253240352
sI01
F842.0834934857911
ss(i__main__
State
p425
(dp426
g3
F-1.0
sg4
F8.0
sg5
F5.0
sg6
F2.0
sb(dp427
I00
F-6909.9223692696505
sI01
F1690.8216505543442
ss(i__main__
State
p428
(dp429
g3
F8.0
sg4
F6.0
sg5
F-3.0
sg6
F-6.0
sb(dp430
I00
F1993.4514924550217
sI01
F2764.164617733092
ss(i__main__
State
p431
(dp432
g3
F5.0
sg4
F7.0
sg5
F-6.0
sg6
F8.0
sb(dp433
I00
F1108.9281450463814
sI01
F2895.7324827434186
ss(i__main__
State
p434
(dp435
g3
F-7.0
sg4
F7.0
sg5
F-1.0
sg6
F-4.0
sb(dp436
I00
F2082.3962611763836
sI01
F-8019.782799364513
ss(i__main__
State
p437
(dp438
g3
F-7.0
sg4
F3.0
sg5
F-1.0
sg6
F-4.0
sb(dp439
I00
F2889.5202623415644
sI01
F2312.3935615309765
ss(i__main__
State
p440
(dp441
g3
F-5.0
sg4
F1.0
sg5
F1.0
sg6
F-2.0
sb(dp442
I00
F1836.9720949547439
sI01
F2848.056455287167
ss(i__main__
State
p443
(dp444
g3
F0.0
sg4
F8.0
sg5
F6.0
sg6
F3.0
sb(dp445
I00
F-7257.103965130291
sI01
F-8242.321900258881
ss(i__main__
State
p446
(dp447
g3
F4.0
sg4
F6.0
sg5
F-7.0
sg6
F7.0
sb(dp448
I00
F1215.4322511124658
sI01
F2704.8979457796368
ss(i__main__
State
p449
(dp450
g3
F-3.0
sg4
F5.0
sg5
F3.0
sg6
F0.0
sb(dp451
I00
F2686.6055319375264
sI01
F3113.702697731701
ss(i__main__
State
p452
(dp453
g3
F1.0
sg4
F6.0
sg5
F7.0
sg6
F4.0
sb(dp454
I00
F1949.7266516702425
sI01
F3150.678414467875
ss(i__main__
State
p455
(dp456
g3
F8.0
sg4
F0.0
sg5
F-3.0
sg6
F-6.0
sb(dp457
I00
F2421.4161862954534
sI01
F1629.5438984370985
ss(i__main__
State
p458
(dp459
g3
F3.0
sg4
F8.0
sg5
F-8.0
sg6
F6.0
sb(dp460
I00
F3274.010570477595
sI01
F2252.1041837736034
ss(i__main__
State
p461
(dp462
g3
F-7.0
sg4
F0.0
sg5
F-1.0
sg6
F-4.0
sb(dp463
I00
F2725.5375222874445
sI01
F1517.793083353584
ss.