(dp0
(i__main__
State
p1
(dp2
S'y1'
p3
F8.0
sS'x'
p4
F3.0
sS'y3'
p5
F-3.0
sS'y2'
p6
F-6.0
sb(dp7
I00
F40766.8268279675
sI01
F53959.89509448596
ss(i__main__
State
p8
(dp9
g3
F4.0
sg4
F7.0
sg5
F-7.0
sg6
F7.0
sb(dp10
I00
F45718.804592157205
sI01
F58721.03843307536
ss(i__main__
State
p11
(dp12
g3
F-7.0
sg4
F5.0
sg5
F-1.0
sg6
F-4.0
sb(dp13
I00
F45917.37680911993
sI01
F55161.36487742491
ss(i__main__
State
p14
(dp15
g3
F0.0
sg4
F8.0
sg5
F6.0
sg6
F3.0
sb(dp16
I00
F27112.906672146535
sI01
F51735.12639715588
ss(i__main__
State
p17
(dp18
g3
F-1.0
sg4
F1.0
sg5
F5.0
sg6
F2.0
sb(dp19
I00
F31287.929745901452
sI01
F52076.492972300475
ss(i__main__
State
p20
(dp21
g3
F7.0
sg4
F6.0
sg5
F-4.0
sg6
F-7.0
sb(dp22
I00
F51267.981572075696
sI01
F59405.31118432173
ss(i__main__
State
p23
(dp24
g3
F3.0
sg4
F7.0
sg5
F-8.0
sg6
F6.0
sb(dp25
I00
F46097.62321129894
sI01
F58967.74162682864
ss(i__main__
State
p26
(dp27
g3
F-1.0
sg4
F3.0
sg5
F5.0
sg6
F2.0
sb(dp28
I00
F40663.30915363608
sI01
F55321.69085655032
ss(i__main__
State
p29
(dp30
g3
F1.0
sg4
F4.0
sg5
F7.0
sg6
F4.0
sb(dp31
I00
F43752.88612426014
sI01
F55663.2567274434
ss(i__main__
State
p32
(dp33
g3
F1.0
sg4
F2.0
sg5
F7.0
sg6
F4.0
sb(dp34
I00
F40206.821871634165
sI01
F54141.947164766374
ss(i__main__
State
p35
(dp36
g3
F2.0
sg4
F7.0
sg5
F8.0
sg6
F5.0
sb(dp37
I00
F51949.14653850222
sI01
F59869.39447413114
ss(i__main__
State
p38
(dp39
g3
F-6.0
sg4
F5.0
sg5
F0.0
sg6
F-3.0
sb(dp40
I00
F41876.72328795959
sI01
F54340.69396154365
ss(i__main__
State
p41
(dp42
g3
F-2.0
sg4
F8.0
sg5
F4.0
sg6
F1.0
sb(dp43
I00
F28790.31877675417
sI01
F52119.62678525714
ss(i__main__
State
p44
(dp45
g3
F6.0
sg4
F0.0
sg5
F-5.0
sg6
F-8.0
sb(dp46
I00
F30768.26349983966
sI01
F50608.93766320328
ss(i__main__
State
p47
(dp48
g3
F0.0
sg4
F1.0
sg5
F6.0
sg6
F3.0
sb(dp49
I00
F35183.11213006663
sI01
F53470.11972047872
ss(i__main__
State
p50
(dp51
g3
F-4.0
sg4
F7.0
sg5
F2.0
sg6
F-1.0
sb(dp52
I00
F54914.57344914797
sI01
F53956.22838880638
ss(i__main__
State
p53
(dp54
g3
F-3.0
sg4
F2.0
sg5
F3.0
sg6
F0.0
sb(dp55
I00
F39897.82511233461
sI01
F55018.76418739485
ss(i__main__
State
p56
(dp57
g3
F5.0
sg4
F0.0
sg5
F-6.0
sg6
F8.0
sb(dp58
I00
F30425.075255950822
sI01
F50983.34335886796
ss(i__main__
State
p59
(dp60
g3
F3.0
sg4
F2.0
sg5
F-8.0
sg6
F6.0
sb(dp61
I00
F39230.38759275483
sI01
F54943.398274740954
ss(i__main__
State
p62
(dp63
g3
F3.0
sg4
F3.0
sg5
F-8.0
sg6
F6.0
sb(dp64
I00
F41943.89156098247
sI01
F55893.95704761347
ss(i__main__
State
p65
(dp66
g3
F-5.0
sg4
F8.0
sg5
F1.0
sg6
F-2.0
sb(dp67
I00
F29367.49849506541
sI01
F51807.65056177287
ss(i__main__
State
p68
(dp69
g3
F2.0
sg4
F0.0
sg5
F8.0
sg6
F5.0
sb(dp70
I00
F31118.06476626247
sI01
F50783.534847222756
ss(i__main__
State
p71
(dp72
g3
F4.0
sg4
F4.0
sg5
F-7.0
sg6
F7.0
sb(dp73
I00
F45280.44646768419
sI01
F56860.20538873671
ss(i__main__
State
p74
(dp75
g3
F-2.0
sg4
F2.0
sg5
F4.0
sg6
F1.0
sb(dp76
I00
F35732.838685579525
sI01
F54342.821730390686
ss(i__main__
State
p77
(dp78
g3
F-4.0
sg4
F2.0
sg5
F2.0
sg6
F-1.0
sb(dp79
I00
F39488.29905724752
sI01
F54515.88648861125
ss(i__main__
State
p80
(dp81
g3
F-6.0
sg4
F3.0
sg5
F0.0
sg6
F-3.0
sb(dp82
I00
F40550.9802984334
sI01
F53450.64742201221
ss(i__main__
State
p83
(dp84
g3
F2.0
sg4
F8.0
sg5
F8.0
sg6
F5.0
sb(dp85
I00
F26817.180231024853
sI01
F49288.50076293103
ss(i__main__
State
p86
(dp87
g3
F-7.0
sg4
F3.0
sg5
F-1.0
sg6
F-4.0
sb(dp88
I00
F42944.854551157485
sI01
F55518.50110188483
ss(i__main__
State
p89
(dp90
g3
F5.0
sg4
F6.0
sg5
F-6.0
sg6
F8.0
sb(dp91
I00
F48505.33046023845
sI01
F56744.89482116395
ss(i__main__
State
p92
(dp93
g3
F8.0
sg4
F1.0
sg5
F-3.0
sg6
F-6.0
sb(dp94
I00
F36182.13333371554
sI01
F52730.80576397922
ss(i__main__
State
p95
(dp96
g3
F-5.0
sg4
F5.0
sg5
F1.0
sg6
F-2.0
sb(dp97
I00
F47368.13379311034
sI01
F58538.34372359028
ss(i__main__
State
p98
(dp99
g3
F-2.0
sg4
F1.0
sg5
F4.0
sg6
F1.0
sb(dp100
I00
F35944.13234735188
sI01
F52719.426977465555
ss(i__main__
State
p101
(dp102
g3
F7.0
sg4
F5.0
sg5
F-4.0
sg6
F-7.0
sb(dp103
I00
F44149.95738831766
sI01
F57261.99195024057
ss(i__main__
State
p104
(dp105
g3
F5.0
sg4
F8.0
sg5
F-6.0
sg6
F8.0
sb(dp106
I00
F27206.00311393326
sI01
F49598.846813264434
ss(i__main__
State
p107
(dp108
g3
F3.0
sg4
F6.0
sg5
F-8.0
sg6
F6.0
sb(dp109
I00
F48438.221901005294
sI01
F57878.44018035324
ss(i__main__
State
p110
(dp111
g3
F3.0
sg4
F1.0
sg5
F-8.0
sg6
F6.0
sb(dp112
I00
F33875.31335547858
sI01
F51846.073134273756
ss(i__main__
State
p113
(dp114
g3
F8.0
sg4
F4.0
sg5
F-3.0
sg6
F-6.0
sb(dp115
I00
F45514.89037371703
sI01
F57127.8046619254
ss(i__main__
State
p116
(dp117
g3
F-7.0
sg4
F1.0
sg5
F-1.0
sg6
F-4.0
sb(dp118
I00
F29978.236725813043
sI01
F50359.47993848891
ss(i__main__
State
p119
(dp120
g3
F8.0
sg4
F8.0
sg5
F-3.0
sg6
F-6.0
sb(dp121
I00
F25273.541453112313
sI01
F48789.865183825415
ss(i__main__
State
p122
(dp123
g3
F7.0
sg4
F8.0
sg5
F-4.0
sg6
F-7.0
sb(dp124
I00
F26159.249655997468
sI01
F48691.142048983886
ss(i__main__
State
p125
(dp126
g3
F-7.0
sg4
F8.0
sg5
F-1.0
sg6
F-4.0
sb(dp127
I00
F31640.389204368697
sI01
F52251.09795527059
ss(i__main__
State
p128
(dp129
g3
F-6.0
sg4
F8.0
sg5
F0.0
sg6
F-3.0
sb(dp130
I00
F29600.045748874403
sI01
F52075.98195043223
ss(i__main__
State
p131
(dp132
g3
F4.0
sg4
F1.0
sg5
F-7.0
sg6
F7.0
sb(dp133
I00
F32962.949600065906
sI01
F50758.34400777824
ss(i__main__
State
p134
(dp135
g3
F-5.0
sg4
F3.0
sg5
F1.0
sg6
F-2.0
sb(dp136
I00
F36129.28203574363
sI01
F51189.54655649856
ss(i__main__
State
p137
(dp138
g3
F6.0
sg4
F6.0
sg5
F-5.0
sg6
F-8.0
sb(dp139
I00
F48384.45693290873
sI01
F57841.721095226254
ss(i__main__
State
p140
(dp141
g3
F-8.0
sg4
F6.0
sg5
F-2.0
sg6
F-5.0
sb(dp142
I00
F45506.91268875792
sI01
F52097.58878803964
ss(i__main__
State
p143
(dp144
g3
F6.0
sg4
F7.0
sg5
F-5.0
sg6
F-8.0
sb(dp145
I00
F50203.54301423916
sI01
F57949.73368356245
ss(i__main__
State
p146
(dp147
g3
F1.0
sg4
F3.0
sg5
F7.0
sg6
F4.0
sb(dp148
I00
F39975.317211799316
sI01
F54510.8173886469
ss(i__main__
State
p149
(dp150
g3
F1.0
sg4
F1.0
sg5
F7.0
sg6
F4.0
sb(dp151
I00
F35779.367316965785
sI01
F54099.12157906216
ss(i__main__
State
p152
(dp153
g3
F2.0
sg4
F5.0
sg5
F8.0
sg6
F5.0
sb(dp154
I00
F46038.966696553434
sI01
F56776.39149086905
ss(i__main__
State
p155
(dp156
g3
F0.0
sg4
F2.0
sg5
F6.0
sg6
F3.0
sb(dp157
I00
F34030.43378736783
sI01
F53107.606946868225
ss(i__main__
State
p158
(dp159
g3
F-1.0
sg4
F4.0
sg5
F5.0
sg6
F2.0
sb(dp160
I00
F44053.482576965034
sI01
F56884.11317894492
ss(i__main__
State
p161
(dp162
g3
F-5.0
sg4
F2.0
sg5
F1.0
sg6
F-2.0
sb(dp163
I00
F37340.632583741404
sI01
F54019.39885894108
ss(i__main__
State
p164
(dp165
g3
F-1.0
sg4
F5.0
sg5
F5.0
sg6
F2.0
sb(dp166
I00
F46157.983160789365
sI01
F56627.47600233916
ss(i__main__
State
p167
(dp168
g3
F6.0
sg4
F3.0
sg5
F-5.0
sg6
F-8.0
sb(dp169
I00
F35521.44857512447
sI01
F51324.75361191137
ss(i__main__
State
p170
(dp171
g3
F-3.0
sg4
F0.0
sg5
F3.0
sg6
F0.0
sb(dp172
I00
F31828.268567417792
sI01
F51445.08373472481
ss(i__main__
State
p173
(dp174
g3
F-6.0
sg4
F7.0
sg5
F0.0
sg6
F-3.0
sb(dp175
I00
F51028.20340508353
sI01
F60709.48128270518
ss(i__main__
State
p176
(dp177
g3
F3.0
sg4
F4.0
sg5
F-8.0
sg6
F6.0
sb(dp178
I00
F41605.51465206653
sI01
F54811.91463413132
ss(i__main__
State
p179
(dp180
g3
F8.0
sg4
F2.0
sg5
F-3.0
sg6
F-6.0
sb(dp181
I00
F34443.14976548258
sI01
F52539.664665502925
ss(i__main__
State
p182
(dp183
g3
F1.0
sg4
F7.0
sg5
F7.0
sg6
F4.0
sb(dp184
I00
F47420.52991232372
sI01
F58697.91293874906
ss(i__main__
State
p185
(dp186
g3
F1.0
sg4
F5.0
sg5
F7.0
sg6
F4.0
sb(dp187
I00
F47467.3940843595
sI01
F57267.95513456828
ss(i__main__
State
p188
(dp189
g3
F-5.0
sg4
F6.0
sg5
F1.0
sg6
F-2.0
sb(dp190
I00
F50100.12983972314
sI01
F54198.10861620742
ss(i__main__
State
p191
(dp192
g3
F-8.0
sg4
F4.0
sg5
F-2.0
sg6
F-5.0
sb(dp193
I00
F41818.04093809156
sI01
F54524.22452108455
ss(i__main__
State
p194
(dp195
g3
F5.0
sg4
F5.0
sg5
F-6.0
sg6
F8.0
sb(dp196
I00
F46526.74935714171
sI01
F57297.95269851403
ss(i__main__
State
p197
(dp198
g3
F5.0
sg4
F4.0
sg5
F-6.0
sg6
F8.0
sb(dp199
I00
F45620.83244338735
sI01
F57598.87173218082
ss(i__main__
State
p200
(dp201
g3
F-2.0
sg4
F5.0
sg5
F4.0
sg6
F1.0
sb(dp202
I00
F46513.26494863585
sI01
F56772.12029626225
ss(i__main__
State
p203
(dp204
g3
F-8.0
sg4
F2.0
sg5
F-2.0
sg6
F-5.0
sb(dp205
I00
F38028.53596982043
sI01
F53843.5723564833
ss(i__main__
State
p206
(dp207
g3
F-8.0
sg4
F7.0
sg5
F-2.0
sg6
F-5.0
sb(dp208
I00
F48419.099667480084
sI01
F59609.991325601164
ss(i__main__
State
p209
(dp210
g3
F1.0
sg4
F8.0
sg5
F7.0
sg6
F4.0
sb(dp211
I00
F25635.331408134938
sI01
F49948.5329023641
ss(i__main__
State
p212
(dp213
g3
F0.0
sg4
F5.0
sg5
F6.0
sg6
F3.0
sb(dp214
I00
F48140.587684733444
sI01
F57872.35051393151
ss(i__main__
State
p215
(dp216
g3
F-6.0
sg4
F2.0
sg5
F0.0
sg6
F-3.0
sb(dp217
I00
F33308.47327765649
sI01
F50536.51944429379
ss(i__main__
State
p218
(dp219
g3
F-8.0
sg4
F5.0
sg5
F-2.0
sg6
F-5.0
sb(dp220
I00
F45398.93147091542
sI01
F58183.95251003182
ss(i__main__
State
p221
(dp222
g3
F-3.0
sg4
F6.0
sg5
F3.0
sg6
F0.0
sb(dp223
I00
F49720.79940453501
sI01
F57554.274471695426
ss(i__main__
State
p224
(dp225
g3
F7.0
sg4
F3.0
sg5
F-4.0
sg6
F-7.0
sb(dp226
I00
F41154.54175395414
sI01
F55815.82169452964
ss(i__main__
State
p227
(dp228
g3
F-5.0
sg4
F7.0
sg5
F1.0
sg6
F-2.0
sb(dp229
I00
F44629.87826022165
sI01
F58442.34125670012
ss(i__main__
State
p230
(dp231
g3
F-4.0
sg4
F4.0
sg5
F2.0
sg6
F-1.0
sb(dp232
I00
F39726.69631935414
sI01
F51627.82762886669
ss(i__main__
State
p233
(dp234
g3
F6.0
sg4
F5.0
sg5
F-5.0
sg6
F-8.0
sb(dp235
I00
F48023.81570207381
sI01
F58520.5994943602
ss(i__main__
State
p236
(dp237
g3
F7.0
sg4
F0.0
sg5
F-4.0
sg6
F-7.0
sb(dp238
I00
F30094.33678850327
sI01
F51899.11026161645
ss(i__main__
State
p239
(dp240
g3
F-6.0
sg4
F6.0
sg5
F0.0
sg6
F-3.0
sb(dp241
I00
F49944.59631630104
sI01
F56257.14355677642
ss(i__main__
State
p242
(dp243
g3
F-6.0
sg4
F0.0
sg5
F0.0
sg6
F-3.0
sb(dp244
I00
F31369.191346519503
sI01
F52873.277981702886
ss(i__main__
State
p245
(dp246
g3
F-8.0
sg4
F0.0
sg5
F-2.0
sg6
F-5.0
sb(dp247
I00
F27562.168187491454
sI01
F49719.56659771125
ss(i__main__
State
p248
(dp249
g3
F6.0
sg4
F8.0
sg5
F-5.0
sg6
F-8.0
sb(dp250
I00
F29279.586685275644
sI01
F51169.357237516626
ss(i__main__
State
p251
(dp252
g3
F-3.0
sg4
F3.0
sg5
F3.0
sg6
F0.0
sb(dp253
I00
F41699.625099550074
sI01
F55145.10042559102
ss(i__main__
State
p254
(dp255
g3
F-1.0
sg4
F8.0
sg5
F5.0
sg6
F2.0
sb(dp256
I00
F28429.80999810554
sI01
F51983.420089287094
ss(i__main__
State
p257
(dp258
g3
F8.0
sg4
F0.0
sg5
F-8.0
sg6
F0.0
sb(dp259
I00
F-4797.187
sI01
I54
ss(i__main__
State
p260
(dp261
g3
F5.0
sg4
F2.0
sg5
F-6.0
sg6
F8.0
sb(dp262
I00
F35775.61189376204
sI01
F51164.426966794774
ss(i__main__
State
p263
(dp264
g3
F-8.0
sg4
F3.0
sg5
F-2.0
sg6
F-5.0
sb(dp265
I00
F38288.52956170026
sI01
F52596.37960070686
ss(i__main__
State
p266
(dp267
g3
F-2.0
sg4
F7.0
sg5
F4.0
sg6
F1.0
sb(dp268
I00
F43266.34193371797
sI01
F60248.65418610655
ss(i__main__
State
p269
(dp270
g3
F0.0
sg4
F6.0
sg5
F6.0
sg6
F3.0
sb(dp271
I00
F49349.17836592516
sI01
F57671.30144563515
ss(i__main__
State
p272
(dp273
g3
F-4.0
sg4
F8.0
sg5
F2.0
sg6
F-1.0
sb(dp274
I00
F26114.651141507456
sI01
F51036.4659637316
ss(i__main__
State
p275
(dp276
g3
F-8.0
sg4
F1.0
sg5
F-2.0
sg6
F-5.0
sb(dp277
I00
F32318.003926482255
sI01
F50844.98376988072
ss(i__main__
State
p278
(dp279
g3
F4.0
sg4
F5.0
sg5
F-7.0
sg6
F7.0
sb(dp280
I00
F46863.92712018167
sI01
F55743.39012258127
ss(i__main__
State
p281
(dp282
g3
F7.0
sg4
F7.0
sg5
F-4.0
sg6
F-7.0
sb(dp283
I00
F49335.223144941076
sI01
F57990.826356253354
ss(i__main__
State
p284
(dp285
g3
F-3.0
sg4
F7.0
sg5
F3.0
sg6
F0.0
sb(dp286
I00
F51525.77687606
sI01
F61340.50667234303
ss(i__main__
State
p287
(dp288
g3
F-3.0
sg4
F1.0
sg5
F3.0
sg6
F0.0
sb(dp289
I00
F35698.33767268651
sI01
F53329.77639720954
ss(i__main__
State
p290
(dp291
g3
F7.0
sg4
F4.0
sg5
F-4.0
sg6
F-7.0
sb(dp292
I00
F39339.028952555964
sI01
F51802.12511894583
ss(i__main__
State
p293
(dp294
g3
F-5.0
sg4
F4.0
sg5
F1.0
sg6
F-2.0
sb(dp295
I00
F42503.23305210812
sI01
F54774.648740366814
ss(i__main__
State
p296
(dp297
g3
F-3.0
sg4
F8.0
sg5
F3.0
sg6
F0.0
sb(dp298
I00
F31217.509809801668
sI01
F50518.645344954566
ss(i__main__
State
p299
(dp300
g3
F2.0
sg4
F6.0
sg5
F8.0
sg6
F5.0
sb(dp301
I00
F50325.05513633386
sI01
F58078.74326313759
ss(i__main__
State
p302
(dp303
g3
F-5.0
sg4
F0.0
sg5
F1.0
sg6
F-2.0
sb(dp304
I00
F31316.816542099543
sI01
F52949.54710218514
ss(i__main__
State
p305
(dp306
g3
F-1.0
sg4
F2.0
sg5
F5.0
sg6
F2.0
sb(dp307
I00
F37747.57757399211
sI01
F53689.64760354564
ss(i__main__
State
p308
(dp309
g3
F5.0
sg4
F3.0
sg5
F-6.0
sg6
F8.0
sb(dp310
I00
F40439.98120785655
sI01
F54337.69480016063
ss(i__main__
State
p311
(dp312
g3
F-1.0
sg4
F6.0
sg5
F5.0
sg6
F2.0
sb(dp313
I00
F50703.90871912777
sI01
F57824.29747419432
ss(i__main__
State
p314
(dp315
g3
F-7.0
sg4
F4.0
sg5
F-1.0
sg6
F-4.0
sb(dp316
I00
F40913.19259353862
sI01
F53205.478282761454
ss(i__main__
State
p317
(dp318
g3
F-4.0
sg4
F1.0
sg5
F2.0
sg6
F-1.0
sb(dp319
I00
F36714.58519835539
sI01
F54178.98754125501
ss(i__main__
State
p320
(dp321
g3
F1.0
sg4
F0.0
sg5
F7.0
sg6
F4.0
sb(dp322
I00
F33437.15751006109
sI01
F52680.175324271455
ss(i__main__
State
p323
(dp324
g3
F8.0
sg4
F5.0
sg5
F-3.0
sg6
F-6.0
sb(dp325
I00
F41795.08584156953
sI01
F51751.85927788811
ss(i__main__
State
p326
(dp327
g3
F3.0
sg4
F0.0
sg5
F-8.0
sg6
F6.0
sb(dp328
I00
F29852.888982486646
sI01
F50189.701294939274
ss(i__main__
State
p329
(dp330
g3
F7.0
sg4
F1.0
sg5
F-4.0
sg6
F-7.0
sb(dp331
I00
F32996.46016748334
sI01
F51470.10459916689
ss(i__main__
State
p332
(dp333
g3
F4.0
sg4
F2.0
sg5
F-7.0
sg6
F7.0
sb(dp334
I00
F35347.2531535395
sI01
F53418.35013539909
ss(i__main__
State
p335
(dp336
g3
F-6.0
sg4
F4.0
sg5
F0.0
sg6
F-3.0
sb(dp337
I00
F44639.18347383467
sI01
F56863.82259993392
ss(i__main__
State
p338
(dp339
g3
F-4.0
sg4
F5.0
sg5
F2.0
sg6
F-1.0
sb(dp340
I00
F45995.05467289378
sI01
F55991.248976429575
ss(i__main__
State
p341
(dp342
g3
F-3.0
sg4
F4.0
sg5
F3.0
sg6
F0.0
sb(dp343
I00
F44322.98490588379
sI01
F55728.4716410465
ss(i__main__
State
p344
(dp345
g3
F0.0
sg4
F3.0
sg5
F6.0
sg6
F3.0
sb(dp346
I00
F39341.271955120836
sI01
F54796.65726425132
ss(i__main__
State
p347
(dp348
g3
F4.0
sg4
F3.0
sg5
F-7.0
sg6
F7.0
sb(dp349
I00
F42426.7659031868
sI01
F56248.126233579635
ss(i__main__
State
p350
(dp351
g3
F-4.0
sg4
F6.0
sg5
F2.0
sg6
F-1.0
sb(dp352
I00
F48250.77401559622
sI01
F60141.501869556436
ss(i__main__
State
p353
(dp354
g3
F-4.0
sg4
F3.0
sg5
F2.0
sg6
F-1.0
sb(dp355
I00
F39707.12078648369
sI01
F54787.5598035222
ss(i__main__
State
p356
(dp357
g3
F-7.0
sg4
F6.0
sg5
F-1.0
sg6
F-4.0
sb(dp358
I00
F52100.78443023034
sI01
F59705.28207650347
ss(i__main__
State
p359
(dp360
g3
F6.0
sg4
F2.0
sg5
F-5.0
sg6
F-8.0
sb(dp361
I00
F37907.7493102622
sI01
F54716.877052242475
ss(i__main__
State
p362
(dp363
g3
F3.0
sg4
F5.0
sg5
F-8.0
sg6
F6.0
sb(dp364
I00
F45289.07760453792
sI01
F57130.95474522858
ss(i__main__
State
p365
(dp366
g3
F-8.0
sg4
F8.0
sg5
F-2.0
sg6
F-5.0
sb(dp367
I00
F30118.94006233765
sI01
F51832.676245885246
ss(i__main__
State
p368
(dp369
g3
F4.0
sg4
F0.0
sg5
F-7.0
sg6
F7.0
sb(dp370
I00
F27933.48886308927
sI01
F51967.4905557786
ss(i__main__
State
p371
(dp372
g3
F-2.0
sg4
F0.0
sg5
F4.0
sg6
F1.0
sb(dp373
I00
F26891.10257638594
sI01
F50929.25399558619
ss(i__main__
State
p374
(dp375
g3
F2.0
sg4
F2.0
sg5
F8.0
sg6
F5.0
sb(dp376
I00
F39137.76486485909
sI01
F55005.56012866768
ss(i__main__
State
p377
(dp378
g3
F5.0
sg4
F1.0
sg5
F-6.0
sg6
F8.0
sb(dp379
I00
F35317.33041453993
sI01
F53524.58340854953
ss(i__main__
State
p380
(dp381
g3
F-2.0
sg4
F4.0
sg5
F4.0
sg6
F1.0
sb(dp382
I00
F44486.58351735642
sI01
F55763.91037278342
ss(i__main__
State
p383
(dp384
g3
F-7.0
sg4
F2.0
sg5
F-1.0
sg6
F-4.0
sb(dp385
I00
F35877.277900111956
sI01
F52051.017325366345
ss(i__main__
State
p386
(dp387
g3
F2.0
sg4
F4.0
sg5
F8.0
sg6
F5.0
sb(dp388
I00
F41850.749548442465
sI01
F55955.82122592962
ss(i__main__
State
p389
(dp390
g3
F-2.0
sg4
F3.0
sg5
F4.0
sg6
F1.0
sb(dp391
I00
F41331.69690156774
sI01
F55947.4705569943
ss(i__main__
State
p392
(dp393
g3
F6.0
sg4
F4.0
sg5
F-5.0
sg6
F-8.0
sb(dp394
I00
F44046.76330818981
sI01
F56107.98022556291
ss(i__main__
State
p395
(dp396
g3
F-4.0
sg4
F0.0
sg5
F2.0
sg6
F-1.0
sb(dp397
I00
F29981.60192193591
sI01
F52523.36439086912
ss(i__main__
State
p398
(dp399
g3
F8.0
sg4
F7.0
sg5
F-3.0
sg6
F-6.0
sb(dp400
I00
F50299.65992919182
sI01
F60421.53325568963
ss(i__main__
State
p401
(dp402
g3
F-2.0
sg4
F6.0
sg5
F4.0
sg6
F1.0
sb(dp403
I00
F45268.62969632508
sI01
F52990.30676729752
ss(i__main__
State
p404
(dp405
g3
F-6.0
sg4
F1.0
sg5
F0.0
sg6
F-3.0
sb(dp406
I00
F36016.87842826868
sI01
F53119.60726390223
ss(i__main__
State
p407
(dp408
g3
F0.0
sg4
F7.0
sg5
F6.0
sg6
F3.0
sb(dp409
I00
F50242.3432309963
sI01
F58904.198817225726
ss(i__main__
State
p410
(dp411
g3
F2.0
sg4
F1.0
sg5
F8.0
sg6
F5.0
sb(dp412
I00
F34230.10555643844
sI01
F53662.81149236425
ss(i__main__
State
p413
(dp414
g3
F4.0
sg4
F8.0
sg5
F-7.0
sg6
F7.0
sb(dp415
I00
F28698.0059140228
sI01
F50043.53471005921
ss(i__main__
State
p416
(dp417
g3
F7.0
sg4
F2.0
sg5
F-4.0
sg6
F-7.0
sb(dp418
I00
F37876.67062880767
sI01
F53080.46992163522
ss(i__main__
State
p419
(dp420
g3
F2.0
sg4
F3.0
sg5
F8.0
sg6
F5.0
sb(dp421
I00
F39494.174023891006
sI01
F55055.13532873377
ss(i__main__
State
p422
(dp423
g3
F0.0
sg4
F4.0
sg5
F6.0
sg6
F3.0
sb(dp424
I00
F44191.07988869841
sI01
F56355.22078703596
ss(i__main__
State
p425
(dp426
g3
F0.0
sg4
F0.0
sg5
F6.0
sg6
F3.0
sb(dp427
I00
F30779.520097073317
sI01
F52808.73939345036
ss(i__main__
State
p428
(dp429
g3
F8.0
sg4
F6.0
sg5
F-3.0
sg6
F-6.0
sb(dp430
I00
F51957.9135227264
sI01
F58576.92510834674
ss(i__main__
State
p431
(dp432
g3
F-1.0
sg4
F7.0
sg5
F5.0
sg6
F2.0
sb(dp433
I00
F50032.13866052492
sI01
F52222.04618748157
ss(i__main__
State
p434
(dp435
g3
F5.0
sg4
F7.0
sg5
F-6.0
sg6
F8.0
sb(dp436
I00
F50467.02021639336
sI01
F59674.021746465136
ss(i__main__
State
p437
(dp438
g3
F-7.0
sg4
F7.0
sg5
F-1.0
sg6
F-4.0
sb(dp439
I00
F50305.783188090114
sI01
F53906.84894432419
ss(i__main__
State
p440
(dp441
g3
F6.0
sg4
F1.0
sg5
F-5.0
sg6
F-8.0
sb(dp442
I00
F34919.58398797536
sI01
F51879.150306443174
ss(i__main__
State
p443
(dp444
g3
F-5.0
sg4
F1.0
sg5
F1.0
sg6
F-2.0
sb(dp445
I00
F35719.941469354155
sI01
F53789.737335125086
ss(i__main__
State
p446
(dp447
g3
F-1.0
sg4
F0.0
sg5
F5.0
sg6
F2.0
sb(dp448
I00
F30508.88400481815
sI01
F52654.29378122413
ss(i__main__
State
p449
(dp450
g3
F4.0
sg4
F6.0
sg5
F-7.0
sg6
F7.0
sb(dp451
I00
F49533.95986626097
sI01
F58445.17999653513
ss(i__main__
State
p452
(dp453
g3
F-3.0
sg4
F5.0
sg5
F3.0
sg6
F0.0
sb(dp454
I00
F43192.72752512455
sI01
F51946.65830923801
ss(i__main__
State
p455
(dp456
g3
F1.0
sg4
F6.0
sg5
F7.0
sg6
F4.0
sb(dp457
I00
F53751.954676804584
sI01
F58840.34429860294
ss(i__main__
State
p458
(dp459
g3
F8.0
sg4
F0.0
sg5
F-3.0
sg6
F-6.0
sb(dp460
I00
F28899.017184924727
sI01
F49617.37472031949
ss(i__main__
State
p461
(dp462
g3
F3.0
sg4
F8.0
sg5
F-8.0
sg6
F6.0
sb(dp463
I00
F27076.051677827152
sI01
F51156.69423914804
ss(i__main__
State
p464
(dp465
g3
F-7.0
sg4
F0.0
sg5
F-1.0
sg6
F-4.0
sb(dp466
I00
F31427.26057283797
sI01
F52068.955953515484
ss.