(dp0
(i__main__
State
p1
(dp2
S'y1'
p3
F8.0
sS'x'
p4
F3.0
sS'y3'
p5
F-3.0
sS'y2'
p6
F-6.0
sb(dp7
I00
F-9618.38121318843
sI01
F8.71805758
ss(i__main__
State
p8
(dp9
g3
F4.0
sg4
F7.0
sg5
F-7.0
sg6
F7.0
sb(dp10
I00
I62
sI01
F4080.2696327220006
ss(i__main__
State
p11
(dp12
g3
F-7.0
sg4
F5.0
sg5
F-1.0
sg6
F-4.0
sb(dp13
I00
I8
sI01
F63.22252837180001
ss(i__main__
State
p14
(dp15
g3
F-5.0
sg4
F2.0
sg5
F1.0
sg6
F-2.0
sb(dp16
I00
F-2274.8563401631827
sI01
F13.906661944251242
ss(i__main__
State
p17
(dp18
g3
F7.0
sg4
F6.0
sg5
F-4.0
sg6
F-7.0
sb(dp19
I00
F-2608.1699300948494
sI01
F1451.6192160260002
ss(i__main__
State
p20
(dp21
g3
F3.0
sg4
F7.0
sg5
F-8.0
sg6
F6.0
sb(dp22
I00
F-3123.9497865799995
sI01
F4046.449267682
ss(i__main__
State
p23
(dp24
g3
F-1.0
sg4
F0.0
sg5
F5.0
sg6
F2.0
sb(dp25
I00
I-82
sI01
F16.99548
ss(i__main__
State
p26
(dp27
g3
F-1.0
sg4
F3.0
sg5
F5.0
sg6
F2.0
sb(dp28
I00
I-78
sI01
F-10.659
ss(i__main__
State
p29
(dp30
g3
F1.0
sg4
F4.0
sg5
F7.0
sg6
F4.0
sb(dp31
I00
F-6904.110638030355
sI01
F-14.378870911583991
ss(i__main__
State
p32
(dp33
g3
F1.0
sg4
F2.0
sg5
F7.0
sg6
F4.0
sb(dp34
I00
F-6863.4148731
sI01
F53.7638972969
ss(i__main__
State
p35
(dp36
g3
F-1.0
sg4
F5.0
sg5
F5.0
sg6
F2.0
sb(dp37
I00
F-619.592
sI01
F971.5352462150006
ss(i__main__
State
p38
(dp39
g3
F-6.0
sg4
F5.0
sg5
F0.0
sg6
F-3.0
sb(dp40
I00
I41
sI01
F100.01539000000001
ss(i__main__
State
p41
(dp42
g3
F-2.0
sg4
F8.0
sg5
F4.0
sg6
F1.0
sb(dp43
I00
F-3049.88
sI01
F1.2796100000000004
ss(i__main__
State
p44
(dp45
g3
F6.0
sg4
F0.0
sg5
F-5.0
sg6
F-8.0
sb(dp46
I00
F-5449.8169
sI01
F48.44588732652
ss(i__main__
State
p47
(dp48
g3
F-4.0
sg4
F7.0
sg5
F2.0
sg6
F-1.0
sb(dp49
I00
F1845.73
sI01
F2455.34225
ss(i__main__
State
p50
(dp51
g3
F-3.0
sg4
F2.0
sg5
F3.0
sg6
F0.0
sb(dp52
I00
I-79
sI01
F60.90646000000001
ss(i__main__
State
p53
(dp54
g3
F5.0
sg4
F0.0
sg5
F-6.0
sg6
F8.0
sb(dp55
I00
I-11
sI01
F-14.360000000000001
ss(i__main__
State
p56
(dp57
g3
F3.0
sg4
F2.0
sg5
F-8.0
sg6
F6.0
sb(dp58
I00
I-83
sI01
F-40.5028
ss(i__main__
State
p59
(dp60
g3
F3.0
sg4
F3.0
sg5
F-8.0
sg6
F6.0
sb(dp61
I00
F-8978.395593801191
sI01
F5.367842532100001
ss(i__main__
State
p62
(dp63
g3
F2.0
sg4
F0.0
sg5
F8.0
sg6
F5.0
sb(dp64
I00
F-4365.667
sI01
F36.85472
ss(i__main__
State
p65
(dp66
g3
F4.0
sg4
F4.0
sg5
F-7.0
sg6
F7.0
sb(dp67
I00
F-2755.3201000000004
sI01
F15.736653210000002
ss(i__main__
State
p68
(dp69
g3
F-2.0
sg4
F2.0
sg5
F4.0
sg6
F1.0
sb(dp70
I00
I57
sI01
F-13.724723404639999
ss(i__main__
State
p71
(dp72
g3
F-4.0
sg4
F2.0
sg5
F2.0
sg6
F-1.0
sb(dp73
I00
F-2300.9300000000003
sI01
F31.999010218131996
ss(i__main__
State
p74
(dp75
g3
F-6.0
sg4
F3.0
sg5
F0.0
sg6
F-3.0
sb(dp76
I00
F-3417.9365714800006
sI01
F7.0636213580000025
ss(i__main__
State
p77
(dp78
g3
F2.0
sg4
F8.0
sg5
F8.0
sg6
F5.0
sb(dp79
I00
F-10354.943559255244
sI01
F18.8463417710108
ss(i__main__
State
p80
(dp81
g3
F6.0
sg4
F1.0
sg5
F-5.0
sg6
F-8.0
sb(dp82
I00
F-5716.524545
sI01
F-46.148037972000004
ss(i__main__
State
p83
(dp84
g3
F5.0
sg4
F6.0
sg5
F-6.0
sg6
F8.0
sb(dp85
I00
F-207.94638452639998
sI01
F1404.2181878296003
ss(i__main__
State
p86
(dp87
g3
F8.0
sg4
F1.0
sg5
F-3.0
sg6
F-6.0
sb(dp88
I00
F-10730.55049026943
sI01
F72.465856
ss(i__main__
State
p89
(dp90
g3
F-5.0
sg4
F5.0
sg5
F1.0
sg6
F-2.0
sb(dp91
I00
I5
sI01
F88.12599999999999
ss(i__main__
State
p92
(dp93
g3
F-5.0
sg4
F8.0
sg5
F1.0
sg6
F-2.0
sb(dp94
I00
F-12885.412813410683
sI01
F5.458358820792
ss(i__main__
State
p95
(dp96
g3
F0.0
sg4
F1.0
sg5
F6.0
sg6
F3.0
sb(dp97
I00
F-4830.6486
sI01
F-27.000556000000003
ss(i__main__
State
p98
(dp99
g3
F5.0
sg4
F8.0
sg5
F-6.0
sg6
F8.0
sb(dp100
I00
F-12233.329301545491
sI01
F25.723786938000003
ss(i__main__
State
p101
(dp102
g3
F3.0
sg4
F6.0
sg5
F-8.0
sg6
F6.0
sb(dp103
I00
I-49
sI01
F864.2960599200001
ss(i__main__
State
p104
(dp105
g3
F8.0
sg4
F7.0
sg5
F-3.0
sg6
F-6.0
sb(dp106
I00
F-13430.790140263989
sI01
F5732.01675215
ss(i__main__
State
p107
(dp108
g3
F8.0
sg4
F4.0
sg5
F-3.0
sg6
F-6.0
sb(dp109
I00
F-2083.530113906152
sI01
F171.11066424566667
ss(i__main__
State
p110
(dp111
g3
F-7.0
sg4
F1.0
sg5
F-1.0
sg6
F-4.0
sb(dp112
I00
F-1405.038
sI01
F-27.895504499999998
ss(i__main__
State
p113
(dp114
g3
F8.0
sg4
F8.0
sg5
F-3.0
sg6
F-6.0
sb(dp115
I00
F-12847.381578844175
sI01
F24.553800960000004
ss(i__main__
State
p116
(dp117
g3
F7.0
sg4
F8.0
sg5
F-4.0
sg6
F-7.0
sb(dp118
I00
F-9363.0055357
sI01
F-3.8406330800000026
ss(i__main__
State
p119
(dp120
g3
F-3.0
sg4
F3.0
sg5
F3.0
sg6
F0.0
sb(dp121
I00
F-8161.6412202983265
sI01
F-0.678309601044834
ss(i__main__
State
p122
(dp123
g3
F8.0
sg4
F2.0
sg5
F-3.0
sg6
F-6.0
sb(dp124
I00
F-8591.924578436161
sI01
F-19.69133235564
ss(i__main__
State
p125
(dp126
g3
F-5.0
sg4
F3.0
sg5
F1.0
sg6
F-2.0
sb(dp127
I00
F-9431.637772906086
sI01
F-34.667206346259995
ss(i__main__
State
p128
(dp129
g3
F6.0
sg4
F6.0
sg5
F-5.0
sg6
F-8.0
sb(dp130
I00
F-1530.6490869
sI01
F1191.458565482
ss(i__main__
State
p131
(dp132
g3
F-8.0
sg4
F6.0
sg5
F-2.0
sg6
F-5.0
sb(dp133
I00
F-223.10400000000004
sI01
F265.79080000000005
ss(i__main__
State
p134
(dp135
g3
F6.0
sg4
F7.0
sg5
F-5.0
sg6
F-8.0
sb(dp136
I00
F-2590.317
sI01
F5255.1118397752
ss(i__main__
State
p137
(dp138
g3
F1.0
sg4
F3.0
sg5
F7.0
sg6
F4.0
sb(dp139
I00
F-1007.0
sI01
F-28.042
ss(i__main__
State
p140
(dp141
g3
F1.0
sg4
F1.0
sg5
F7.0
sg6
F4.0
sb(dp142
I00
F-2644.2054066210003
sI01
F63.757318409
ss(i__main__
State
p143
(dp144
g3
F2.0
sg4
F5.0
sg5
F8.0
sg6
F5.0
sb(dp145
I00
F-1113.8516690000001
sI01
F135.35917195578
ss(i__main__
State
p146
(dp147
g3
F0.0
sg4
F2.0
sg5
F6.0
sg6
F3.0
sb(dp148
I00
F-11889.38733030544
sI01
F37.4042
ss(i__main__
State
p149
(dp150
g3
F-1.0
sg4
F4.0
sg5
F5.0
sg6
F2.0
sb(dp151
I00
F-2140.255
sI01
F37.947252236800004
ss(i__main__
State
p152
(dp153
g3
F-1.0
sg4
F1.0
sg5
F5.0
sg6
F2.0
sb(dp154
I00
F-1390.2469907834802
sI01
F3.804142150968003
ss(i__main__
State
p155
(dp156
g3
F2.0
sg4
F7.0
sg5
F8.0
sg6
F5.0
sb(dp157
I00
F923.5
sI01
F5235.9025398269805
ss(i__main__
State
p158
(dp159
g3
F6.0
sg4
F3.0
sg5
F-5.0
sg6
F-8.0
sb(dp160
I00
F-6061.6064173350005
sI01
F-15.404604633199998
ss(i__main__
State
p161
(dp162
g3
F-5.0
sg4
F6.0
sg5
F1.0
sg6
F-2.0
sb(dp163
I00
F-924.8782377
sI01
F610.44663
ss(i__main__
State
p164
(dp165
g3
F-6.0
sg4
F7.0
sg5
F0.0
sg6
F-3.0
sb(dp166
I00
F-7759.334638787823
sI01
F5508.936417029106
ss(i__main__
State
p167
(dp168
g3
F3.0
sg4
F4.0
sg5
F-8.0
sg6
F6.0
sb(dp169
I00
I92
sI01
F76.18935168016
ss(i__main__
State
p170
(dp171
g3
F7.0
sg4
F4.0
sg5
F-4.0
sg6
F-7.0
sb(dp172
I00
F-797.373936
sI01
F-6.3739360000000005
ss(i__main__
State
p173
(dp174
g3
F4.0
sg4
F1.0
sg5
F-7.0
sg6
F7.0
sb(dp175
I00
F-6511.717496859861
sI01
F23.058931773169807
ss(i__main__
State
p176
(dp177
g3
F1.0
sg4
F7.0
sg5
F7.0
sg6
F4.0
sb(dp178
I00
F-8769.52621664323
sI01
F7446.504304139088
ss(i__main__
State
p179
(dp180
g3
F1.0
sg4
F5.0
sg5
F7.0
sg6
F4.0
sb(dp181
I00
F-1543.8600000000001
sI01
F72.22632656
ss(i__main__
State
p182
(dp183
g3
F-3.0
sg4
F0.0
sg5
F3.0
sg6
F0.0
sb(dp184
I00
F-4256.240769474781
sI01
F39.017436525220006
ss(i__main__
State
p185
(dp186
g3
F-8.0
sg4
F4.0
sg5
F-2.0
sg6
F-5.0
sb(dp187
I00
F-3273.9849
sI01
F-0.19686177999999677
ss(i__main__
State
p188
(dp189
g3
F5.0
sg4
F5.0
sg5
F-6.0
sg6
F8.0
sb(dp190
I00
F-5173.770642088236
sI01
F59.340273580000016
ss(i__main__
State
p191
(dp192
g3
F5.0
sg4
F4.0
sg5
F-6.0
sg6
F8.0
sb(dp193
I00
F-1470.4445799
sI01
F24.605938480000002
ss(i__main__
State
p194
(dp195
g3
F-2.0
sg4
F5.0
sg5
F4.0
sg6
F1.0
sb(dp196
I00
F-570.9065215644339
sI01
F179.12310637556618
ss(i__main__
State
p197
(dp198
g3
F-8.0
sg4
F2.0
sg5
F-2.0
sg6
F-5.0
sb(dp199
I00
F-1124.5268
sI01
F44.671867
ss(i__main__
State
p200
(dp201
g3
F-8.0
sg4
F7.0
sg5
F-2.0
sg6
F-5.0
sb(dp202
I00
I-51
sI01
F4124.028974168776
ss(i__main__
State
p203
(dp204
g3
F1.0
sg4
F8.0
sg5
F7.0
sg6
F4.0
sb(dp205
I00
F0.0
sI01
F7.939440000000002
ss(i__main__
State
p206
(dp207
g3
F0.0
sg4
F5.0
sg5
F6.0
sg6
F3.0
sb(dp208
I00
F-5190.281561985617
sI01
F228.3266444556
ss(i__main__
State
p209
(dp210
g3
F-6.0
sg4
F2.0
sg5
F0.0
sg6
F-3.0
sb(dp211
I00
F-1213.8
sI01
F31.121141931620002
ss(i__main__
State
p212
(dp213
g3
F-8.0
sg4
F5.0
sg5
F-2.0
sg6
F-5.0
sb(dp214
I00
F-635.5060000000001
sI01
F647.5255548446357
ss(i__main__
State
p215
(dp216
g3
F-3.0
sg4
F6.0
sg5
F3.0
sg6
F0.0
sb(dp217
I00
F-224.67000000000002
sI01
F932.5911714598801
ss(i__main__
State
p218
(dp219
g3
F7.0
sg4
F3.0
sg5
F-4.0
sg6
F-7.0
sb(dp220
I00
F-6869.25394811291
sI01
F55.66927646490561
ss(i__main__
State
p221
(dp222
g3
F-5.0
sg4
F7.0
sg5
F1.0
sg6
F-2.0
sb(dp223
I00
I-83
sI01
F3435.9283212
ss(i__main__
State
p224
(dp225
g3
F-4.0
sg4
F4.0
sg5
F2.0
sg6
F-1.0
sb(dp226
I00
F-5950.83687942331
sI01
F18.044434717774934
ss(i__main__
State
p227
(dp228
g3
F7.0
sg4
F0.0
sg5
F-4.0
sg6
F-7.0
sb(dp229
I00
I47
sI01
F-38.294512999999995
ss(i__main__
State
p230
(dp231
g3
F-6.0
sg4
F6.0
sg5
F0.0
sg6
F-3.0
sb(dp232
I00
I46
sI01
F589.00924
ss(i__main__
State
p233
(dp234
g3
F-6.0
sg4
F0.0
sg5
F0.0
sg6
F-3.0
sb(dp235
I00
F-14786.65543607088
sI01
F20.268523450000004
ss(i__main__
State
p236
(dp237
g3
F-8.0
sg4
F0.0
sg5
F-2.0
sg6
F-5.0
sb(dp238
I00
I96
sI01
F-38.0555507192848
ss(i__main__
State
p239
(dp240
g3
F-7.0
sg4
F8.0
sg5
F-1.0
sg6
F-4.0
sb(dp241
I00
F-17671.437086681206
sI01
F7.2184675
ss(i__main__
State
p242
(dp243
g3
F-1.0
sg4
F7.0
sg5
F5.0
sg6
F2.0
sb(dp244
I00
I-26
sI01
F531.8246017781681
ss(i__main__
State
p245
(dp246
g3
F5.0
sg4
F2.0
sg5
F-6.0
sg6
F8.0
sb(dp247
I00
F-11440.375651891825
sI01
F51.6461195782
ss(i__main__
State
p248
(dp249
g3
F-8.0
sg4
F3.0
sg5
F-2.0
sg6
F-5.0
sb(dp250
I00
F-9833.934140606014
sI01
F25.943899733080002
ss(i__main__
State
p251
(dp252
g3
F-2.0
sg4
F7.0
sg5
F4.0
sg6
F1.0
sb(dp253
I00
F-7331.912415000001
sI01
F4060.845686
ss(i__main__
State
p254
(dp255
g3
F0.0
sg4
F6.0
sg5
F6.0
sg6
F3.0
sb(dp256
I00
F-61.435988254835536
sI01
F3430.357794910163
ss(i__main__
State
p257
(dp258
g3
F-2.0
sg4
F1.0
sg5
F4.0
sg6
F1.0
sb(dp259
I00
F-1379.496
sI01
F17.26287472698
ss(i__main__
State
p260
(dp261
g3
F-4.0
sg4
F8.0
sg5
F2.0
sg6
F-1.0
sb(dp262
I00
F-6549.70294
sI01
F18.641064800000002
ss(i__main__
State
p263
(dp264
g3
F-8.0
sg4
F1.0
sg5
F-2.0
sg6
F-5.0
sb(dp265
I00
F-1391.6000000000001
sI01
F-20.4922846
ss(i__main__
State
p266
(dp267
g3
F-3.0
sg4
F1.0
sg5
F3.0
sg6
F0.0
sb(dp268
I00
F-13510.0777102537
sI01
F-14.618443760639401
ss(i__main__
State
p269
(dp270
g3
F7.0
sg4
F7.0
sg5
F-4.0
sg6
F-7.0
sb(dp271
I00
F-5107.584525900001
sI01
F4141.0275679
ss(i__main__
State
p272
(dp273
g3
F7.0
sg4
F5.0
sg5
F-4.0
sg6
F-7.0
sb(dp274
I00
I-13
sI01
F71.917924
ss(i__main__
State
p275
(dp276
g3
F-3.0
sg4
F7.0
sg5
F3.0
sg6
F0.0
sb(dp277
I00
I-56
sI01
F1834.2296000000001
ss(i__main__
State
p278
(dp279
g3
F4.0
sg4
F5.0
sg5
F-7.0
sg6
F7.0
sb(dp280
I00
F-464.27271000200005
sI01
F307.69322749324004
ss(i__main__
State
p281
(dp282
g3
F4.0
sg4
F0.0
sg5
F-7.0
sg6
F7.0
sb(dp283
I00
F-4267.084000000001
sI01
F0.834813634320001
ss(i__main__
State
p284
(dp285
g3
F6.0
sg4
F5.0
sg5
F-5.0
sg6
F-8.0
sb(dp286
I00
I-69
sI01
F218.29710641000005
ss(i__main__
State
p287
(dp288
g3
F-5.0
sg4
F4.0
sg5
F1.0
sg6
F-2.0
sb(dp289
I00
F-3753.8899010000005
sI01
F105.84303304000001
ss(i__main__
State
p290
(dp291
g3
F-3.0
sg4
F8.0
sg5
F3.0
sg6
F0.0
sb(dp292
I00
F-1796.7
sI01
F7.08162
ss(i__main__
State
p293
(dp294
g3
F2.0
sg4
F6.0
sg5
F8.0
sg6
F5.0
sb(dp295
I00
F-1578.2029730000002
sI01
F949.709161518
ss(i__main__
State
p296
(dp297
g3
F-1.0
sg4
F2.0
sg5
F5.0
sg6
F2.0
sb(dp298
I00
F-1259.531283417414
sI01
F2.7075059036138027
ss(i__main__
State
p299
(dp300
g3
F5.0
sg4
F3.0
sg5
F-6.0
sg6
F8.0
sb(dp301
I00
F-9555.44570261402
sI01
F13.119065200000001
ss(i__main__
State
p302
(dp303
g3
F-1.0
sg4
F6.0
sg5
F5.0
sg6
F2.0
sb(dp304
I00
F-579.656456082
sI01
F1496.3124869058165
ss(i__main__
State
p305
(dp306
g3
F4.0
sg4
F3.0
sg5
F-7.0
sg6
F7.0
sb(dp307
I00
F-9063.493798369449
sI01
F-12.067332849999996
ss(i__main__
State
p308
(dp309
g3
F-4.0
sg4
F1.0
sg5
F2.0
sg6
F-1.0
sb(dp310
I00
I-8
sI01
F33.05908
ss(i__main__
State
p311
(dp312
g3
F1.0
sg4
F0.0
sg5
F7.0
sg6
F4.0
sb(dp313
I00
F-15391.2299481194
sI01
F48.953101255267995
ss(i__main__
State
p314
(dp315
g3
F8.0
sg4
F5.0
sg5
F-3.0
sg6
F-6.0
sb(dp316
I00
F-665.3228
sI01
F82.27720000000001
ss(i__main__
State
p317
(dp318
g3
F0.0
sg4
F0.0
sg5
F6.0
sg6
F3.0
sb(dp319
I00
I-98
sI01
F-26.72229833
ss(i__main__
State
p320
(dp321
g3
F3.0
sg4
F0.0
sg5
F-8.0
sg6
F6.0
sb(dp322
I00
F-13002.442262311013
sI01
F13.61210740145196
ss(i__main__
State
p323
(dp324
g3
F7.0
sg4
F1.0
sg5
F-4.0
sg6
F-7.0
sb(dp325
I00
F-1355.6000000000001
sI01
F32.43876581604
ss(i__main__
State
p326
(dp327
g3
F4.0
sg4
F2.0
sg5
F-7.0
sg6
F7.0
sb(dp328
I00
F-10137.120132907823
sI01
F-27.458532799999997
ss(i__main__
State
p329
(dp330
g3
F-6.0
sg4
F4.0
sg5
F0.0
sg6
F-3.0
sb(dp331
I00
F-720.6745240736
sI01
F1.456581416400006
ss(i__main__
State
p332
(dp333
g3
F-4.0
sg4
F5.0
sg5
F2.0
sg6
F-1.0
sb(dp334
I00
F-1056.45953072
sI01
F292.70140555000006
ss(i__main__
State
p335
(dp336
g3
F-3.0
sg4
F4.0
sg5
F3.0
sg6
F0.0
sb(dp337
I00
F-762.66406816
sI01
F-6.131432683999996
ss(i__main__
State
p338
(dp339
g3
F0.0
sg4
F3.0
sg5
F6.0
sg6
F3.0
sb(dp340
I00
F-2764.7805091436003
sI01
F15.663140443390603
ss(i__main__
State
p341
(dp342
g3
F-7.0
sg4
F4.0
sg5
F-1.0
sg6
F-4.0
sb(dp343
I00
I39
sI01
F-36.11726
ss(i__main__
State
p344
(dp345
g3
F-4.0
sg4
F6.0
sg5
F2.0
sg6
F-1.0
sb(dp346
I00
F-3509.3103098577403
sI01
F156.03040000000004
ss(i__main__
State
p347
(dp348
g3
F-4.0
sg4
F3.0
sg5
F2.0
sg6
F-1.0
sb(dp349
I00
F-2665.4390000000003
sI01
F66.44987725834001
ss(i__main__
State
p350
(dp351
g3
F-7.0
sg4
F6.0
sg5
F-1.0
sg6
F-4.0
sb(dp352
I00
F202.41253081725594
sI01
F2621.2299032492574
ss(i__main__
State
p353
(dp354
g3
F6.0
sg4
F2.0
sg5
F-5.0
sg6
F-8.0
sb(dp355
I00
I-35
sI01
F44.7531940706246
ss(i__main__
State
p356
(dp357
g3
F3.0
sg4
F5.0
sg5
F-8.0
sg6
F6.0
sb(dp358
I00
F-2763.390467
sI01
F38.16157
ss(i__main__
State
p359
(dp360
g3
F-8.0
sg4
F8.0
sg5
F-2.0
sg6
F-5.0
sb(dp361
I00
F-9454.340759810002
sI01
F44.823317744
ss(i__main__
State
p362
(dp363
g3
F-2.0
sg4
F0.0
sg5
F4.0
sg6
F1.0
sb(dp364
I00
F-4399.342114110348
sI01
F17.924375889651998
ss(i__main__
State
p365
(dp366
g3
F6.0
sg4
F8.0
sg5
F-5.0
sg6
F-8.0
sb(dp367
I00
F-13977.3445310463
sI01
F18.54713
ss(i__main__
State
p368
(dp369
g3
F5.0
sg4
F1.0
sg5
F-6.0
sg6
F8.0
sb(dp370
I00
F-1389.606
sI01
F25.496532170107603
ss(i__main__
State
p371
(dp372
g3
F-2.0
sg4
F4.0
sg5
F4.0
sg6
F1.0
sb(dp373
I00
F-867.2946424
sI01
F157.68335441635833
ss(i__main__
State
p374
(dp375
g3
F-7.0
sg4
F2.0
sg5
F-1.0
sg6
F-4.0
sb(dp376
I00
F-3256.8264858
sI01
F0.20378450399999998
ss(i__main__
State
p377
(dp378
g3
F2.0
sg4
F4.0
sg5
F8.0
sg6
F5.0
sb(dp379
I00
F-2788.5516000000002
sI01
F-15.445135944000002
ss(i__main__
State
p380
(dp381
g3
F-2.0
sg4
F3.0
sg5
F4.0
sg6
F1.0
sb(dp382
I00
I-53
sI01
F-15.9560864
ss(i__main__
State
p383
(dp384
g3
F6.0
sg4
F4.0
sg5
F-5.0
sg6
F-8.0
sb(dp385
I00
I73
sI01
F47.619974196200005
ss(i__main__
State
p386
(dp387
g3
F-4.0
sg4
F0.0
sg5
F2.0
sg6
F-1.0
sb(dp388
I00
F-12696.509233730274
sI01
F-13.037940034025
ss(i__main__
State
p389
(dp390
g3
F3.0
sg4
F1.0
sg5
F-8.0
sg6
F6.0
sb(dp391
I00
F-3742.13
sI01
F-66.11090839999999
ss(i__main__
State
p392
(dp393
g3
F-2.0
sg4
F6.0
sg5
F4.0
sg6
F1.0
sb(dp394
I00
F-1075.737
sI01
F150.22628033767603
ss(i__main__
State
p395
(dp396
g3
F-6.0
sg4
F1.0
sg5
F0.0
sg6
F-3.0
sb(dp397
I00
F-11887.781335929209
sI01
F22.537314372826
ss(i__main__
State
p398
(dp399
g3
F0.0
sg4
F7.0
sg5
F6.0
sg6
F3.0
sb(dp400
I00
F1082.194
sI01
F4090.2897810851546
ss(i__main__
State
p401
(dp402
g3
F2.0
sg4
F1.0
sg5
F8.0
sg6
F5.0
sb(dp403
I00
F-1344.2039419289001
sI01
F-39.98740641822
ss(i__main__
State
p404
(dp405
g3
F4.0
sg4
F8.0
sg5
F-7.0
sg6
F7.0
sb(dp406
I00
F-3422.09
sI01
F-0.9722208000000006
ss(i__main__
State
p407
(dp408
g3
F7.0
sg4
F2.0
sg5
F-4.0
sg6
F-7.0
sb(dp409
I00
F-4105.741400000001
sI01
F13.204027852
ss(i__main__
State
p410
(dp411
g3
F2.0
sg4
F3.0
sg5
F8.0
sg6
F5.0
sb(dp412
I00
F-5635.622506688001
sI01
F27.392375
ss(i__main__
State
p413
(dp414
g3
F0.0
sg4
F4.0
sg5
F6.0
sg6
F3.0
sb(dp415
I00
F-4889.2811017409995
sI01
F-66.84400000000001
ss(i__main__
State
p416
(dp417
g3
F-1.0
sg4
F8.0
sg5
F5.0
sg6
F2.0
sb(dp418
I00
F-5495.522
sI01
F-17.590110000000003
ss(i__main__
State
p419
(dp420
g3
F8.0
sg4
F6.0
sg5
F-3.0
sg6
F-6.0
sb(dp421
I00
F-284.02264800000006
sI01
F819.666031129864
ss(i__main__
State
p422
(dp423
g3
F5.0
sg4
F7.0
sg5
F-6.0
sg6
F8.0
sb(dp424
I00
F194.40399999999977
sI01
F4115.498790000001
ss(i__main__
State
p425
(dp426
g3
F2.0
sg4
F2.0
sg5
F8.0
sg6
F5.0
sb(dp427
I00
F-2332.9708194
sI01
F22.646548909900005
ss(i__main__
State
p428
(dp429
g3
F-7.0
sg4
F3.0
sg5
F-1.0
sg6
F-4.0
sb(dp430
I00
F-8952.99933912604
sI01
F37.785489999999996
ss(i__main__
State
p431
(dp432
g3
F-5.0
sg4
F1.0
sg5
F1.0
sg6
F-2.0
sb(dp433
I00
I41
sI01
F51.478079664868
ss(i__main__
State
p434
(dp435
g3
F0.0
sg4
F8.0
sg5
F6.0
sg6
F3.0
sb(dp436
I00
F-14979.111950044557
sI01
F24.963628569008
ss(i__main__
State
p437
(dp438
g3
F4.0
sg4
F6.0
sg5
F-7.0
sg6
F7.0
sb(dp439
I00
I-77
sI01
F824.096433
ss(i__main__
State
p440
(dp441
g3
F-3.0
sg4
F5.0
sg5
F3.0
sg6
F0.0
sb(dp442
I00
F-545.39971
sI01
F248.52049515801434
ss(i__main__
State
p443
(dp444
g3
F1.0
sg4
F6.0
sg5
F7.0
sg6
F4.0
sb(dp445
I00
F-23.106959999999987
sI01
F1412.7023259
ss(i__main__
State
p446
(dp447
g3
F8.0
sg4
F0.0
sg5
F-3.0
sg6
F-6.0
sb(dp448
I00
F-6521.9221294
sI01
F-69.7057092
ss(i__main__
State
p449
(dp450
g3
F3.0
sg4
F8.0
sg5
F-8.0
sg6
F6.0
sb(dp451
I00
F-16991.637693981942
sI01
F5.331908912479999
ss(i__main__
State
p452
(dp453
g3
F-7.0
sg4
F0.0
sg5
F-1.0
sg6
F-4.0
sb(dp454
I00
F-1536.75
sI01
F58.664077508000005
ss.