(dp0
(i__main__
State
p1
(dp2
S'y1'
p3
F8.0
sS'x'
p4
F3.0
sS'y3'
p5
F-3.0
sS'y2'
p6
F-6.0
sb(dp7
I00
F-4061.8340282004838
sI01
F972.387180665109
ss(i__main__
State
p8
(dp9
g3
F4.0
sg4
F7.0
sg5
F-7.0
sg6
F7.0
sb(dp10
I00
F-9255.069144983992
sI01
F9646.567170797873
ss(i__main__
State
p11
(dp12
g3
F-7.0
sg4
F5.0
sg5
F-1.0
sg6
F-4.0
sb(dp13
I00
F-3870.6957963260566
sI01
F3744.705609328788
ss(i__main__
State
p14
(dp15
g3
F-5.0
sg4
F2.0
sg5
F1.0
sg6
F-2.0
sb(dp16
I00
F-4068.400493972314
sI01
F285.76339428631223
ss(i__main__
State
p17
(dp18
g3
F7.0
sg4
F6.0
sg5
F-4.0
sg6
F-7.0
sb(dp19
I00
F474.39856956113374
sI01
F6622.767939138361
ss(i__main__
State
p20
(dp21
g3
F0.0
sg4
F7.0
sg5
F6.0
sg6
F3.0
sb(dp22
I00
F1166.0502223914805
sI01
F9697.382394392438
ss(i__main__
State
p23
(dp24
g3
F-1.0
sg4
F0.0
sg5
F5.0
sg6
F2.0
sb(dp25
I00
F-7495.784362942917
sI01
F112.06806863085785
ss(i__main__
State
p26
(dp27
g3
F-1.0
sg4
F3.0
sg5
F5.0
sg6
F2.0
sb(dp28
I00
F-8468.526003295145
sI01
F3283.4824480664774
ss(i__main__
State
p29
(dp30
g3
F1.0
sg4
F4.0
sg5
F7.0
sg6
F4.0
sb(dp31
I00
F-4010.6814481314636
sI01
F3962.382908748863
ss(i__main__
State
p32
(dp33
g3
F1.0
sg4
F2.0
sg5
F7.0
sg6
F4.0
sb(dp34
I00
F-5959.523512633441
sI01
F1019.643595552777
ss(i__main__
State
p35
(dp36
g3
F2.0
sg4
F7.0
sg5
F8.0
sg6
F5.0
sb(dp37
I00
F-7832.632552856769
sI01
F9138.889229163908
ss(i__main__
State
p38
(dp39
g3
F-6.0
sg4
F5.0
sg5
F0.0
sg6
F-3.0
sb(dp40
I00
F-2114.4266368626495
sI01
F1547.5175341795768
ss(i__main__
State
p41
(dp42
g3
F-2.0
sg4
F8.0
sg5
F4.0
sg6
F1.0
sb(dp43
I00
F-7230.629157846501
sI01
F38.44898044576145
ss(i__main__
State
p44
(dp45
g3
F6.0
sg4
F0.0
sg5
F-5.0
sg6
F-8.0
sb(dp46
I00
F-1630.4355914412176
sI01
F1.268836566763138
ss(i__main__
State
p47
(dp48
g3
F0.0
sg4
F1.0
sg5
F6.0
sg6
F3.0
sb(dp49
I00
F-8534.498675026685
sI01
F364.50811752937545
ss(i__main__
State
p50
(dp51
g3
F-4.0
sg4
F7.0
sg5
F2.0
sg6
F-1.0
sb(dp52
I00
F679.5663042605684
sI01
F473.04323875536875
ss(i__main__
State
p53
(dp54
g3
F-3.0
sg4
F2.0
sg5
F3.0
sg6
F0.0
sb(dp55
I00
F-5164.448296233375
sI01
F991.3487262598546
ss(i__main__
State
p56
(dp57
g3
F5.0
sg4
F0.0
sg5
F-6.0
sg6
F8.0
sb(dp58
I00
F-14919.919213627685
sI01
F63.7182886021392
ss(i__main__
State
p59
(dp60
g3
F3.0
sg4
F2.0
sg5
F-8.0
sg6
F6.0
sb(dp61
I00
F-5529.2047277945485
sI01
F247.80475836442142
ss(i__main__
State
p62
(dp63
g3
F3.0
sg4
F3.0
sg5
F-8.0
sg6
F6.0
sb(dp64
I00
F-3367.187765963496
sI01
F1587.3644830978285
ss(i__main__
State
p65
(dp66
g3
F-5.0
sg4
F8.0
sg5
F1.0
sg6
F-2.0
sb(dp67
I00
F-12101.012521565854
sI01
F142.93032644504166
ss(i__main__
State
p68
(dp69
g3
F2.0
sg4
F0.0
sg5
F8.0
sg6
F5.0
sb(dp70
I00
F-4360.957029575999
sI01
F84.57452848591517
ss(i__main__
State
p71
(dp72
g3
F4.0
sg4
F4.0
sg5
F-7.0
sg6
F7.0
sb(dp73
I00
F-2413.5339956681864
sI01
F3086.328575250867
ss(i__main__
State
p74
(dp75
g3
F-2.0
sg4
F2.0
sg5
F4.0
sg6
F1.0
sb(dp76
I00
F-6986.658486310714
sI01
F1770.780579469755
ss(i__main__
State
p77
(dp78
g3
F-6.0
sg4
F3.0
sg5
F0.0
sg6
F-3.0
sb(dp79
I00
F-4587.601742974421
sI01
F1315.8663025919047
ss(i__main__
State
p80
(dp81
g3
F2.0
sg4
F8.0
sg5
F8.0
sg6
F5.0
sb(dp82
I00
F-10257.994565578152
sI01
F21.258181362403132
ss(i__main__
State
p83
(dp84
g3
F-7.0
sg4
F3.0
sg5
F-1.0
sg6
F-4.0
sb(dp85
I00
F-4979.156291251321
sI01
F1501.367297744737
ss(i__main__
State
p86
(dp87
g3
F5.0
sg4
F6.0
sg5
F-6.0
sg6
F8.0
sb(dp88
I00
F1098.0813475708871
sI01
F8722.84092093689
ss(i__main__
State
p89
(dp90
g3
F8.0
sg4
F1.0
sg5
F-3.0
sg6
F-6.0
sb(dp91
I00
F-5674.064808961283
sI01
F169.7125481463301
ss(i__main__
State
p92
(dp93
g3
F-5.0
sg4
F5.0
sg5
F1.0
sg6
F-2.0
sb(dp94
I00
F-1647.3278719007276
sI01
F5604.251231546429
ss(i__main__
State
p95
(dp96
g3
F-2.0
sg4
F1.0
sg5
F4.0
sg6
F1.0
sb(dp97
I00
F-8548.307984454088
sI01
F136.59596367040737
ss(i__main__
State
p98
(dp99
g3
F7.0
sg4
F5.0
sg5
F-4.0
sg6
F-7.0
sb(dp100
I00
F-4399.584409631241
sI01
F3567.78458988973
ss(i__main__
State
p101
(dp102
g3
F5.0
sg4
F8.0
sg5
F-6.0
sg6
F8.0
sb(dp103
I00
F-16076.694792441067
sI01
F-13.336455606768094
ss(i__main__
State
p104
(dp105
g3
F3.0
sg4
F6.0
sg5
F-8.0
sg6
F6.0
sb(dp106
I00
F1389.1672735094983
sI01
F8764.504121915048
ss(i__main__
State
p107
(dp108
g3
F8.0
sg4
F7.0
sg5
F-3.0
sg6
F-6.0
sb(dp109
I00
F2406.271940671253
sI01
F8925.824319060883
ss(i__main__
State
p110
(dp111
g3
F8.0
sg4
F4.0
sg5
F-3.0
sg6
F-6.0
sb(dp112
I00
F-632.5511587689946
sI01
F3398.4484443307365
ss(i__main__
State
p113
(dp114
g3
F-7.0
sg4
F1.0
sg5
F-1.0
sg6
F-4.0
sb(dp115
I00
F-4850.661093352697
sI01
F153.94594255066815
ss(i__main__
State
p116
(dp117
g3
F8.0
sg4
F8.0
sg5
F-3.0
sg6
F-6.0
sb(dp118
I00
F-5985.548082256196
sI01
F64.94971697204181
ss(i__main__
State
p119
(dp120
g3
F7.0
sg4
F8.0
sg5
F-4.0
sg6
F-7.0
sb(dp121
I00
F-7190.047247757442
sI01
F47.939888455552
ss(i__main__
State
p122
(dp123
g3
F-7.0
sg4
F8.0
sg5
F-1.0
sg6
F-4.0
sb(dp124
I00
F-11701.070534573331
sI01
F33.01986519196824
ss(i__main__
State
p125
(dp126
g3
F-6.0
sg4
F8.0
sg5
F0.0
sg6
F-3.0
sb(dp127
I00
F-6995.786183582153
sI01
F123.6078607714727
ss(i__main__
State
p128
(dp129
g3
F8.0
sg4
F2.0
sg5
F-3.0
sg6
F-6.0
sb(dp130
I00
F-10172.80495868916
sI01
F297.45501142039484
ss(i__main__
State
p131
(dp132
g3
F-5.0
sg4
F3.0
sg5
F1.0
sg6
F-2.0
sb(dp133
I00
F-5481.903100362747
sI01
F1012.3178162257956
ss(i__main__
State
p134
(dp135
g3
F6.0
sg4
F6.0
sg5
F-5.0
sg6
F-8.0
sb(dp136
I00
F689.7301103742457
sI01
F7876.7775017709855
ss(i__main__
State
p137
(dp138
g3
F-8.0
sg4
F6.0
sg5
F-2.0
sg6
F-5.0
sb(dp139
I00
F-163.50969752446508
sI01
F1602.6461755447244
ss(i__main__
State
p140
(dp141
g3
F6.0
sg4
F7.0
sg5
F-5.0
sg6
F-8.0
sb(dp142
I00
F4147.501675180156
sI01
F9749.552578501256
ss(i__main__
State
p143
(dp144
g3
F1.0
sg4
F3.0
sg5
F7.0
sg6
F4.0
sb(dp145
I00
F-8797.769141535957
sI01
F1729.039024741489
ss(i__main__
State
p146
(dp147
g3
F1.0
sg4
F1.0
sg5
F7.0
sg6
F4.0
sb(dp148
I00
F-12196.728506413237
sI01
F252.98749137294482
ss(i__main__
State
p149
(dp150
g3
F2.0
sg4
F5.0
sg5
F8.0
sg6
F5.0
sb(dp151
I00
F549.7141881561181
sI01
F6732.397258091739
ss(i__main__
State
p152
(dp153
g3
F0.0
sg4
F2.0
sg5
F6.0
sg6
F3.0
sb(dp154
I00
F-4646.172072686155
sI01
F763.1931643104369
ss(i__main__
State
p155
(dp156
g3
F-1.0
sg4
F4.0
sg5
F5.0
sg6
F2.0
sb(dp157
I00
F-2655.420698467723
sI01
F2287.715008103708
ss(i__main__
State
p158
(dp159
g3
F-1.0
sg4
F1.0
sg5
F5.0
sg6
F2.0
sb(dp160
I00
F-11306.803750781299
sI01
F295.3343206133062
ss(i__main__
State
p161
(dp162
g3
F-1.0
sg4
F5.0
sg5
F5.0
sg6
F2.0
sb(dp163
I00
F-3675.1629551262145
sI01
F5092.223909936981
ss(i__main__
State
p164
(dp165
g3
F6.0
sg4
F3.0
sg5
F-5.0
sg6
F-8.0
sb(dp166
I00
F-3242.2920297543155
sI01
F1269.9305696103447
ss(i__main__
State
p167
(dp168
g3
F-3.0
sg4
F0.0
sg5
F3.0
sg6
F0.0
sb(dp169
I00
F-11477.768631654722
sI01
F36.93421662366181
ss(i__main__
State
p170
(dp171
g3
F-6.0
sg4
F7.0
sg5
F0.0
sg6
F-3.0
sb(dp172
I00
F-7197.240799882724
sI01
F9680.549197851451
ss(i__main__
State
p173
(dp174
g3
F3.0
sg4
F4.0
sg5
F-8.0
sg6
F6.0
sb(dp175
I00
F-3469.573188435554
sI01
F4445.650845470685
ss(i__main__
State
p176
(dp177
g3
F7.0
sg4
F4.0
sg5
F-4.0
sg6
F-7.0
sb(dp178
I00
F-3369.7010686359836
sI01
F1414.8749055739672
ss(i__main__
State
p179
(dp180
g3
F4.0
sg4
F1.0
sg5
F-7.0
sg6
F7.0
sb(dp181
I00
F-7265.588826383283
sI01
F290.18082565696767
ss(i__main__
State
p182
(dp183
g3
F1.0
sg4
F7.0
sg5
F7.0
sg6
F4.0
sb(dp184
I00
F-6967.9824669211785
sI01
F9532.257279652113
ss(i__main__
State
p185
(dp186
g3
F1.0
sg4
F5.0
sg5
F7.0
sg6
F4.0
sb(dp187
I00
F-1511.4104476434131
sI01
F6983.725119120593
ss(i__main__
State
p188
(dp189
g3
F-5.0
sg4
F6.0
sg5
F1.0
sg6
F-2.0
sb(dp190
I00
F-2833.641239830169
sI01
F3179.433567186031
ss(i__main__
State
p191
(dp192
g3
F-8.0
sg4
F4.0
sg5
F-2.0
sg6
F-5.0
sb(dp193
I00
F-3174.9120023208693
sI01
F2228.4608576904957
ss(i__main__
State
p194
(dp195
g3
F-1.0
sg4
F7.0
sg5
F5.0
sg6
F2.0
sb(dp196
I00
F489.6978768883175
sI01
F2850.526246448484
ss(i__main__
State
p197
(dp198
g3
F5.0
sg4
F4.0
sg5
F-6.0
sg6
F8.0
sb(dp199
I00
F-2428.9693432938266
sI01
F1816.505813048175
ss(i__main__
State
p200
(dp201
g3
F-2.0
sg4
F5.0
sg5
F4.0
sg6
F1.0
sb(dp202
I00
F-2796.651683701586
sI01
F5721.115322669565
ss(i__main__
State
p203
(dp204
g3
F-8.0
sg4
F2.0
sg5
F-2.0
sg6
F-5.0
sb(dp205
I00
F-9410.374716064915
sI01
F504.864853890579
ss(i__main__
State
p206
(dp207
g3
F-8.0
sg4
F7.0
sg5
F-2.0
sg6
F-5.0
sb(dp208
I00
F-9705.94152259992
sI01
F7915.093160031121
ss(i__main__
State
p209
(dp210
g3
F1.0
sg4
F8.0
sg5
F7.0
sg6
F4.0
sb(dp211
I00
F-17434.17861230967
sI01
F82.17609079421608
ss(i__main__
State
p212
(dp213
g3
F0.0
sg4
F5.0
sg5
F6.0
sg6
F3.0
sb(dp214
I00
F-1028.8147966275787
sI01
F4399.5583240145
ss(i__main__
State
p215
(dp216
g3
F-4.0
sg4
F3.0
sg5
F2.0
sg6
F-1.0
sb(dp217
I00
F-1878.9005554071825
sI01
F840.5757020205549
ss(i__main__
State
p218
(dp219
g3
F-8.0
sg4
F5.0
sg5
F-2.0
sg6
F-5.0
sb(dp220
I00
F-2002.4374749797198
sI01
F5956.985536036799
ss(i__main__
State
p221
(dp222
g3
F5.0
sg4
F5.0
sg5
F-6.0
sg6
F8.0
sb(dp223
I00
F-2756.2059630000003
sI01
F5613.727855978728
ss(i__main__
State
p224
(dp225
g3
F7.0
sg4
F3.0
sg5
F-4.0
sg6
F-7.0
sb(dp226
I00
F-2055.18412473447
sI01
F1710.2766776923063
ss(i__main__
State
p227
(dp228
g3
F-5.0
sg4
F7.0
sg5
F1.0
sg6
F-2.0
sb(dp229
I00
F-8389.679305643846
sI01
F6982.798573007204
ss(i__main__
State
p230
(dp231
g3
F-4.0
sg4
F4.0
sg5
F2.0
sg6
F-1.0
sb(dp232
I00
F-4203.286354565142
sI01
F1998.3148447712163
ss(i__main__
State
p233
(dp234
g3
F3.0
sg4
F7.0
sg5
F-8.0
sg6
F6.0
sb(dp235
I00
F-1085.1464138004208
sI01
F9712.32574848975
ss(i__main__
State
p236
(dp237
g3
F7.0
sg4
F0.0
sg5
F-4.0
sg6
F-7.0
sb(dp238
I00
F-14921.15848119854
sI01
F67.30583511923483
ss(i__main__
State
p239
(dp240
g3
F-6.0
sg4
F6.0
sg5
F0.0
sg6
F-3.0
sb(dp241
I00
F641.7631884457359
sI01
F5180.510931952534
ss(i__main__
State
p242
(dp243
g3
F-6.0
sg4
F0.0
sg5
F0.0
sg6
F-3.0
sb(dp244
I00
F-11390.423855565621
sI01
F91.85726753056208
ss(i__main__
State
p245
(dp246
g3
F-8.0
sg4
F0.0
sg5
F-2.0
sg6
F-5.0
sb(dp247
I00
F-9767.019665902657
sI01
F69.07022784444659
ss(i__main__
State
p248
(dp249
g3
F6.0
sg4
F8.0
sg5
F-5.0
sg6
F-8.0
sb(dp250
I00
F-6178.711584685982
sI01
F46.854844692231715
ss(i__main__
State
p251
(dp252
g3
F-3.0
sg4
F3.0
sg5
F3.0
sg6
F0.0
sb(dp253
I00
F-5237.818954314496
sI01
F1190.2743852593483
ss(i__main__
State
p254
(dp255
g3
F0.0
sg4
F0.0
sg5
F6.0
sg6
F3.0
sb(dp256
I00
F-9121.071501412225
sI01
F53.86473104345739
ss(i__main__
State
p257
(dp258
g3
F8.0
sg4
F0.0
sg5
F-8.0
sg6
F0.0
sb(dp259
I00
F-16035.832139893622
sI01
I37
ss(i__main__
State
p260
(dp261
g3
F5.0
sg4
F2.0
sg5
F-6.0
sg6
F8.0
sb(dp262
I00
F-6037.415351916004
sI01
F658.4384614727838
ss(i__main__
State
p263
(dp264
g3
F-8.0
sg4
F3.0
sg5
F-2.0
sg6
F-5.0
sb(dp265
I00
F-3966.973721020355
sI01
F604.3799737331572
ss(i__main__
State
p266
(dp267
g3
F-2.0
sg4
F7.0
sg5
F4.0
sg6
F1.0
sb(dp268
I00
F-1576.1017817198574
sI01
F8876.566240368174
ss(i__main__
State
p269
(dp270
g3
F0.0
sg4
F6.0
sg5
F6.0
sg6
F3.0
sb(dp271
I00
F-309.53168701011407
sI01
F7879.89428897152
ss(i__main__
State
p272
(dp273
g3
F-4.0
sg4
F8.0
sg5
F2.0
sg6
F-1.0
sb(dp274
I00
F-11208.37250618293
sI01
F-4.1514798820016505
ss(i__main__
State
p275
(dp276
g3
F-8.0
sg4
F1.0
sg5
F-2.0
sg6
F-5.0
sb(dp277
I00
F-5660.138446347503
sI01
F278.35327410443085
ss(i__main__
State
p278
(dp279
g3
F-3.0
sg4
F1.0
sg5
F3.0
sg6
F0.0
sb(dp280
I00
F-8561.919620603494
sI01
F675.9601619431091
ss(i__main__
State
p281
(dp282
g3
F7.0
sg4
F7.0
sg5
F-4.0
sg6
F-7.0
sb(dp283
I00
F-1799.0793753188857
sI01
F9571.70826171945
ss(i__main__
State
p284
(dp285
g3
F-3.0
sg4
F7.0
sg5
F3.0
sg6
F0.0
sb(dp286
I00
F2665.9066093902056
sI01
F9547.129488288207
ss(i__main__
State
p287
(dp288
g3
F4.0
sg4
F5.0
sg5
F-7.0
sg6
F7.0
sb(dp289
I00
F-3719.395168687079
sI01
F6829.9367510042985
ss(i__main__
State
p290
(dp291
g3
F4.0
sg4
F0.0
sg5
F-7.0
sg6
F7.0
sb(dp292
I00
F-3053.075660870572
sI01
F85.72688248211114
ss(i__main__
State
p293
(dp294
g3
F6.0
sg4
F5.0
sg5
F-5.0
sg6
F-8.0
sb(dp295
I00
F-765.0903741541007
sI01
F3720.093840833257
ss(i__main__
State
p296
(dp297
g3
F-5.0
sg4
F4.0
sg5
F1.0
sg6
F-2.0
sb(dp298
I00
F-4858.838483547741
sI01
F2478.666849370995
ss(i__main__
State
p299
(dp300
g3
F-3.0
sg4
F8.0
sg5
F3.0
sg6
F0.0
sb(dp301
I00
F-9927.937227092498
sI01
F44.430146675395356
ss(i__main__
State
p302
(dp303
g3
F0.0
sg4
F8.0
sg5
F6.0
sg6
F3.0
sb(dp304
I00
F-10853.97780388391
sI01
F2.804211547132237
ss(i__main__
State
p305
(dp306
g3
F-5.0
sg4
F0.0
sg5
F1.0
sg6
F-2.0
sb(dp307
I00
F-9807.063857252067
sI01
F172.0275407244377
ss(i__main__
State
p308
(dp309
g3
F-1.0
sg4
F2.0
sg5
F5.0
sg6
F2.0
sb(dp310
I00
F-6646.155669436339
sI01
F607.6439104305969
ss(i__main__
State
p311
(dp312
g3
F5.0
sg4
F3.0
sg5
F-6.0
sg6
F8.0
sb(dp313
I00
F-5937.248480326261
sI01
F1074.1846643446418
ss(i__main__
State
p314
(dp315
g3
F-1.0
sg4
F6.0
sg5
F5.0
sg6
F2.0
sb(dp316
I00
F854.2951846296721
sI01
F8361.421517604002
ss(i__main__
State
p317
(dp318
g3
F-7.0
sg4
F4.0
sg5
F-1.0
sg6
F-4.0
sb(dp319
I00
F-818.5961756774944
sI01
F1384.8872609515695
ss(i__main__
State
p320
(dp321
g3
F-4.0
sg4
F1.0
sg5
F2.0
sg6
F-1.0
sb(dp322
I00
F-8361.582939018286
sI01
F468.0152549969371
ss(i__main__
State
p323
(dp324
g3
F1.0
sg4
F0.0
sg5
F7.0
sg6
F4.0
sb(dp325
I00
F-12367.718592109386
sI01
F7.783779023867698
ss(i__main__
State
p326
(dp327
g3
F8.0
sg4
F5.0
sg5
F-3.0
sg6
F-6.0
sb(dp328
I00
F-2240.312628004628
sI01
F2004.6718093757902
ss(i__main__
State
p329
(dp330
g3
F3.0
sg4
F0.0
sg5
F-8.0
sg6
F6.0
sb(dp331
I00
F-6573.4932194477515
sI01
F89.74936047235015
ss(i__main__
State
p332
(dp333
g3
F7.0
sg4
F1.0
sg5
F-4.0
sg6
F-7.0
sb(dp334
I00
F-7263.153023567233
sI01
F47.100410200827895
ss(i__main__
State
p335
(dp336
g3
F4.0
sg4
F2.0
sg5
F-7.0
sg6
F7.0
sb(dp337
I00
F-11534.738097492238
sI01
F583.0574010817816
ss(i__main__
State
p338
(dp339
g3
F-6.0
sg4
F4.0
sg5
F0.0
sg6
F-3.0
sb(dp340
I00
F-6679.252873778977
sI01
F3081.253660696026
ss(i__main__
State
p341
(dp342
g3
F-4.0
sg4
F5.0
sg5
F2.0
sg6
F-1.0
sb(dp343
I00
F-2765.554829561333
sI01
F4451.650258108749
ss(i__main__
State
p344
(dp345
g3
F-3.0
sg4
F4.0
sg5
F3.0
sg6
F0.0
sb(dp346
I00
F-2091.1669288490916
sI01
F2355.8318774714107
ss(i__main__
State
p347
(dp348
g3
F0.0
sg4
F3.0
sg5
F6.0
sg6
F3.0
sb(dp349
I00
F-3239.9237376513174
sI01
F1643.3173692785174
ss(i__main__
State
p350
(dp351
g3
F4.0
sg4
F3.0
sg5
F-7.0
sg6
F7.0
sb(dp352
I00
F-1666.1301961605466
sI01
F842.7797774499136
ss(i__main__
State
p353
(dp354
g3
F-4.0
sg4
F6.0
sg5
F2.0
sg6
F-1.0
sb(dp355
I00
F458.76914252623015
sI01
F7918.890588170587
ss(i__main__
State
p356
(dp357
g3
F-6.0
sg4
F2.0
sg5
F0.0
sg6
F-3.0
sb(dp358
I00
F-3119.7880503782235
sI01
F365.97747468094457
ss(i__main__
State
p359
(dp360
g3
F-7.0
sg4
F6.0
sg5
F-1.0
sg6
F-4.0
sb(dp361
I00
F350.04804679034754
sI01
F8277.97454028211
ss(i__main__
State
p362
(dp363
g3
F6.0
sg4
F2.0
sg5
F-5.0
sg6
F-8.0
sb(dp364
I00
F-4717.071763573434
sI01
F683.9279367510906
ss(i__main__
State
p365
(dp366
g3
F3.0
sg4
F5.0
sg5
F-8.0
sg6
F6.0
sb(dp367
I00
F-1882.07428331026
sI01
F4895.512715375132
ss(i__main__
State
p368
(dp369
g3
F-8.0
sg4
F8.0
sg5
F-2.0
sg6
F-5.0
sb(dp370
I00
F-17926.863391162904
sI01
F46.41197756801227
ss(i__main__
State
p371
(dp372
g3
F-2.0
sg4
F0.0
sg5
F4.0
sg6
F1.0
sb(dp373
I00
F-12681.945099723038
sI01
F73.11502734290363
ss(i__main__
State
p374
(dp375
g3
F2.0
sg4
F2.0
sg5
F8.0
sg6
F5.0
sb(dp376
I00
F-11178.89741790204
sI01
F655.077334187481
ss(i__main__
State
p377
(dp378
g3
F5.0
sg4
F1.0
sg5
F-6.0
sg6
F8.0
sb(dp379
I00
F-13726.599559442484
sI01
F262.4441568184021
ss(i__main__
State
p380
(dp381
g3
F-2.0
sg4
F4.0
sg5
F4.0
sg6
F1.0
sb(dp382
I00
F-6904.667731599077
sI01
F2856.2313506484434
ss(i__main__
State
p383
(dp384
g3
F-7.0
sg4
F2.0
sg5
F-1.0
sg6
F-4.0
sb(dp385
I00
F-11146.498977527583
sI01
F639.2630712308669
ss(i__main__
State
p386
(dp387
g3
F-3.0
sg4
F6.0
sg5
F3.0
sg6
F0.0
sb(dp388
I00
F-730.0638527899597
sI01
F6011.8094976249895
ss(i__main__
State
p389
(dp390
g3
F2.0
sg4
F4.0
sg5
F8.0
sg6
F5.0
sb(dp391
I00
F-1956.377402425589
sI01
F3208.2552785556927
ss(i__main__
State
p392
(dp393
g3
F-2.0
sg4
F3.0
sg5
F4.0
sg6
F1.0
sb(dp394
I00
F-9731.581373337944
sI01
F1066.093253019432
ss(i__main__
State
p395
(dp396
g3
F6.0
sg4
F4.0
sg5
F-5.0
sg6
F-8.0
sb(dp397
I00
F-6139.443204042353
sI01
F2156.6624928121946
ss(i__main__
State
p398
(dp399
g3
F-4.0
sg4
F0.0
sg5
F2.0
sg6
F-1.0
sb(dp400
I00
F-7313.62441472805
sI01
F266.3008667011633
ss(i__main__
State
p401
(dp402
g3
F3.0
sg4
F1.0
sg5
F-8.0
sg6
F6.0
sb(dp403
I00
F-8466.082020590897
sI01
F279.25402580973827
ss(i__main__
State
p404
(dp405
g3
F-2.0
sg4
F6.0
sg5
F4.0
sg6
F1.0
sb(dp406
I00
F-461.52556382149754
sI01
F2834.2986193106817
ss(i__main__
State
p407
(dp408
g3
F-6.0
sg4
F1.0
sg5
F0.0
sg6
F-3.0
sb(dp409
I00
F-2731.47865527961
sI01
F85.5791976600629
ss(i__main__
State
p410
(dp411
g3
F2.0
sg4
F1.0
sg5
F8.0
sg6
F5.0
sb(dp412
I00
F-9102.655972786151
sI01
F59.80170061267387
ss(i__main__
State
p413
(dp414
g3
F4.0
sg4
F8.0
sg5
F-7.0
sg6
F7.0
sb(dp415
I00
F-8802.73401577766
sI01
F12.338038651342831
ss(i__main__
State
p416
(dp417
g3
F7.0
sg4
F2.0
sg5
F-4.0
sg6
F-7.0
sb(dp418
I00
F-10327.162956248007
sI01
F428.15226645067537
ss(i__main__
State
p419
(dp420
g3
F2.0
sg4
F3.0
sg5
F8.0
sg6
F5.0
sb(dp421
I00
F-2732.6971305206407
sI01
F2340.772857121281
ss(i__main__
State
p422
(dp423
g3
F0.0
sg4
F4.0
sg5
F6.0
sg6
F3.0
sb(dp424
I00
F-2726.5388173212727
sI01
F5063.634649255574
ss(i__main__
State
p425
(dp426
g3
F-1.0
sg4
F8.0
sg5
F5.0
sg6
F2.0
sb(dp427
I00
F-6041.479659910054
sI01
F34.37471798649449
ss(i__main__
State
p428
(dp429
g3
F8.0
sg4
F6.0
sg5
F-3.0
sg6
F-6.0
sb(dp430
I00
F267.626437244672
sI01
F5659.742775136164
ss(i__main__
State
p431
(dp432
g3
F5.0
sg4
F7.0
sg5
F-6.0
sg6
F8.0
sb(dp433
I00
F-400.84910299158264
sI01
F9647.60603671078
ss(i__main__
State
p434
(dp435
g3
F-7.0
sg4
F7.0
sg5
F-1.0
sg6
F-4.0
sb(dp436
I00
F-2956.229073475438
sI01
F542.7587681377257
ss(i__main__
State
p437
(dp438
g3
F6.0
sg4
F1.0
sg5
F-5.0
sg6
F-8.0
sb(dp439
I00
F-12215.34977963403
sI01
F187.4223900675664
ss(i__main__
State
p440
(dp441
g3
F-5.0
sg4
F1.0
sg5
F1.0
sg6
F-2.0
sb(dp442
I00
F-5640.760722895098
sI01
F271.0446258485675
ss(i__main__
State
p443
(dp444
g3
F2.0
sg4
F6.0
sg5
F8.0
sg6
F5.0
sb(dp445
I00
F-132.35699999999997
sI01
F8718.283914468713
ss(i__main__
State
p446
(dp447
g3
F4.0
sg4
F6.0
sg5
F-7.0
sg6
F7.0
sb(dp448
I00
F1602.5721336935235
sI01
F7692.120824105414
ss(i__main__
State
p449
(dp450
g3
F-3.0
sg4
F5.0
sg5
F3.0
sg6
F0.0
sb(dp451
I00
F-2917.813761810948
sI01
F2258.23101914547
ss(i__main__
State
p452
(dp453
g3
F1.0
sg4
F6.0
sg5
F7.0
sg6
F4.0
sb(dp454
I00
F889.2512937647385
sI01
F6602.549604043317
ss(i__main__
State
p455
(dp456
g3
F8.0
sg4
F0.0
sg5
F-3.0
sg6
F-6.0
sb(dp457
I00
F-11461.788225381322
sI01
F86.78465444769694
ss(i__main__
State
p458
(dp459
g3
F3.0
sg4
F8.0
sg5
F-8.0
sg6
F6.0
sb(dp460
I00
F-11094.186657114127
sI01
F39.57373625199865
ss(i__main__
State
p461
(dp462
g3
F-7.0
sg4
F0.0
sg5
F-1.0
sg6
F-4.0
sb(dp463
I00
I56
sI01
F48.17854729968629
ss(i__main__
State
p464
(dp465
g3
F-4.0
sg4
F2.0
sg5
F2.0
sg6
F-1.0
sb(dp466
I00
F-4893.191343803474
sI01
F403.79008841788885
ss.