(dp0
(i__main__
State
p1
(dp2
S'y1'
p3
F8.0
sS'x'
p4
F3.0
sS'y3'
p5
F-3.0
sS'y2'
p6
F-6.0
sb(dp7
I00
F28019.751842820042
sI01
F40356.09075687523
ss(i__main__
State
p8
(dp9
g3
F4.0
sg4
F7.0
sg5
F-7.0
sg6
F7.0
sb(dp10
I00
F32349.61625610103
sI01
F45888.24876824445
ss(i__main__
State
p11
(dp12
g3
F-7.0
sg4
F5.0
sg5
F-1.0
sg6
F-4.0
sb(dp13
I00
F32693.021873913433
sI01
F43018.906627069744
ss(i__main__
State
p14
(dp15
g3
F0.0
sg4
F8.0
sg5
F6.0
sg6
F3.0
sb(dp16
I00
F14374.993069966016
sI01
F37744.11059648615
ss(i__main__
State
p17
(dp18
g3
F-1.0
sg4
F1.0
sg5
F5.0
sg6
F2.0
sb(dp19
I00
F22191.20561294606
sI01
F40330.91693238714
ss(i__main__
State
p20
(dp21
g3
F7.0
sg4
F6.0
sg5
F-4.0
sg6
F-7.0
sb(dp22
I00
F38387.405571826734
sI01
F45752.50043293882
ss(i__main__
State
p23
(dp24
g3
F3.0
sg4
F7.0
sg5
F-8.0
sg6
F6.0
sb(dp25
I00
F37007.02697649491
sI01
F46456.726034920874
ss(i__main__
State
p26
(dp27
g3
F-1.0
sg4
F3.0
sg5
F5.0
sg6
F2.0
sb(dp28
I00
F27588.631310645385
sI01
F42405.104548532516
ss(i__main__
State
p29
(dp30
g3
F1.0
sg4
F4.0
sg5
F7.0
sg6
F4.0
sb(dp31
I00
F30518.489775531038
sI01
F43209.30539367662
ss(i__main__
State
p32
(dp33
g3
F1.0
sg4
F2.0
sg5
F7.0
sg6
F4.0
sb(dp34
I00
F25999.86628930805
sI01
F40450.544123280495
ss(i__main__
State
p35
(dp36
g3
F2.0
sg4
F7.0
sg5
F8.0
sg6
F5.0
sb(dp37
I00
F40812.94614037393
sI01
F47492.62499204349
ss(i__main__
State
p38
(dp39
g3
F-6.0
sg4
F5.0
sg5
F0.0
sg6
F-3.0
sb(dp40
I00
F28984.90607948423
sI01
F39337.87175466532
ss(i__main__
State
p41
(dp42
g3
F-2.0
sg4
F8.0
sg5
F4.0
sg6
F1.0
sb(dp43
I00
F15201.547549321282
sI01
F37983.366252165695
ss(i__main__
State
p44
(dp45
g3
F6.0
sg4
F0.0
sg5
F-5.0
sg6
F-8.0
sb(dp46
I00
F16192.350562135638
sI01
F37254.31354299746
ss(i__main__
State
p47
(dp48
g3
F0.0
sg4
F1.0
sg5
F6.0
sg6
F3.0
sb(dp49
I00
F22437.79660051481
sI01
F39747.58280655109
ss(i__main__
State
p50
(dp51
g3
F-4.0
sg4
F7.0
sg5
F2.0
sg6
F-1.0
sb(dp52
I00
F35316.334365150055
sI01
F38548.049760582464
ss(i__main__
State
p53
(dp54
g3
F-3.0
sg4
F2.0
sg5
F3.0
sg6
F0.0
sb(dp55
I00
F24655.931930323506
sI01
F41897.888357780466
ss(i__main__
State
p56
(dp57
g3
F5.0
sg4
F0.0
sg5
F-6.0
sg6
F8.0
sb(dp58
I00
F18906.301638002995
sI01
F38275.33000389335
ss(i__main__
State
p59
(dp60
g3
F3.0
sg4
F2.0
sg5
F-8.0
sg6
F6.0
sb(dp61
I00
F24611.637811206376
sI01
F41173.438865389595
ss(i__main__
State
p62
(dp63
g3
F3.0
sg4
F3.0
sg5
F-8.0
sg6
F6.0
sb(dp64
I00
F25600.84716169277
sI01
F42152.56923821381
ss(i__main__
State
p65
(dp66
g3
F-5.0
sg4
F8.0
sg5
F1.0
sg6
F-2.0
sb(dp67
I00
F15304.636168435096
sI01
F37977.66087017529
ss(i__main__
State
p68
(dp69
g3
F2.0
sg4
F0.0
sg5
F8.0
sg6
F5.0
sb(dp70
I00
F15693.717064786926
sI01
F36606.57363073267
ss(i__main__
State
p71
(dp72
g3
F4.0
sg4
F4.0
sg5
F-7.0
sg6
F7.0
sb(dp73
I00
F27947.055154226797
sI01
F42617.92974431459
ss(i__main__
State
p74
(dp75
g3
F-2.0
sg4
F2.0
sg5
F4.0
sg6
F1.0
sb(dp76
I00
F24539.04364212109
sI01
F41386.10458250842
ss(i__main__
State
p77
(dp78
g3
F-4.0
sg4
F2.0
sg5
F2.0
sg6
F-1.0
sb(dp79
I00
F23824.535912320676
sI01
F41680.399277230936
ss(i__main__
State
p80
(dp81
g3
F-6.0
sg4
F3.0
sg5
F0.0
sg6
F-3.0
sb(dp82
I00
F25143.237434895902
sI01
F38106.70763755133
ss(i__main__
State
p83
(dp84
g3
F2.0
sg4
F8.0
sg5
F8.0
sg6
F5.0
sb(dp85
I00
F15588.640391134111
sI01
F36579.71089668552
ss(i__main__
State
p86
(dp87
g3
F-7.0
sg4
F3.0
sg5
F-1.0
sg6
F-4.0
sb(dp88
I00
F27920.943315999648
sI01
F41261.25378242598
ss(i__main__
State
p89
(dp90
g3
F5.0
sg4
F6.0
sg5
F-6.0
sg6
F8.0
sb(dp91
I00
F35449.84582987888
sI01
F43836.33455330416
ss(i__main__
State
p92
(dp93
g3
F8.0
sg4
F1.0
sg5
F-3.0
sg6
F-6.0
sb(dp94
I00
F20008.458837068894
sI01
F38529.6581332459
ss(i__main__
State
p95
(dp96
g3
F-5.0
sg4
F5.0
sg5
F1.0
sg6
F-2.0
sb(dp97
I00
F31383.21511849134
sI01
F44587.949669145
ss(i__main__
State
p98
(dp99
g3
F-2.0
sg4
F1.0
sg5
F4.0
sg6
F1.0
sb(dp100
I00
F23261.583168510027
sI01
F40587.584313269115
ss(i__main__
State
p101
(dp102
g3
F7.0
sg4
F5.0
sg5
F-4.0
sg6
F-7.0
sb(dp103
I00
F34224.97243216599
sI01
F43430.348239818086
ss(i__main__
State
p104
(dp105
g3
F5.0
sg4
F8.0
sg5
F-6.0
sg6
F8.0
sb(dp106
I00
F14084.947338014903
sI01
F36582.75652905687
ss(i__main__
State
p107
(dp108
g3
F3.0
sg4
F6.0
sg5
F-8.0
sg6
F6.0
sb(dp109
I00
F37158.125146009654
sI01
F45083.96206513837
ss(i__main__
State
p110
(dp111
g3
F3.0
sg4
F1.0
sg5
F-8.0
sg6
F6.0
sb(dp112
I00
F19899.58264709842
sI01
F37909.474771971756
ss(i__main__
State
p113
(dp114
g3
F8.0
sg4
F4.0
sg5
F-3.0
sg6
F-6.0
sb(dp115
I00
F30941.9363126843
sI01
F43348.110936767436
ss(i__main__
State
p116
(dp117
g3
F-7.0
sg4
F1.0
sg5
F-1.0
sg6
F-4.0
sb(dp118
I00
F20815.088063283514
sI01
F37492.94275369347
ss(i__main__
State
p119
(dp120
g3
F8.0
sg4
F8.0
sg5
F-3.0
sg6
F-6.0
sb(dp121
I00
F13576.577353384884
sI01
F35826.100215542065
ss(i__main__
State
p122
(dp123
g3
F7.0
sg4
F8.0
sg5
F-4.0
sg6
F-7.0
sb(dp124
I00
F15152.442120789403
sI01
F35390.649295817835
ss(i__main__
State
p125
(dp126
g3
F-7.0
sg4
F8.0
sg5
F-1.0
sg6
F-4.0
sb(dp127
I00
F15843.089560834584
sI01
F38602.061506072096
ss(i__main__
State
p128
(dp129
g3
F-6.0
sg4
F8.0
sg5
F0.0
sg6
F-3.0
sb(dp130
I00
F19158.133685509616
sI01
F38538.86672798979
ss(i__main__
State
p131
(dp132
g3
F4.0
sg4
F1.0
sg5
F-7.0
sg6
F7.0
sb(dp133
I00
F19862.717859198765
sI01
F38099.62635598314
ss(i__main__
State
p134
(dp135
g3
F-5.0
sg4
F3.0
sg5
F1.0
sg6
F-2.0
sb(dp136
I00
F23698.32290048641
sI01
F37352.20887092143
ss(i__main__
State
p137
(dp138
g3
F6.0
sg4
F6.0
sg5
F-5.0
sg6
F-8.0
sb(dp139
I00
F35613.449969347756
sI01
F44183.18693840425
ss(i__main__
State
p140
(dp141
g3
F-8.0
sg4
F6.0
sg5
F-2.0
sg6
F-5.0
sb(dp142
I00
F35812.421685017725
sI01
F40440.25331265225
ss(i__main__
State
p143
(dp144
g3
F6.0
sg4
F7.0
sg5
F-5.0
sg6
F-8.0
sb(dp145
I00
F36806.6436968815
sI01
F44596.07079907469
ss(i__main__
State
p146
(dp147
g3
F1.0
sg4
F3.0
sg5
F7.0
sg6
F4.0
sb(dp148
I00
F29511.608795393695
sI01
F42027.96389421468
ss(i__main__
State
p149
(dp150
g3
F1.0
sg4
F1.0
sg5
F7.0
sg6
F4.0
sb(dp151
I00
F19932.359741437373
sI01
F40056.095785508835
ss(i__main__
State
p152
(dp153
g3
F2.0
sg4
F5.0
sg5
F8.0
sg6
F5.0
sb(dp154
I00
F33459.07641946916
sI01
F44118.2919348574
ss(i__main__
State
p155
(dp156
g3
F0.0
sg4
F2.0
sg5
F6.0
sg6
F3.0
sb(dp157
I00
F23416.27447094974
sI01
F41158.01254908233
ss(i__main__
State
p158
(dp159
g3
F-1.0
sg4
F4.0
sg5
F5.0
sg6
F2.0
sb(dp160
I00
F31617.818806213305
sI01
F44226.7375937505
ss(i__main__
State
p161
(dp162
g3
F-5.0
sg4
F2.0
sg5
F1.0
sg6
F-2.0
sb(dp163
I00
F25494.206149324706
sI01
F41194.021770798645
ss(i__main__
State
p164
(dp165
g3
F-1.0
sg4
F5.0
sg5
F5.0
sg6
F2.0
sb(dp166
I00
F33496.51992828837
sI01
F44296.72586649772
ss(i__main__
State
p167
(dp168
g3
F6.0
sg4
F3.0
sg5
F-5.0
sg6
F-8.0
sb(dp169
I00
F24131.439756556756
sI01
F38265.31107057951
ss(i__main__
State
p170
(dp171
g3
F-3.0
sg4
F0.0
sg5
F3.0
sg6
F0.0
sb(dp172
I00
F18047.543264071533
sI01
F39511.535753907716
ss(i__main__
State
p173
(dp174
g3
F-6.0
sg4
F7.0
sg5
F0.0
sg6
F-3.0
sb(dp175
I00
F36354.21878097258
sI01
F46684.80755880832
ss(i__main__
State
p176
(dp177
g3
F3.0
sg4
F4.0
sg5
F-8.0
sg6
F6.0
sb(dp178
I00
F30357.752863759382
sI01
F41843.000171106214
ss(i__main__
State
p179
(dp180
g3
F8.0
sg4
F2.0
sg5
F-3.0
sg6
F-6.0
sb(dp181
I00
F22981.799165047454
sI01
F38314.0176133017
ss(i__main__
State
p182
(dp183
g3
F1.0
sg4
F7.0
sg5
F7.0
sg6
F4.0
sb(dp184
I00
F39835.09980436777
sI01
F45953.64529700472
ss(i__main__
State
p185
(dp186
g3
F1.0
sg4
F5.0
sg5
F7.0
sg6
F4.0
sb(dp187
I00
F29528.36051022776
sI01
F44271.12420783875
ss(i__main__
State
p188
(dp189
g3
F-5.0
sg4
F6.0
sg5
F1.0
sg6
F-2.0
sb(dp190
I00
F33779.65687770931
sI01
F38715.59155311798
ss(i__main__
State
p191
(dp192
g3
F-8.0
sg4
F4.0
sg5
F-2.0
sg6
F-5.0
sb(dp193
I00
F27538.504609032858
sI01
F41727.891743941465
ss(i__main__
State
p194
(dp195
g3
F5.0
sg4
F5.0
sg5
F-6.0
sg6
F8.0
sb(dp196
I00
F33664.79362155038
sI01
F43452.44853666013
ss(i__main__
State
p197
(dp198
g3
F5.0
sg4
F4.0
sg5
F-6.0
sg6
F8.0
sb(dp199
I00
F32141.405833133012
sI01
F43779.15962332645
ss(i__main__
State
p200
(dp201
g3
F-2.0
sg4
F5.0
sg5
F4.0
sg6
F1.0
sb(dp202
I00
F32032.47631505763
sI01
F43356.313852573934
ss(i__main__
State
p203
(dp204
g3
F-8.0
sg4
F2.0
sg5
F-2.0
sg6
F-5.0
sb(dp205
I00
F23157.490065170707
sI01
F39726.90414304589
ss(i__main__
State
p206
(dp207
g3
F-8.0
sg4
F7.0
sg5
F-2.0
sg6
F-5.0
sb(dp208
I00
F29895.072467955688
sI01
F46947.82318363608
ss(i__main__
State
p209
(dp210
g3
F1.0
sg4
F8.0
sg5
F7.0
sg6
F4.0
sb(dp211
I00
F12060.242501067307
sI01
F35697.30322241668
ss(i__main__
State
p212
(dp213
g3
F0.0
sg4
F5.0
sg5
F6.0
sg6
F3.0
sb(dp214
I00
F31879.688174592073
sI01
F45675.292749402564
ss(i__main__
State
p215
(dp216
g3
F-6.0
sg4
F2.0
sg5
F0.0
sg6
F-3.0
sb(dp217
I00
F22603.152310036283
sI01
F37623.693581691616
ss(i__main__
State
p218
(dp219
g3
F-8.0
sg4
F5.0
sg5
F-2.0
sg6
F-5.0
sb(dp220
I00
F34571.00934348361
sI01
F44477.22522896768
ss(i__main__
State
p221
(dp222
g3
F-3.0
sg4
F6.0
sg5
F3.0
sg6
F0.0
sb(dp223
I00
F37040.67312251957
sI01
F43318.132389707804
ss(i__main__
State
p224
(dp225
g3
F7.0
sg4
F3.0
sg5
F-4.0
sg6
F-7.0
sb(dp226
I00
F29070.191798796663
sI01
F42006.238751246856
ss(i__main__
State
p227
(dp228
g3
F-5.0
sg4
F7.0
sg5
F1.0
sg6
F-2.0
sb(dp229
I00
F31250.81522988024
sI01
F46796.60954934634
ss(i__main__
State
p230
(dp231
g3
F-4.0
sg4
F4.0
sg5
F2.0
sg6
F-1.0
sb(dp232
I00
F22471.66303836137
sI01
F38615.2266112636
ss(i__main__
State
p233
(dp234
g3
F6.0
sg4
F5.0
sg5
F-5.0
sg6
F-8.0
sb(dp235
I00
F35739.99952042928
sI01
F44829.38208807788
ss(i__main__
State
p236
(dp237
g3
F7.0
sg4
F0.0
sg5
F-4.0
sg6
F-7.0
sb(dp238
I00
F16841.005732121954
sI01
F37323.201232349056
ss(i__main__
State
p239
(dp240
g3
F-6.0
sg4
F6.0
sg5
F0.0
sg6
F-3.0
sb(dp241
I00
F35832.912513042786
sI01
F44043.70936082819
ss(i__main__
State
p242
(dp243
g3
F-6.0
sg4
F0.0
sg5
F0.0
sg6
F-3.0
sb(dp244
I00
F17245.573837471864
sI01
F39555.60218871651
ss(i__main__
State
p245
(dp246
g3
F-8.0
sg4
F0.0
sg5
F-2.0
sg6
F-5.0
sb(dp247
I00
F17620.840016924856
sI01
F36543.00392528844
ss(i__main__
State
p248
(dp249
g3
F6.0
sg4
F8.0
sg5
F-5.0
sg6
F-8.0
sb(dp250
I00
F15066.18169802032
sI01
F36555.55716396043
ss(i__main__
State
p251
(dp252
g3
F-3.0
sg4
F3.0
sg5
F3.0
sg6
F0.0
sb(dp253
I00
F28565.013135978093
sI01
F42817.60501865866
ss(i__main__
State
p254
(dp255
g3
F-1.0
sg4
F8.0
sg5
F5.0
sg6
F2.0
sb(dp256
I00
F13176.864271676037
sI01
F37786.04656597128
ss(i__main__
State
p257
(dp258
g3
F8.0
sg4
F0.0
sg5
F-8.0
sg6
F0.0
sb(dp259
I00
F-4797.187
sI01
I54
ss(i__main__
State
p260
(dp261
g3
F5.0
sg4
F2.0
sg5
F-6.0
sg6
F8.0
sb(dp262
I00
F21075.167610208555
sI01
F38480.457141238025
ss(i__main__
State
p263
(dp264
g3
F-8.0
sg4
F3.0
sg5
F-2.0
sg6
F-5.0
sb(dp265
I00
F26519.679778280115
sI01
F38748.022994087114
ss(i__main__
State
p266
(dp267
g3
F-2.0
sg4
F7.0
sg5
F4.0
sg6
F1.0
sb(dp268
I00
F29161.73924306035
sI01
F43943.273449153174
ss(i__main__
State
p269
(dp270
g3
F0.0
sg4
F6.0
sg5
F6.0
sg6
F3.0
sb(dp271
I00
F37950.73324204575
sI01
F45238.40416998828
ss(i__main__
State
p272
(dp273
g3
F-4.0
sg4
F8.0
sg5
F2.0
sg6
F-1.0
sb(dp274
I00
F17037.348264703527
sI01
F38609.295428872094
ss(i__main__
State
p275
(dp276
g3
F-8.0
sg4
F1.0
sg5
F-2.0
sg6
F-5.0
sb(dp277
I00
F18822.243259153245
sI01
F36915.282328635236
ss(i__main__
State
p278
(dp279
g3
F4.0
sg4
F5.0
sg5
F-7.0
sg6
F7.0
sb(dp280
I00
F31458.67422627132
sI01
F42876.585487628385
ss(i__main__
State
p281
(dp282
g3
F7.0
sg4
F7.0
sg5
F-4.0
sg6
F-7.0
sb(dp283
I00
F35438.507025332234
sI01
F45399.167721530466
ss(i__main__
State
p284
(dp285
g3
F-3.0
sg4
F7.0
sg5
F3.0
sg6
F0.0
sb(dp286
I00
F37027.89074746324
sI01
F47067.30241164621
ss(i__main__
State
p287
(dp288
g3
F-3.0
sg4
F1.0
sg5
F3.0
sg6
F0.0
sb(dp289
I00
F22141.54515155571
sI01
F40224.28698394898
ss(i__main__
State
p290
(dp291
g3
F7.0
sg4
F4.0
sg5
F-4.0
sg6
F-7.0
sb(dp292
I00
F25673.019719200136
sI01
F38754.713502019025
ss(i__main__
State
p293
(dp294
g3
F-5.0
sg4
F4.0
sg5
F1.0
sg6
F-2.0
sb(dp295
I00
F28746.23235566336
sI01
F39376.64281231477
ss(i__main__
State
p296
(dp297
g3
F-3.0
sg4
F8.0
sg5
F3.0
sg6
F0.0
sb(dp298
I00
F18378.422610260965
sI01
F38754.410684259805
ss(i__main__
State
p299
(dp300
g3
F2.0
sg4
F6.0
sg5
F8.0
sg6
F5.0
sb(dp301
I00
F35948.00635737461
sI01
F45260.36235067054
ss(i__main__
State
p302
(dp303
g3
F-5.0
sg4
F0.0
sg5
F1.0
sg6
F-2.0
sb(dp304
I00
F16106.272815155899
sI01
F39533.54924381955
ss(i__main__
State
p305
(dp306
g3
F-1.0
sg4
F2.0
sg5
F5.0
sg6
F2.0
sb(dp307
I00
F25282.250819489178
sI01
F41421.1773107248
ss(i__main__
State
p308
(dp309
g3
F5.0
sg4
F3.0
sg5
F-6.0
sg6
F8.0
sb(dp310
I00
F23527.82499772826
sI01
F39981.78552851354
ss(i__main__
State
p311
(dp312
g3
F-1.0
sg4
F6.0
sg5
F5.0
sg6
F2.0
sb(dp313
I00
F34519.8736176139
sI01
F43943.610143672915
ss(i__main__
State
p314
(dp315
g3
F-7.0
sg4
F4.0
sg5
F-1.0
sg6
F-4.0
sb(dp316
I00
F28311.938100069645
sI01
F39776.85811752054
ss(i__main__
State
p317
(dp318
g3
F-4.0
sg4
F1.0
sg5
F2.0
sg6
F-1.0
sb(dp319
I00
F21128.057757289094
sI01
F40732.94110289477
ss(i__main__
State
p320
(dp321
g3
F1.0
sg4
F0.0
sg5
F7.0
sg6
F4.0
sb(dp322
I00
F15358.709226443832
sI01
F38654.45638883293
ss(i__main__
State
p323
(dp324
g3
F8.0
sg4
F5.0
sg5
F-3.0
sg6
F-6.0
sb(dp325
I00
F28578.903601892176
sI01
F40067.308425825446
ss(i__main__
State
p326
(dp327
g3
F3.0
sg4
F0.0
sg5
F-8.0
sg6
F6.0
sb(dp328
I00
F15077.409810254112
sI01
F37116.38087235043
ss(i__main__
State
p329
(dp330
g3
F7.0
sg4
F1.0
sg5
F-4.0
sg6
F-7.0
sb(dp331
I00
F20273.080193342837
sI01
F37732.785564141916
ss(i__main__
State
p332
(dp333
g3
F4.0
sg4
F2.0
sg5
F-7.0
sg6
F7.0
sb(dp334
I00
F21652.929190253388
sI01
F38789.77020959344
ss(i__main__
State
p335
(dp336
g3
F-6.0
sg4
F4.0
sg5
F0.0
sg6
F-3.0
sb(dp337
I00
F31816.50203773
sI01
F42760.86601716606
ss(i__main__
State
p338
(dp339
g3
F-4.0
sg4
F5.0
sg5
F2.0
sg6
F-1.0
sb(dp340
I00
F31434.15187644292
sI01
F41450.00439534884
ss(i__main__
State
p341
(dp342
g3
F-3.0
sg4
F4.0
sg5
F3.0
sg6
F0.0
sb(dp343
I00
F32662.795617109678
sI01
F42671.57478172058
ss(i__main__
State
p344
(dp345
g3
F0.0
sg4
F3.0
sg5
F6.0
sg6
F3.0
sb(dp346
I00
F27301.081263344833
sI01
F42202.95827267627
ss(i__main__
State
p347
(dp348
g3
F4.0
sg4
F3.0
sg5
F-7.0
sg6
F7.0
sb(dp349
I00
F28049.666477541155
sI01
F42410.60230725744
ss(i__main__
State
p350
(dp351
g3
F-4.0
sg4
F6.0
sg5
F2.0
sg6
F-1.0
sb(dp352
I00
F34122.222414642056
sI01
F45997.54885047904
ss(i__main__
State
p353
(dp354
g3
F-4.0
sg4
F3.0
sg5
F2.0
sg6
F-1.0
sb(dp355
I00
F29210.850335442752
sI01
F42292.35620769607
ss(i__main__
State
p356
(dp357
g3
F-7.0
sg4
F6.0
sg5
F-1.0
sg6
F-4.0
sb(dp358
I00
F39023.39187636292
sI01
F45760.551987069004
ss(i__main__
State
p359
(dp360
g3
F6.0
sg4
F2.0
sg5
F-5.0
sg6
F-8.0
sb(dp361
I00
F25685.062239067072
sI01
F40840.449065324
ss(i__main__
State
p362
(dp363
g3
F3.0
sg4
F5.0
sg5
F-8.0
sg6
F6.0
sb(dp364
I00
F34724.43285543301
sI01
F43742.46910576273
ss(i__main__
State
p365
(dp366
g3
F-8.0
sg4
F8.0
sg5
F-2.0
sg6
F-5.0
sb(dp367
I00
F13486.296105707626
sI01
F38028.35563417878
ss(i__main__
State
p368
(dp369
g3
F4.0
sg4
F0.0
sg5
F-7.0
sg6
F7.0
sb(dp370
I00
F18648.085080871744
sI01
F38953.634618510674
ss(i__main__
State
p371
(dp372
g3
F-2.0
sg4
F0.0
sg5
F4.0
sg6
F1.0
sb(dp373
I00
F11749.51077003585
sI01
F39372.522517810314
ss(i__main__
State
p374
(dp375
g3
F2.0
sg4
F2.0
sg5
F8.0
sg6
F5.0
sb(dp376
I00
F25463.994332460687
sI01
F41076.47339155546
ss(i__main__
State
p377
(dp378
g3
F5.0
sg4
F1.0
sg5
F-6.0
sg6
F8.0
sb(dp379
I00
F23263.22117060324
sI01
F39807.803875901474
ss(i__main__
State
p380
(dp381
g3
F-2.0
sg4
F4.0
sg5
F4.0
sg6
F1.0
sb(dp382
I00
F29203.52940722
sI01
F43833.24826880637
ss(i__main__
State
p383
(dp384
g3
F-7.0
sg4
F2.0
sg5
F-1.0
sg6
F-4.0
sb(dp385
I00
F23208.84847836581
sI01
F37311.2679758935
ss(i__main__
State
p386
(dp387
g3
F2.0
sg4
F4.0
sg5
F8.0
sg6
F5.0
sb(dp388
I00
F30847.746453804994
sI01
F42778.6322988865
ss(i__main__
State
p389
(dp390
g3
F-2.0
sg4
F3.0
sg5
F4.0
sg6
F1.0
sb(dp391
I00
F29594.305673511648
sI01
F43064.16560366085
ss(i__main__
State
p392
(dp393
g3
F6.0
sg4
F4.0
sg5
F-5.0
sg6
F-8.0
sb(dp394
I00
F29379.620633017767
sI01
F41565.14894242611
ss(i__main__
State
p395
(dp396
g3
F-4.0
sg4
F0.0
sg5
F2.0
sg6
F-1.0
sb(dp397
I00
F13075.123966570074
sI01
F39062.08021648769
ss(i__main__
State
p398
(dp399
g3
F8.0
sg4
F7.0
sg5
F-3.0
sg6
F-6.0
sb(dp400
I00
F34133.267033399214
sI01
F46609.52560399918
ss(i__main__
State
p401
(dp402
g3
F-2.0
sg4
F6.0
sg5
F4.0
sg6
F1.0
sb(dp403
I00
F31399.423757328972
sI01
F38358.65001256205
ss(i__main__
State
p404
(dp405
g3
F-6.0
sg4
F1.0
sg5
F0.0
sg6
F-3.0
sb(dp406
I00
F21340.43979715344
sI01
F40219.65653273635
ss(i__main__
State
p407
(dp408
g3
F0.0
sg4
F7.0
sg5
F6.0
sg6
F3.0
sb(dp409
I00
F35911.391780296086
sI01
F44635.804164033616
ss(i__main__
State
p410
(dp411
g3
F2.0
sg4
F1.0
sg5
F8.0
sg6
F5.0
sb(dp412
I00
F21080.60237410443
sI01
F39744.10509965469
ss(i__main__
State
p413
(dp414
g3
F4.0
sg4
F8.0
sg5
F-7.0
sg6
F7.0
sb(dp415
I00
F13246.713742078891
sI01
F37510.38088713457
ss(i__main__
State
p416
(dp417
g3
F7.0
sg4
F2.0
sg5
F-4.0
sg6
F-7.0
sb(dp418
I00
F24930.578558476358
sI01
F39974.381011056736
ss(i__main__
State
p419
(dp420
g3
F2.0
sg4
F3.0
sg5
F8.0
sg6
F5.0
sb(dp421
I00
F27342.099926354058
sI01
F41198.057344354835
ss(i__main__
State
p422
(dp423
g3
F0.0
sg4
F4.0
sg5
F6.0
sg6
F3.0
sb(dp424
I00
F31201.418639894357
sI01
F43207.41467753686
ss(i__main__
State
p425
(dp426
g3
F0.0
sg4
F0.0
sg5
F6.0
sg6
F3.0
sb(dp427
I00
F17626.77538779585
sI01
F38737.42781882899
ss(i__main__
State
p428
(dp429
g3
F8.0
sg4
F6.0
sg5
F-3.0
sg6
F-6.0
sb(dp430
I00
F34252.130244701526
sI01
F44943.233847888674
ss(i__main__
State
p431
(dp432
g3
F-1.0
sg4
F7.0
sg5
F5.0
sg6
F2.0
sb(dp433
I00
F36871.85089684464
sI01
F37856.30600889176
ss(i__main__
State
p434
(dp435
g3
F5.0
sg4
F7.0
sg5
F-6.0
sg6
F8.0
sb(dp436
I00
F38643.560342672055
sI01
F45468.65930850965
ss(i__main__
State
p437
(dp438
g3
F-7.0
sg4
F7.0
sg5
F-1.0
sg6
F-4.0
sb(dp439
I00
F35831.22761442222
sI01
F38942.124527461754
ss(i__main__
State
p440
(dp441
g3
F6.0
sg4
F1.0
sg5
F-5.0
sg6
F-8.0
sb(dp442
I00
F20705.770595767666
sI01
F39007.837054409116
ss(i__main__
State
p443
(dp444
g3
F-5.0
sg4
F1.0
sg5
F1.0
sg6
F-2.0
sb(dp445
I00
F18987.447454616016
sI01
F40628.82701116251
ss(i__main__
State
p446
(dp447
g3
F-1.0
sg4
F0.0
sg5
F5.0
sg6
F2.0
sb(dp448
I00
F18420.91023914712
sI01
F38856.74191293821
ss(i__main__
State
p449
(dp450
g3
F4.0
sg4
F6.0
sg5
F-7.0
sg6
F7.0
sb(dp451
I00
F37590.8481391566
sI01
F44736.57596021252
ss(i__main__
State
p452
(dp453
g3
F-3.0
sg4
F5.0
sg5
F3.0
sg6
F0.0
sb(dp454
I00
F26657.53039068971
sI01
F38689.395175870835
ss(i__main__
State
p455
(dp456
g3
F1.0
sg4
F6.0
sg5
F7.0
sg6
F4.0
sb(dp457
I00
F37554.34350636233
sI01
F46599.176528379554
ss(i__main__
State
p458
(dp459
g3
F8.0
sg4
F0.0
sg5
F-3.0
sg6
F-6.0
sb(dp460
I00
F15743.439925251449
sI01
F36147.75436309118
ss(i__main__
State
p461
(dp462
g3
F3.0
sg4
F8.0
sg5
F-8.0
sg6
F6.0
sb(dp463
I00
F16981.710002589894
sI01
F38274.658193758274
ss(i__main__
State
p464
(dp465
g3
F-7.0
sg4
F0.0
sg5
F-1.0
sg6
F-4.0
sb(dp466
I00
F17279.19631995188
sI01
F39006.60883479404
ss.