(dp0
(i__main__
State
p1
(dp2
S'y1'
p3
F8.0
sS'x'
p4
F3.0
sS'y3'
p5
F-3.0
sS'y2'
p6
F-6.0
sb(dp7
I00
F-1896.046284697
sI01
F44.45820639543
ss(i__main__
State
p8
(dp9
g3
F4.0
sg4
F7.0
sg5
F-7.0
sg6
F7.0
sb(dp10
I00
F-11392.365522847456
sI01
F6831.557231003105
ss(i__main__
State
p11
(dp12
g3
F-7.0
sg4
F5.0
sg5
F-1.0
sg6
F-4.0
sb(dp13
I00
F-4709.471539942052
sI01
F121.91442146372
ss(i__main__
State
p14
(dp15
g3
F-5.0
sg4
F2.0
sg5
F1.0
sg6
F-2.0
sb(dp16
I00
F-2325.430381
sI01
F39.147597499999996
ss(i__main__
State
p17
(dp18
g3
F7.0
sg4
F6.0
sg5
F-4.0
sg6
F-7.0
sb(dp19
I00
F-712.3199999999999
sI01
F817.9464690600001
ss(i__main__
State
p20
(dp21
g3
F0.0
sg4
F7.0
sg5
F6.0
sg6
F3.0
sb(dp22
I00
F-3474.6461419000007
sI01
F5243.91596073
ss(i__main__
State
p23
(dp24
g3
F-1.0
sg4
F0.0
sg5
F5.0
sg6
F2.0
sb(dp25
I00
I-14
sI01
F45.96987288
ss(i__main__
State
p26
(dp27
g3
F-1.0
sg4
F3.0
sg5
F5.0
sg6
F2.0
sb(dp28
I00
F-7644.780740482281
sI01
F18.765171729271
ss(i__main__
State
p29
(dp30
g3
F1.0
sg4
F4.0
sg5
F7.0
sg6
F4.0
sb(dp31
I00
F-4166.577250300001
sI01
F28.065437198329022
ss(i__main__
State
p32
(dp33
g3
F1.0
sg4
F2.0
sg5
F7.0
sg6
F4.0
sb(dp34
I00
I12
sI01
F18.11636935752448
ss(i__main__
State
p35
(dp36
g3
F2.0
sg4
F7.0
sg5
F8.0
sg6
F5.0
sb(dp37
I00
F-12021.782620247064
sI01
F3489.935786
ss(i__main__
State
p38
(dp39
g3
F-6.0
sg4
F5.0
sg5
F0.0
sg6
F-3.0
sb(dp40
I00
F-682.9687
sI01
F113.09830674862002
ss(i__main__
State
p41
(dp42
g3
F-2.0
sg4
F8.0
sg5
F4.0
sg6
F1.0
sb(dp43
I00
F-1598.5
sI01
F16.703241990000002
ss(i__main__
State
p44
(dp45
g3
F6.0
sg4
F0.0
sg5
F-5.0
sg6
F-8.0
sb(dp46
I00
I-31
sI01
F-25.015806438343
ss(i__main__
State
p47
(dp48
g3
F0.0
sg4
F1.0
sg5
F6.0
sg6
F3.0
sb(dp49
I00
F-7967.385661441797
sI01
F31.961176377502717
ss(i__main__
State
p50
(dp51
g3
F-4.0
sg4
F7.0
sg5
F2.0
sg6
F-1.0
sb(dp52
I00
F-2790.49181
sI01
F552.88720887
ss(i__main__
State
p53
(dp54
g3
F-3.0
sg4
F2.0
sg5
F3.0
sg6
F0.0
sb(dp55
I00
F-1187.46
sI01
F-19.348104999999997
ss(i__main__
State
p56
(dp57
g3
F5.0
sg4
F0.0
sg5
F-6.0
sg6
F8.0
sb(dp58
I00
F-14197.583172390308
sI01
F-32.37223044784778
ss(i__main__
State
p59
(dp60
g3
F3.0
sg4
F2.0
sg5
F-8.0
sg6
F6.0
sb(dp61
I00
F-1198.6000000000001
sI01
F11.976924814000002
ss(i__main__
State
p62
(dp63
g3
F3.0
sg4
F3.0
sg5
F-8.0
sg6
F6.0
sb(dp64
I00
I-97
sI01
F62.661970540000006
ss(i__main__
State
p65
(dp66
g3
F-5.0
sg4
F8.0
sg5
F1.0
sg6
F-2.0
sb(dp67
I00
F-11289.338677266753
sI01
F-18.588342183753298
ss(i__main__
State
p68
(dp69
g3
F2.0
sg4
F0.0
sg5
F8.0
sg6
F5.0
sb(dp70
I00
I-46
sI01
F-55.477570001617764
ss(i__main__
State
p71
(dp72
g3
F4.0
sg4
F4.0
sg5
F-7.0
sg6
F7.0
sb(dp73
I00
I42
sI01
F92.11180786
ss(i__main__
State
p74
(dp75
g3
F-2.0
sg4
F2.0
sg5
F4.0
sg6
F1.0
sb(dp76
I00
F-4126.809792839916
sI01
F-37.17632197218999
ss(i__main__
State
p77
(dp78
g3
F-6.0
sg4
F3.0
sg5
F0.0
sg6
F-3.0
sb(dp79
I00
I15
sI01
F-35.067776121
ss(i__main__
State
p80
(dp81
g3
F2.0
sg4
F8.0
sg5
F8.0
sg6
F5.0
sb(dp82
I00
F-1805.4
sI01
F-9.939496
ss(i__main__
State
p83
(dp84
g3
F-7.0
sg4
F3.0
sg5
F-1.0
sg6
F-4.0
sb(dp85
I00
F-1847.61048393
sI01
F51.630284851273004
ss(i__main__
State
p86
(dp87
g3
F5.0
sg4
F6.0
sg5
F-6.0
sg6
F8.0
sb(dp88
I00
I-1
sI01
F-19.2
ss(i__main__
State
p89
(dp90
g3
F8.0
sg4
F1.0
sg5
F-3.0
sg6
F-6.0
sb(dp91
I00
F-3732.133874678
sI01
F19.21939286363
ss(i__main__
State
p92
(dp93
g3
F-5.0
sg4
F5.0
sg5
F1.0
sg6
F-2.0
sb(dp94
I00
F-1978.5803124000004
sI01
F135.28925619999998
ss(i__main__
State
p95
(dp96
g3
F-2.0
sg4
F1.0
sg5
F4.0
sg6
F1.0
sb(dp97
I00
F-3855.798079
sI01
F9.706057235407
ss(i__main__
State
p98
(dp99
g3
F7.0
sg4
F5.0
sg5
F-4.0
sg6
F-7.0
sb(dp100
I00
F-4902.067715477063
sI01
F85.61291895033924
ss(i__main__
State
p101
(dp102
g3
F5.0
sg4
F8.0
sg5
F-6.0
sg6
F8.0
sb(dp103
I00
F-13006.124201547462
sI01
F-14.055554362729
ss(i__main__
State
p104
(dp105
g3
F3.0
sg4
F6.0
sg5
F-8.0
sg6
F6.0
sb(dp106
I00
F-299.3753624875199
sI01
F2497.48048972552
ss(i__main__
State
p107
(dp108
g3
F8.0
sg4
F7.0
sg5
F-3.0
sg6
F-6.0
sb(dp109
I00
F958.8521280000001
sI01
F3395.2389386300006
ss(i__main__
State
p110
(dp111
g3
F8.0
sg4
F4.0
sg5
F-3.0
sg6
F-6.0
sb(dp112
I00
I-80
sI01
F-2.8818837599999974
ss(i__main__
State
p113
(dp114
g3
F-7.0
sg4
F1.0
sg5
F-1.0
sg6
F-4.0
sb(dp115
I00
F-2717.4057700000003
sI01
F53.3502200647
ss(i__main__
State
p116
(dp117
g3
F8.0
sg4
F8.0
sg5
F-3.0
sg6
F-6.0
sb(dp118
I00
F0.0
sI01
F30.784079905749998
ss(i__main__
State
p119
(dp120
g3
F7.0
sg4
F8.0
sg5
F-4.0
sg6
F-7.0
sb(dp121
I00
F-1797.42
sI01
F11.643900000000002
ss(i__main__
State
p122
(dp123
g3
F-7.0
sg4
F8.0
sg5
F-1.0
sg6
F-4.0
sb(dp124
I00
F-6157.529500000001
sI01
F22.4313692558
ss(i__main__
State
p125
(dp126
g3
F-6.0
sg4
F8.0
sg5
F0.0
sg6
F-3.0
sb(dp127
I00
F0.0
sI01
F14.08854
ss(i__main__
State
p128
(dp129
g3
F8.0
sg4
F2.0
sg5
F-3.0
sg6
F-6.0
sb(dp130
I00
F-8951.62413867485
sI01
F-41.61535009614411
ss(i__main__
State
p131
(dp132
g3
F-5.0
sg4
F3.0
sg5
F1.0
sg6
F-2.0
sb(dp133
I00
F-2724.171858
sI01
F58.446723581899995
ss(i__main__
State
p134
(dp135
g3
F6.0
sg4
F6.0
sg5
F-5.0
sg6
F-8.0
sb(dp136
I00
F-506.06399999999996
sI01
F1822.7664327234002
ss(i__main__
State
p137
(dp138
g3
F-8.0
sg4
F6.0
sg5
F-2.0
sg6
F-5.0
sb(dp139
I00
F-445.33595248707655
sI01
F1738.4756646268374
ss(i__main__
State
p140
(dp141
g3
F6.0
sg4
F7.0
sg5
F-5.0
sg6
F-8.0
sb(dp142
I00
I76
sI01
F1051.4071
ss(i__main__
State
p143
(dp144
g3
F1.0
sg4
F3.0
sg5
F7.0
sg6
F4.0
sb(dp145
I00
F-8610.041323376361
sI01
F70.26299999999999
ss(i__main__
State
p146
(dp147
g3
F1.0
sg4
F1.0
sg5
F7.0
sg6
F4.0
sb(dp148
I00
F-9167.0305170401
sI01
F-81.666
ss(i__main__
State
p149
(dp150
g3
F2.0
sg4
F5.0
sg5
F8.0
sg6
F5.0
sb(dp151
I00
F-1167.81
sI01
F572.7554120703302
ss(i__main__
State
p152
(dp153
g3
F0.0
sg4
F2.0
sg5
F6.0
sg6
F3.0
sb(dp154
I00
F-1160.3117
sI01
F-69.4547
ss(i__main__
State
p155
(dp156
g3
F-1.0
sg4
F4.0
sg5
F5.0
sg6
F2.0
sb(dp157
I00
I14
sI01
F66.86998503377372
ss(i__main__
State
p158
(dp159
g3
F-1.0
sg4
F1.0
sg5
F5.0
sg6
F2.0
sb(dp160
I00
F-8548.49798260984
sI01
F-10.607371699999998
ss(i__main__
State
p161
(dp162
g3
F-1.0
sg4
F5.0
sg5
F5.0
sg6
F2.0
sb(dp163
I00
F-4186.687107806438
sI01
F158.83869882700003
ss(i__main__
State
p164
(dp165
g3
F6.0
sg4
F3.0
sg5
F-5.0
sg6
F-8.0
sb(dp166
I00
F-1046.148497647968
sI01
F47.4246939806395
ss(i__main__
State
p167
(dp168
g3
F-3.0
sg4
F0.0
sg5
F3.0
sg6
F0.0
sb(dp169
I00
F-8374.5526147
sI01
F-65.187609154622
ss(i__main__
State
p170
(dp171
g3
F-6.0
sg4
F7.0
sg5
F0.0
sg6
F-3.0
sb(dp172
I00
F-11243.457300798977
sI01
F6503.960086964325
ss(i__main__
State
p173
(dp174
g3
F3.0
sg4
F4.0
sg5
F-8.0
sg6
F6.0
sb(dp175
I00
F-2794.3028000000004
sI01
F30.445800400000003
ss(i__main__
State
p176
(dp177
g3
F7.0
sg4
F4.0
sg5
F-4.0
sg6
F-7.0
sb(dp178
I00
F-2165.1181275684385
sI01
F131.58173374302004
ss(i__main__
State
p179
(dp180
g3
F4.0
sg4
F1.0
sg5
F-7.0
sg6
F7.0
sb(dp181
I00
F-5749.62762
sI01
F29.291330525260477
ss(i__main__
State
p182
(dp183
g3
F1.0
sg4
F7.0
sg5
F7.0
sg6
F4.0
sb(dp184
I00
F-9813.762020709
sI01
F4047.5846309986205
ss(i__main__
State
p185
(dp186
g3
F1.0
sg4
F5.0
sg5
F7.0
sg6
F4.0
sb(dp187
I00
F-1109.3821271322981
sI01
F240.26756778217003
ss(i__main__
State
p188
(dp189
g3
F-5.0
sg4
F6.0
sg5
F1.0
sg6
F-2.0
sb(dp190
I00
F-2761.23410966951
sI01
F591.8305782477801
ss(i__main__
State
p191
(dp192
g3
F-8.0
sg4
F4.0
sg5
F-2.0
sg6
F-5.0
sb(dp193
I00
F-1505.3899999999999
sI01
F64.77517273737999
ss(i__main__
State
p194
(dp195
g3
F-1.0
sg4
F7.0
sg5
F5.0
sg6
F2.0
sb(dp196
I00
F-974.9187189100002
sI01
F-75.218184155
ss(i__main__
State
p197
(dp198
g3
F5.0
sg4
F4.0
sg5
F-6.0
sg6
F8.0
sb(dp199
I00
I-16
sI01
F5.038885920000001
ss(i__main__
State
p200
(dp201
g3
F-2.0
sg4
F5.0
sg5
F4.0
sg6
F1.0
sb(dp202
I00
F-3877.3703336596
sI01
F176.54999803
ss(i__main__
State
p203
(dp204
g3
F-8.0
sg4
F2.0
sg5
F-2.0
sg6
F-5.0
sb(dp205
I00
F-8228.13475808931
sI01
F11.276817189027
ss(i__main__
State
p206
(dp207
g3
F-8.0
sg4
F7.0
sg5
F-2.0
sg6
F-5.0
sb(dp208
I00
F-13410.254548419458
sI01
F4099.3908618000005
ss(i__main__
State
p209
(dp210
g3
F1.0
sg4
F8.0
sg5
F7.0
sg6
F4.0
sb(dp211
I00
F-16339.402676895108
sI01
F-16.0733107
ss(i__main__
State
p212
(dp213
g3
F0.0
sg4
F5.0
sg5
F6.0
sg6
F3.0
sb(dp214
I00
F-1028.8147966275787
sI01
F201.98374722562124
ss(i__main__
State
p215
(dp216
g3
F-4.0
sg4
F3.0
sg5
F2.0
sg6
F-1.0
sb(dp217
I00
I-2
sI01
F64.460171
ss(i__main__
State
p218
(dp219
g3
F-8.0
sg4
F5.0
sg5
F-2.0
sg6
F-5.0
sb(dp220
I00
F-2419.3113705084
sI01
F172.06018387520004
ss(i__main__
State
p221
(dp222
g3
F5.0
sg4
F5.0
sg5
F-6.0
sg6
F8.0
sb(dp223
I00
F-2756.2059630000003
sI01
F398.059742
ss(i__main__
State
p224
(dp225
g3
F7.0
sg4
F3.0
sg5
F-4.0
sg6
F-7.0
sb(dp226
I00
I-27
sI01
F56.33416
ss(i__main__
State
p227
(dp228
g3
F-5.0
sg4
F7.0
sg5
F1.0
sg6
F-2.0
sb(dp229
I00
F-7922.231172900001
sI01
F1062.28
ss(i__main__
State
p230
(dp231
g3
F-4.0
sg4
F4.0
sg5
F2.0
sg6
F-1.0
sb(dp232
I00
F-2220.6098
sI01
F9.743260617700003
ss(i__main__
State
p233
(dp234
g3
F3.0
sg4
F7.0
sg5
F-8.0
sg6
F6.0
sb(dp235
I00
F-5579.567730000001
sI01
F5662.225788427811
ss(i__main__
State
p236
(dp237
g3
F7.0
sg4
F0.0
sg5
F-4.0
sg6
F-7.0
sb(dp238
I00
F-14366.065975491989
sI01
F38.00506389756
ss(i__main__
State
p239
(dp240
g3
F-6.0
sg4
F6.0
sg5
F0.0
sg6
F-3.0
sb(dp241
I00
I21
sI01
F241.04921144570002
ss(i__main__
State
p242
(dp243
g3
F-6.0
sg4
F0.0
sg5
F0.0
sg6
F-3.0
sb(dp244
I00
F-9019.233238370001
sI01
F-15.177341702599996
ss(i__main__
State
p245
(dp246
g3
F-8.0
sg4
F0.0
sg5
F-2.0
sg6
F-5.0
sb(dp247
I00
I4
sI01
F73.6795018923
ss(i__main__
State
p248
(dp249
g3
F6.0
sg4
F8.0
sg5
F-5.0
sg6
F-8.0
sb(dp250
I00
F0.0
sI01
F21.59920032576
ss(i__main__
State
p251
(dp252
g3
F-3.0
sg4
F3.0
sg5
F3.0
sg6
F0.0
sb(dp253
I00
F-4661.991210975886
sI01
F8.888120630874106
ss(i__main__
State
p254
(dp255
g3
F8.0
sg4
F0.0
sg5
F-8.0
sg6
F0.0
sb(dp256
I00
F-16035.832139893622
sI01
I37
ss(i__main__
State
p257
(dp258
g3
F5.0
sg4
F2.0
sg5
F-6.0
sg6
F8.0
sb(dp259
I00
F-2314.69
sI01
F31.18823157176643
ss(i__main__
State
p260
(dp261
g3
F-8.0
sg4
F3.0
sg5
F-2.0
sg6
F-5.0
sb(dp262
I00
F-1946.8432395918699
sI01
F-16.763697731439002
ss(i__main__
State
p263
(dp264
g3
F-2.0
sg4
F7.0
sg5
F4.0
sg6
F1.0
sb(dp265
I00
I83
sI01
F923.383706907
ss(i__main__
State
p266
(dp267
g3
F0.0
sg4
F6.0
sg5
F6.0
sg6
F3.0
sb(dp268
I00
F-2917.808991704495
sI01
F1097.5910615831801
ss(i__main__
State
p269
(dp270
g3
F-4.0
sg4
F8.0
sg5
F2.0
sg6
F-1.0
sb(dp271
I00
F0.0
sI01
F-13.4259538
ss(i__main__
State
p272
(dp273
g3
F-8.0
sg4
F1.0
sg5
F-2.0
sg6
F-5.0
sb(dp274
I00
I-66
sI01
F-58.87
ss(i__main__
State
p275
(dp276
g3
F-3.0
sg4
F1.0
sg5
F3.0
sg6
F0.0
sb(dp277
I00
F-7305.283832294715
sI01
F-41.8390672989276
ss(i__main__
State
p278
(dp279
g3
F7.0
sg4
F7.0
sg5
F-4.0
sg6
F-7.0
sb(dp280
I00
F-6206.485938370482
sI01
F5706.836912559501
ss(i__main__
State
p281
(dp282
g3
F-3.0
sg4
F7.0
sg5
F3.0
sg6
F0.0
sb(dp283
I00
F940.315
sI01
F4055.4393874200005
ss(i__main__
State
p284
(dp285
g3
F4.0
sg4
F5.0
sg5
F-7.0
sg6
F7.0
sb(dp286
I00
I54
sI01
F58.86412251611041
ss(i__main__
State
p287
(dp288
g3
F4.0
sg4
F0.0
sg5
F-7.0
sg6
F7.0
sb(dp289
I00
F-1618.7814
sI01
F43.2753788
ss(i__main__
State
p290
(dp291
g3
F6.0
sg4
F5.0
sg5
F-5.0
sg6
F-8.0
sb(dp292
I00
F-629.2477356600001
sI01
F101.13171312000003
ss(i__main__
State
p293
(dp294
g3
F-5.0
sg4
F4.0
sg5
F1.0
sg6
F-2.0
sb(dp295
I00
F-4162.1481605
sI01
F51.954
ss(i__main__
State
p296
(dp297
g3
F-3.0
sg4
F8.0
sg5
F3.0
sg6
F0.0
sb(dp298
I00
F-5706.194800000001
sI01
F6.348438700000001
ss(i__main__
State
p299
(dp300
g3
F0.0
sg4
F8.0
sg5
F6.0
sg6
F3.0
sb(dp301
I00
F-6168.534299999999
sI01
F4.170553679000003
ss(i__main__
State
p302
(dp303
g3
F-5.0
sg4
F0.0
sg5
F1.0
sg6
F-2.0
sb(dp304
I00
I-100
sI01
F55.272580000000005
ss(i__main__
State
p305
(dp306
g3
F-1.0
sg4
F2.0
sg5
F5.0
sg6
F2.0
sb(dp307
I00
F-3210.7924713177877
sI01
F8.5580651252574
ss(i__main__
State
p308
(dp309
g3
F5.0
sg4
F3.0
sg5
F-6.0
sg6
F8.0
sb(dp310
I00
F-1838.5129272600002
sI01
F-25.09269186
ss(i__main__
State
p311
(dp312
g3
F-1.0
sg4
F6.0
sg5
F5.0
sg6
F2.0
sb(dp313
I00
F-991.046
sI01
F866.5424316
ss(i__main__
State
p314
(dp315
g3
F-7.0
sg4
F4.0
sg5
F-1.0
sg6
F-4.0
sb(dp316
I00
I-79
sI01
F65.306971215519
ss(i__main__
State
p317
(dp318
g3
F-4.0
sg4
F1.0
sg5
F2.0
sg6
F-1.0
sb(dp319
I00
F-1387.5
sI01
F-4.426446999999998
ss(i__main__
State
p320
(dp321
g3
F1.0
sg4
F0.0
sg5
F7.0
sg6
F4.0
sb(dp322
I00
F-12367.718592109386
sI01
F-10.412015580000002
ss(i__main__
State
p323
(dp324
g3
F8.0
sg4
F5.0
sg5
F-3.0
sg6
F-6.0
sb(dp325
I00
F-1470.19741458284
sI01
F454.45917821171923
ss(i__main__
State
p326
(dp327
g3
F3.0
sg4
F0.0
sg5
F-8.0
sg6
F6.0
sb(dp328
I00
F-5546.420300000001
sI01
F-36.7988338
ss(i__main__
State
p329
(dp330
g3
F7.0
sg4
F1.0
sg5
F-4.0
sg6
F-7.0
sb(dp331
I00
F-3752.604170785029
sI01
F-22.112216173142095
ss(i__main__
State
p332
(dp333
g3
F4.0
sg4
F2.0
sg5
F-7.0
sg6
F7.0
sb(dp334
I00
F-11614.526585461004
sI01
F45.09233118910338
ss(i__main__
State
p335
(dp336
g3
F-6.0
sg4
F4.0
sg5
F0.0
sg6
F-3.0
sb(dp337
I00
F-5915.62881416085
sI01
F51.88154910084901
ss(i__main__
State
p338
(dp339
g3
F-4.0
sg4
F5.0
sg5
F2.0
sg6
F-1.0
sb(dp340
I00
F-2756.480712461863
sI01
F26.02798535111485
ss(i__main__
State
p341
(dp342
g3
F-3.0
sg4
F4.0
sg5
F3.0
sg6
F0.0
sb(dp343
I00
F-1572.47080383
sI01
F85.95094667000001
ss(i__main__
State
p344
(dp345
g3
F0.0
sg4
F3.0
sg5
F6.0
sg6
F3.0
sb(dp346
I00
F-2781.97327097191
sI01
F2.272758139911601
ss(i__main__
State
p347
(dp348
g3
F4.0
sg4
F3.0
sg5
F-7.0
sg6
F7.0
sb(dp349
I00
I6
sI01
F35.0371005
ss(i__main__
State
p350
(dp351
g3
F-4.0
sg4
F6.0
sg5
F2.0
sg6
F-1.0
sb(dp352
I00
F-48.811170000000004
sI01
F771.35690905
ss(i__main__
State
p353
(dp354
g3
F-6.0
sg4
F2.0
sg5
F0.0
sg6
F-3.0
sb(dp355
I00
I-26
sI01
F45.066270858399996
ss(i__main__
State
p356
(dp357
g3
F-7.0
sg4
F6.0
sg5
F-1.0
sg6
F-4.0
sb(dp358
I00
F-474.0
sI01
F1751.8184285071138
ss(i__main__
State
p359
(dp360
g3
F6.0
sg4
F2.0
sg5
F-5.0
sg6
F-8.0
sb(dp361
I00
I65
sI01
F36.882231869379
ss(i__main__
State
p362
(dp363
g3
F3.0
sg4
F5.0
sg5
F-8.0
sg6
F6.0
sb(dp364
I00
F-2064.8707000000004
sI01
F134.5368874
ss(i__main__
State
p365
(dp366
g3
F-8.0
sg4
F8.0
sg5
F-2.0
sg6
F-5.0
sb(dp367
I00
F-14618.940573124257
sI01
F20.753362163000002
ss(i__main__
State
p368
(dp369
g3
F-2.0
sg4
F0.0
sg5
F4.0
sg6
F1.0
sb(dp370
I00
F-10988.24955263156
sI01
F38.282000000000004
ss(i__main__
State
p371
(dp372
g3
F2.0
sg4
F2.0
sg5
F8.0
sg6
F5.0
sb(dp373
I00
F-10998.374656246755
sI01
F-43.928129999999996
ss(i__main__
State
p374
(dp375
g3
F5.0
sg4
F1.0
sg5
F-6.0
sg6
F8.0
sb(dp376
I00
F-10011.142746118461
sI01
F-29.183592399999995
ss(i__main__
State
p377
(dp378
g3
F-2.0
sg4
F4.0
sg5
F4.0
sg6
F1.0
sb(dp379
I00
F-6904.667731599077
sI01
F42.091331544000006
ss(i__main__
State
p380
(dp381
g3
F-7.0
sg4
F2.0
sg5
F-1.0
sg6
F-4.0
sb(dp382
I00
F-6201.589878094
sI01
F39.876976106
ss(i__main__
State
p383
(dp384
g3
F-3.0
sg4
F6.0
sg5
F3.0
sg6
F0.0
sb(dp385
I00
F-2516.7073845584
sI01
F442.95360602126465
ss(i__main__
State
p386
(dp387
g3
F2.0
sg4
F4.0
sg5
F8.0
sg6
F5.0
sb(dp388
I00
I36
sI01
F-21.512034899999996
ss(i__main__
State
p389
(dp390
g3
F-2.0
sg4
F3.0
sg5
F4.0
sg6
F1.0
sb(dp391
I00
F-9674.743429058124
sI01
F62.7427221852193
ss(i__main__
State
p392
(dp393
g3
F6.0
sg4
F4.0
sg5
F-5.0
sg6
F-8.0
sb(dp394
I00
F-6163.707379077226
sI01
F-46.1298546095984
ss(i__main__
State
p395
(dp396
g3
F-4.0
sg4
F0.0
sg5
F2.0
sg6
F-1.0
sb(dp397
I00
F-4279.3580205466005
sI01
F-38.60871970933621
ss(i__main__
State
p398
(dp399
g3
F3.0
sg4
F1.0
sg5
F-8.0
sg6
F6.0
sb(dp400
I00
F-4788.49622009826
sI01
F-49.158540196519674
ss(i__main__
State
p401
(dp402
g3
F-2.0
sg4
F6.0
sg5
F4.0
sg6
F1.0
sb(dp403
I00
I-78
sI01
F422.8270884548999
ss(i__main__
State
p404
(dp405
g3
F-6.0
sg4
F1.0
sg5
F0.0
sg6
F-3.0
sb(dp406
I00
F-1485.3051970000001
sI01
F23.77664243
ss(i__main__
State
p407
(dp408
g3
F2.0
sg4
F1.0
sg5
F8.0
sg6
F5.0
sb(dp409
I00
F-8562.86161268
sI01
F-35.332430353999996
ss(i__main__
State
p410
(dp411
g3
F4.0
sg4
F8.0
sg5
F-7.0
sg6
F7.0
sb(dp412
I00
F-5879.487296584294
sI01
F-22.502849216940202
ss(i__main__
State
p413
(dp414
g3
F7.0
sg4
F2.0
sg5
F-4.0
sg6
F-7.0
sb(dp415
I00
F-9836.10096903875
sI01
F-51.91026524546
ss(i__main__
State
p416
(dp417
g3
F2.0
sg4
F3.0
sg5
F8.0
sg6
F5.0
sb(dp418
I00
F-1080.5
sI01
F-40.019
ss(i__main__
State
p419
(dp420
g3
F0.0
sg4
F4.0
sg5
F6.0
sg6
F3.0
sb(dp421
I00
I90
sI01
F-11.355900774429996
ss(i__main__
State
p422
(dp423
g3
F8.0
sg4
F6.0
sg5
F-3.0
sg6
F-6.0
sb(dp424
I00
F-820.1632558236961
sI01
F923.7170439305236
ss(i__main__
State
p425
(dp426
g3
F5.0
sg4
F7.0
sg5
F-6.0
sg6
F8.0
sb(dp427
I00
F-937.764088613
sI01
F4708.87714409812
ss(i__main__
State
p428
(dp429
g3
F-7.0
sg4
F7.0
sg5
F-1.0
sg6
F-4.0
sb(dp430
I00
F-8535.778585487938
sI01
F3370.8027919252045
ss(i__main__
State
p431
(dp432
g3
F6.0
sg4
F1.0
sg5
F-5.0
sg6
F-8.0
sb(dp433
I00
F-10098.783547113737
sI01
F8.459436929697201
ss(i__main__
State
p434
(dp435
g3
F-5.0
sg4
F1.0
sg5
F1.0
sg6
F-2.0
sb(dp436
I00
F-1312.5200000000002
sI01
F24.681423896040002
ss(i__main__
State
p437
(dp438
g3
F2.0
sg4
F6.0
sg5
F8.0
sg6
F5.0
sb(dp439
I00
F-132.35699999999997
sI01
F1459.063049317594
ss(i__main__
State
p440
(dp441
g3
F4.0
sg4
F6.0
sg5
F-7.0
sg6
F7.0
sb(dp442
I00
F-569.0612259
sI01
F939.3037592557001
ss(i__main__
State
p443
(dp444
g3
F-3.0
sg4
F5.0
sg5
F3.0
sg6
F0.0
sb(dp445
I00
F-2092.2809
sI01
F-36.709699763
ss(i__main__
State
p446
(dp447
g3
F1.0
sg4
F6.0
sg5
F7.0
sg6
F4.0
sb(dp448
I00
I82
sI01
F1317.7900269526383
ss(i__main__
State
p449
(dp450
g3
F8.0
sg4
F0.0
sg5
F-3.0
sg6
F-6.0
sb(dp451
I00
F-5493.8151
sI01
F29.531499999999998
ss(i__main__
State
p452
(dp453
g3
F3.0
sg4
F8.0
sg5
F-8.0
sg6
F6.0
sb(dp454
I00
F-7490.384174
sI01
F18.3491876
ss(i__main__
State
p455
(dp456
g3
F-7.0
sg4
F0.0
sg5
F-1.0
sg6
F-4.0
sb(dp457
I00
I56
sI01
F18.195985399999998
ss(i__main__
State
p458
(dp459
g3
F-4.0
sg4
F2.0
sg5
F2.0
sg6
F-1.0
sb(dp460
I00
F-1181.9090624454
sI01
F34.0162899825849
ss.