(dp0
(i__main__
State
p1
(dp2
S'y1'
p3
F8.0
sS'x'
p4
F3.0
sS'y3'
p5
F-3.0
sS'y2'
p6
F-6.0
sb(dp7
I00
F-9618.38121318843
sI01
F9.745418882059482
ss(i__main__
State
p8
(dp9
g3
F4.0
sg4
F7.0
sg5
F-7.0
sg6
F7.0
sb(dp10
I00
F-843.8175821378636
sI01
F6869.085839342147
ss(i__main__
State
p11
(dp12
g3
F-7.0
sg4
F5.0
sg5
F-1.0
sg6
F-4.0
sb(dp13
I00
F-1087.6771660753095
sI01
F664.6036739791043
ss(i__main__
State
p14
(dp15
g3
F-5.0
sg4
F2.0
sg5
F1.0
sg6
F-2.0
sb(dp16
I00
F-2274.8563401631827
sI01
F32.11702529823812
ss(i__main__
State
p17
(dp18
g3
F7.0
sg4
F6.0
sg5
F-4.0
sg6
F-7.0
sb(dp19
I00
F-2608.1699300948494
sI01
F3421.3251629690926
ss(i__main__
State
p20
(dp21
g3
F3.0
sg4
F7.0
sg5
F-8.0
sg6
F6.0
sb(dp22
I00
F-1808.040303335697
sI01
F7443.443730736511
ss(i__main__
State
p23
(dp24
g3
F-1.0
sg4
F0.0
sg5
F5.0
sg6
F2.0
sb(dp25
I00
F-1675.3237966194395
sI01
F9.812492140560602
ss(i__main__
State
p26
(dp27
g3
F-1.0
sg4
F3.0
sg5
F5.0
sg6
F2.0
sb(dp28
I00
F-2760.3631118120575
sI01
F6.643189204272547
ss(i__main__
State
p29
(dp30
g3
F1.0
sg4
F4.0
sg5
F7.0
sg6
F4.0
sb(dp31
I00
F-7085.180383341568
sI01
F132.55801827251886
ss(i__main__
State
p32
(dp33
g3
F1.0
sg4
F2.0
sg5
F7.0
sg6
F4.0
sb(dp34
I00
F-7374.33414829
sI01
F50.69141741152707
ss(i__main__
State
p35
(dp36
g3
F-1.0
sg4
F5.0
sg5
F5.0
sg6
F2.0
sb(dp37
I00
F-978.1305652707301
sI01
F1801.9750115922393
ss(i__main__
State
p38
(dp39
g3
F-6.0
sg4
F5.0
sg5
F0.0
sg6
F-3.0
sb(dp40
I00
I41
sI01
F295.2685314756724
ss(i__main__
State
p41
(dp42
g3
F-2.0
sg4
F8.0
sg5
F4.0
sg6
F1.0
sb(dp43
I00
F-4345.96340405198
sI01
F2.371694394020059
ss(i__main__
State
p44
(dp45
g3
F6.0
sg4
F0.0
sg5
F-5.0
sg6
F-8.0
sb(dp46
I00
F-5449.8169
sI01
F38.004463779890465
ss(i__main__
State
p47
(dp48
g3
F-4.0
sg4
F7.0
sg5
F2.0
sg6
F-1.0
sb(dp49
I00
F2661.865162
sI01
F3157.7516830879545
ss(i__main__
State
p50
(dp51
g3
F-3.0
sg4
F2.0
sg5
F3.0
sg6
F0.0
sb(dp52
I00
F-1268.3456239531872
sI01
F44.876311454231875
ss(i__main__
State
p53
(dp54
g3
F5.0
sg4
F0.0
sg5
F-6.0
sg6
F8.0
sb(dp55
I00
F-1611.792411067031
sI01
F-14.757973745038544
ss(i__main__
State
p56
(dp57
g3
F3.0
sg4
F2.0
sg5
F-8.0
sg6
F6.0
sb(dp58
I00
F-2338.7703592817643
sI01
F-4.26995239712106
ss(i__main__
State
p59
(dp60
g3
F3.0
sg4
F3.0
sg5
F-8.0
sg6
F6.0
sb(dp61
I00
F-8978.395593801191
sI01
F203.7967696229819
ss(i__main__
State
p62
(dp63
g3
F2.0
sg4
F0.0
sg5
F8.0
sg6
F5.0
sb(dp64
I00
F-4365.667
sI01
F10.575804077510758
ss(i__main__
State
p65
(dp66
g3
F4.0
sg4
F4.0
sg5
F-7.0
sg6
F7.0
sb(dp67
I00
F-2755.3201000000004
sI01
F776.7673574251985
ss(i__main__
State
p68
(dp69
g3
F-2.0
sg4
F2.0
sg5
F4.0
sg6
F1.0
sb(dp70
I00
F-3212.7932354881827
sI01
F-13.850480045295257
ss(i__main__
State
p71
(dp72
g3
F-4.0
sg4
F2.0
sg5
F2.0
sg6
F-1.0
sb(dp73
I00
F-4925.23108803492
sI01
F22.31671949143711
ss(i__main__
State
p74
(dp75
g3
F-6.0
sg4
F3.0
sg5
F0.0
sg6
F-3.0
sb(dp76
I00
F-3417.9365714800006
sI01
F141.0827361867953
ss(i__main__
State
p77
(dp78
g3
F2.0
sg4
F8.0
sg5
F8.0
sg6
F5.0
sb(dp79
I00
F-10354.943559255244
sI01
F17.84105884822337
ss(i__main__
State
p80
(dp81
g3
F6.0
sg4
F1.0
sg5
F-5.0
sg6
F-8.0
sb(dp82
I00
F-6543.59654741752
sI01
F-34.73284458797805
ss(i__main__
State
p83
(dp84
g3
F5.0
sg4
F6.0
sg5
F-6.0
sg6
F8.0
sb(dp85
I00
F-207.94638452639998
sI01
F2183.2984569707123
ss(i__main__
State
p86
(dp87
g3
F8.0
sg4
F1.0
sg5
F-3.0
sg6
F-6.0
sb(dp88
I00
F-11343.439497497111
sI01
F57.939993485194364
ss(i__main__
State
p89
(dp90
g3
F-5.0
sg4
F5.0
sg5
F1.0
sg6
F-2.0
sb(dp91
I00
I5
sI01
F111.698432
ss(i__main__
State
p92
(dp93
g3
F-5.0
sg4
F8.0
sg5
F1.0
sg6
F-2.0
sb(dp94
I00
F-13398.175326073017
sI01
F-1.913069223019357
ss(i__main__
State
p95
(dp96
g3
F0.0
sg4
F1.0
sg5
F6.0
sg6
F3.0
sb(dp97
I00
F-4830.6486
sI01
F-5.77216121978247
ss(i__main__
State
p98
(dp99
g3
F5.0
sg4
F8.0
sg5
F-6.0
sg6
F8.0
sb(dp100
I00
F-13784.861705567664
sI01
F33.33224022021906
ss(i__main__
State
p101
(dp102
g3
F3.0
sg4
F6.0
sg5
F-8.0
sg6
F6.0
sb(dp103
I00
I-49
sI01
F2743.992500231495
ss(i__main__
State
p104
(dp105
g3
F8.0
sg4
F7.0
sg5
F-3.0
sg6
F-6.0
sb(dp106
I00
F-10145.0805830755
sI01
F7215.417785075155
ss(i__main__
State
p107
(dp108
g3
F8.0
sg4
F4.0
sg5
F-3.0
sg6
F-6.0
sb(dp109
I00
F-2570.036457897606
sI01
F490.4176814017794
ss(i__main__
State
p110
(dp111
g3
F-7.0
sg4
F1.0
sg5
F-1.0
sg6
F-4.0
sb(dp112
I00
F-2659.0967757059825
sI01
F14.924462003581748
ss(i__main__
State
p113
(dp114
g3
F8.0
sg4
F8.0
sg5
F-3.0
sg6
F-6.0
sb(dp115
I00
F-14930.349826811373
sI01
F-5.639192957179251
ss(i__main__
State
p116
(dp117
g3
F7.0
sg4
F8.0
sg5
F-4.0
sg6
F-7.0
sb(dp118
I00
F-9363.0055357
sI01
F-11.925789328800004
ss(i__main__
State
p119
(dp120
g3
F-3.0
sg4
F3.0
sg5
F3.0
sg6
F0.0
sb(dp121
I00
F-8161.6412202983265
sI01
F47.1162121122019
ss(i__main__
State
p122
(dp123
g3
F-6.0
sg4
F8.0
sg5
F0.0
sg6
F-3.0
sb(dp124
I00
F-16919.39812447739
sI01
F0.6840048011102251
ss(i__main__
State
p125
(dp126
g3
F8.0
sg4
F2.0
sg5
F-3.0
sg6
F-6.0
sb(dp127
I00
F-9750.824540954021
sI01
F3.879945132409694
ss(i__main__
State
p128
(dp129
g3
F-5.0
sg4
F3.0
sg5
F1.0
sg6
F-2.0
sb(dp130
I00
F-9623.487076992304
sI01
F162.2223104264093
ss(i__main__
State
p131
(dp132
g3
F6.0
sg4
F6.0
sg5
F-5.0
sg6
F-8.0
sb(dp133
I00
F-1530.6490869
sI01
F5176.380765325533
ss(i__main__
State
p134
(dp135
g3
F-8.0
sg4
F6.0
sg5
F-2.0
sg6
F-5.0
sb(dp136
I00
F-223.10400000000004
sI01
F814.0756316507203
ss(i__main__
State
p137
(dp138
g3
F6.0
sg4
F7.0
sg5
F-5.0
sg6
F-8.0
sb(dp139
I00
F-1331.669363308
sI01
F6155.744353417512
ss(i__main__
State
p140
(dp141
g3
F1.0
sg4
F3.0
sg5
F7.0
sg6
F4.0
sb(dp142
I00
F-2718.6045758293603
sI01
F-8.33215151152784
ss(i__main__
State
p143
(dp144
g3
F1.0
sg4
F1.0
sg5
F7.0
sg6
F4.0
sb(dp145
I00
F-5721.955653404412
sI01
F23.241354493684916
ss(i__main__
State
p146
(dp147
g3
F2.0
sg4
F5.0
sg5
F8.0
sg6
F5.0
sb(dp148
I00
F-1113.8516690000001
sI01
F663.6659880133709
ss(i__main__
State
p149
(dp150
g3
F0.0
sg4
F2.0
sg5
F6.0
sg6
F3.0
sb(dp151
I00
F-11889.38733030544
sI01
F21.9718159254824
ss(i__main__
State
p152
(dp153
g3
F-1.0
sg4
F4.0
sg5
F5.0
sg6
F2.0
sb(dp154
I00
F-2140.255
sI01
F467.56128665234434
ss(i__main__
State
p155
(dp156
g3
F-1.0
sg4
F1.0
sg5
F5.0
sg6
F2.0
sb(dp157
I00
F-3778.2100258278983
sI01
F12.713483859512134
ss(i__main__
State
p158
(dp159
g3
F2.0
sg4
F7.0
sg5
F8.0
sg6
F5.0
sb(dp160
I00
F923.5
sI01
F7188.389599427278
ss(i__main__
State
p161
(dp162
g3
F6.0
sg4
F3.0
sg5
F-5.0
sg6
F-8.0
sb(dp163
I00
F-6061.6064173350005
sI01
F45.85128395963856
ss(i__main__
State
p164
(dp165
g3
F-5.0
sg4
F6.0
sg5
F1.0
sg6
F-2.0
sb(dp166
I00
F-924.8782377
sI01
F1179.773024604253
ss(i__main__
State
p167
(dp168
g3
F-6.0
sg4
F7.0
sg5
F0.0
sg6
F-3.0
sb(dp169
I00
F-7759.334638787823
sI01
F7348.658152002171
ss(i__main__
State
p170
(dp171
g3
F3.0
sg4
F4.0
sg5
F-8.0
sg6
F6.0
sb(dp172
I00
I92
sI01
F95.9172389102536
ss(i__main__
State
p173
(dp174
g3
F7.0
sg4
F4.0
sg5
F-4.0
sg6
F-7.0
sb(dp175
I00
F-1504.4076387371433
sI01
F109.89636032505535
ss(i__main__
State
p176
(dp177
g3
F4.0
sg4
F1.0
sg5
F-7.0
sg6
F7.0
sb(dp178
I00
F-7257.152835286571
sI01
F30.74268417585631
ss(i__main__
State
p179
(dp180
g3
F1.0
sg4
F7.0
sg5
F7.0
sg6
F4.0
sb(dp181
I00
F-8769.52621664323
sI01
F8497.80208035078
ss(i__main__
State
p182
(dp183
g3
F1.0
sg4
F5.0
sg5
F7.0
sg6
F4.0
sb(dp184
I00
F-1767.758208978821
sI01
F793.9578348868822
ss(i__main__
State
p185
(dp186
g3
F-3.0
sg4
F0.0
sg5
F3.0
sg6
F0.0
sb(dp187
I00
F-5428.970540751961
sI01
F33.04626392793095
ss(i__main__
State
p188
(dp189
g3
F-8.0
sg4
F4.0
sg5
F-2.0
sg6
F-5.0
sb(dp190
I00
F-4159.915488609358
sI01
F103.77731237814413
ss(i__main__
State
p191
(dp192
g3
F5.0
sg4
F5.0
sg5
F-6.0
sg6
F8.0
sb(dp193
I00
F-5173.770642088236
sI01
F2337.0299436096943
ss(i__main__
State
p194
(dp195
g3
F5.0
sg4
F4.0
sg5
F-6.0
sg6
F8.0
sb(dp196
I00
F-2089.23719017284
sI01
F307.1804057925319
ss(i__main__
State
p197
(dp198
g3
F-2.0
sg4
F5.0
sg5
F4.0
sg6
F1.0
sb(dp199
I00
F-938.2448477756154
sI01
F1219.7681573192451
ss(i__main__
State
p200
(dp201
g3
F-8.0
sg4
F2.0
sg5
F-2.0
sg6
F-5.0
sb(dp202
I00
F-2208.658860085836
sI01
F45.98038535499596
ss(i__main__
State
p203
(dp204
g3
F-8.0
sg4
F7.0
sg5
F-2.0
sg6
F-5.0
sb(dp205
I00
I-51
sI01
F6992.963708255881
ss(i__main__
State
p206
(dp207
g3
F1.0
sg4
F8.0
sg5
F7.0
sg6
F4.0
sb(dp208
I00
F-1797.344184284
sI01
F2.323777246085718
ss(i__main__
State
p209
(dp210
g3
F0.0
sg4
F5.0
sg5
F6.0
sg6
F3.0
sb(dp211
I00
F-4694.684309774469
sI01
F1811.4547199815527
ss(i__main__
State
p212
(dp213
g3
F-6.0
sg4
F2.0
sg5
F0.0
sg6
F-3.0
sb(dp214
I00
F-5598.377379043767
sI01
F58.16034438045689
ss(i__main__
State
p215
(dp216
g3
F-8.0
sg4
F5.0
sg5
F-2.0
sg6
F-5.0
sb(dp217
I00
F-635.5060000000001
sI01
F1469.5967877744745
ss(i__main__
State
p218
(dp219
g3
F-3.0
sg4
F6.0
sg5
F3.0
sg6
F0.0
sb(dp220
I00
F-224.67000000000002
sI01
F4182.42580058409
ss(i__main__
State
p221
(dp222
g3
F7.0
sg4
F3.0
sg5
F-4.0
sg6
F-7.0
sb(dp223
I00
F-7139.738846629846
sI01
F157.67949738913197
ss(i__main__
State
p224
(dp225
g3
F-5.0
sg4
F7.0
sg5
F1.0
sg6
F-2.0
sb(dp226
I00
F-82.83589352
sI01
F5700.286669615213
ss(i__main__
State
p227
(dp228
g3
F-4.0
sg4
F4.0
sg5
F2.0
sg6
F-1.0
sb(dp229
I00
F-6522.618927856274
sI01
F414.2637100699128
ss(i__main__
State
p230
(dp231
g3
F7.0
sg4
F0.0
sg5
F-4.0
sg6
F-7.0
sb(dp232
I00
F-1550.4534144
sI01
F-10.01568082803989
ss(i__main__
State
p233
(dp234
g3
F-6.0
sg4
F6.0
sg5
F0.0
sg6
F-3.0
sb(dp235
I00
F-1151.158745659667
sI01
F2053.6750970443627
ss(i__main__
State
p236
(dp237
g3
F-6.0
sg4
F0.0
sg5
F0.0
sg6
F-3.0
sb(dp238
I00
F-15009.215164300665
sI01
F30.203223735804087
ss(i__main__
State
p239
(dp240
g3
F-8.0
sg4
F0.0
sg5
F-2.0
sg6
F-5.0
sb(dp241
I00
F-1515.061844376064
sI01
F-11.597835668090227
ss(i__main__
State
p242
(dp243
g3
F-7.0
sg4
F8.0
sg5
F-1.0
sg6
F-4.0
sb(dp244
I00
F-17671.437086681206
sI01
F14.89008682332847
ss(i__main__
State
p245
(dp246
g3
F-1.0
sg4
F7.0
sg5
F5.0
sg6
F2.0
sb(dp247
I00
F979.3362575837635
sI01
F1756.0948874831593
ss(i__main__
State
p248
(dp249
g3
F5.0
sg4
F2.0
sg5
F-6.0
sg6
F8.0
sb(dp250
I00
F-11495.906914184472
sI01
F31.114871113588723
ss(i__main__
State
p251
(dp252
g3
F-8.0
sg4
F3.0
sg5
F-2.0
sg6
F-5.0
sb(dp253
I00
F-9839.956423241412
sI01
F39.37721360440664
ss(i__main__
State
p254
(dp255
g3
F-2.0
sg4
F7.0
sg5
F4.0
sg6
F1.0
sb(dp256
I00
F-6609.97527048992
sI01
F7690.891083693388
ss(i__main__
State
p257
(dp258
g3
F0.0
sg4
F6.0
sg5
F6.0
sg6
F3.0
sb(dp259
I00
F289.35804098455685
sI01
F4631.950597119906
ss(i__main__
State
p260
(dp261
g3
F-2.0
sg4
F1.0
sg5
F4.0
sg6
F1.0
sb(dp262
I00
F-1379.496
sI01
F15.588047162970451
ss(i__main__
State
p263
(dp264
g3
F-4.0
sg4
F8.0
sg5
F2.0
sg6
F-1.0
sb(dp265
I00
F-6549.70294
sI01
F23.591790801369893
ss(i__main__
State
p266
(dp267
g3
F-8.0
sg4
F1.0
sg5
F-2.0
sg6
F-5.0
sb(dp268
I00
F-2651.9025828099248
sI01
F-9.330123039526315
ss(i__main__
State
p269
(dp270
g3
F-3.0
sg4
F1.0
sg5
F3.0
sg6
F0.0
sb(dp271
I00
F-13592.332945305496
sI01
F-9.657136440301612
ss(i__main__
State
p272
(dp273
g3
F7.0
sg4
F7.0
sg5
F-4.0
sg6
F-7.0
sb(dp274
I00
F-2236.493603113773
sI01
F8348.203388685159
ss(i__main__
State
p275
(dp276
g3
F7.0
sg4
F5.0
sg5
F-4.0
sg6
F-7.0
sb(dp277
I00
I-13
sI01
F972.7806944746219
ss(i__main__
State
p278
(dp279
g3
F-3.0
sg4
F7.0
sg5
F3.0
sg6
F0.0
sb(dp280
I00
F949.9825664939999
sI01
F4047.896201034
ss(i__main__
State
p281
(dp282
g3
F4.0
sg4
F5.0
sg5
F-7.0
sg6
F7.0
sb(dp283
I00
F-464.27271000200005
sI01
F417.3457235268761
ss(i__main__
State
p284
(dp285
g3
F4.0
sg4
F0.0
sg5
F-7.0
sg6
F7.0
sb(dp286
I00
F-6490.737663327877
sI01
F14.111579610674628
ss(i__main__
State
p287
(dp288
g3
F6.0
sg4
F5.0
sg5
F-5.0
sg6
F-8.0
sb(dp289
I00
F-347.1766682106772
sI01
F1140.3214460524143
ss(i__main__
State
p290
(dp291
g3
F-5.0
sg4
F4.0
sg5
F1.0
sg6
F-2.0
sb(dp292
I00
F-4124.548670361396
sI01
F567.7344572810352
ss(i__main__
State
p293
(dp294
g3
F-3.0
sg4
F8.0
sg5
F3.0
sg6
F0.0
sb(dp295
I00
F-1796.7
sI01
F8.76212101372448
ss(i__main__
State
p296
(dp297
g3
F2.0
sg4
F6.0
sg5
F8.0
sg6
F5.0
sb(dp298
I00
F-1104.8349839055325
sI01
F3023.7488139709862
ss(i__main__
State
p299
(dp300
g3
F-5.0
sg4
F0.0
sg5
F1.0
sg6
F-2.0
sb(dp301
I00
F-1571.4522415118336
sI01
F-42.97081914294219
ss(i__main__
State
p302
(dp303
g3
F-1.0
sg4
F2.0
sg5
F5.0
sg6
F2.0
sb(dp304
I00
F-1259.531283417414
sI01
F7.225989228064511
ss(i__main__
State
p305
(dp306
g3
F5.0
sg4
F3.0
sg5
F-6.0
sg6
F8.0
sb(dp307
I00
F-9832.555882810579
sI01
F46.063683260529515
ss(i__main__
State
p308
(dp309
g3
F-1.0
sg4
F6.0
sg5
F5.0
sg6
F2.0
sb(dp310
I00
F-14.775953147634368
sI01
F4180.27012437972
ss(i__main__
State
p311
(dp312
g3
F-7.0
sg4
F7.0
sg5
F-1.0
sg6
F-4.0
sb(dp313
I00
F-10672.1351608095
sI01
F-23.15604622973518
ss(i__main__
State
p314
(dp315
g3
F4.0
sg4
F3.0
sg5
F-7.0
sg6
F7.0
sb(dp316
I00
F-9293.22358624584
sI01
F59.549165223629494
ss(i__main__
State
p317
(dp318
g3
F-4.0
sg4
F1.0
sg5
F2.0
sg6
F-1.0
sb(dp319
I00
I-8
sI01
F38.50352610766879
ss(i__main__
State
p320
(dp321
g3
F1.0
sg4
F0.0
sg5
F7.0
sg6
F4.0
sb(dp322
I00
F-15391.2299481194
sI01
F25.252834680782673
ss(i__main__
State
p323
(dp324
g3
F8.0
sg4
F5.0
sg5
F-3.0
sg6
F-6.0
sb(dp325
I00
F-1545.5696430791684
sI01
F388.42362362799537
ss(i__main__
State
p326
(dp327
g3
F0.0
sg4
F0.0
sg5
F6.0
sg6
F3.0
sb(dp328
I00
F-4397.098274018473
sI01
F13.35377945534774
ss(i__main__
State
p329
(dp330
g3
F3.0
sg4
F0.0
sg5
F-8.0
sg6
F6.0
sb(dp331
I00
F-13002.442262311013
sI01
F19.79665496188103
ss(i__main__
State
p332
(dp333
g3
F7.0
sg4
F1.0
sg5
F-4.0
sg6
F-7.0
sb(dp334
I00
F-2620.66512719426
sI01
F15.3480824140699
ss(i__main__
State
p335
(dp336
g3
F4.0
sg4
F2.0
sg5
F-7.0
sg6
F7.0
sb(dp337
I00
F-10137.120132907823
sI01
F-4.887434344201828
ss(i__main__
State
p338
(dp339
g3
F-6.0
sg4
F4.0
sg5
F0.0
sg6
F-3.0
sb(dp340
I00
F-720.6745240736
sI01
F72.83727828163809
ss(i__main__
State
p341
(dp342
g3
F-4.0
sg4
F5.0
sg5
F2.0
sg6
F-1.0
sb(dp343
I00
F-1056.45953072
sI01
F1702.7175904777266
ss(i__main__
State
p344
(dp345
g3
F-3.0
sg4
F4.0
sg5
F3.0
sg6
F0.0
sb(dp346
I00
F-1895.0904956637792
sI01
F448.08186216373053
ss(i__main__
State
p347
(dp348
g3
F0.0
sg4
F3.0
sg5
F6.0
sg6
F3.0
sb(dp349
I00
F-4133.01483654441
sI01
F23.565844038764997
ss(i__main__
State
p350
(dp351
g3
F-7.0
sg4
F4.0
sg5
F-1.0
sg6
F-4.0
sb(dp352
I00
I39
sI01
F16.911658490000008
ss(i__main__
State
p353
(dp354
g3
F-4.0
sg4
F6.0
sg5
F2.0
sg6
F-1.0
sb(dp355
I00
F-3509.3103098577403
sI01
F630.07791406
ss(i__main__
State
p356
(dp357
g3
F-4.0
sg4
F3.0
sg5
F2.0
sg6
F-1.0
sb(dp358
I00
F-4612.636950399096
sI01
F122.58035893541056
ss(i__main__
State
p359
(dp360
g3
F-7.0
sg4
F6.0
sg5
F-1.0
sg6
F-4.0
sb(dp361
I00
F-428.4570221870986
sI01
F3837.339971502731
ss(i__main__
State
p362
(dp363
g3
F6.0
sg4
F2.0
sg5
F-5.0
sg6
F-8.0
sb(dp364
I00
I-35
sI01
F58.08542183538583
ss(i__main__
State
p365
(dp366
g3
F3.0
sg4
F5.0
sg5
F-8.0
sg6
F6.0
sb(dp367
I00
F-3159.231311217
sI01
F1127.0609505835066
ss(i__main__
State
p368
(dp369
g3
F-8.0
sg4
F8.0
sg5
F-2.0
sg6
F-5.0
sb(dp370
I00
F-10303.401543709553
sI01
F43.48039136263859
ss(i__main__
State
p371
(dp372
g3
F-2.0
sg4
F0.0
sg5
F4.0
sg6
F1.0
sb(dp373
I00
F-5558.563368326781
sI01
F15.949150577378875
ss(i__main__
State
p374
(dp375
g3
F6.0
sg4
F8.0
sg5
F-5.0
sg6
F-8.0
sb(dp376
I00
F-15355.30122457837
sI01
F9.014101969229053
ss(i__main__
State
p377
(dp378
g3
F5.0
sg4
F1.0
sg5
F-6.0
sg6
F8.0
sb(dp379
I00
F-2646.0609197689946
sI01
F31.176952814957478
ss(i__main__
State
p380
(dp381
g3
F-2.0
sg4
F4.0
sg5
F4.0
sg6
F1.0
sb(dp382
I00
F-1458.8234280515483
sI01
F390.3768353466675
ss(i__main__
State
p383
(dp384
g3
F-7.0
sg4
F2.0
sg5
F-1.0
sg6
F-4.0
sb(dp385
I00
F-3256.8264858
sI01
F22.645119483492287
ss(i__main__
State
p386
(dp387
g3
F2.0
sg4
F4.0
sg5
F8.0
sg6
F5.0
sb(dp388
I00
F-2788.5516000000002
sI01
F160.08737205447315
ss(i__main__
State
p389
(dp390
g3
F-2.0
sg4
F3.0
sg5
F4.0
sg6
F1.0
sb(dp391
I00
I-53
sI01
F38.49524482668813
ss(i__main__
State
p392
(dp393
g3
F6.0
sg4
F4.0
sg5
F-5.0
sg6
F-8.0
sb(dp394
I00
I73
sI01
F204.82414117428658
ss(i__main__
State
p395
(dp396
g3
F-4.0
sg4
F0.0
sg5
F2.0
sg6
F-1.0
sb(dp397
I00
F-13025.132022884549
sI01
F-9.516894636373848
ss(i__main__
State
p398
(dp399
g3
F3.0
sg4
F1.0
sg5
F-8.0
sg6
F6.0
sb(dp400
I00
F-4769.39553375676
sI01
F-45.91062154136665
ss(i__main__
State
p401
(dp402
g3
F-2.0
sg4
F6.0
sg5
F4.0
sg6
F1.0
sb(dp403
I00
F-2790.251274538773
sI01
F632.4479257073901
ss(i__main__
State
p404
(dp405
g3
F-6.0
sg4
F1.0
sg5
F0.0
sg6
F-3.0
sb(dp406
I00
F-11887.781335929209
sI01
F22.202592363430625
ss(i__main__
State
p407
(dp408
g3
F0.0
sg4
F7.0
sg5
F6.0
sg6
F3.0
sb(dp409
I00
F2778.50689770694
sI01
F6863.937429143122
ss(i__main__
State
p410
(dp411
g3
F2.0
sg4
F1.0
sg5
F8.0
sg6
F5.0
sb(dp412
I00
F-1344.2039419289001
sI01
F-34.91804778293591
ss(i__main__
State
p413
(dp414
g3
F4.0
sg4
F8.0
sg5
F-7.0
sg6
F7.0
sb(dp415
I00
F-17771.403365607643
sI01
F-5.391424705724661
ss(i__main__
State
p416
(dp417
g3
F7.0
sg4
F2.0
sg5
F-4.0
sg6
F-7.0
sb(dp418
I00
F-4105.741400000001
sI01
F13.64885093560306
ss(i__main__
State
p419
(dp420
g3
F2.0
sg4
F3.0
sg5
F8.0
sg6
F5.0
sb(dp421
I00
F-9116.319825049664
sI01
F32.8041225389
ss(i__main__
State
p422
(dp423
g3
F0.0
sg4
F4.0
sg5
F6.0
sg6
F3.0
sb(dp424
I00
F-4889.2811017409995
sI01
F183.07397070768715
ss(i__main__
State
p425
(dp426
g3
F-1.0
sg4
F8.0
sg5
F5.0
sg6
F2.0
sb(dp427
I00
F-6542.675700705889
sI01
F-3.0703739496427627
ss(i__main__
State
p428
(dp429
g3
F8.0
sg4
F6.0
sg5
F-3.0
sg6
F-6.0
sb(dp430
I00
F71.08954952713873
sI01
F3140.8665838401257
ss(i__main__
State
p431
(dp432
g3
F5.0
sg4
F7.0
sg5
F-6.0
sg6
F8.0
sb(dp433
I00
F-2464.788137895055
sI01
F6880.292837376142
ss(i__main__
State
p434
(dp435
g3
F2.0
sg4
F2.0
sg5
F8.0
sg6
F5.0
sb(dp436
I00
F-4947.656462293207
sI01
F50.429935100932305
ss(i__main__
State
p437
(dp438
g3
F-7.0
sg4
F3.0
sg5
F-1.0
sg6
F-4.0
sb(dp439
I00
F-9115.437125823555
sI01
F89.94782230911221
ss(i__main__
State
p440
(dp441
g3
F-5.0
sg4
F1.0
sg5
F1.0
sg6
F-2.0
sb(dp442
I00
F-2621.845965317926
sI01
F35.05534904483248
ss(i__main__
State
p443
(dp444
g3
F0.0
sg4
F8.0
sg5
F6.0
sg6
F3.0
sb(dp445
I00
F-14979.111950044557
sI01
F23.52185014829888
ss(i__main__
State
p446
(dp447
g3
F4.0
sg4
F6.0
sg5
F-7.0
sg6
F7.0
sb(dp448
I00
I-77
sI01
F3283.3522546132153
ss(i__main__
State
p449
(dp450
g3
F-3.0
sg4
F5.0
sg5
F3.0
sg6
F0.0
sb(dp451
I00
F-747.7474875347875
sI01
F969.1852096127677
ss(i__main__
State
p452
(dp453
g3
F1.0
sg4
F6.0
sg5
F7.0
sg6
F4.0
sb(dp454
I00
F521.3642116459423
sI01
F4249.5864277671035
ss(i__main__
State
p455
(dp456
g3
F8.0
sg4
F0.0
sg5
F-3.0
sg6
F-6.0
sb(dp457
I00
F-6521.9221294
sI01
F-64.57740604896
ss(i__main__
State
p458
(dp459
g3
F3.0
sg4
F8.0
sg5
F-8.0
sg6
F6.0
sb(dp460
I00
F-16991.637693981942
sI01
F6.2053502270864405
ss(i__main__
State
p461
(dp462
g3
F-7.0
sg4
F0.0
sg5
F-1.0
sg6
F-4.0
sb(dp463
I00
F-1536.75
sI01
F53.899901666062085
ss.