(dp0
(i__main__
State
p1
(dp2
S'y1'
p3
F8.0
sS'x'
p4
F3.0
sS'y3'
p5
F-3.0
sS'y2'
p6
F-6.0
sb(dp7
I00
F-7141.091535805933
sI01
F5420.615992176474
ss(i__main__
State
p8
(dp9
g3
F4.0
sg4
F7.0
sg5
F-7.0
sg6
F7.0
sb(dp10
I00
F878.6624427828006
sI01
F10713.938312532699
ss(i__main__
State
p11
(dp12
g3
F-7.0
sg4
F5.0
sg5
F-1.0
sg6
F-4.0
sb(dp13
I00
F-353.60623363222163
sI01
F7368.156973126903
ss(i__main__
State
p14
(dp15
g3
F-5.0
sg4
F2.0
sg5
F1.0
sg6
F-2.0
sb(dp16
I00
F-5884.150470951379
sI01
F5055.641308138227
ss(i__main__
State
p17
(dp18
g3
F7.0
sg4
F6.0
sg5
F-4.0
sg6
F-7.0
sb(dp19
I00
F3048.451679127352
sI01
F9770.499276493962
ss(i__main__
State
p20
(dp21
g3
F3.0
sg4
F7.0
sg5
F-8.0
sg6
F6.0
sb(dp22
I00
F2367.2243923367496
sI01
F10674.757660848023
ss(i__main__
State
p23
(dp24
g3
F-1.0
sg4
F0.0
sg5
F5.0
sg6
F2.0
sb(dp25
I00
F-7311.7661914103
sI01
F2212.774190725405
ss(i__main__
State
p26
(dp27
g3
F-1.0
sg4
F3.0
sg5
F5.0
sg6
F2.0
sb(dp28
I00
F-5089.125807319572
sI01
F6602.924821821229
ss(i__main__
State
p29
(dp30
g3
F1.0
sg4
F4.0
sg5
F7.0
sg6
F4.0
sb(dp31
I00
F-2196.312829541309
sI01
F9077.616309390862
ss(i__main__
State
p32
(dp33
g3
F1.0
sg4
F2.0
sg5
F7.0
sg6
F4.0
sb(dp34
I00
F-8418.391665844687
sI01
F5177.758316339232
ss(i__main__
State
p35
(dp36
g3
F-1.0
sg4
F5.0
sg5
F5.0
sg6
F2.0
sb(dp37
I00
F1362.8031488037377
sI01
F9614.095650701602
ss(i__main__
State
p38
(dp39
g3
F-6.0
sg4
F5.0
sg5
F0.0
sg6
F-3.0
sb(dp40
I00
F-874.275496321075
sI01
F5034.511533229339
ss(i__main__
State
p41
(dp42
g3
F-2.0
sg4
F8.0
sg5
F4.0
sg6
F1.0
sb(dp43
I00
F-13587.341427780642
sI01
F1381.0151599343337
ss(i__main__
State
p44
(dp45
g3
F6.0
sg4
F0.0
sg5
F-5.0
sg6
F-8.0
sb(dp46
I00
F-10442.686219926369
sI01
F2047.0054568702747
ss(i__main__
State
p47
(dp48
g3
F-4.0
sg4
F7.0
sg5
F2.0
sg6
F-1.0
sb(dp49
I00
F2407.269744675746
sI01
F4027.071265639942
ss(i__main__
State
p50
(dp51
g3
F-3.0
sg4
F2.0
sg5
F3.0
sg6
F0.0
sb(dp52
I00
F-4743.359038865055
sI01
F5386.218809790975
ss(i__main__
State
p53
(dp54
g3
F5.0
sg4
F0.0
sg5
F-6.0
sg6
F8.0
sb(dp55
I00
F-12326.395346246336
sI01
F1759.4853395429045
ss(i__main__
State
p56
(dp57
g3
F3.0
sg4
F2.0
sg5
F-8.0
sg6
F6.0
sb(dp58
I00
F-8626.701487025084
sI01
F4116.188224039731
ss(i__main__
State
p59
(dp60
g3
F3.0
sg4
F3.0
sg5
F-8.0
sg6
F6.0
sb(dp61
I00
F-7009.733316543348
sI01
F7657.459332937635
ss(i__main__
State
p62
(dp63
g3
F2.0
sg4
F0.0
sg5
F8.0
sg6
F5.0
sb(dp64
I00
F-9746.416506884687
sI01
F1748.6710688011117
ss(i__main__
State
p65
(dp66
g3
F4.0
sg4
F4.0
sg5
F-7.0
sg6
F7.0
sb(dp67
I00
F-1487.828998176215
sI01
F8688.661404583307
ss(i__main__
State
p68
(dp69
g3
F-2.0
sg4
F2.0
sg5
F4.0
sg6
F1.0
sb(dp70
I00
F-7438.355018323525
sI01
F4756.895760081803
ss(i__main__
State
p71
(dp72
g3
F-4.0
sg4
F2.0
sg5
F2.0
sg6
F-1.0
sb(dp73
I00
F-4972.203198985647
sI01
F6569.168511994601
ss(i__main__
State
p74
(dp75
g3
F-6.0
sg4
F3.0
sg5
F0.0
sg6
F-3.0
sb(dp76
I00
F-4410.611978375907
sI01
F6141.67639782288
ss(i__main__
State
p77
(dp78
g3
F2.0
sg4
F8.0
sg5
F8.0
sg6
F5.0
sb(dp79
I00
F-14377.519334325436
sI01
F715.18726730148
ss(i__main__
State
p80
(dp81
g3
F6.0
sg4
F1.0
sg5
F-5.0
sg6
F-8.0
sb(dp82
I00
F-10559.815138708203
sI01
F2970.5114141355375
ss(i__main__
State
p83
(dp84
g3
F5.0
sg4
F6.0
sg5
F-6.0
sg6
F8.0
sb(dp85
I00
F3233.753202870147
sI01
F9914.455329400844
ss(i__main__
State
p86
(dp87
g3
F8.0
sg4
F1.0
sg5
F-3.0
sg6
F-6.0
sb(dp88
I00
F-11936.373096433988
sI01
F3266.2360748458145
ss(i__main__
State
p89
(dp90
g3
F-5.0
sg4
F5.0
sg5
F1.0
sg6
F-2.0
sb(dp91
I00
F955.3324346335914
sI01
F9062.545194402213
ss(i__main__
State
p92
(dp93
g3
F-5.0
sg4
F8.0
sg5
F1.0
sg6
F-2.0
sb(dp94
I00
F-15430.272586508963
sI01
F731.6666350255942
ss(i__main__
State
p95
(dp96
g3
F0.0
sg4
F1.0
sg5
F6.0
sg6
F3.0
sb(dp97
I00
F-8717.38192095891
sI01
F3578.6400807240348
ss(i__main__
State
p98
(dp99
g3
F5.0
sg4
F8.0
sg5
F-6.0
sg6
F8.0
sb(dp100
I00
F-16290.9296257418
sI01
F1244.401816810061
ss(i__main__
State
p101
(dp102
g3
F3.0
sg4
F6.0
sg5
F-8.0
sg6
F6.0
sb(dp103
I00
F4665.734437676493
sI01
F10279.58114141875
ss(i__main__
State
p104
(dp105
g3
F8.0
sg4
F7.0
sg5
F-3.0
sg6
F-6.0
sb(dp106
I00
F1852.7597034978262
sI01
F10836.863644227811
ss(i__main__
State
p107
(dp108
g3
F8.0
sg4
F4.0
sg5
F-3.0
sg6
F-6.0
sb(dp109
I00
F-2079.6947306936713
sI01
F7027.5656908153815
ss(i__main__
State
p110
(dp111
g3
F-7.0
sg4
F1.0
sg5
F-1.0
sg6
F-4.0
sb(dp112
I00
F-9092.499670751058
sI01
F3048.0668242245138
ss(i__main__
State
p113
(dp114
g3
F8.0
sg4
F8.0
sg5
F-3.0
sg6
F-6.0
sb(dp115
I00
F-15467.988418838371
sI01
F897.8040608689569
ss(i__main__
State
p116
(dp117
g3
F7.0
sg4
F8.0
sg5
F-4.0
sg6
F-7.0
sb(dp118
I00
F-13292.77951551081
sI01
F1402.5594645542249
ss(i__main__
State
p119
(dp120
g3
F-3.0
sg4
F3.0
sg5
F3.0
sg6
F0.0
sb(dp121
I00
F-6169.416324601441
sI01
F7738.2246130486365
ss(i__main__
State
p122
(dp123
g3
F-6.0
sg4
F8.0
sg5
F0.0
sg6
F-3.0
sb(dp124
I00
F-17220.84275778986
sI01
F1632.0871824212509
ss(i__main__
State
p125
(dp126
g3
F8.0
sg4
F2.0
sg5
F-3.0
sg6
F-6.0
sb(dp127
I00
F-9167.379360672528
sI01
F4103.102353863864
ss(i__main__
State
p128
(dp129
g3
F-5.0
sg4
F3.0
sg5
F1.0
sg6
F-2.0
sb(dp130
I00
F-7781.635014739572
sI01
F5035.540267913509
ss(i__main__
State
p131
(dp132
g3
F6.0
sg4
F6.0
sg5
F-5.0
sg6
F-8.0
sb(dp133
I00
F2023.2214907931982
sI01
F10018.004371059416
ss(i__main__
State
p134
(dp135
g3
F-8.0
sg4
F6.0
sg5
F-2.0
sg6
F-5.0
sb(dp136
I00
F-89.3943844226834
sI01
F3506.9980123550476
ss(i__main__
State
p137
(dp138
g3
F6.0
sg4
F7.0
sg5
F-5.0
sg6
F-8.0
sb(dp139
I00
F-182.3287144361343
sI01
F10634.400520434998
ss(i__main__
State
p140
(dp141
g3
F1.0
sg4
F3.0
sg5
F7.0
sg6
F4.0
sb(dp142
I00
F-3253.0380803230746
sI01
F5880.844495063038
ss(i__main__
State
p143
(dp144
g3
F1.0
sg4
F1.0
sg5
F7.0
sg6
F4.0
sb(dp145
I00
F-8806.711080896845
sI01
F4604.628161690348
ss(i__main__
State
p146
(dp147
g3
F2.0
sg4
F5.0
sg5
F8.0
sg6
F5.0
sb(dp148
I00
F1387.7969375176633
sI01
F9823.002946911278
ss(i__main__
State
p149
(dp150
g3
F0.0
sg4
F2.0
sg5
F6.0
sg6
F3.0
sb(dp151
I00
F-9914.345803033819
sI01
F4220.463856389793
ss(i__main__
State
p152
(dp153
g3
F-1.0
sg4
F4.0
sg5
F5.0
sg6
F2.0
sb(dp154
I00
F-959.3674131440481
sI01
F8770.532150553348
ss(i__main__
State
p155
(dp156
g3
F-1.0
sg4
F1.0
sg5
F5.0
sg6
F2.0
sb(dp157
I00
F-6953.624805612049
sI01
F2795.407104455591
ss(i__main__
State
p158
(dp159
g3
F2.0
sg4
F7.0
sg5
F8.0
sg6
F5.0
sb(dp160
I00
F5321.84886079783
sI01
F10494.43416749126
ss(i__main__
State
p161
(dp162
g3
F6.0
sg4
F3.0
sg5
F-5.0
sg6
F-8.0
sb(dp163
I00
F-6394.0166180977985
sI01
F2316.571607830833
ss(i__main__
State
p164
(dp165
g3
F-5.0
sg4
F6.0
sg5
F1.0
sg6
F-2.0
sb(dp166
I00
F436.9853151797124
sI01
F4568.799219069026
ss(i__main__
State
p167
(dp168
g3
F-6.0
sg4
F7.0
sg5
F0.0
sg6
F-3.0
sb(dp169
I00
F-1943.3433484979912
sI01
F9504.671302402568
ss(i__main__
State
p170
(dp171
g3
F3.0
sg4
F4.0
sg5
F-8.0
sg6
F6.0
sb(dp172
I00
F-2682.2565254567035
sI01
F7644.608497016442
ss(i__main__
State
p173
(dp174
g3
F7.0
sg4
F4.0
sg5
F-4.0
sg6
F-7.0
sb(dp175
I00
F-3255.708102620732
sI01
F2336.973170832492
ss(i__main__
State
p176
(dp177
g3
F4.0
sg4
F1.0
sg5
F-7.0
sg6
F7.0
sb(dp178
I00
F-10390.485498891905
sI01
F2153.6070047098437
ss(i__main__
State
p179
(dp180
g3
F1.0
sg4
F7.0
sg5
F7.0
sg6
F4.0
sb(dp181
I00
F146.37442560298564
sI01
F10435.651597259146
ss(i__main__
State
p182
(dp183
g3
F1.0
sg4
F5.0
sg5
F7.0
sg6
F4.0
sb(dp184
I00
F455.04369145093085
sI01
F9621.285818399434
ss(i__main__
State
p185
(dp186
g3
F-3.0
sg4
F0.0
sg5
F3.0
sg6
F0.0
sb(dp187
I00
F-11168.82640123944
sI01
F2080.1658572315405
ss(i__main__
State
p188
(dp189
g3
F-8.0
sg4
F4.0
sg5
F-2.0
sg6
F-5.0
sb(dp190
I00
F-3149.2488941259508
sI01
F6223.9332291058845
ss(i__main__
State
p191
(dp192
g3
F5.0
sg4
F5.0
sg5
F-6.0
sg6
F8.0
sb(dp193
I00
F-51.91172896785929
sI01
F9463.638168199894
ss(i__main__
State
p194
(dp195
g3
F5.0
sg4
F4.0
sg5
F-6.0
sg6
F8.0
sb(dp196
I00
F-2406.3676910902736
sI01
F7267.326322707425
ss(i__main__
State
p197
(dp198
g3
F-2.0
sg4
F5.0
sg5
F4.0
sg6
F1.0
sb(dp199
I00
F649.0177341371219
sI01
F9663.962174581507
ss(i__main__
State
p200
(dp201
g3
F-8.0
sg4
F2.0
sg5
F-2.0
sg6
F-5.0
sb(dp202
I00
F-4315.381174972472
sI01
F4736.1818374084
ss(i__main__
State
p203
(dp204
g3
F-8.0
sg4
F7.0
sg5
F-2.0
sg6
F-5.0
sb(dp205
I00
F-6222.732067480001
sI01
F7970.052163687634
ss(i__main__
State
p206
(dp207
g3
F1.0
sg4
F8.0
sg5
F7.0
sg6
F4.0
sb(dp208
I00
F-12955.70379440766
sI01
F1187.9759523894145
ss(i__main__
State
p209
(dp210
g3
F0.0
sg4
F5.0
sg5
F6.0
sg6
F3.0
sb(dp211
I00
F-476.0500438590536
sI01
F9607.272237859032
ss(i__main__
State
p212
(dp213
g3
F-6.0
sg4
F2.0
sg5
F0.0
sg6
F-3.0
sb(dp214
I00
F-8465.342016011668
sI01
F3996.669932951814
ss(i__main__
State
p215
(dp216
g3
F-8.0
sg4
F5.0
sg5
F-2.0
sg6
F-5.0
sb(dp217
I00
F276.1547600701624
sI01
F7731.025858324942
ss(i__main__
State
p218
(dp219
g3
F-3.0
sg4
F6.0
sg5
F3.0
sg6
F0.0
sb(dp220
I00
F2898.484755423703
sI01
F7247.517683916326
ss(i__main__
State
p221
(dp222
g3
F7.0
sg4
F3.0
sg5
F-4.0
sg6
F-7.0
sb(dp223
I00
F-6380.611658525766
sI01
F5830.6177956975525
ss(i__main__
State
p224
(dp225
g3
F-5.0
sg4
F7.0
sg5
F1.0
sg6
F-2.0
sb(dp226
I00
F-1175.6199197850221
sI01
F7814.856483192185
ss(i__main__
State
p227
(dp228
g3
F-4.0
sg4
F4.0
sg5
F2.0
sg6
F-1.0
sb(dp229
I00
F-4692.519882929611
sI01
F5400.904020824606
ss(i__main__
State
p230
(dp231
g3
F7.0
sg4
F0.0
sg5
F-4.0
sg6
F-7.0
sb(dp232
I00
F-10223.832035925028
sI01
F1841.215943020811
ss(i__main__
State
p233
(dp234
g3
F-6.0
sg4
F6.0
sg5
F0.0
sg6
F-3.0
sb(dp235
I00
F1863.1362546119901
sI01
F8234.456750286176
ss(i__main__
State
p236
(dp237
g3
F-6.0
sg4
F0.0
sg5
F0.0
sg6
F-3.0
sb(dp238
I00
F-14747.976435002107
sI01
F2764.629858532383
ss(i__main__
State
p239
(dp240
g3
F-8.0
sg4
F0.0
sg5
F-2.0
sg6
F-5.0
sb(dp241
I00
F-8833.626586200578
sI01
F1638.603481298008
ss(i__main__
State
p242
(dp243
g3
F-7.0
sg4
F8.0
sg5
F-1.0
sg6
F-4.0
sb(dp244
I00
F-17214.382310977842
sI01
F1563.4282180601504
ss(i__main__
State
p245
(dp246
g3
F-1.0
sg4
F7.0
sg5
F5.0
sg6
F2.0
sb(dp247
I00
F1830.821997863135
sI01
F3509.7359664135406
ss(i__main__
State
p248
(dp249
g3
F5.0
sg4
F2.0
sg5
F-6.0
sg6
F8.0
sb(dp250
I00
F-11008.991516475562
sI01
F2587.7350618324385
ss(i__main__
State
p251
(dp252
g3
F-8.0
sg4
F3.0
sg5
F-2.0
sg6
F-5.0
sb(dp253
I00
F-6472.969160320004
sI01
F5336.440284346794
ss(i__main__
State
p254
(dp255
g3
F-2.0
sg4
F7.0
sg5
F4.0
sg6
F1.0
sb(dp256
I00
F-6301.497711519563
sI01
F9216.00949417464
ss(i__main__
State
p257
(dp258
g3
F0.0
sg4
F6.0
sg5
F6.0
sg6
F3.0
sb(dp259
I00
F3978.3828615408747
sI01
F10092.482957790256
ss(i__main__
State
p260
(dp261
g3
F-2.0
sg4
F1.0
sg5
F4.0
sg6
F1.0
sb(dp262
I00
F-7812.139586640925
sI01
F3677.6612191560794
ss(i__main__
State
p263
(dp264
g3
F-4.0
sg4
F8.0
sg5
F2.0
sg6
F-1.0
sb(dp265
I00
F-8667.123401912435
sI01
F1094.5324777161516
ss(i__main__
State
p266
(dp267
g3
F-8.0
sg4
F1.0
sg5
F-2.0
sg6
F-5.0
sb(dp268
I00
F-6398.999577824893
sI01
F3504.619670714958
ss(i__main__
State
p269
(dp270
g3
F-3.0
sg4
F1.0
sg5
F3.0
sg6
F0.0
sb(dp271
I00
F-13370.268973055589
sI01
F2832.0187622807125
ss(i__main__
State
p272
(dp273
g3
F7.0
sg4
F7.0
sg5
F-4.0
sg6
F-7.0
sb(dp274
I00
F1061.4620749251253
sI01
F10442.05248796469
ss(i__main__
State
p275
(dp276
g3
F7.0
sg4
F5.0
sg5
F-4.0
sg6
F-7.0
sb(dp277
I00
F286.2627902985199
sI01
F7191.212649016806
ss(i__main__
State
p278
(dp279
g3
F-3.0
sg4
F7.0
sg5
F3.0
sg6
F0.0
sb(dp280
I00
F3723.223738414288
sI01
F10742.952387698113
ss(i__main__
State
p281
(dp282
g3
F4.0
sg4
F5.0
sg5
F-7.0
sg6
F7.0
sb(dp283
I00
F-292.03788417853764
sI01
F8945.517434185678
ss(i__main__
State
p284
(dp285
g3
F4.0
sg4
F0.0
sg5
F-7.0
sg6
F7.0
sb(dp286
I00
F-11168.481132586803
sI01
F1352.6325308934502
ss(i__main__
State
p287
(dp288
g3
F6.0
sg4
F5.0
sg5
F-5.0
sg6
F-8.0
sb(dp289
I00
F907.9435571689105
sI01
F8502.704881933214
ss(i__main__
State
p290
(dp291
g3
F-5.0
sg4
F4.0
sg5
F1.0
sg6
F-2.0
sb(dp292
I00
F-3220.826609220158
sI01
F6845.990840583335
ss(i__main__
State
p293
(dp294
g3
F-3.0
sg4
F8.0
sg5
F3.0
sg6
F0.0
sb(dp295
I00
F-10432.824811259161
sI01
F1075.4625007878226
ss(i__main__
State
p296
(dp297
g3
F2.0
sg4
F6.0
sg5
F8.0
sg6
F5.0
sb(dp298
I00
F4277.362578814735
sI01
F10319.065165430342
ss(i__main__
State
p299
(dp300
g3
F-5.0
sg4
F0.0
sg5
F1.0
sg6
F-2.0
sb(dp301
I00
F-7739.859540195822
sI01
F2651.440021519309
ss(i__main__
State
p302
(dp303
g3
F-1.0
sg4
F2.0
sg5
F5.0
sg6
F2.0
sb(dp304
I00
F-5905.870355062634
sI01
F5798.404294668546
ss(i__main__
State
p305
(dp306
g3
F5.0
sg4
F3.0
sg5
F-6.0
sg6
F8.0
sb(dp307
I00
F-7764.955673146876
sI01
F5223.632525026019
ss(i__main__
State
p308
(dp309
g3
F-1.0
sg4
F6.0
sg5
F5.0
sg6
F2.0
sb(dp310
I00
F3556.70785605862
sI01
F10153.988047581825
ss(i__main__
State
p311
(dp312
g3
F-7.0
sg4
F7.0
sg5
F-1.0
sg6
F-4.0
sb(dp313
I00
F1238.8223211164825
sI01
F2401.92374367581
ss(i__main__
State
p314
(dp315
g3
F4.0
sg4
F3.0
sg5
F-7.0
sg6
F7.0
sb(dp316
I00
F-7695.9215160711265
sI01
F5968.706839982039
ss(i__main__
State
p317
(dp318
g3
F-4.0
sg4
F1.0
sg5
F2.0
sg6
F-1.0
sb(dp319
I00
F-7620.31591456056
sI01
F3896.0566775314414
ss(i__main__
State
p320
(dp321
g3
F1.0
sg4
F0.0
sg5
F7.0
sg6
F4.0
sb(dp322
I00
F-15406.703299983452
sI01
F1479.7035495494613
ss(i__main__
State
p323
(dp324
g3
F8.0
sg4
F5.0
sg5
F-3.0
sg6
F-6.0
sb(dp325
I00
F-2735.0949393563715
sI01
F2692.8278749088645
ss(i__main__
State
p326
(dp327
g3
F0.0
sg4
F0.0
sg5
F6.0
sg6
F3.0
sb(dp328
I00
F-8658.96155195782
sI01
F3125.9204858225594
ss(i__main__
State
p329
(dp330
g3
F3.0
sg4
F0.0
sg5
F-8.0
sg6
F6.0
sb(dp331
I00
F-14311.483806489096
sI01
F1020.699455485386
ss(i__main__
State
p332
(dp333
g3
F7.0
sg4
F1.0
sg5
F-4.0
sg6
F-7.0
sb(dp334
I00
F-7777.508666598463
sI01
F2976.298829733204
ss(i__main__
State
p335
(dp336
g3
F4.0
sg4
F2.0
sg5
F-7.0
sg6
F7.0
sb(dp337
I00
F-9859.704537381487
sI01
F4168.209456033718
ss(i__main__
State
p338
(dp339
g3
F-6.0
sg4
F4.0
sg5
F0.0
sg6
F-3.0
sb(dp340
I00
F-1188.074804248796
sI01
F7914.462260173061
ss(i__main__
State
p341
(dp342
g3
F-4.0
sg4
F5.0
sg5
F2.0
sg6
F-1.0
sb(dp343
I00
F389.1921208856117
sI01
F7139.010626168249
ss(i__main__
State
p344
(dp345
g3
F-3.0
sg4
F4.0
sg5
F3.0
sg6
F0.0
sb(dp346
I00
F-1793.530116332291
sI01
F8728.364522889691
ss(i__main__
State
p347
(dp348
g3
F0.0
sg4
F3.0
sg5
F6.0
sg6
F3.0
sb(dp349
I00
F-4183.13097515211
sI01
F7896.315073777046
ss(i__main__
State
p350
(dp351
g3
F-7.0
sg4
F4.0
sg5
F-1.0
sg6
F-4.0
sb(dp352
I00
F-3160.56057851193
sI01
F6063.4585040934635
ss(i__main__
State
p353
(dp354
g3
F-4.0
sg4
F6.0
sg5
F2.0
sg6
F-1.0
sb(dp355
I00
F2885.966096297444
sI01
F9882.90355290903
ss(i__main__
State
p356
(dp357
g3
F-4.0
sg4
F3.0
sg5
F2.0
sg6
F-1.0
sb(dp358
I00
F-5022.813648134536
sI01
F7094.607612813884
ss(i__main__
State
p359
(dp360
g3
F-7.0
sg4
F6.0
sg5
F-1.0
sg6
F-4.0
sb(dp361
I00
F2799.1725864005007
sI01
F8076.887420627357
ss(i__main__
State
p362
(dp363
g3
F6.0
sg4
F2.0
sg5
F-5.0
sg6
F-8.0
sb(dp364
I00
F-4127.516418605258
sI01
F4175.6767245922865
ss(i__main__
State
p365
(dp366
g3
F3.0
sg4
F5.0
sg5
F-8.0
sg6
F6.0
sb(dp367
I00
F-1029.3626794714087
sI01
F8935.094285152873
ss(i__main__
State
p368
(dp369
g3
F-8.0
sg4
F8.0
sg5
F-2.0
sg6
F-5.0
sb(dp370
I00
F-15267.801816076653
sI01
F1682.830994819237
ss(i__main__
State
p371
(dp372
g3
F-2.0
sg4
F0.0
sg5
F4.0
sg6
F1.0
sb(dp373
I00
F-8799.719430437308
sI01
F2081.356285607439
ss(i__main__
State
p374
(dp375
g3
F6.0
sg4
F8.0
sg5
F-5.0
sg6
F-8.0
sb(dp376
I00
F-16219.724382412865
sI01
F1215.2864674190466
ss(i__main__
State
p377
(dp378
g3
F5.0
sg4
F1.0
sg5
F-6.0
sg6
F8.0
sb(dp379
I00
F-8099.616162825796
sI01
F2569.76408424637
ss(i__main__
State
p380
(dp381
g3
F-2.0
sg4
F4.0
sg5
F4.0
sg6
F1.0
sb(dp382
I00
F-1495.6121895870701
sI01
F8788.75439341527
ss(i__main__
State
p383
(dp384
g3
F-7.0
sg4
F2.0
sg5
F-1.0
sg6
F-4.0
sb(dp385
I00
F-6465.346923724586
sI01
F4830.967225399287
ss(i__main__
State
p386
(dp387
g3
F2.0
sg4
F4.0
sg5
F8.0
sg6
F5.0
sb(dp388
I00
F-2628.094828355332
sI01
F7287.801873940402
ss(i__main__
State
p389
(dp390
g3
F-2.0
sg4
F3.0
sg5
F4.0
sg6
F1.0
sb(dp391
I00
F-2573.0377154939174
sI01
F7184.073294251267
ss(i__main__
State
p392
(dp393
g3
F6.0
sg4
F4.0
sg5
F-5.0
sg6
F-8.0
sb(dp394
I00
F-1040.6253542038978
sI01
F5806.58451962347
ss(i__main__
State
p395
(dp396
g3
F-4.0
sg4
F0.0
sg5
F2.0
sg6
F-1.0
sb(dp397
I00
F-13542.93396662272
sI01
F1246.9175720474534
ss(i__main__
State
p398
(dp399
g3
F3.0
sg4
F1.0
sg5
F-8.0
sg6
F6.0
sb(dp400
I00
F-8505.423771203261
sI01
F3046.8549278430296
ss(i__main__
State
p401
(dp402
g3
F-2.0
sg4
F6.0
sg5
F4.0
sg6
F1.0
sb(dp403
I00
F-389.0329051698952
sI01
F3580.1146377644836
ss(i__main__
State
p404
(dp405
g3
F-6.0
sg4
F1.0
sg5
F0.0
sg6
F-3.0
sb(dp406
I00
F-11621.71021330972
sI01
F3657.695736804556
ss(i__main__
State
p407
(dp408
g3
F0.0
sg4
F7.0
sg5
F6.0
sg6
F3.0
sb(dp409
I00
F1734.5540862879388
sI01
F10569.004721128393
ss(i__main__
State
p410
(dp411
g3
F2.0
sg4
F1.0
sg5
F8.0
sg6
F5.0
sb(dp412
I00
F-8641.7406917749
sI01
F2544.3866950270904
ss(i__main__
State
p413
(dp414
g3
F4.0
sg4
F8.0
sg5
F-7.0
sg6
F7.0
sb(dp415
I00
F-17649.82154187974
sI01
F1194.764267211176
ss(i__main__
State
p416
(dp417
g3
F7.0
sg4
F2.0
sg5
F-4.0
sg6
F-7.0
sb(dp418
I00
F-7214.782791291393
sI01
F4227.918357610636
ss(i__main__
State
p419
(dp420
g3
F2.0
sg4
F3.0
sg5
F8.0
sg6
F5.0
sb(dp421
I00
F-7825.6913164523985
sI01
F6072.711310497618
ss(i__main__
State
p422
(dp423
g3
F0.0
sg4
F4.0
sg5
F6.0
sg6
F3.0
sb(dp424
I00
F-4503.6940444673055
sI01
F8427.908050219892
ss(i__main__
State
p425
(dp426
g3
F-1.0
sg4
F8.0
sg5
F5.0
sg6
F2.0
sb(dp427
I00
F-11212.974419338143
sI01
F2098.211376390648
ss(i__main__
State
p428
(dp429
g3
F8.0
sg4
F6.0
sg5
F-3.0
sg6
F-6.0
sb(dp430
I00
F3324.025708359024
sI01
F8005.28899894696
ss(i__main__
State
p431
(dp432
g3
F5.0
sg4
F7.0
sg5
F-6.0
sg6
F8.0
sb(dp433
I00
F3610.7046359719775
sI01
F10618.351143821144
ss(i__main__
State
p434
(dp435
g3
F2.0
sg4
F2.0
sg5
F8.0
sg6
F5.0
sb(dp436
I00
F-6285.531943867709
sI01
F5834.644094795103
ss(i__main__
State
p437
(dp438
g3
F-7.0
sg4
F3.0
sg5
F-1.0
sg6
F-4.0
sb(dp439
I00
F-7340.178127856865
sI01
F6288.54832281117
ss(i__main__
State
p440
(dp441
g3
F-5.0
sg4
F1.0
sg5
F1.0
sg6
F-2.0
sb(dp442
I00
F-8475.861467076289
sI01
F4796.868545350104
ss(i__main__
State
p443
(dp444
g3
F0.0
sg4
F8.0
sg5
F6.0
sg6
F3.0
sb(dp445
I00
F-15966.86254588745
sI01
F800.9460487751538
ss(i__main__
State
p446
(dp447
g3
F4.0
sg4
F6.0
sg5
F-7.0
sg6
F7.0
sb(dp448
I00
F2491.6301633534695
sI01
F10018.79487960521
ss(i__main__
State
p449
(dp450
g3
F-3.0
sg4
F5.0
sg5
F3.0
sg6
F0.0
sb(dp451
I00
F-863.2708141336255
sI01
F4863.208230044653
ss(i__main__
State
p452
(dp453
g3
F1.0
sg4
F6.0
sg5
F7.0
sg6
F4.0
sb(dp454
I00
F3463.4272407039603
sI01
F10052.569296879494
ss(i__main__
State
p455
(dp456
g3
F8.0
sg4
F0.0
sg5
F-3.0
sg6
F-6.0
sb(dp457
I00
F-11202.9777083173
sI01
F2225.4829810704105
ss(i__main__
State
p458
(dp459
g3
F3.0
sg4
F8.0
sg5
F-8.0
sg6
F6.0
sb(dp460
I00
F-16721.95866578635
sI01
F1082.0723148225009
ss(i__main__
State
p461
(dp462
g3
F-7.0
sg4
F0.0
sg5
F-1.0
sg6
F-4.0
sb(dp463
I00
F-8652.90846174104
sI01
F2558.6997580276284
ss.