(dp0
(i__main__
State
p1
(dp2
S'y1'
p3
F8.0
sS'x'
p4
F3.0
sS'y3'
p5
F-3.0
sS'y2'
p6
F-6.0
sb(dp7
I00
F-8247.349710898592
sI01
F3813.3786639672635
ss(i__main__
State
p8
(dp9
g3
F4.0
sg4
F7.0
sg5
F-7.0
sg6
F7.0
sb(dp10
I00
F2082.970052345869
sI01
F10196.164493630153
ss(i__main__
State
p11
(dp12
g3
F-7.0
sg4
F5.0
sg5
F-1.0
sg6
F-4.0
sb(dp13
I00
F-353.60623363222163
sI01
F6293.6850068374515
ss(i__main__
State
p14
(dp15
g3
F-5.0
sg4
F2.0
sg5
F1.0
sg6
F-2.0
sb(dp16
I00
F-5953.102645994769
sI01
F3083.2597484155044
ss(i__main__
State
p17
(dp18
g3
F7.0
sg4
F6.0
sg5
F-4.0
sg6
F-7.0
sb(dp19
I00
F2466.156339656282
sI01
F8169.894057417612
ss(i__main__
State
p20
(dp21
g3
F3.0
sg4
F7.0
sg5
F-8.0
sg6
F6.0
sb(dp22
I00
F1406.7547280496055
sI01
F10174.911602437105
ss(i__main__
State
p23
(dp24
g3
F-1.0
sg4
F0.0
sg5
F5.0
sg6
F2.0
sb(dp25
I00
F-7311.7661914103
sI01
F1157.6308943733618
ss(i__main__
State
p26
(dp27
g3
F-1.0
sg4
F3.0
sg5
F5.0
sg6
F2.0
sb(dp28
I00
F-5618.693632232717
sI01
F4046.996115242148
ss(i__main__
State
p29
(dp30
g3
F1.0
sg4
F4.0
sg5
F7.0
sg6
F4.0
sb(dp31
I00
F-5422.4065191159625
sI01
F7875.289836955402
ss(i__main__
State
p32
(dp33
g3
F1.0
sg4
F2.0
sg5
F7.0
sg6
F4.0
sb(dp34
I00
F-9104.703557096433
sI01
F3399.131613037556
ss(i__main__
State
p35
(dp36
g3
F-1.0
sg4
F5.0
sg5
F5.0
sg6
F2.0
sb(dp37
I00
F1105.833812954589
sI01
F8644.205838844442
ss(i__main__
State
p38
(dp39
g3
F-6.0
sg4
F5.0
sg5
F0.0
sg6
F-3.0
sb(dp40
I00
F-818.3046910225038
sI01
F5422.477946050158
ss(i__main__
State
p41
(dp42
g3
F-2.0
sg4
F8.0
sg5
F4.0
sg6
F1.0
sb(dp43
I00
F-12552.467251922293
sI01
F769.7243733534829
ss(i__main__
State
p44
(dp45
g3
F6.0
sg4
F0.0
sg5
F-5.0
sg6
F-8.0
sb(dp46
I00
F-10037.397527434046
sI01
F883.971412126158
ss(i__main__
State
p47
(dp48
g3
F-4.0
sg4
F7.0
sg5
F2.0
sg6
F-1.0
sb(dp49
I00
F2407.269744675746
sI01
F3424.7837841289056
ss(i__main__
State
p50
(dp51
g3
F-3.0
sg4
F2.0
sg5
F3.0
sg6
F0.0
sb(dp52
I00
F-4743.359038865055
sI01
F3477.570951683516
ss(i__main__
State
p53
(dp54
g3
F5.0
sg4
F0.0
sg5
F-6.0
sg6
F8.0
sb(dp55
I00
F-11574.72670772638
sI01
F731.8683761320397
ss(i__main__
State
p56
(dp57
g3
F3.0
sg4
F2.0
sg5
F-8.0
sg6
F6.0
sb(dp58
I00
F-8945.207371232527
sI01
F2146.8738483081092
ss(i__main__
State
p59
(dp60
g3
F3.0
sg4
F3.0
sg5
F-8.0
sg6
F6.0
sb(dp61
I00
F-8285.509522831375
sI01
F6453.854489999327
ss(i__main__
State
p62
(dp63
g3
F2.0
sg4
F0.0
sg5
F8.0
sg6
F5.0
sb(dp64
I00
F-9746.416506884687
sI01
F660.4547262209417
ss(i__main__
State
p65
(dp66
g3
F4.0
sg4
F4.0
sg5
F-7.0
sg6
F7.0
sb(dp67
I00
F-2160.3445070188536
sI01
F7959.591169122807
ss(i__main__
State
p68
(dp69
g3
F-2.0
sg4
F2.0
sg5
F4.0
sg6
F1.0
sb(dp70
I00
F-7438.355018323525
sI01
F2613.1248215737514
ss(i__main__
State
p71
(dp72
g3
F-4.0
sg4
F2.0
sg5
F2.0
sg6
F-1.0
sb(dp73
I00
F-5105.083216803722
sI01
F3687.613236115939
ss(i__main__
State
p74
(dp75
g3
F-6.0
sg4
F3.0
sg5
F0.0
sg6
F-3.0
sb(dp76
I00
F-4556.636021126618
sI01
F5020.832515754377
ss(i__main__
State
p77
(dp78
g3
F2.0
sg4
F8.0
sg5
F8.0
sg6
F5.0
sb(dp79
I00
F-14318.669719028547
sI01
F201.80377179069927
ss(i__main__
State
p80
(dp81
g3
F6.0
sg4
F1.0
sg5
F-5.0
sg6
F-8.0
sb(dp82
I00
F-10249.699146186123
sI01
F1395.5339189748443
ss(i__main__
State
p83
(dp84
g3
F5.0
sg4
F6.0
sg5
F-6.0
sg6
F8.0
sb(dp85
I00
F2539.4312995380096
sI01
F9442.660552148776
ss(i__main__
State
p86
(dp87
g3
F8.0
sg4
F1.0
sg5
F-3.0
sg6
F-6.0
sb(dp88
I00
F-12670.298858827658
sI01
F1427.1014795911992
ss(i__main__
State
p89
(dp90
g3
F-5.0
sg4
F5.0
sg5
F1.0
sg6
F-2.0
sb(dp91
I00
F-1189.327304286644
sI01
F8208.622402770088
ss(i__main__
State
p92
(dp93
g3
F-5.0
sg4
F8.0
sg5
F1.0
sg6
F-2.0
sb(dp94
I00
F-15179.03886037443
sI01
F288.7963331026656
ss(i__main__
State
p95
(dp96
g3
F0.0
sg4
F1.0
sg5
F6.0
sg6
F3.0
sb(dp97
I00
F-7664.346214940184
sI01
F2044.1744052819504
ss(i__main__
State
p98
(dp99
g3
F5.0
sg4
F8.0
sg5
F-6.0
sg6
F8.0
sb(dp100
I00
F-16315.248793877932
sI01
F481.35105464550566
ss(i__main__
State
p101
(dp102
g3
F3.0
sg4
F6.0
sg5
F-8.0
sg6
F6.0
sb(dp103
I00
F4035.512370861955
sI01
F9866.268355812152
ss(i__main__
State
p104
(dp105
g3
F8.0
sg4
F7.0
sg5
F-3.0
sg6
F-6.0
sb(dp106
I00
F-3109.4892541655317
sI01
F8968.592409920198
ss(i__main__
State
p107
(dp108
g3
F8.0
sg4
F4.0
sg5
F-3.0
sg6
F-6.0
sb(dp109
I00
F-2458.319901191111
sI01
F5838.765745794974
ss(i__main__
State
p110
(dp111
g3
F-7.0
sg4
F1.0
sg5
F-1.0
sg6
F-4.0
sb(dp112
I00
F-8887.757576485716
sI01
F1774.0338345827943
ss(i__main__
State
p113
(dp114
g3
F8.0
sg4
F8.0
sg5
F-3.0
sg6
F-6.0
sb(dp115
I00
F-15467.988418838371
sI01
F532.8270301415614
ss(i__main__
State
p116
(dp117
g3
F7.0
sg4
F8.0
sg5
F-4.0
sg6
F-7.0
sb(dp118
I00
F-12929.15398218595
sI01
F649.4955479197833
ss(i__main__
State
p119
(dp120
g3
F-3.0
sg4
F3.0
sg5
F3.0
sg6
F0.0
sb(dp121
I00
F-6606.967953802996
sI01
F5784.261557715412
ss(i__main__
State
p122
(dp123
g3
F-6.0
sg4
F8.0
sg5
F0.0
sg6
F-3.0
sb(dp124
I00
F-17220.84275778986
sI01
F525.8645528792249
ss(i__main__
State
p125
(dp126
g3
F8.0
sg4
F2.0
sg5
F-3.0
sg6
F-6.0
sb(dp127
I00
F-9405.264766554274
sI01
F2846.9345735849647
ss(i__main__
State
p128
(dp129
g3
F-5.0
sg4
F3.0
sg5
F1.0
sg6
F-2.0
sb(dp130
I00
F-8092.883871762103
sI01
F3951.437338315227
ss(i__main__
State
p131
(dp132
g3
F6.0
sg4
F6.0
sg5
F-5.0
sg6
F-8.0
sb(dp133
I00
F1559.4277769142036
sI01
F9767.270991391859
ss(i__main__
State
p134
(dp135
g3
F-8.0
sg4
F6.0
sg5
F-2.0
sg6
F-5.0
sb(dp136
I00
F-487.17715400278587
sI01
F2621.2918915931455
ss(i__main__
State
p137
(dp138
g3
F6.0
sg4
F7.0
sg5
F-5.0
sg6
F-8.0
sb(dp139
I00
F-182.3287144361343
sI01
F10193.75710654926
ss(i__main__
State
p140
(dp141
g3
F1.0
sg4
F3.0
sg5
F7.0
sg6
F4.0
sb(dp142
I00
F-3253.0380803230746
sI01
F4154.370812057433
ss(i__main__
State
p143
(dp144
g3
F1.0
sg4
F1.0
sg5
F7.0
sg6
F4.0
sb(dp145
I00
F-8591.242337157262
sI01
F3056.2508978068295
ss(i__main__
State
p146
(dp147
g3
F2.0
sg4
F5.0
sg5
F8.0
sg6
F5.0
sb(dp148
I00
F479.25279529733376
sI01
F9177.976858735929
ss(i__main__
State
p149
(dp150
g3
F0.0
sg4
F2.0
sg5
F6.0
sg6
F3.0
sb(dp151
I00
F-10612.709221935904
sI01
F2934.4775728936415
ss(i__main__
State
p152
(dp153
g3
F-1.0
sg4
F4.0
sg5
F5.0
sg6
F2.0
sb(dp154
I00
F-2104.7065831448685
sI01
F7304.5456099702615
ss(i__main__
State
p155
(dp156
g3
F-1.0
sg4
F1.0
sg5
F5.0
sg6
F2.0
sb(dp157
I00
F-6603.151323861113
sI01
F1646.7830861095024
ss(i__main__
State
p158
(dp159
g3
F2.0
sg4
F7.0
sg5
F8.0
sg6
F5.0
sb(dp160
I00
F4050.898261936985
sI01
F10064.636262986063
ss(i__main__
State
p161
(dp162
g3
F6.0
sg4
F3.0
sg5
F-5.0
sg6
F-8.0
sb(dp163
I00
F-6394.0166180977985
sI01
F2087.0913952728733
ss(i__main__
State
p164
(dp165
g3
F-5.0
sg4
F6.0
sg5
F1.0
sg6
F-2.0
sb(dp166
I00
F806.9498285892114
sI01
F5045.149649595533
ss(i__main__
State
p167
(dp168
g3
F-6.0
sg4
F7.0
sg5
F0.0
sg6
F-3.0
sb(dp169
I00
F-1943.3433484979912
sI01
F8359.969819839187
ss(i__main__
State
p170
(dp171
g3
F3.0
sg4
F4.0
sg5
F-8.0
sg6
F6.0
sb(dp172
I00
F-3506.2324758364316
sI01
F6392.978773447996
ss(i__main__
State
p173
(dp174
g3
F7.0
sg4
F4.0
sg5
F-4.0
sg6
F-7.0
sb(dp175
I00
F-2988.122192099923
sI01
F1821.6896056816008
ss(i__main__
State
p176
(dp177
g3
F4.0
sg4
F1.0
sg5
F-7.0
sg6
F7.0
sb(dp178
I00
F-8984.295327282942
sI01
F804.1157631722533
ss(i__main__
State
p179
(dp180
g3
F1.0
sg4
F7.0
sg5
F7.0
sg6
F4.0
sb(dp181
I00
F-3666.7288801375407
sI01
F10018.561208283623
ss(i__main__
State
p182
(dp183
g3
F1.0
sg4
F5.0
sg5
F7.0
sg6
F4.0
sb(dp184
I00
F-1525.1842957391973
sI01
F8019.840080047633
ss(i__main__
State
p185
(dp186
g3
F-3.0
sg4
F0.0
sg5
F3.0
sg6
F0.0
sb(dp187
I00
F-10919.251219730866
sI01
F753.8642143369711
ss(i__main__
State
p188
(dp189
g3
F-8.0
sg4
F4.0
sg5
F-2.0
sg6
F-5.0
sb(dp190
I00
F-3347.323688942512
sI01
F5397.110395604714
ss(i__main__
State
p191
(dp192
g3
F5.0
sg4
F5.0
sg5
F-6.0
sg6
F8.0
sb(dp193
I00
F-51.91172896785929
sI01
F9103.998948925348
ss(i__main__
State
p194
(dp195
g3
F5.0
sg4
F4.0
sg5
F-6.0
sg6
F8.0
sb(dp196
I00
F-2705.7883105717347
sI01
F5480.554813132155
ss(i__main__
State
p197
(dp198
g3
F-2.0
sg4
F5.0
sg5
F4.0
sg6
F1.0
sb(dp199
I00
F649.0177341371219
sI01
F8876.212064156158
ss(i__main__
State
p200
(dp201
g3
F-8.0
sg4
F2.0
sg5
F-2.0
sg6
F-5.0
sb(dp202
I00
F-3156.5642198201326
sI01
F2676.2845206738907
ss(i__main__
State
p203
(dp204
g3
F-8.0
sg4
F7.0
sg5
F-2.0
sg6
F-5.0
sb(dp205
I00
F-4250.001240462364
sI01
F8959.8669031186
ss(i__main__
State
p206
(dp207
g3
F1.0
sg4
F8.0
sg5
F7.0
sg6
F4.0
sb(dp208
I00
F-11932.011043532528
sI01
F300.5056731649176
ss(i__main__
State
p209
(dp210
g3
F0.0
sg4
F5.0
sg5
F6.0
sg6
F3.0
sb(dp211
I00
F-1469.343783386586
sI01
F8799.460572590806
ss(i__main__
State
p212
(dp213
g3
F-6.0
sg4
F2.0
sg5
F0.0
sg6
F-3.0
sb(dp214
I00
F-8572.360166759854
sI01
F2735.642810349704
ss(i__main__
State
p215
(dp216
g3
F-8.0
sg4
F5.0
sg5
F-2.0
sg6
F-5.0
sb(dp217
I00
F-376.5019620143349
sI01
F7225.731226938129
ss(i__main__
State
p218
(dp219
g3
F-3.0
sg4
F6.0
sg5
F3.0
sg6
F0.0
sb(dp220
I00
F2300.5392362475177
sI01
F7812.787205554841
ss(i__main__
State
p221
(dp222
g3
F7.0
sg4
F3.0
sg5
F-4.0
sg6
F-7.0
sb(dp223
I00
F-6919.889027475325
sI01
F4014.4537927870597
ss(i__main__
State
p224
(dp225
g3
F-5.0
sg4
F7.0
sg5
F1.0
sg6
F-2.0
sb(dp226
I00
F-1175.6199197850221
sI01
F9132.433493316406
ss(i__main__
State
p227
(dp228
g3
F-4.0
sg4
F4.0
sg5
F2.0
sg6
F-1.0
sb(dp229
I00
F-4911.379274982412
sI01
F4963.397563452403
ss(i__main__
State
p230
(dp231
g3
F7.0
sg4
F0.0
sg5
F-4.0
sg6
F-7.0
sb(dp232
I00
F-8949.645991944399
sI01
F769.2670144610249
ss(i__main__
State
p233
(dp234
g3
F-6.0
sg4
F6.0
sg5
F0.0
sg6
F-3.0
sb(dp235
I00
F385.8249615123966
sI01
F8023.417048620002
ss(i__main__
State
p236
(dp237
g3
F-6.0
sg4
F0.0
sg5
F0.0
sg6
F-3.0
sb(dp238
I00
F-15215.595535281092
sI01
F1113.7823089880849
ss(i__main__
State
p239
(dp240
g3
F-8.0
sg4
F0.0
sg5
F-2.0
sg6
F-5.0
sb(dp241
I00
F-6298.658621830424
sI01
F882.5159923698113
ss(i__main__
State
p242
(dp243
g3
F-7.0
sg4
F8.0
sg5
F-1.0
sg6
F-4.0
sb(dp244
I00
F-17214.382310977842
sI01
F567.0640900639796
ss(i__main__
State
p245
(dp246
g3
F-1.0
sg4
F7.0
sg5
F5.0
sg6
F2.0
sb(dp247
I00
F1830.821997863135
sI01
F2925.4959610095916
ss(i__main__
State
p248
(dp249
g3
F5.0
sg4
F2.0
sg5
F-6.0
sg6
F8.0
sb(dp250
I00
F-11123.847815824856
sI01
F1366.7502317628944
ss(i__main__
State
p251
(dp252
g3
F-8.0
sg4
F3.0
sg5
F-2.0
sg6
F-5.0
sb(dp253
I00
F-8291.040813337007
sI01
F3745.4990722124867
ss(i__main__
State
p254
(dp255
g3
F-2.0
sg4
F7.0
sg5
F4.0
sg6
F1.0
sb(dp256
I00
F-7103.429596065417
sI01
F8808.718461477765
ss(i__main__
State
p257
(dp258
g3
F0.0
sg4
F6.0
sg5
F6.0
sg6
F3.0
sb(dp259
I00
F2815.3970759259055
sI01
F9592.800143502613
ss(i__main__
State
p260
(dp261
g3
F-2.0
sg4
F1.0
sg5
F4.0
sg6
F1.0
sb(dp262
I00
F-7812.139586640925
sI01
F1832.238331208334
ss(i__main__
State
p263
(dp264
g3
F-4.0
sg4
F8.0
sg5
F2.0
sg6
F-1.0
sb(dp265
I00
F-8667.123401912435
sI01
F467.66848967517603
ss(i__main__
State
p266
(dp267
g3
F-8.0
sg4
F1.0
sg5
F-2.0
sg6
F-5.0
sb(dp268
I00
F-5429.822708905095
sI01
F2254.4854811853447
ss(i__main__
State
p269
(dp270
g3
F-3.0
sg4
F1.0
sg5
F3.0
sg6
F0.0
sb(dp271
I00
F-13370.268973055589
sI01
F1176.9651890180135
ss(i__main__
State
p272
(dp273
g3
F7.0
sg4
F7.0
sg5
F-4.0
sg6
F-7.0
sb(dp274
I00
F1061.4620749251253
sI01
F10197.36491570415
ss(i__main__
State
p275
(dp276
g3
F7.0
sg4
F5.0
sg5
F-4.0
sg6
F-7.0
sb(dp277
I00
F286.2627902985199
sI01
F6075.834904725153
ss(i__main__
State
p278
(dp279
g3
F-3.0
sg4
F7.0
sg5
F3.0
sg6
F0.0
sb(dp280
I00
F3723.223738414288
sI01
F9902.434312414422
ss(i__main__
State
p281
(dp282
g3
F4.0
sg4
F5.0
sg5
F-7.0
sg6
F7.0
sb(dp283
I00
F-292.03788417853764
sI01
F8117.2638327323575
ss(i__main__
State
p284
(dp285
g3
F4.0
sg4
F0.0
sg5
F-7.0
sg6
F7.0
sb(dp286
I00
F-11168.481132586803
sI01
F764.816897863764
ss(i__main__
State
p287
(dp288
g3
F6.0
sg4
F5.0
sg5
F-5.0
sg6
F-8.0
sb(dp289
I00
F561.5645828347181
sI01
F6971.4237530567
ss(i__main__
State
p290
(dp291
g3
F-5.0
sg4
F4.0
sg5
F1.0
sg6
F-2.0
sb(dp292
I00
F-3527.309076963914
sI01
F6372.525905241118
ss(i__main__
State
p293
(dp294
g3
F-3.0
sg4
F8.0
sg5
F3.0
sg6
F0.0
sb(dp295
I00
F-6154.363535288212
sI01
F240.84311883655153
ss(i__main__
State
p296
(dp297
g3
F2.0
sg4
F6.0
sg5
F8.0
sg6
F5.0
sb(dp298
I00
F3155.0833073265235
sI01
F9643.716905314612
ss(i__main__
State
p299
(dp300
g3
F-5.0
sg4
F0.0
sg5
F1.0
sg6
F-2.0
sb(dp301
I00
F-5108.280631045322
sI01
F837.0121095530235
ss(i__main__
State
p302
(dp303
g3
F-1.0
sg4
F2.0
sg5
F5.0
sg6
F2.0
sb(dp304
I00
F-5905.870355062634
sI01
F3426.8657789022272
ss(i__main__
State
p305
(dp306
g3
F5.0
sg4
F3.0
sg5
F-6.0
sg6
F8.0
sb(dp307
I00
F-9122.04979782068
sI01
F3976.9777978592333
ss(i__main__
State
p308
(dp309
g3
F-1.0
sg4
F6.0
sg5
F5.0
sg6
F2.0
sb(dp310
I00
F3275.0387483271843
sI01
F9777.497766884931
ss(i__main__
State
p311
(dp312
g3
F-7.0
sg4
F7.0
sg5
F-1.0
sg6
F-4.0
sb(dp313
I00
F-938.9285428667242
sI01
F2814.3931408435874
ss(i__main__
State
p314
(dp315
g3
F4.0
sg4
F3.0
sg5
F-7.0
sg6
F7.0
sb(dp316
I00
F-8249.5142269298
sI01
F3762.088932359348
ss(i__main__
State
p317
(dp318
g3
F-4.0
sg4
F1.0
sg5
F2.0
sg6
F-1.0
sb(dp319
I00
F-6282.818938983246
sI01
F2059.5110565682858
ss(i__main__
State
p320
(dp321
g3
F1.0
sg4
F0.0
sg5
F7.0
sg6
F4.0
sb(dp322
I00
F-15563.850546038391
sI01
F543.5226557484224
ss(i__main__
State
p323
(dp324
g3
F8.0
sg4
F5.0
sg5
F-3.0
sg6
F-6.0
sb(dp325
I00
F-2565.513374329682
sI01
F2145.6920163677437
ss(i__main__
State
p326
(dp327
g3
F0.0
sg4
F0.0
sg5
F6.0
sg6
F3.0
sb(dp328
I00
F-8310.525061613278
sI01
F1633.4078779171282
ss(i__main__
State
p329
(dp330
g3
F3.0
sg4
F0.0
sg5
F-8.0
sg6
F6.0
sb(dp331
I00
F-14311.483806489096
sI01
F355.6974264906199
ss(i__main__
State
p332
(dp333
g3
F7.0
sg4
F1.0
sg5
F-4.0
sg6
F-7.0
sb(dp334
I00
F-7476.366202056939
sI01
F1626.4368188796136
ss(i__main__
State
p335
(dp336
g3
F4.0
sg4
F2.0
sg5
F-7.0
sg6
F7.0
sb(dp337
I00
F-10165.207967231992
sI01
F2461.7627945584513
ss(i__main__
State
p338
(dp339
g3
F-6.0
sg4
F4.0
sg5
F0.0
sg6
F-3.0
sb(dp340
I00
F-1606.188147996605
sI01
F6704.080688327689
ss(i__main__
State
p341
(dp342
g3
F-4.0
sg4
F5.0
sg5
F2.0
sg6
F-1.0
sb(dp343
I00
F38.11915067345171
sI01
F7344.775806349338
ss(i__main__
State
p344
(dp345
g3
F-3.0
sg4
F4.0
sg5
F3.0
sg6
F0.0
sb(dp346
I00
F-2155.7338235491475
sI01
F7119.205405550602
ss(i__main__
State
p347
(dp348
g3
F0.0
sg4
F3.0
sg5
F6.0
sg6
F3.0
sb(dp349
I00
F-4528.431419091221
sI01
F5693.437561978098
ss(i__main__
State
p350
(dp351
g3
F-7.0
sg4
F4.0
sg5
F-1.0
sg6
F-4.0
sb(dp352
I00
F-3160.56057851193
sI01
F4795.711357250806
ss(i__main__
State
p353
(dp354
g3
F-4.0
sg4
F6.0
sg5
F2.0
sg6
F-1.0
sb(dp355
I00
F1586.5229023297322
sI01
F9243.426929294326
ss(i__main__
State
p356
(dp357
g3
F-4.0
sg4
F3.0
sg5
F2.0
sg6
F-1.0
sb(dp358
I00
F-5365.759929241777
sI01
F4811.533604890256
ss(i__main__
State
p359
(dp360
g3
F-7.0
sg4
F6.0
sg5
F-1.0
sg6
F-4.0
sb(dp361
I00
F2568.9052590249294
sI01
F8067.845299349829
ss(i__main__
State
p362
(dp363
g3
F6.0
sg4
F2.0
sg5
F-5.0
sg6
F-8.0
sb(dp364
I00
F-3213.6280691869856
sI01
F2468.04615094282
ss(i__main__
State
p365
(dp366
g3
F3.0
sg4
F5.0
sg5
F-8.0
sg6
F6.0
sb(dp367
I00
F-2798.0913655917648
sI01
F7793.644304208
ss(i__main__
State
p368
(dp369
g3
F-8.0
sg4
F8.0
sg5
F-2.0
sg6
F-5.0
sb(dp370
I00
F-14995.52049762523
sI01
F380.1517447716643
ss(i__main__
State
p371
(dp372
g3
F-2.0
sg4
F0.0
sg5
F4.0
sg6
F1.0
sb(dp373
I00
F-8212.617727907376
sI01
F681.1793853339825
ss(i__main__
State
p374
(dp375
g3
F6.0
sg4
F8.0
sg5
F-5.0
sg6
F-8.0
sb(dp376
I00
F-16826.088778806763
sI01
F364.1877352044774
ss(i__main__
State
p377
(dp378
g3
F5.0
sg4
F1.0
sg5
F-6.0
sg6
F8.0
sb(dp379
I00
F-8099.616162825796
sI01
F1425.7355172844425
ss(i__main__
State
p380
(dp381
g3
F-2.0
sg4
F4.0
sg5
F4.0
sg6
F1.0
sb(dp382
I00
F-2144.8437625808688
sI01
F7231.520847285909
ss(i__main__
State
p383
(dp384
g3
F-7.0
sg4
F2.0
sg5
F-1.0
sg6
F-4.0
sb(dp385
I00
F-6445.902164180724
sI01
F3566.5638986554623
ss(i__main__
State
p386
(dp387
g3
F2.0
sg4
F4.0
sg5
F8.0
sg6
F5.0
sb(dp388
I00
F-2628.094828355332
sI01
F5896.607462764895
ss(i__main__
State
p389
(dp390
g3
F-2.0
sg4
F3.0
sg5
F4.0
sg6
F1.0
sb(dp391
I00
F-2559.435862767715
sI01
F5134.142053829578
ss(i__main__
State
p392
(dp393
g3
F6.0
sg4
F4.0
sg5
F-5.0
sg6
F-8.0
sb(dp394
I00
F-955.950241360775
sI01
F5598.22861923024
ss(i__main__
State
p395
(dp396
g3
F-4.0
sg4
F0.0
sg5
F2.0
sg6
F-1.0
sb(dp397
I00
F-13316.100891925582
sI01
F308.62387828023145
ss(i__main__
State
p398
(dp399
g3
F3.0
sg4
F1.0
sg5
F-8.0
sg6
F6.0
sb(dp400
I00
F-8282.295910897185
sI01
F1418.1164964219022
ss(i__main__
State
p401
(dp402
g3
F-2.0
sg4
F6.0
sg5
F4.0
sg6
F1.0
sb(dp403
I00
F71.3076687991224
sI01
F4290.7214775088
ss(i__main__
State
p404
(dp405
g3
F-6.0
sg4
F1.0
sg5
F0.0
sg6
F-3.0
sb(dp406
I00
F-11992.816000701143
sI01
F1414.91427984507
ss(i__main__
State
p407
(dp408
g3
F0.0
sg4
F7.0
sg5
F6.0
sg6
F3.0
sb(dp409
I00
F4154.16078060387
sI01
F10091.729825641543
ss(i__main__
State
p410
(dp411
g3
F2.0
sg4
F1.0
sg5
F8.0
sg6
F5.0
sb(dp412
I00
F-8641.7406917749
sI01
F1196.655635344781
ss(i__main__
State
p413
(dp414
g3
F4.0
sg4
F8.0
sg5
F-7.0
sg6
F7.0
sb(dp415
I00
F-17805.657704754274
sI01
F379.06667403920534
ss(i__main__
State
p416
(dp417
g3
F7.0
sg4
F2.0
sg5
F-4.0
sg6
F-7.0
sb(dp418
I00
F-7366.816142705895
sI01
F2318.79877220505
ss(i__main__
State
p419
(dp420
g3
F2.0
sg4
F3.0
sg5
F8.0
sg6
F5.0
sb(dp421
I00
F-7825.6913164523985
sI01
F4858.160388769376
ss(i__main__
State
p422
(dp423
g3
F0.0
sg4
F4.0
sg5
F6.0
sg6
F3.0
sb(dp424
I00
F-5167.384013577387
sI01
F5527.346022195965
ss(i__main__
State
p425
(dp426
g3
F-1.0
sg4
F8.0
sg5
F5.0
sg6
F2.0
sb(dp427
I00
F-10299.87779303818
sI01
F853.4732375184751
ss(i__main__
State
p428
(dp429
g3
F8.0
sg4
F6.0
sg5
F-3.0
sg6
F-6.0
sb(dp430
I00
F2438.0669259158058
sI01
F7406.132729138502
ss(i__main__
State
p431
(dp432
g3
F5.0
sg4
F7.0
sg5
F-6.0
sg6
F8.0
sb(dp433
I00
F925.3113830906043
sI01
F10039.749425287953
ss(i__main__
State
p434
(dp435
g3
F2.0
sg4
F2.0
sg5
F8.0
sg6
F5.0
sb(dp436
I00
F-6285.531943867709
sI01
F4585.376218904428
ss(i__main__
State
p437
(dp438
g3
F-7.0
sg4
F3.0
sg5
F-1.0
sg6
F-4.0
sb(dp439
I00
F-7805.63969526312
sI01
F4726.735326183161
ss(i__main__
State
p440
(dp441
g3
F-5.0
sg4
F1.0
sg5
F1.0
sg6
F-2.0
sb(dp442
I00
F-8487.81849555985
sI01
F2281.1261160938657
ss(i__main__
State
p443
(dp444
g3
F0.0
sg4
F8.0
sg5
F6.0
sg6
F3.0
sb(dp445
I00
F-15825.892480509068
sI01
F288.9314329670809
ss(i__main__
State
p446
(dp447
g3
F4.0
sg4
F6.0
sg5
F-7.0
sg6
F7.0
sb(dp448
I00
F1061.5719546139985
sI01
F9242.202853422514
ss(i__main__
State
p449
(dp450
g3
F-3.0
sg4
F5.0
sg5
F3.0
sg6
F0.0
sb(dp451
I00
F-754.1007852439038
sI01
F5525.468913560387
ss(i__main__
State
p452
(dp453
g3
F1.0
sg4
F6.0
sg5
F7.0
sg6
F4.0
sb(dp454
I00
F3163.17046912863
sI01
F9623.553395833174
ss(i__main__
State
p455
(dp456
g3
F8.0
sg4
F0.0
sg5
F-3.0
sg6
F-6.0
sb(dp457
I00
F-10737.568100759825
sI01
F1236.3294689488573
ss(i__main__
State
p458
(dp459
g3
F3.0
sg4
F8.0
sg5
F-8.0
sg6
F6.0
sb(dp460
I00
F-17308.05037192039
sI01
F354.19157211206704
ss(i__main__
State
p461
(dp462
g3
F-7.0
sg4
F0.0
sg5
F-1.0
sg6
F-4.0
sb(dp463
I00
F-5144.288381634253
sI01
F814.3318939611255
ss.