(dp0
(i__main__
State
p1
(dp2
S'y1'
p3
F8.0
sS'x'
p4
F3.0
sS'y3'
p5
F-3.0
sS'y2'
p6
F-6.0
sb(dp7
I00
F534406.6927674176
sI01
F548247.2135744073
ss(i__main__
State
p8
(dp9
g3
F4.0
sg4
F7.0
sg5
F-7.0
sg6
F7.0
sb(dp10
I00
F547098.7148814582
sI01
F553539.5731471817
ss(i__main__
State
p11
(dp12
g3
F-7.0
sg4
F5.0
sg5
F-1.0
sg6
F-4.0
sb(dp13
I00
F542234.3583934816
sI01
F550963.900785597
ss(i__main__
State
p14
(dp15
g3
F0.0
sg4
F8.0
sg5
F6.0
sg6
F3.0
sb(dp16
I00
F520939.9532641188
sI01
F545876.8515459925
ss(i__main__
State
p17
(dp18
g3
F-1.0
sg4
F1.0
sg5
F5.0
sg6
F2.0
sb(dp19
I00
F528408.1528289786
sI01
F548347.6028489255
ss(i__main__
State
p20
(dp21
g3
F7.0
sg4
F6.0
sg5
F-4.0
sg6
F-7.0
sb(dp22
I00
F544891.4998498444
sI01
F553674.3852894352
ss(i__main__
State
p23
(dp24
g3
F3.0
sg4
F7.0
sg5
F-8.0
sg6
F6.0
sb(dp25
I00
F545098.9173839812
sI01
F554417.7458824553
ss(i__main__
State
p26
(dp27
g3
F-1.0
sg4
F3.0
sg5
F5.0
sg6
F2.0
sb(dp28
I00
F532803.1754268389
sI01
F549534.1066220454
ss(i__main__
State
p29
(dp30
g3
F1.0
sg4
F4.0
sg5
F7.0
sg6
F4.0
sb(dp31
I00
F539354.9153202353
sI01
F550705.8000270408
ss(i__main__
State
p32
(dp33
g3
F1.0
sg4
F2.0
sg5
F7.0
sg6
F4.0
sb(dp34
I00
F533968.5110707898
sI01
F549205.891419909
ss(i__main__
State
p35
(dp36
g3
F2.0
sg4
F7.0
sg5
F8.0
sg6
F5.0
sb(dp37
I00
F548060.005468668
sI01
F554271.847453304
ss(i__main__
State
p38
(dp39
g3
F-6.0
sg4
F5.0
sg5
F0.0
sg6
F-3.0
sb(dp40
I00
F539190.1496952523
sI01
F549205.3406731226
ss(i__main__
State
p41
(dp42
g3
F-2.0
sg4
F8.0
sg5
F4.0
sg6
F1.0
sb(dp43
I00
F525397.2315277813
sI01
F547387.4705461863
ss(i__main__
State
p44
(dp45
g3
F6.0
sg4
F0.0
sg5
F-5.0
sg6
F-8.0
sb(dp46
I00
F524694.9319512913
sI01
F545202.5009759932
ss(i__main__
State
p47
(dp48
g3
F0.0
sg4
F1.0
sg5
F6.0
sg6
F3.0
sb(dp49
I00
F531358.1692486876
sI01
F548686.5100870294
ss(i__main__
State
p50
(dp51
g3
F-4.0
sg4
F7.0
sg5
F2.0
sg6
F-1.0
sb(dp52
I00
F546314.8035547917
sI01
F547805.8426525606
ss(i__main__
State
p53
(dp54
g3
F-3.0
sg4
F2.0
sg5
F3.0
sg6
F0.0
sb(dp55
I00
F532532.8857961621
sI01
F548421.0187672344
ss(i__main__
State
p56
(dp57
g3
F5.0
sg4
F0.0
sg5
F-6.0
sg6
F8.0
sb(dp58
I00
F526011.9642553524
sI01
F545859.1865556154
ss(i__main__
State
p59
(dp60
g3
F3.0
sg4
F2.0
sg5
F-8.0
sg6
F6.0
sb(dp61
I00
F532499.1672834791
sI01
F549096.8259776913
ss(i__main__
State
p62
(dp63
g3
F3.0
sg4
F3.0
sg5
F-8.0
sg6
F6.0
sb(dp64
I00
F536531.1466353488
sI01
F550645.1635464854
ss(i__main__
State
p65
(dp66
g3
F-5.0
sg4
F8.0
sg5
F1.0
sg6
F-2.0
sb(dp67
I00
F524603.8081710783
sI01
F545333.1848463959
ss(i__main__
State
p68
(dp69
g3
F2.0
sg4
F0.0
sg5
F8.0
sg6
F5.0
sb(dp70
I00
F524985.215341333
sI01
F544992.2928840911
ss(i__main__
State
p71
(dp72
g3
F4.0
sg4
F4.0
sg5
F-7.0
sg6
F7.0
sb(dp73
I00
F539098.8144332196
sI01
F551889.9595244462
ss(i__main__
State
p74
(dp75
g3
F-2.0
sg4
F2.0
sg5
F4.0
sg6
F1.0
sb(dp76
I00
F530926.154736634
sI01
F548405.452721486
ss(i__main__
State
p77
(dp78
g3
F-4.0
sg4
F2.0
sg5
F2.0
sg6
F-1.0
sb(dp79
I00
F532846.3113073835
sI01
F549145.8584235082
ss(i__main__
State
p80
(dp81
g3
F-6.0
sg4
F3.0
sg5
F0.0
sg6
F-3.0
sb(dp82
I00
F536341.8130627698
sI01
F548882.2243400465
ss(i__main__
State
p83
(dp84
g3
F2.0
sg4
F8.0
sg5
F8.0
sg6
F5.0
sb(dp85
I00
F522514.92101924366
sI01
F544127.7261680178
ss(i__main__
State
p86
(dp87
g3
F-7.0
sg4
F3.0
sg5
F-1.0
sg6
F-4.0
sb(dp88
I00
F536518.2226507718
sI01
F551021.4701336052
ss(i__main__
State
p89
(dp90
g3
F5.0
sg4
F6.0
sg5
F-6.0
sg6
F8.0
sb(dp91
I00
F544001.4823457041
sI01
F552364.7605747217
ss(i__main__
State
p92
(dp93
g3
F8.0
sg4
F1.0
sg5
F-3.0
sg6
F-6.0
sb(dp94
I00
F529985.7804557926
sI01
F548016.6526226487
ss(i__main__
State
p95
(dp96
g3
F-5.0
sg4
F5.0
sg5
F1.0
sg6
F-2.0
sb(dp97
I00
F542625.9772857557
sI01
F554088.0344787088
ss(i__main__
State
p98
(dp99
g3
F-2.0
sg4
F1.0
sg5
F4.0
sg6
F1.0
sb(dp100
I00
F529563.5988723001
sI01
F548039.1760500491
ss(i__main__
State
p101
(dp102
g3
F7.0
sg4
F5.0
sg5
F-4.0
sg6
F-7.0
sb(dp103
I00
F538066.6084634507
sI01
F550396.58907116
ss(i__main__
State
p104
(dp105
g3
F5.0
sg4
F8.0
sg5
F-6.0
sg6
F8.0
sb(dp106
I00
F520131.51396565075
sI01
F544660.1786696434
ss(i__main__
State
p107
(dp108
g3
F3.0
sg4
F6.0
sg5
F-8.0
sg6
F6.0
sb(dp109
I00
F544128.8417805199
sI01
F552521.4803336784
ss(i__main__
State
p110
(dp111
g3
F3.0
sg4
F1.0
sg5
F-8.0
sg6
F6.0
sb(dp112
I00
F526380.1882242232
sI01
F545795.9929958826
ss(i__main__
State
p113
(dp114
g3
F8.0
sg4
F4.0
sg5
F-3.0
sg6
F-6.0
sb(dp115
I00
F541000.7669212152
sI01
F550628.0709403553
ss(i__main__
State
p116
(dp117
g3
F-7.0
sg4
F1.0
sg5
F-1.0
sg6
F-4.0
sb(dp118
I00
F526687.5132234307
sI01
F545600.5397804473
ss(i__main__
State
p119
(dp120
g3
F8.0
sg4
F8.0
sg5
F-3.0
sg6
F-6.0
sb(dp121
I00
F523890.44097267266
sI01
F544492.2005745844
ss(i__main__
State
p122
(dp123
g3
F7.0
sg4
F8.0
sg5
F-4.0
sg6
F-7.0
sb(dp124
I00
F521967.15131810564
sI01
F544708.6297062769
ss(i__main__
State
p125
(dp126
g3
F-7.0
sg4
F8.0
sg5
F-1.0
sg6
F-4.0
sb(dp127
I00
F520002.53056780196
sI01
F546167.6266396904
ss(i__main__
State
p128
(dp129
g3
F-6.0
sg4
F8.0
sg5
F0.0
sg6
F-3.0
sb(dp130
I00
F522763.38819864125
sI01
F545045.1155639627
ss(i__main__
State
p131
(dp132
g3
F4.0
sg4
F1.0
sg5
F-7.0
sg6
F7.0
sb(dp133
I00
F525281.9121720484
sI01
F545710.4063674461
ss(i__main__
State
p134
(dp135
g3
F-5.0
sg4
F3.0
sg5
F1.0
sg6
F-2.0
sb(dp136
I00
F534049.3059424788
sI01
F547134.2715963054
ss(i__main__
State
p137
(dp138
g3
F6.0
sg4
F6.0
sg5
F-5.0
sg6
F-8.0
sb(dp139
I00
F546575.8714275986
sI01
F553409.1166363697
ss(i__main__
State
p140
(dp141
g3
F-8.0
sg4
F6.0
sg5
F-2.0
sg6
F-5.0
sb(dp142
I00
F544013.3755225316
sI01
F548474.4822613689
ss(i__main__
State
p143
(dp144
g3
F6.0
sg4
F7.0
sg5
F-5.0
sg6
F-8.0
sb(dp145
I00
F546143.056115359
sI01
F553508.2241076451
ss(i__main__
State
p146
(dp147
g3
F1.0
sg4
F3.0
sg5
F7.0
sg6
F4.0
sb(dp148
I00
F533314.8282414034
sI01
F550474.7809090806
ss(i__main__
State
p149
(dp150
g3
F1.0
sg4
F1.0
sg5
F7.0
sg6
F4.0
sb(dp151
I00
F530272.5928781773
sI01
F548845.0863144449
ss(i__main__
State
p152
(dp153
g3
F2.0
sg4
F5.0
sg5
F8.0
sg6
F5.0
sb(dp154
I00
F541077.0876445476
sI01
F551583.0788416169
ss(i__main__
State
p155
(dp156
g3
F0.0
sg4
F2.0
sg5
F6.0
sg6
F3.0
sb(dp157
I00
F532185.374249605
sI01
F549440.3879953597
ss(i__main__
State
p158
(dp159
g3
F-1.0
sg4
F4.0
sg5
F5.0
sg6
F2.0
sb(dp160
I00
F539314.7386461311
sI01
F550699.4209693973
ss(i__main__
State
p161
(dp162
g3
F-5.0
sg4
F2.0
sg5
F1.0
sg6
F-2.0
sb(dp163
I00
F533287.8668267671
sI01
F548715.4977812177
ss(i__main__
State
p164
(dp165
g3
F-1.0
sg4
F5.0
sg5
F5.0
sg6
F2.0
sb(dp166
I00
F541964.8308585575
sI01
F551804.3691236303
ss(i__main__
State
p167
(dp168
g3
F6.0
sg4
F3.0
sg5
F-5.0
sg6
F-8.0
sb(dp169
I00
F534983.914135372
sI01
F546963.813459124
ss(i__main__
State
p170
(dp171
g3
F-3.0
sg4
F0.0
sg5
F3.0
sg6
F0.0
sb(dp172
I00
F525621.5594706245
sI01
F546697.4911155426
ss(i__main__
State
p173
(dp174
g3
F-6.0
sg4
F7.0
sg5
F0.0
sg6
F-3.0
sb(dp175
I00
F543664.4426879471
sI01
F554650.3107113815
ss(i__main__
State
p176
(dp177
g3
F3.0
sg4
F4.0
sg5
F-8.0
sg6
F6.0
sb(dp178
I00
F539344.1548291835
sI01
F550573.2227796778
ss(i__main__
State
p179
(dp180
g3
F8.0
sg4
F2.0
sg5
F-3.0
sg6
F-6.0
sb(dp181
I00
F529071.6733518874
sI01
F547418.635893822
ss(i__main__
State
p182
(dp183
g3
F1.0
sg4
F7.0
sg5
F7.0
sg6
F4.0
sb(dp184
I00
F544822.2773781214
sI01
F553283.4195244983
ss(i__main__
State
p185
(dp186
g3
F1.0
sg4
F5.0
sg5
F7.0
sg6
F4.0
sb(dp187
I00
F539400.7848803095
sI01
F552326.7132130475
ss(i__main__
State
p188
(dp189
g3
F-5.0
sg4
F6.0
sg5
F1.0
sg6
F-2.0
sb(dp190
I00
F542903.4289617414
sI01
F547486.2369891132
ss(i__main__
State
p191
(dp192
g3
F-8.0
sg4
F4.0
sg5
F-2.0
sg6
F-5.0
sb(dp193
I00
F538242.3279893334
sI01
F549542.6818995336
ss(i__main__
State
p194
(dp195
g3
F5.0
sg4
F5.0
sg5
F-6.0
sg6
F8.0
sb(dp196
I00
F540901.5185005091
sI01
F552534.4983398841
ss(i__main__
State
p197
(dp198
g3
F5.0
sg4
F4.0
sg5
F-6.0
sg6
F8.0
sb(dp199
I00
F539179.2084647407
sI01
F551478.0718266572
ss(i__main__
State
p200
(dp201
g3
F-2.0
sg4
F5.0
sg5
F4.0
sg6
F1.0
sb(dp202
I00
F540230.3322662718
sI01
F551682.3412499046
ss(i__main__
State
p203
(dp204
g3
F-8.0
sg4
F2.0
sg5
F-2.0
sg6
F-5.0
sb(dp205
I00
F535269.3035095042
sI01
F549775.0397156944
ss(i__main__
State
p206
(dp207
g3
F-8.0
sg4
F7.0
sg5
F-2.0
sg6
F-5.0
sb(dp208
I00
F537668.8203435511
sI01
F554900.3470788985
ss(i__main__
State
p209
(dp210
g3
F1.0
sg4
F8.0
sg5
F7.0
sg6
F4.0
sb(dp211
I00
F523780.04438477044
sI01
F544212.9521910677
ss(i__main__
State
p212
(dp213
g3
F0.0
sg4
F5.0
sg5
F6.0
sg6
F3.0
sb(dp214
I00
F542429.1704187675
sI01
F551959.264845745
ss(i__main__
State
p215
(dp216
g3
F-6.0
sg4
F2.0
sg5
F0.0
sg6
F-3.0
sb(dp217
I00
F531969.4335934639
sI01
F546685.2015947392
ss(i__main__
State
p218
(dp219
g3
F-8.0
sg4
F5.0
sg5
F-2.0
sg6
F-5.0
sb(dp220
I00
F540399.906404824
sI01
F552440.1268607809
ss(i__main__
State
p221
(dp222
g3
F-3.0
sg4
F6.0
sg5
F3.0
sg6
F0.0
sb(dp223
I00
F542353.1399650506
sI01
F553210.516230083
ss(i__main__
State
p224
(dp225
g3
F7.0
sg4
F3.0
sg5
F-4.0
sg6
F-7.0
sb(dp226
I00
F536243.9887914173
sI01
F549419.3561127038
ss(i__main__
State
p227
(dp228
g3
F-5.0
sg4
F7.0
sg5
F1.0
sg6
F-2.0
sb(dp229
I00
F540500.5458445246
sI01
F553142.6388434452
ss(i__main__
State
p230
(dp231
g3
F-4.0
sg4
F4.0
sg5
F2.0
sg6
F-1.0
sb(dp232
I00
F536788.2277757609
sI01
F546633.5023157467
ss(i__main__
State
p233
(dp234
g3
F6.0
sg4
F5.0
sg5
F-5.0
sg6
F-8.0
sb(dp235
I00
F539846.109542159
sI01
F552657.5252960381
ss(i__main__
State
p236
(dp237
g3
F7.0
sg4
F0.0
sg5
F-4.0
sg6
F-7.0
sb(dp238
I00
F526442.2184769522
sI01
F546622.2187754049
ss(i__main__
State
p239
(dp240
g3
F-6.0
sg4
F6.0
sg5
F0.0
sg6
F-3.0
sb(dp241
I00
F544309.9509028833
sI01
F551244.8296300797
ss(i__main__
State
p242
(dp243
g3
F-6.0
sg4
F0.0
sg5
F0.0
sg6
F-3.0
sb(dp244
I00
F527942.7014625712
sI01
F547155.5804570017
ss(i__main__
State
p245
(dp246
g3
F-8.0
sg4
F0.0
sg5
F-2.0
sg6
F-5.0
sb(dp247
I00
F518006.7847893873
sI01
F545451.8219170998
ss(i__main__
State
p248
(dp249
g3
F6.0
sg4
F8.0
sg5
F-5.0
sg6
F-8.0
sb(dp250
I00
F523415.3439068661
sI01
F545712.4798697747
ss(i__main__
State
p251
(dp252
g3
F-3.0
sg4
F3.0
sg5
F3.0
sg6
F0.0
sb(dp253
I00
F536199.667684492
sI01
F550058.1921083174
ss(i__main__
State
p254
(dp255
g3
F-1.0
sg4
F8.0
sg5
F5.0
sg6
F2.0
sb(dp256
I00
F525130.0665997345
sI01
F546840.9956245325
ss(i__main__
State
p257
(dp258
g3
F8.0
sg4
F0.0
sg5
F-8.0
sg6
F0.0
sb(dp259
I00
F-4797.187
sI01
I54
ss(i__main__
State
p260
(dp261
g3
F5.0
sg4
F2.0
sg5
F-6.0
sg6
F8.0
sb(dp262
I00
F529397.1360514038
sI01
F546369.292092392
ss(i__main__
State
p263
(dp264
g3
F-8.0
sg4
F3.0
sg5
F-2.0
sg6
F-5.0
sb(dp265
I00
F535262.5745640005
sI01
F548494.5806038267
ss(i__main__
State
p266
(dp267
g3
F-2.0
sg4
F7.0
sg5
F4.0
sg6
F1.0
sb(dp268
I00
F539327.2564212669
sI01
F554817.4351606448
ss(i__main__
State
p269
(dp270
g3
F0.0
sg4
F6.0
sg5
F6.0
sg6
F3.0
sb(dp271
I00
F544497.4558748067
sI01
F552639.1590483567
ss(i__main__
State
p272
(dp273
g3
F-4.0
sg4
F8.0
sg5
F2.0
sg6
F-1.0
sb(dp274
I00
F523480.10637589573
sI01
F545898.4504793392
ss(i__main__
State
p275
(dp276
g3
F-8.0
sg4
F1.0
sg5
F-2.0
sg6
F-5.0
sb(dp277
I00
F527548.0301602585
sI01
F546794.3117131252
ss(i__main__
State
p278
(dp279
g3
F4.0
sg4
F5.0
sg5
F-7.0
sg6
F7.0
sb(dp280
I00
F540401.7810665646
sI01
F551377.1281837454
ss(i__main__
State
p281
(dp282
g3
F7.0
sg4
F7.0
sg5
F-4.0
sg6
F-7.0
sb(dp283
I00
F542855.0604382845
sI01
F553981.8831218303
ss(i__main__
State
p284
(dp285
g3
F-3.0
sg4
F7.0
sg5
F3.0
sg6
F0.0
sb(dp286
I00
F549212.6073314906
sI01
F556366.7716146545
ss(i__main__
State
p287
(dp288
g3
F-3.0
sg4
F1.0
sg5
F3.0
sg6
F0.0
sb(dp289
I00
F528811.6990773471
sI01
F547299.1673100572
ss(i__main__
State
p290
(dp291
g3
F7.0
sg4
F4.0
sg5
F-4.0
sg6
F-7.0
sb(dp292
I00
F534538.1085275036
sI01
F547907.127284884
ss(i__main__
State
p293
(dp294
g3
F-5.0
sg4
F4.0
sg5
F1.0
sg6
F-2.0
sb(dp295
I00
F537118.2445603008
sI01
F550321.0696637987
ss(i__main__
State
p296
(dp297
g3
F-3.0
sg4
F8.0
sg5
F3.0
sg6
F0.0
sb(dp298
I00
F522753.17346426134
sI01
F546084.5796600276
ss(i__main__
State
p299
(dp300
g3
F2.0
sg4
F6.0
sg5
F8.0
sg6
F5.0
sb(dp301
I00
F544025.0695855888
sI01
F553447.8680711247
ss(i__main__
State
p302
(dp303
g3
F-5.0
sg4
F0.0
sg5
F1.0
sg6
F-2.0
sb(dp304
I00
F525531.9422885464
sI01
F545250.0747378626
ss(i__main__
State
p305
(dp306
g3
F-1.0
sg4
F2.0
sg5
F5.0
sg6
F2.0
sb(dp307
I00
F533294.869371534
sI01
F548902.2023377055
ss(i__main__
State
p308
(dp309
g3
F5.0
sg4
F3.0
sg5
F-6.0
sg6
F8.0
sb(dp310
I00
F531789.6614086418
sI01
F547681.7607615904
ss(i__main__
State
p311
(dp312
g3
F-1.0
sg4
F6.0
sg5
F5.0
sg6
F2.0
sb(dp313
I00
F543995.8795910013
sI01
F552373.1789440301
ss(i__main__
State
p314
(dp315
g3
F-7.0
sg4
F4.0
sg5
F-1.0
sg6
F-4.0
sb(dp316
I00
F538004.0397835999
sI01
F549468.329893819
ss(i__main__
State
p317
(dp318
g3
F-4.0
sg4
F1.0
sg5
F2.0
sg6
F-1.0
sb(dp319
I00
F525953.3033442727
sI01
F546891.3066600107
ss(i__main__
State
p320
(dp321
g3
F1.0
sg4
F0.0
sg5
F7.0
sg6
F4.0
sb(dp322
I00
F519933.092076329
sI01
F546698.5646461814
ss(i__main__
State
p323
(dp324
g3
F8.0
sg4
F5.0
sg5
F-3.0
sg6
F-6.0
sb(dp325
I00
F536443.437353791
sI01
F547901.1730858941
ss(i__main__
State
p326
(dp327
g3
F3.0
sg4
F0.0
sg5
F-8.0
sg6
F6.0
sb(dp328
I00
F524624.5561525074
sI01
F544958.1534152667
ss(i__main__
State
p329
(dp330
g3
F7.0
sg4
F1.0
sg5
F-4.0
sg6
F-7.0
sb(dp331
I00
F525333.280668395
sI01
F547067.5324526249
ss(i__main__
State
p332
(dp333
g3
F4.0
sg4
F2.0
sg5
F-7.0
sg6
F7.0
sb(dp334
I00
F529473.9429190477
sI01
F546615.9245988671
ss(i__main__
State
p335
(dp336
g3
F-6.0
sg4
F4.0
sg5
F0.0
sg6
F-3.0
sb(dp337
I00
F539111.5847055982
sI01
F552595.6870932631
ss(i__main__
State
p338
(dp339
g3
F-4.0
sg4
F5.0
sg5
F2.0
sg6
F-1.0
sb(dp340
I00
F540456.2551312179
sI01
F552289.2991449551
ss(i__main__
State
p341
(dp342
g3
F-3.0
sg4
F4.0
sg5
F3.0
sg6
F0.0
sb(dp343
I00
F537923.7017005613
sI01
F550761.3563305059
ss(i__main__
State
p344
(dp345
g3
F0.0
sg4
F3.0
sg5
F6.0
sg6
F3.0
sb(dp346
I00
F534911.2269499457
sI01
F549829.4057444821
ss(i__main__
State
p347
(dp348
g3
F4.0
sg4
F3.0
sg5
F-7.0
sg6
F7.0
sb(dp349
I00
F536801.2150900009
sI01
F550124.8090955312
ss(i__main__
State
p350
(dp351
g3
F-4.0
sg4
F6.0
sg5
F2.0
sg6
F-1.0
sb(dp352
I00
F544158.8148166214
sI01
F555403.8423724426
ss(i__main__
State
p353
(dp354
g3
F-4.0
sg4
F3.0
sg5
F2.0
sg6
F-1.0
sb(dp355
I00
F535210.3783713605
sI01
F549813.2263620533
ss(i__main__
State
p356
(dp357
g3
F-7.0
sg4
F6.0
sg5
F-1.0
sg6
F-4.0
sb(dp358
I00
F544500.9339379717
sI01
F553511.4411985273
ss(i__main__
State
p359
(dp360
g3
F6.0
sg4
F2.0
sg5
F-5.0
sg6
F-8.0
sb(dp361
I00
F531772.1884260016
sI01
F548631.2140838227
ss(i__main__
State
p362
(dp363
g3
F3.0
sg4
F5.0
sg5
F-8.0
sg6
F6.0
sb(dp364
I00
F542247.7167089902
sI01
F552444.9026308497
ss(i__main__
State
p365
(dp366
g3
F-8.0
sg4
F8.0
sg5
F-2.0
sg6
F-5.0
sb(dp367
I00
F526533.2189963618
sI01
F546280.4647334318
ss(i__main__
State
p368
(dp369
g3
F4.0
sg4
F0.0
sg5
F-7.0
sg6
F7.0
sb(dp370
I00
F524526.4804136397
sI01
F546414.5856438534
ss(i__main__
State
p371
(dp372
g3
F-2.0
sg4
F0.0
sg5
F4.0
sg6
F1.0
sb(dp373
I00
F524515.3014577894
sI01
F547021.178894975
ss(i__main__
State
p374
(dp375
g3
F2.0
sg4
F2.0
sg5
F8.0
sg6
F5.0
sb(dp376
I00
F533842.1597965792
sI01
F549951.2901586165
ss(i__main__
State
p377
(dp378
g3
F5.0
sg4
F1.0
sg5
F-6.0
sg6
F8.0
sb(dp379
I00
F530407.1958799972
sI01
F547756.6876497617
ss(i__main__
State
p380
(dp381
g3
F-2.0
sg4
F4.0
sg5
F4.0
sg6
F1.0
sb(dp382
I00
F539856.2925568768
sI01
F551040.5581969172
ss(i__main__
State
p383
(dp384
g3
F-7.0
sg4
F2.0
sg5
F-1.0
sg6
F-4.0
sb(dp385
I00
F530409.1996831031
sI01
F547932.6940865044
ss(i__main__
State
p386
(dp387
g3
F2.0
sg4
F4.0
sg5
F8.0
sg6
F5.0
sb(dp388
I00
F539173.3659909728
sI01
F551410.2351036979
ss(i__main__
State
p389
(dp390
g3
F-2.0
sg4
F3.0
sg5
F4.0
sg6
F1.0
sb(dp391
I00
F532463.3009621174
sI01
F549611.6681633823
ss(i__main__
State
p392
(dp393
g3
F6.0
sg4
F4.0
sg5
F-5.0
sg6
F-8.0
sb(dp394
I00
F536495.6534655466
sI01
F549240.8861229812
ss(i__main__
State
p395
(dp396
g3
F-4.0
sg4
F0.0
sg5
F2.0
sg6
F-1.0
sb(dp397
I00
F522780.42005322734
sI01
F546210.0771170342
ss(i__main__
State
p398
(dp399
g3
F8.0
sg4
F7.0
sg5
F-3.0
sg6
F-6.0
sb(dp400
I00
F544671.6833010046
sI01
F554966.0156959416
ss(i__main__
State
p401
(dp402
g3
F-2.0
sg4
F6.0
sg5
F4.0
sg6
F1.0
sb(dp403
I00
F539718.1636909685
sI01
F544535.2388694271
ss(i__main__
State
p404
(dp405
g3
F-6.0
sg4
F1.0
sg5
F0.0
sg6
F-3.0
sb(dp406
I00
F529133.326796938
sI01
F547859.8446576966
ss(i__main__
State
p407
(dp408
g3
F0.0
sg4
F7.0
sg5
F6.0
sg6
F3.0
sb(dp409
I00
F544652.2347270122
sI01
F553231.5566047523
ss(i__main__
State
p410
(dp411
g3
F2.0
sg4
F1.0
sg5
F8.0
sg6
F5.0
sb(dp412
I00
F527532.8507273137
sI01
F548215.684925702
ss(i__main__
State
p413
(dp414
g3
F4.0
sg4
F8.0
sg5
F-7.0
sg6
F7.0
sb(dp415
I00
F523010.1952221129
sI01
F545210.8807080927
ss(i__main__
State
p416
(dp417
g3
F7.0
sg4
F2.0
sg5
F-4.0
sg6
F-7.0
sb(dp418
I00
F530748.2920622064
sI01
F547348.4831917429
ss(i__main__
State
p419
(dp420
g3
F2.0
sg4
F3.0
sg5
F8.0
sg6
F5.0
sb(dp421
I00
F536428.9355160845
sI01
F550056.998446844
ss(i__main__
State
p422
(dp423
g3
F0.0
sg4
F4.0
sg5
F6.0
sg6
F3.0
sb(dp424
I00
F536179.1217785755
sI01
F551029.4559868899
ss(i__main__
State
p425
(dp426
g3
F0.0
sg4
F0.0
sg5
F6.0
sg6
F3.0
sb(dp427
I00
F528709.4994922145
sI01
F547514.9281312354
ss(i__main__
State
p428
(dp429
g3
F8.0
sg4
F6.0
sg5
F-3.0
sg6
F-6.0
sb(dp430
I00
F540895.2603543219
sI01
F553043.2943313987
ss(i__main__
State
p431
(dp432
g3
F-1.0
sg4
F7.0
sg5
F5.0
sg6
F2.0
sb(dp433
I00
F545754.6517740132
sI01
F545869.502842998
ss(i__main__
State
p434
(dp435
g3
F5.0
sg4
F7.0
sg5
F-6.0
sg6
F8.0
sb(dp436
I00
F542398.4139341809
sI01
F554619.6642865879
ss(i__main__
State
p437
(dp438
g3
F-7.0
sg4
F7.0
sg5
F-1.0
sg6
F-4.0
sb(dp439
I00
F544843.2798973112
sI01
F547965.0029252584
ss(i__main__
State
p440
(dp441
g3
F6.0
sg4
F1.0
sg5
F-5.0
sg6
F-8.0
sb(dp442
I00
F527444.1369179764
sI01
F546619.3102161054
ss(i__main__
State
p443
(dp444
g3
F-5.0
sg4
F1.0
sg5
F1.0
sg6
F-2.0
sb(dp445
I00
F530927.3108074294
sI01
F548265.244058899
ss(i__main__
State
p446
(dp447
g3
F-1.0
sg4
F0.0
sg5
F5.0
sg6
F2.0
sb(dp448
I00
F527532.6081391225
sI01
F547890.7718058174
ss(i__main__
State
p449
(dp450
g3
F4.0
sg4
F6.0
sg5
F-7.0
sg6
F7.0
sb(dp451
I00
F544749.186099123
sI01
F553464.0857045905
ss(i__main__
State
p452
(dp453
g3
F-3.0
sg4
F5.0
sg5
F3.0
sg6
F0.0
sb(dp454
I00
F535384.638885954
sI01
F544515.5384313018
ss(i__main__
State
p455
(dp456
g3
F1.0
sg4
F6.0
sg5
F7.0
sg6
F4.0
sb(dp457
I00
F545301.639368713
sI01
F553076.8484179795
ss(i__main__
State
p458
(dp459
g3
F8.0
sg4
F0.0
sg5
F-3.0
sg6
F-6.0
sb(dp460
I00
F525583.9618367213
sI01
F545563.8543477381
ss(i__main__
State
p461
(dp462
g3
F3.0
sg4
F8.0
sg5
F-8.0
sg6
F6.0
sb(dp463
I00
F522076.4831053675
sI01
F545391.4834596898
ss(i__main__
State
p464
(dp465
g3
F-7.0
sg4
F0.0
sg5
F-1.0
sg6
F-4.0
sb(dp466
I00
F525509.4931133487
sI01
F546934.1598085975
ss.