(dp0
(i__main__
State
p1
(dp2
S'y1'
p3
F8.0
sS'x'
p4
F3.0
sS'y3'
p5
F-3.0
sS'y2'
p6
F-6.0
sb(dp7
I00
F-9294.775320318267
sI01
F1219.6604389621946
ss(i__main__
State
p8
(dp9
g3
F4.0
sg4
F7.0
sg5
F-7.0
sg6
F7.0
sb(dp10
I00
F2560.524108010652
sI01
F9781.922163217245
ss(i__main__
State
p11
(dp12
g3
F-7.0
sg4
F5.0
sg5
F-1.0
sg6
F-4.0
sb(dp13
I00
F-1513.7740038171837
sI01
F4159.561677098993
ss(i__main__
State
p14
(dp15
g3
F-5.0
sg4
F2.0
sg5
F1.0
sg6
F-2.0
sb(dp16
I00
F-4754.663634057626
sI01
F347.9794587249199
ss(i__main__
State
p17
(dp18
g3
F7.0
sg4
F6.0
sg5
F-4.0
sg6
F-7.0
sb(dp19
I00
F-4.836984714178584
sI01
F6303.772993041807
ss(i__main__
State
p20
(dp21
g3
F3.0
sg4
F7.0
sg5
F-8.0
sg6
F6.0
sb(dp22
I00
F-627.9733547752896
sI01
F9529.589395895253
ss(i__main__
State
p23
(dp24
g3
F-1.0
sg4
F0.0
sg5
F5.0
sg6
F2.0
sb(dp25
I00
F-4371.663289066937
sI01
F161.16170841024214
ss(i__main__
State
p26
(dp27
g3
F-1.0
sg4
F3.0
sg5
F5.0
sg6
F2.0
sb(dp28
I00
F-5403.635611527515
sI01
F1274.8769450532839
ss(i__main__
State
p29
(dp30
g3
F1.0
sg4
F4.0
sg5
F7.0
sg6
F4.0
sb(dp31
I00
F-7085.180383341568
sI01
F3787.047646993304
ss(i__main__
State
p32
(dp33
g3
F1.0
sg4
F2.0
sg5
F7.0
sg6
F4.0
sb(dp34
I00
F-9139.721936611111
sI01
F918.9469171752039
ss(i__main__
State
p35
(dp36
g3
F-1.0
sg4
F5.0
sg5
F5.0
sg6
F2.0
sb(dp37
I00
F-592.7759060781007
sI01
F6503.824314236071
ss(i__main__
State
p38
(dp39
g3
F-6.0
sg4
F5.0
sg5
F0.0
sg6
F-3.0
sb(dp40
I00
F-467.03795163636437
sI01
F3636.905088685076
ss(i__main__
State
p41
(dp42
g3
F-2.0
sg4
F8.0
sg5
F4.0
sg6
F1.0
sb(dp43
I00
F-9920.098297322973
sI01
F80.88163834297514
ss(i__main__
State
p44
(dp45
g3
F6.0
sg4
F0.0
sg5
F-5.0
sg6
F-8.0
sb(dp46
I00
F-8297.50963689318
sI01
F73.59530278983115
ss(i__main__
State
p47
(dp48
g3
F-4.0
sg4
F7.0
sg5
F2.0
sg6
F-1.0
sb(dp49
I00
F3396.688175796364
sI01
F3496.1799644691646
ss(i__main__
State
p50
(dp51
g3
F-3.0
sg4
F2.0
sg5
F3.0
sg6
F0.0
sb(dp52
I00
F-3884.6797944958666
sI01
F992.3647815524474
ss(i__main__
State
p53
(dp54
g3
F5.0
sg4
F0.0
sg5
F-6.0
sg6
F8.0
sb(dp55
I00
F-6558.192400561382
sI01
F48.35732664843501
ss(i__main__
State
p56
(dp57
g3
F3.0
sg4
F2.0
sg5
F-8.0
sg6
F6.0
sb(dp58
I00
F-8034.910720305666
sI01
F587.0999969744344
ss(i__main__
State
p59
(dp60
g3
F3.0
sg4
F3.0
sg5
F-8.0
sg6
F6.0
sb(dp61
I00
F-8978.395593801191
sI01
F2469.187090783267
ss(i__main__
State
p62
(dp63
g3
F2.0
sg4
F0.0
sg5
F8.0
sg6
F5.0
sb(dp64
I00
F-9128.959246903718
sI01
F21.24061036156003
ss(i__main__
State
p65
(dp66
g3
F4.0
sg4
F4.0
sg5
F-7.0
sg6
F7.0
sb(dp67
I00
F-2981.117273540499
sI01
F5007.911991841671
ss(i__main__
State
p68
(dp69
g3
F-2.0
sg4
F2.0
sg5
F4.0
sg6
F1.0
sb(dp70
I00
F-6602.356290901042
sI01
F451.4291890443691
ss(i__main__
State
p71
(dp72
g3
F-4.0
sg4
F2.0
sg5
F2.0
sg6
F-1.0
sb(dp73
I00
F-4925.23108803492
sI01
F853.1639422409527
ss(i__main__
State
p74
(dp75
g3
F-6.0
sg4
F3.0
sg5
F0.0
sg6
F-3.0
sb(dp76
I00
F-3834.092306192677
sI01
F1834.489576535617
ss(i__main__
State
p77
(dp78
g3
F2.0
sg4
F8.0
sg5
F8.0
sg6
F5.0
sb(dp79
I00
F-13919.999527294225
sI01
F38.93130546049871
ss(i__main__
State
p80
(dp81
g3
F6.0
sg4
F1.0
sg5
F-5.0
sg6
F-8.0
sb(dp82
I00
F-9086.66422236786
sI01
F180.79429953092358
ss(i__main__
State
p83
(dp84
g3
F5.0
sg4
F6.0
sg5
F-6.0
sg6
F8.0
sb(dp85
I00
F491.38232344657507
sI01
F6187.296543837465
ss(i__main__
State
p86
(dp87
g3
F8.0
sg4
F1.0
sg5
F-3.0
sg6
F-6.0
sb(dp88
I00
F-12542.843247358825
sI01
F352.30464321184564
ss(i__main__
State
p89
(dp90
g3
F-5.0
sg4
F5.0
sg5
F1.0
sg6
F-2.0
sb(dp91
I00
F-1120.7390836254176
sI01
F3946.6057074807713
ss(i__main__
State
p92
(dp93
g3
F-5.0
sg4
F8.0
sg5
F1.0
sg6
F-2.0
sb(dp94
I00
F-14274.036485040446
sI01
F3.398147061665038
ss(i__main__
State
p95
(dp96
g3
F0.0
sg4
F1.0
sg5
F6.0
sg6
F3.0
sb(dp97
I00
F-7259.379419434917
sI01
F417.84109539046835
ss(i__main__
State
p98
(dp99
g3
F5.0
sg4
F8.0
sg5
F-6.0
sg6
F8.0
sb(dp100
I00
F-15494.648211307687
sI01
F51.07039999810635
ss(i__main__
State
p101
(dp102
g3
F3.0
sg4
F6.0
sg5
F-8.0
sg6
F6.0
sb(dp103
I00
F2769.0317000610894
sI01
F8686.463918399802
ss(i__main__
State
p104
(dp105
g3
F8.0
sg4
F7.0
sg5
F-3.0
sg6
F-6.0
sb(dp106
I00
F-6308.723098901204
sI01
F8466.220296634074
ss(i__main__
State
p107
(dp108
g3
F8.0
sg4
F4.0
sg5
F-3.0
sg6
F-6.0
sb(dp109
I00
F-3161.43531438473
sI01
F3428.975295398677
ss(i__main__
State
p110
(dp111
g3
F-7.0
sg4
F1.0
sg5
F-1.0
sg6
F-4.0
sb(dp112
I00
F-7192.06992711132
sI01
F481.10578870399235
ss(i__main__
State
p113
(dp114
g3
F8.0
sg4
F8.0
sg5
F-3.0
sg6
F-6.0
sb(dp115
I00
F-14930.349826811373
sI01
F101.82532450703471
ss(i__main__
State
p116
(dp117
g3
F7.0
sg4
F8.0
sg5
F-4.0
sg6
F-7.0
sb(dp118
I00
F-11003.014934219033
sI01
F12.057127060894775
ss(i__main__
State
p119
(dp120
g3
F-3.0
sg4
F3.0
sg5
F3.0
sg6
F0.0
sb(dp121
I00
F-8392.735804266113
sI01
F1770.7029191078552
ss(i__main__
State
p122
(dp123
g3
F-6.0
sg4
F8.0
sg5
F0.0
sg6
F-3.0
sb(dp124
I00
F-17026.621641151425
sI01
F48.78165248823154
ss(i__main__
State
p125
(dp126
g3
F8.0
sg4
F2.0
sg5
F-3.0
sg6
F-6.0
sb(dp127
I00
F-10160.299567023825
sI01
F424.4816692221957
ss(i__main__
State
p128
(dp129
g3
F-5.0
sg4
F3.0
sg5
F1.0
sg6
F-2.0
sb(dp130
I00
F-9105.981236972137
sI01
F1709.9825249075452
ss(i__main__
State
p131
(dp132
g3
F6.0
sg4
F6.0
sg5
F-5.0
sg6
F-8.0
sb(dp133
I00
F-146.6610554036763
sI01
F8965.50540463547
ss(i__main__
State
p134
(dp135
g3
F-8.0
sg4
F6.0
sg5
F-2.0
sg6
F-5.0
sb(dp136
I00
F-607.4181905276054
sI01
F2312.958102852252
ss(i__main__
State
p137
(dp138
g3
F6.0
sg4
F7.0
sg5
F-5.0
sg6
F-8.0
sb(dp139
I00
F818.2106367916795
sI01
F8790.331182004002
ss(i__main__
State
p140
(dp141
g3
F1.0
sg4
F3.0
sg5
F7.0
sg6
F4.0
sb(dp142
I00
F-3142.606374109093
sI01
F1745.7849335895812
ss(i__main__
State
p143
(dp144
g3
F1.0
sg4
F1.0
sg5
F7.0
sg6
F4.0
sb(dp145
I00
F-7923.828762626715
sI01
F284.60678979364684
ss(i__main__
State
p146
(dp147
g3
F2.0
sg4
F5.0
sg5
F8.0
sg6
F5.0
sb(dp148
I00
F-768.7673078856902
sI01
F6535.618744660141
ss(i__main__
State
p149
(dp150
g3
F0.0
sg4
F2.0
sg5
F6.0
sg6
F3.0
sb(dp151
I00
F-11889.3283019676
sI01
F595.8264955264498
ss(i__main__
State
p152
(dp153
g3
F-1.0
sg4
F4.0
sg5
F5.0
sg6
F2.0
sb(dp154
I00
F-2972.472195562227
sI01
F3632.5774017620392
ss(i__main__
State
p155
(dp156
g3
F-1.0
sg4
F1.0
sg5
F5.0
sg6
F2.0
sb(dp157
I00
F-3778.2100258278983
sI01
F137.1544841229025
ss(i__main__
State
p158
(dp159
g3
F2.0
sg4
F7.0
sg5
F8.0
sg6
F5.0
sb(dp160
I00
F2650.2165731602545
sI01
F9583.792411141194
ss(i__main__
State
p161
(dp162
g3
F6.0
sg4
F3.0
sg5
F-5.0
sg6
F-8.0
sb(dp163
I00
F-6394.0166180977985
sI01
F420.0238336436473
ss(i__main__
State
p164
(dp165
g3
F-5.0
sg4
F6.0
sg5
F1.0
sg6
F-2.0
sb(dp166
I00
F-553.7268670204638
sI01
F4245.315394505673
ss(i__main__
State
p167
(dp168
g3
F-6.0
sg4
F7.0
sg5
F0.0
sg6
F-3.0
sb(dp169
I00
F-4385.88026131076
sI01
F8775.319380054463
ss(i__main__
State
p170
(dp171
g3
F3.0
sg4
F4.0
sg5
F-8.0
sg6
F6.0
sb(dp172
I00
F-3493.6041134239517
sI01
F2742.6661035731913
ss(i__main__
State
p173
(dp174
g3
F7.0
sg4
F4.0
sg5
F-4.0
sg6
F-7.0
sb(dp175
I00
F-2091.277874617431
sI01
F879.1293414188802
ss(i__main__
State
p176
(dp177
g3
F4.0
sg4
F1.0
sg5
F-7.0
sg6
F7.0
sb(dp178
I00
F-8506.227812145542
sI01
F155.1629248585201
ss(i__main__
State
p179
(dp180
g3
F1.0
sg4
F7.0
sg5
F7.0
sg6
F4.0
sb(dp181
I00
F-5199.250245163798
sI01
F9742.607522088407
ss(i__main__
State
p182
(dp183
g3
F1.0
sg4
F5.0
sg5
F7.0
sg6
F4.0
sb(dp184
I00
F-1525.1842957391973
sI01
F4724.321274801619
ss(i__main__
State
p185
(dp186
g3
F-3.0
sg4
F0.0
sg5
F3.0
sg6
F0.0
sb(dp187
I00
F-10919.251219730866
sI01
F60.221322052791976
ss(i__main__
State
p188
(dp189
g3
F-8.0
sg4
F4.0
sg5
F-2.0
sg6
F-5.0
sb(dp190
I00
F-4545.951211987863
sI01
F2197.0887882988304
ss(i__main__
State
p191
(dp192
g3
F5.0
sg4
F5.0
sg5
F-6.0
sg6
F8.0
sb(dp193
I00
F-3278.1108954062215
sI01
F7469.068480788542
ss(i__main__
State
p194
(dp195
g3
F5.0
sg4
F4.0
sg5
F-6.0
sg6
F8.0
sb(dp196
I00
F-2737.836627192479
sI01
F2422.3463710014857
ss(i__main__
State
p197
(dp198
g3
F-2.0
sg4
F5.0
sg5
F4.0
sg6
F1.0
sb(dp199
I00
F-49.61447337986215
sI01
F5972.358289504706
ss(i__main__
State
p200
(dp201
g3
F-8.0
sg4
F2.0
sg5
F-2.0
sg6
F-5.0
sb(dp202
I00
F-3156.5642198201326
sI01
F641.6213911130424
ss(i__main__
State
p203
(dp204
g3
F-8.0
sg4
F7.0
sg5
F-2.0
sg6
F-5.0
sb(dp205
I00
F-52.482141526394734
sI01
F7984.1379035832115
ss(i__main__
State
p206
(dp207
g3
F1.0
sg4
F8.0
sg5
F7.0
sg6
F4.0
sb(dp208
I00
F-9387.698850187364
sI01
F4.970728047787107
ss(i__main__
State
p209
(dp210
g3
F0.0
sg4
F5.0
sg5
F6.0
sg6
F3.0
sb(dp211
I00
F-3827.5096847266545
sI01
F5653.16364147895
ss(i__main__
State
p212
(dp213
g3
F-6.0
sg4
F2.0
sg5
F0.0
sg6
F-3.0
sb(dp214
I00
F-8466.18457119411
sI01
F946.3234093108824
ss(i__main__
State
p215
(dp216
g3
F-8.0
sg4
F5.0
sg5
F-2.0
sg6
F-5.0
sb(dp217
I00
F-649.7004864741372
sI01
F5502.585611220187
ss(i__main__
State
p218
(dp219
g3
F-3.0
sg4
F6.0
sg5
F3.0
sg6
F0.0
sb(dp220
I00
F185.57802999246172
sI01
F7733.900510751104
ss(i__main__
State
p221
(dp222
g3
F7.0
sg4
F3.0
sg5
F-4.0
sg6
F-7.0
sb(dp223
I00
F-7939.74578623318
sI01
F1817.0667977309065
ss(i__main__
State
p224
(dp225
g3
F-5.0
sg4
F7.0
sg5
F1.0
sg6
F-2.0
sb(dp226
I00
F827.2650551513925
sI01
F8741.925095036813
ss(i__main__
State
p227
(dp228
g3
F-4.0
sg4
F4.0
sg5
F2.0
sg6
F-1.0
sb(dp229
I00
F-6054.989361622144
sI01
F2453.7259197817293
ss(i__main__
State
p230
(dp231
g3
F7.0
sg4
F0.0
sg5
F-4.0
sg6
F-7.0
sb(dp232
I00
F-7400.430469738998
sI01
F151.33186903824077
ss(i__main__
State
p233
(dp234
g3
F-6.0
sg4
F6.0
sg5
F0.0
sg6
F-3.0
sb(dp235
I00
F-619.6929461107401
sI01
F6591.231368854302
ss(i__main__
State
p236
(dp237
g3
F-6.0
sg4
F0.0
sg5
F0.0
sg6
F-3.0
sb(dp238
I00
F-15182.653825217774
sI01
F89.58602473281877
ss(i__main__
State
p239
(dp240
g3
F-8.0
sg4
F0.0
sg5
F-2.0
sg6
F-5.0
sb(dp241
I00
F-4215.402988093205
sI01
F155.49144150154356
ss(i__main__
State
p242
(dp243
g3
F-7.0
sg4
F8.0
sg5
F-1.0
sg6
F-4.0
sb(dp244
I00
F-17752.144208879796
sI01
F55.1730214662341
ss(i__main__
State
p245
(dp246
g3
F-1.0
sg4
F7.0
sg5
F5.0
sg6
F2.0
sb(dp247
I00
F4085.0557848397743
sI01
F3479.8414138122325
ss(i__main__
State
p248
(dp249
g3
F5.0
sg4
F2.0
sg5
F-6.0
sg6
F8.0
sb(dp250
I00
F-11495.906914184472
sI01
F331.0924632861835
ss(i__main__
State
p251
(dp252
g3
F-8.0
sg4
F3.0
sg5
F-2.0
sg6
F-5.0
sb(dp253
I00
F-9678.658720347792
sI01
F1036.7515494176146
ss(i__main__
State
p254
(dp255
g3
F-2.0
sg4
F7.0
sg5
F4.0
sg6
F1.0
sb(dp256
I00
F-6652.859447833591
sI01
F8882.614926705528
ss(i__main__
State
p257
(dp258
g3
F0.0
sg4
F6.0
sg5
F6.0
sg6
F3.0
sb(dp259
I00
F1709.209163293763
sI01
F8764.235945704793
ss(i__main__
State
p260
(dp261
g3
F-2.0
sg4
F1.0
sg5
F4.0
sg6
F1.0
sb(dp262
I00
F-7223.931675278485
sI01
F193.63972878200082
ss(i__main__
State
p263
(dp264
g3
F-4.0
sg4
F8.0
sg5
F2.0
sg6
F-1.0
sb(dp265
I00
F-6549.70294
sI01
F36.312587290987445
ss(i__main__
State
p266
(dp267
g3
F-8.0
sg4
F1.0
sg5
F-2.0
sg6
F-5.0
sb(dp268
I00
F-4766.7874683224
sI01
F358.01216384288716
ss(i__main__
State
p269
(dp270
g3
F-3.0
sg4
F1.0
sg5
F3.0
sg6
F0.0
sb(dp271
I00
F-13651.067603396556
sI01
F143.9777243367513
ss(i__main__
State
p272
(dp273
g3
F7.0
sg4
F7.0
sg5
F-4.0
sg6
F-7.0
sb(dp274
I00
F1089.1045458167127
sI01
F9845.710473554353
ss(i__main__
State
p275
(dp276
g3
F7.0
sg4
F5.0
sg5
F-4.0
sg6
F-7.0
sb(dp277
I00
F-573.3835926242004
sI01
F3463.166782670212
ss(i__main__
State
p278
(dp279
g3
F-3.0
sg4
F7.0
sg5
F3.0
sg6
F0.0
sb(dp280
I00
F2142.3563587416215
sI01
F8420.547170669319
ss(i__main__
State
p281
(dp282
g3
F4.0
sg4
F5.0
sg5
F-7.0
sg6
F7.0
sb(dp283
I00
F-292.03788417853764
sI01
F4150.391401873151
ss(i__main__
State
p284
(dp285
g3
F4.0
sg4
F0.0
sg5
F-7.0
sg6
F7.0
sb(dp286
I00
F-9750.68045965025
sI01
F49.10432734752311
ss(i__main__
State
p287
(dp288
g3
F6.0
sg4
F5.0
sg5
F-5.0
sg6
F-8.0
sb(dp289
I00
F-226.8744193960904
sI01
F4587.270476290658
ss(i__main__
State
p290
(dp291
g3
F-5.0
sg4
F4.0
sg5
F1.0
sg6
F-2.0
sb(dp292
I00
F-3955.2669617644724
sI01
F3382.4976562638967
ss(i__main__
State
p293
(dp294
g3
F-3.0
sg4
F8.0
sg5
F3.0
sg6
F0.0
sb(dp295
I00
F-3415.455496317375
sI01
F19.831447690748913
ss(i__main__
State
p296
(dp297
g3
F2.0
sg4
F6.0
sg5
F8.0
sg6
F5.0
sb(dp298
I00
F1742.3718244873305
sI01
F7927.858617506645
ss(i__main__
State
p299
(dp300
g3
F-5.0
sg4
F0.0
sg5
F1.0
sg6
F-2.0
sb(dp301
I00
F-3006.1441033026185
sI01
F114.63401193856215
ss(i__main__
State
p302
(dp303
g3
F-1.0
sg4
F2.0
sg5
F5.0
sg6
F2.0
sb(dp304
I00
F-5497.764993513288
sI01
F577.9270711882609
ss(i__main__
State
p305
(dp306
g3
F5.0
sg4
F3.0
sg5
F-6.0
sg6
F8.0
sb(dp307
I00
F-9146.707245835549
sI01
F961.6911770693416
ss(i__main__
State
p308
(dp309
g3
F-1.0
sg4
F6.0
sg5
F5.0
sg6
F2.0
sb(dp310
I00
F2287.7938453439033
sI01
F8184.299253333438
ss(i__main__
State
p311
(dp312
g3
F-7.0
sg4
F7.0
sg5
F-1.0
sg6
F-4.0
sb(dp313
I00
F-5068.84683715916
sI01
F1008.7015337760756
ss(i__main__
State
p314
(dp315
g3
F4.0
sg4
F3.0
sg5
F-7.0
sg6
F7.0
sb(dp316
I00
F-9149.572372206838
sI01
F1257.6768495817635
ss(i__main__
State
p317
(dp318
g3
F-4.0
sg4
F1.0
sg5
F2.0
sg6
F-1.0
sb(dp319
I00
F-5580.504674793695
sI01
F429.5481792115646
ss(i__main__
State
p320
(dp321
g3
F1.0
sg4
F0.0
sg5
F7.0
sg6
F4.0
sb(dp322
I00
F-15564.124519482433
sI01
F43.52500760486126
ss(i__main__
State
p323
(dp324
g3
F8.0
sg4
F5.0
sg5
F-3.0
sg6
F-6.0
sb(dp325
I00
F-2249.045752758571
sI01
F940.8264217574712
ss(i__main__
State
p326
(dp327
g3
F0.0
sg4
F0.0
sg5
F6.0
sg6
F3.0
sb(dp328
I00
F-7516.74787193548
sI01
F93.83267281342295
ss(i__main__
State
p329
(dp330
g3
F3.0
sg4
F0.0
sg5
F-8.0
sg6
F6.0
sb(dp331
I00
F-14009.84780868551
sI01
F76.6151904384624
ss(i__main__
State
p332
(dp333
g3
F7.0
sg4
F1.0
sg5
F-4.0
sg6
F-7.0
sb(dp334
I00
F-4772.501690966183
sI01
F165.72874162213932
ss(i__main__
State
p335
(dp336
g3
F4.0
sg4
F2.0
sg5
F-7.0
sg6
F7.0
sb(dp337
I00
F-10261.955398653981
sI01
F354.371559366566
ss(i__main__
State
p338
(dp339
g3
F-6.0
sg4
F4.0
sg5
F0.0
sg6
F-3.0
sb(dp340
I00
F-1404.6079198558286
sI01
F2798.849888878235
ss(i__main__
State
p341
(dp342
g3
F-4.0
sg4
F5.0
sg5
F2.0
sg6
F-1.0
sb(dp343
I00
F-722.2108489747312
sI01
F5564.682976684001
ss(i__main__
State
p344
(dp345
g3
F-3.0
sg4
F4.0
sg5
F3.0
sg6
F0.0
sb(dp346
I00
F-2430.4538317171346
sI01
F3610.778287197635
ss(i__main__
State
p347
(dp348
g3
F0.0
sg4
F3.0
sg5
F6.0
sg6
F3.0
sb(dp349
I00
F-4524.580974595823
sI01
F1497.5081110592514
ss(i__main__
State
p350
(dp351
g3
F-7.0
sg4
F4.0
sg5
F-1.0
sg6
F-4.0
sb(dp352
I00
F-3537.2028205844535
sI01
F2255.233031106033
ss(i__main__
State
p353
(dp354
g3
F-4.0
sg4
F6.0
sg5
F2.0
sg6
F-1.0
sb(dp355
I00
F-1823.2187760648053
sI01
F7424.570738661482
ss(i__main__
State
p356
(dp357
g3
F-4.0
sg4
F3.0
sg5
F2.0
sg6
F-1.0
sb(dp358
I00
F-5418.877515241311
sI01
F1433.6968646550738
ss(i__main__
State
p359
(dp360
g3
F-7.0
sg4
F6.0
sg5
F-1.0
sg6
F-4.0
sb(dp361
I00
F1730.1489415739443
sI01
F7630.215453487725
ss(i__main__
State
p362
(dp363
g3
F6.0
sg4
F2.0
sg5
F-5.0
sg6
F-8.0
sb(dp364
I00
F-1197.2427623402464
sI01
F759.9959584948722
ss(i__main__
State
p365
(dp366
g3
F3.0
sg4
F5.0
sg5
F-8.0
sg6
F6.0
sb(dp367
I00
F-2798.0913655917648
sI01
F5781.468306192686
ss(i__main__
State
p368
(dp369
g3
F-8.0
sg4
F8.0
sg5
F-2.0
sg6
F-5.0
sb(dp370
I00
F-13886.935342163932
sI01
F49.12511832433631
ss(i__main__
State
p371
(dp372
g3
F-2.0
sg4
F0.0
sg5
F4.0
sg6
F1.0
sb(dp373
I00
F-6601.343099787492
sI01
F42.28277123820009
ss(i__main__
State
p374
(dp375
g3
F6.0
sg4
F8.0
sg5
F-5.0
sg6
F-8.0
sb(dp376
I00
F-16567.457943150373
sI01
F101.56623260594459
ss(i__main__
State
p377
(dp378
g3
F5.0
sg4
F1.0
sg5
F-6.0
sg6
F8.0
sb(dp379
I00
F-5703.753665162544
sI01
F239.68014374237544
ss(i__main__
State
p380
(dp381
g3
F-2.0
sg4
F4.0
sg5
F4.0
sg6
F1.0
sb(dp382
I00
F-2297.029055973323
sI01
F3793.3294340466755
ss(i__main__
State
p383
(dp384
g3
F-7.0
sg4
F2.0
sg5
F-1.0
sg6
F-4.0
sb(dp385
I00
F-5908.876403496854
sI01
F924.6057254075871
ss(i__main__
State
p386
(dp387
g3
F2.0
sg4
F4.0
sg5
F8.0
sg6
F5.0
sb(dp388
I00
F-3114.5761278251025
sI01
F3572.042147830309
ss(i__main__
State
p389
(dp390
g3
F-2.0
sg4
F3.0
sg5
F4.0
sg6
F1.0
sb(dp391
I00
F-1889.1456561633831
sI01
F2255.8287908155635
ss(i__main__
State
p392
(dp393
g3
F6.0
sg4
F4.0
sg5
F-5.0
sg6
F-8.0
sb(dp394
I00
F-827.8072025495733
sI01
F2160.875692638837
ss(i__main__
State
p395
(dp396
g3
F-4.0
sg4
F0.0
sg5
F2.0
sg6
F-1.0
sb(dp397
I00
F-13316.100891925582
sI01
F27.95031434988947
ss(i__main__
State
p398
(dp399
g3
F3.0
sg4
F1.0
sg5
F-8.0
sg6
F6.0
sb(dp400
I00
F-6515.784762027921
sI01
F83.39532468476065
ss(i__main__
State
p401
(dp402
g3
F-2.0
sg4
F6.0
sg5
F4.0
sg6
F1.0
sb(dp403
I00
F-922.6233364824151
sI01
F4227.388307871584
ss(i__main__
State
p404
(dp405
g3
F-6.0
sg4
F1.0
sg5
F0.0
sg6
F-3.0
sb(dp406
I00
F-12083.049312243473
sI01
F87.57558340361236
ss(i__main__
State
p407
(dp408
g3
F0.0
sg4
F7.0
sg5
F6.0
sg6
F3.0
sb(dp409
I00
F4154.16078060387
sI01
F9581.362547355264
ss(i__main__
State
p410
(dp411
g3
F2.0
sg4
F1.0
sg5
F8.0
sg6
F5.0
sb(dp412
I00
F-7223.783328433982
sI01
F207.65361636074124
ss(i__main__
State
p413
(dp414
g3
F4.0
sg4
F8.0
sg5
F-7.0
sg6
F7.0
sb(dp415
I00
F-17793.080119481023
sI01
F3.490452845532472
ss(i__main__
State
p416
(dp417
g3
F7.0
sg4
F2.0
sg5
F-4.0
sg6
F-7.0
sb(dp418
I00
F-6617.983410182621
sI01
F522.0082959016188
ss(i__main__
State
p419
(dp420
g3
F2.0
sg4
F3.0
sg5
F8.0
sg6
F5.0
sb(dp421
I00
F-8729.887637487032
sI01
F1705.2080430660833
ss(i__main__
State
p422
(dp423
g3
F0.0
sg4
F4.0
sg5
F6.0
sg6
F3.0
sb(dp424
I00
F-5167.384013577387
sI01
F2227.392168167014
ss(i__main__
State
p425
(dp426
g3
F-1.0
sg4
F8.0
sg5
F5.0
sg6
F2.0
sb(dp427
I00
F-8716.806851231348
sI01
F33.01450163147833
ss(i__main__
State
p428
(dp429
g3
F8.0
sg4
F6.0
sg5
F-3.0
sg6
F-6.0
sb(dp430
I00
F498.90884170570035
sI01
F6351.1487800574705
ss(i__main__
State
p431
(dp432
g3
F5.0
sg4
F7.0
sg5
F-6.0
sg6
F8.0
sb(dp433
I00
F925.3113830906043
sI01
F9561.548358556598
ss(i__main__
State
p434
(dp435
g3
F2.0
sg4
F2.0
sg5
F8.0
sg6
F5.0
sb(dp436
I00
F-4947.656462293207
sI01
F878.8274690199289
ss(i__main__
State
p437
(dp438
g3
F-7.0
sg4
F3.0
sg5
F-1.0
sg6
F-4.0
sb(dp439
I00
F-8758.32351977636
sI01
F1305.8393260739406
ss(i__main__
State
p440
(dp441
g3
F-5.0
sg4
F1.0
sg5
F1.0
sg6
F-2.0
sb(dp442
I00
F-7193.688415477367
sI01
F326.1364384354713
ss(i__main__
State
p443
(dp444
g3
F0.0
sg4
F8.0
sg5
F6.0
sg6
F3.0
sb(dp445
I00
F-15614.414482364335
sI01
F37.59661288781724
ss(i__main__
State
p446
(dp447
g3
F4.0
sg4
F6.0
sg5
F-7.0
sg6
F7.0
sb(dp448
I00
I-77
sI01
F7989.37266006439
ss(i__main__
State
p449
(dp450
g3
F-3.0
sg4
F5.0
sg5
F3.0
sg6
F0.0
sb(dp451
I00
F-1688.6269951942331
sI01
F3473.959689783779
ss(i__main__
State
p452
(dp453
g3
F1.0
sg4
F6.0
sg5
F7.0
sg6
F4.0
sb(dp454
I00
F1838.714998732988
sI01
F7677.757309942003
ss(i__main__
State
p455
(dp456
g3
F8.0
sg4
F0.0
sg5
F-3.0
sg6
F-6.0
sb(dp457
I00
F-9753.784135003625
sI01
F93.47050135597375
ss(i__main__
State
p458
(dp459
g3
F3.0
sg4
F8.0
sg5
F-8.0
sg6
F6.0
sb(dp460
I00
F-17258.19590433888
sI01
F39.086969210812256
ss(i__main__
State
p461
(dp462
g3
F-7.0
sg4
F0.0
sg5
F-1.0
sg6
F-4.0
sb(dp463
I00
F-2979.8109173147523
sI01
F73.45130807578957
ss.