(dp0
(i__main__
State
p1
(dp2
S'y1'
p3
F8.0
sS'x'
p4
F3.0
sS'y3'
p5
F-3.0
sS'y2'
p6
F-6.0
sb(dp7
I00
F-5282.103979911442
sI01
F843.9067219803553
ss(i__main__
State
p8
(dp9
g3
F4.0
sg4
F7.0
sg5
F-7.0
sg6
F7.0
sb(dp10
I00
F-4554.88679383381
sI01
F9392.8065608766
ss(i__main__
State
p11
(dp12
g3
F-7.0
sg4
F5.0
sg5
F-1.0
sg6
F-4.0
sb(dp13
I00
F-4143.718114435538
sI01
F3403.1643898405896
ss(i__main__
State
p14
(dp15
g3
F0.0
sg4
F8.0
sg5
F6.0
sg6
F3.0
sb(dp16
I00
F-17734.33501593219
sI01
F-19.218514827169024
ss(i__main__
State
p17
(dp18
g3
F-1.0
sg4
F1.0
sg5
F5.0
sg6
F2.0
sb(dp19
I00
F-5548.395502132347
sI01
F399.2765835226895
ss(i__main__
State
p20
(dp21
g3
F7.0
sg4
F6.0
sg5
F-4.0
sg6
F-7.0
sb(dp22
I00
F-32.186336538437445
sI01
F7286.668648672968
ss(i__main__
State
p23
(dp24
g3
F0.0
sg4
F7.0
sg5
F6.0
sg6
F3.0
sb(dp25
I00
F-2673.606077003781
sI01
F9715.529214017259
ss(i__main__
State
p26
(dp27
g3
F-1.0
sg4
F3.0
sg5
F5.0
sg6
F2.0
sb(dp28
I00
F-9409.658307908432
sI01
F1436.5116862543855
ss(i__main__
State
p29
(dp30
g3
F1.0
sg4
F4.0
sg5
F7.0
sg6
F4.0
sb(dp31
I00
F-5379.788605377619
sI01
F2289.6378455614276
ss(i__main__
State
p32
(dp33
g3
F1.0
sg4
F2.0
sg5
F7.0
sg6
F4.0
sb(dp34
I00
F-11538.413916051
sI01
F1311.92726213377
ss(i__main__
State
p35
(dp36
g3
F-1.0
sg4
F5.0
sg5
F5.0
sg6
F2.0
sb(dp37
I00
F-185.6833841276955
sI01
F6400.579719061082
ss(i__main__
State
p38
(dp39
g3
F-6.0
sg4
F5.0
sg5
F0.0
sg6
F-3.0
sb(dp40
I00
F-1249.019996596924
sI01
F3111.455645229137
ss(i__main__
State
p41
(dp42
g3
F-2.0
sg4
F8.0
sg5
F4.0
sg6
F1.0
sb(dp43
I00
F-4537.096833048971
sI01
F26.033958940939392
ss(i__main__
State
p44
(dp45
g3
F6.0
sg4
F0.0
sg5
F-5.0
sg6
F-8.0
sb(dp46
I00
F-4310.3353260032745
sI01
F109.44497659079899
ss(i__main__
State
p47
(dp48
g3
F6.0
sg4
F4.0
sg5
F-5.0
sg6
F-8.0
sb(dp49
I00
F-2067.1493087349268
sI01
F3129.8177450826774
ss(i__main__
State
p50
(dp51
g3
F-4.0
sg4
F7.0
sg5
F2.0
sg6
F-1.0
sb(dp52
I00
F-5291.525977445013
sI01
F1816.8986322296137
ss(i__main__
State
p53
(dp54
g3
F-3.0
sg4
F2.0
sg5
F3.0
sg6
F0.0
sb(dp55
I00
F-5490.50490030794
sI01
F312.02914851325613
ss(i__main__
State
p56
(dp57
g3
F5.0
sg4
F0.0
sg5
F-6.0
sg6
F8.0
sb(dp58
I00
F-15829.639307365185
sI01
F49.35855535039376
ss(i__main__
State
p59
(dp60
g3
F-4.0
sg4
F1.0
sg5
F2.0
sg6
F-1.0
sb(dp61
I00
F-2628.438643823496
sI01
F134.8233815520679
ss(i__main__
State
p62
(dp63
g3
F3.0
sg4
F3.0
sg5
F-8.0
sg6
F6.0
sb(dp64
I00
F-5946.579593390134
sI01
F862.8761543131304
ss(i__main__
State
p65
(dp66
g3
F2.0
sg4
F0.0
sg5
F8.0
sg6
F5.0
sb(dp67
I00
F-10953.694881428415
sI01
F28.78368016708489
ss(i__main__
State
p68
(dp69
g3
F4.0
sg4
F4.0
sg5
F-7.0
sg6
F7.0
sb(dp70
I00
F-2127.745481831608
sI01
F2047.8605186067725
ss(i__main__
State
p71
(dp72
g3
F-2.0
sg4
F2.0
sg5
F4.0
sg6
F1.0
sb(dp73
I00
F-10899.35618422171
sI01
F488.8632408256968
ss(i__main__
State
p74
(dp75
g3
F-4.0
sg4
F2.0
sg5
F2.0
sg6
F-1.0
sb(dp76
I00
F-5303.019447963601
sI01
F1106.9816847329998
ss(i__main__
State
p77
(dp78
g3
F-6.0
sg4
F3.0
sg5
F0.0
sg6
F-3.0
sb(dp79
I00
F-7378.490957710106
sI01
F1457.2829140314027
ss(i__main__
State
p80
(dp81
g3
F2.0
sg4
F8.0
sg5
F8.0
sg6
F5.0
sb(dp82
I00
F-6817.0311528474285
sI01
F103.25562925490078
ss(i__main__
State
p83
(dp84
g3
F6.0
sg4
F1.0
sg5
F-5.0
sg6
F-8.0
sb(dp85
I00
F-5690.3602329342975
sI01
F145.05156579690816
ss(i__main__
State
p86
(dp87
g3
F5.0
sg4
F6.0
sg5
F-6.0
sg6
F8.0
sb(dp88
I00
F3091.1322198150465
sI01
F8866.882006918233
ss(i__main__
State
p89
(dp90
g3
F8.0
sg4
F1.0
sg5
F-3.0
sg6
F-6.0
sb(dp91
I00
F-8542.508493418742
sI01
F260.68295339313005
ss(i__main__
State
p92
(dp93
g3
F-5.0
sg4
F5.0
sg5
F1.0
sg6
F-2.0
sb(dp94
I00
F-1094.249839222948
sI01
F5320.0538811733595
ss(i__main__
State
p95
(dp96
g3
F-5.0
sg4
F8.0
sg5
F1.0
sg6
F-2.0
sb(dp97
I00
F-16916.59317096953
sI01
F8.187490231485977
ss(i__main__
State
p98
(dp99
g3
F0.0
sg4
F1.0
sg5
F6.0
sg6
F3.0
sb(dp100
I00
F-4799.624356354945
sI01
F478.75369115629957
ss(i__main__
State
p101
(dp102
g3
F5.0
sg4
F8.0
sg5
F-6.0
sg6
F8.0
sb(dp103
I00
F-4863.810906347137
sI01
F71.17118093958624
ss(i__main__
State
p104
(dp105
g3
F3.0
sg4
F6.0
sg5
F-8.0
sg6
F6.0
sb(dp106
I00
F-2644.5829327489
sI01
F7122.48544425381
ss(i__main__
State
p107
(dp108
g3
F8.0
sg4
F7.0
sg5
F-3.0
sg6
F-6.0
sb(dp109
I00
F-7652.488848502902
sI01
F9379.109421713365
ss(i__main__
State
p110
(dp111
g3
F8.0
sg4
F4.0
sg5
F-3.0
sg6
F-6.0
sb(dp112
I00
F-1146.3620596544874
sI01
F3559.194333490118
ss(i__main__
State
p113
(dp114
g3
F-7.0
sg4
F1.0
sg5
F-1.0
sg6
F-4.0
sb(dp115
I00
F-3640.3445282328785
sI01
F255.53345619778742
ss(i__main__
State
p116
(dp117
g3
F8.0
sg4
F8.0
sg5
F-3.0
sg6
F-6.0
sb(dp118
I00
F-13679.446109051207
sI01
F51.65557664656859
ss(i__main__
State
p119
(dp120
g3
F7.0
sg4
F8.0
sg5
F-4.0
sg6
F-7.0
sb(dp121
I00
F-11218.364026326735
sI01
F56.07855917779757
ss(i__main__
State
p122
(dp123
g3
F-3.0
sg4
F3.0
sg5
F3.0
sg6
F0.0
sb(dp124
I00
F-4803.831178576684
sI01
F2427.196125478571
ss(i__main__
State
p125
(dp126
g3
F-6.0
sg4
F8.0
sg5
F0.0
sg6
F-3.0
sb(dp127
I00
F-10430.894264247001
sI01
F15.185800732944001
ss(i__main__
State
p128
(dp129
g3
F8.0
sg4
F2.0
sg5
F-3.0
sg6
F-6.0
sb(dp130
I00
F-6595.410645223357
sI01
F650.1007674365246
ss(i__main__
State
p131
(dp132
g3
F-5.0
sg4
F3.0
sg5
F1.0
sg6
F-2.0
sb(dp133
I00
F-9335.686935688764
sI01
F1240.5153236760232
ss(i__main__
State
p134
(dp135
g3
F6.0
sg4
F6.0
sg5
F-5.0
sg6
F-8.0
sb(dp136
I00
F1782.0949402150059
sI01
F6227.4460164632965
ss(i__main__
State
p137
(dp138
g3
F-8.0
sg4
F6.0
sg5
F-2.0
sg6
F-5.0
sb(dp139
I00
F-735.7005372159668
sI01
F3295.9875442709144
ss(i__main__
State
p140
(dp141
g3
F8.0
sg4
F5.0
sg5
F-3.0
sg6
F-6.0
sb(dp142
I00
F-4646.551662512075
sI01
F2378.6839509595056
ss(i__main__
State
p143
(dp144
g3
F1.0
sg4
F3.0
sg5
F7.0
sg6
F4.0
sb(dp145
I00
F-2303.50792344478
sI01
F1697.4128387145972
ss(i__main__
State
p146
(dp147
g3
F1.0
sg4
F1.0
sg5
F7.0
sg6
F4.0
sb(dp148
I00
F-4775.252326887784
sI01
F133.0557162960613
ss(i__main__
State
p149
(dp150
g3
F2.0
sg4
F5.0
sg5
F8.0
sg6
F5.0
sb(dp151
I00
F-3171.155588947562
sI01
F4342.98979427182
ss(i__main__
State
p152
(dp153
g3
F0.0
sg4
F2.0
sg5
F6.0
sg6
F3.0
sb(dp154
I00
F-11382.965543485276
sI01
F851.8250604986508
ss(i__main__
State
p155
(dp156
g3
F1.0
sg4
F5.0
sg5
F7.0
sg6
F4.0
sb(dp157
I00
F-311.30788237109414
sI01
F5511.753498740593
ss(i__main__
State
p158
(dp159
g3
F-5.0
sg4
F2.0
sg5
F1.0
sg6
F-2.0
sb(dp160
I00
F-5813.245830061965
sI01
F1266.9265746240378
ss(i__main__
State
p161
(dp162
g3
F2.0
sg4
F7.0
sg5
F8.0
sg6
F5.0
sb(dp163
I00
F4255.366694408848
sI01
F9621.149180916243
ss(i__main__
State
p164
(dp165
g3
F6.0
sg4
F3.0
sg5
F-5.0
sg6
F-8.0
sb(dp166
I00
F-7990.179565533223
sI01
F1456.3113760042618
ss(i__main__
State
p167
(dp168
g3
F7.0
sg4
F2.0
sg5
F-4.0
sg6
F-7.0
sb(dp169
I00
F-6179.73856239441
sI01
F364.89561799842824
ss(i__main__
State
p170
(dp171
g3
F-5.0
sg4
F6.0
sg5
F1.0
sg6
F-2.0
sb(dp172
I00
F-1049.2475760690497
sI01
F2584.925056645525
ss(i__main__
State
p173
(dp174
g3
F-6.0
sg4
F7.0
sg5
F0.0
sg6
F-3.0
sb(dp175
I00
F1178.4608293147735
sI01
F9725.936773390753
ss(i__main__
State
p176
(dp177
g3
F3.0
sg4
F4.0
sg5
F-8.0
sg6
F6.0
sb(dp178
I00
F-1605.572928297613
sI01
F4792.839709118535
ss(i__main__
State
p179
(dp180
g3
F4.0
sg4
F1.0
sg5
F-7.0
sg6
F7.0
sb(dp181
I00
F-6521.538307199365
sI01
F340.1601022492798
ss(i__main__
State
p182
(dp183
g3
F1.0
sg4
F7.0
sg5
F7.0
sg6
F4.0
sb(dp184
I00
F-273.48638539713556
sI01
F9870.755967145578
ss(i__main__
State
p185
(dp186
g3
F-1.0
sg4
F4.0
sg5
F5.0
sg6
F2.0
sb(dp187
I00
F-7271.523573889077
sI01
F2324.5434966298026
ss(i__main__
State
p188
(dp189
g3
F-3.0
sg4
F0.0
sg5
F3.0
sg6
F0.0
sb(dp190
I00
F-9086.53767179605
sI01
F48.08162886028687
ss(i__main__
State
p191
(dp192
g3
F-8.0
sg4
F4.0
sg5
F-2.0
sg6
F-5.0
sb(dp193
I00
F-6620.3447962770415
sI01
F1927.638329595973
ss(i__main__
State
p194
(dp195
g3
F5.0
sg4
F5.0
sg5
F-6.0
sg6
F8.0
sb(dp196
I00
F-614.9547241771205
sI01
F3523.1531271261324
ss(i__main__
State
p197
(dp198
g3
F5.0
sg4
F4.0
sg5
F-6.0
sg6
F8.0
sb(dp199
I00
F-2613.623813610843
sI01
F2119.5753454126934
ss(i__main__
State
p200
(dp201
g3
F-2.0
sg4
F5.0
sg5
F4.0
sg6
F1.0
sb(dp202
I00
F-3003.879191682711
sI01
F6966.043923088485
ss(i__main__
State
p203
(dp204
g3
F-8.0
sg4
F2.0
sg5
F-2.0
sg6
F-5.0
sb(dp205
I00
F-11761.744905611673
sI01
F716.4373505145251
ss(i__main__
State
p206
(dp207
g3
F-8.0
sg4
F7.0
sg5
F-2.0
sg6
F-5.0
sb(dp208
I00
F-6473.030171330207
sI01
F9568.272232273557
ss(i__main__
State
p209
(dp210
g3
F1.0
sg4
F8.0
sg5
F7.0
sg6
F4.0
sb(dp211
I00
F-7364.303826795882
sI01
F12.050823977853534
ss(i__main__
State
p212
(dp213
g3
F0.0
sg4
F5.0
sg5
F6.0
sg6
F3.0
sb(dp214
I00
F-53.039790337411546
sI01
F5780.926460387345
ss(i__main__
State
p215
(dp216
g3
F-4.0
sg4
F3.0
sg5
F2.0
sg6
F-1.0
sb(dp217
I00
F-3571.2749612582156
sI01
F2634.788765010633
ss(i__main__
State
p218
(dp219
g3
F-8.0
sg4
F5.0
sg5
F-2.0
sg6
F-5.0
sb(dp220
I00
F-1199.1959426810836
sI01
F5660.728967987091
ss(i__main__
State
p221
(dp222
g3
F-3.0
sg4
F6.0
sg5
F3.0
sg6
F0.0
sb(dp223
I00
F-643.8757942867178
sI01
F6738.421385482465
ss(i__main__
State
p224
(dp225
g3
F7.0
sg4
F3.0
sg5
F-4.0
sg6
F-7.0
sb(dp226
I00
F-829.8073394192485
sI01
F1664.6861576823767
ss(i__main__
State
p227
(dp228
g3
F-5.0
sg4
F7.0
sg5
F1.0
sg6
F-2.0
sb(dp229
I00
F-5951.5122177695985
sI01
F7615.044680538124
ss(i__main__
State
p230
(dp231
g3
F-4.0
sg4
F4.0
sg5
F2.0
sg6
F-1.0
sb(dp232
I00
F-5895.730795907107
sI01
F2085.6764009699373
ss(i__main__
State
p233
(dp234
g3
F3.0
sg4
F7.0
sg5
F-8.0
sg6
F6.0
sb(dp235
I00
F1919.7153275553187
sI01
F9556.24959752709
ss(i__main__
State
p236
(dp237
g3
F7.0
sg4
F0.0
sg5
F-4.0
sg6
F-7.0
sb(dp238
I00
F-1581.8292993020002
sI01
F75.50772045315244
ss(i__main__
State
p239
(dp240
g3
F-6.0
sg4
F6.0
sg5
F0.0
sg6
F-3.0
sb(dp241
I00
F845.6106777347259
sI01
F5409.209738922389
ss(i__main__
State
p242
(dp243
g3
F-6.0
sg4
F0.0
sg5
F0.0
sg6
F-3.0
sb(dp244
I00
F-15718.212355145082
sI01
F147.72006988697666
ss(i__main__
State
p245
(dp246
g3
F-8.0
sg4
F0.0
sg5
F-2.0
sg6
F-5.0
sb(dp247
I00
F-15844.468812994348
sI01
F108.24294543271517
ss(i__main__
State
p248
(dp249
g3
F-7.0
sg4
F8.0
sg5
F-1.0
sg6
F-4.0
sb(dp250
I00
F-10247.082919730065
sI01
F50.06876190204405
ss(i__main__
State
p251
(dp252
g3
F-1.0
sg4
F7.0
sg5
F5.0
sg6
F2.0
sb(dp253
I00
F1063.5244381286288
sI01
F1195.1432558680074
ss(i__main__
State
p254
(dp255
g3
F8.0
sg4
F0.0
sg5
F-8.0
sg6
F0.0
sb(dp256
I00
F-9296.8294248
sI01
I78
ss(i__main__
State
p257
(dp258
g3
F5.0
sg4
F2.0
sg5
F-6.0
sg6
F8.0
sb(dp259
I00
F-6645.223860037819
sI01
F697.6956023176006
ss(i__main__
State
p260
(dp261
g3
F-8.0
sg4
F3.0
sg5
F-2.0
sg6
F-5.0
sb(dp262
I00
F-4823.905161935485
sI01
F1237.9509510089265
ss(i__main__
State
p263
(dp264
g3
F-2.0
sg4
F7.0
sg5
F4.0
sg6
F1.0
sb(dp265
I00
F2771.9122146796226
sI01
F9035.042488148607
ss(i__main__
State
p266
(dp267
g3
F0.0
sg4
F6.0
sg5
F6.0
sg6
F3.0
sb(dp268
I00
F1986.6870445308232
sI01
F8883.165186343469
ss(i__main__
State
p269
(dp270
g3
F-2.0
sg4
F1.0
sg5
F4.0
sg6
F1.0
sb(dp271
I00
F-2693.7121392115077
sI01
F127.7200754774831
ss(i__main__
State
p272
(dp273
g3
F-4.0
sg4
F8.0
sg5
F2.0
sg6
F-1.0
sb(dp274
I00
F-14775.181008655234
sI01
F31.248646983031986
ss(i__main__
State
p275
(dp276
g3
F-8.0
sg4
F1.0
sg5
F-2.0
sg6
F-5.0
sb(dp277
I00
F-6386.24970777226
sI01
F398.7817655914673
ss(i__main__
State
p278
(dp279
g3
F4.0
sg4
F5.0
sg5
F-7.0
sg6
F7.0
sb(dp280
I00
F-1643.1424099722087
sI01
F6988.70148810994
ss(i__main__
State
p281
(dp282
g3
F7.0
sg4
F7.0
sg5
F-4.0
sg6
F-7.0
sb(dp283
I00
F-2197.677388405986
sI01
F8934.391544331671
ss(i__main__
State
p284
(dp285
g3
F-3.0
sg4
F7.0
sg5
F3.0
sg6
F0.0
sb(dp286
I00
F1.3977855775160606
sI01
F9656.22545552868
ss(i__main__
State
p287
(dp288
g3
F-3.0
sg4
F1.0
sg5
F3.0
sg6
F0.0
sb(dp289
I00
F-4778.626532360687
sI01
F107.9646579465406
ss(i__main__
State
p290
(dp291
g3
F6.0
sg4
F5.0
sg5
F-5.0
sg6
F-8.0
sb(dp292
I00
F-2701.0154486348515
sI01
F4125.121516790299
ss(i__main__
State
p293
(dp294
g3
F-5.0
sg4
F4.0
sg5
F1.0
sg6
F-2.0
sb(dp295
I00
F-2188.4852737447422
sI01
F2590.942727559435
ss(i__main__
State
p296
(dp297
g3
F-3.0
sg4
F8.0
sg5
F3.0
sg6
F0.0
sb(dp298
I00
F-16249.387142688822
sI01
F50.813653855145915
ss(i__main__
State
p299
(dp300
g3
F-1.0
sg4
F0.0
sg5
F5.0
sg6
F2.0
sb(dp301
I00
F-5558.137416089741
sI01
F141.11688390542795
ss(i__main__
State
p302
(dp303
g3
F-5.0
sg4
F0.0
sg5
F1.0
sg6
F-2.0
sb(dp304
I00
F-12665.6849110102
sI01
F48.31009136640607
ss(i__main__
State
p305
(dp306
g3
F8.0
sg4
F0.0
sg5
F-3.0
sg6
F-6.0
sb(dp307
I00
F-13785.420226408314
sI01
F119.16288367637956
ss(i__main__
State
p308
(dp309
g3
F5.0
sg4
F3.0
sg5
F-6.0
sg6
F8.0
sb(dp310
I00
F-9558.313512865894
sI01
F1505.3226807883539
ss(i__main__
State
p311
(dp312
g3
F-1.0
sg4
F6.0
sg5
F5.0
sg6
F2.0
sb(dp313
I00
F2690.042784155043
sI01
F8543.650481415041
ss(i__main__
State
p314
(dp315
g3
F4.0
sg4
F3.0
sg5
F-7.0
sg6
F7.0
sb(dp316
I00
F-1666.4613340434935
sI01
F905.9842795425755
ss(i__main__
State
p317
(dp318
g3
F3.0
sg4
F2.0
sg5
F-8.0
sg6
F6.0
sb(dp319
I00
F-11250.95346273466
sI01
F373.2552995691416
ss(i__main__
State
p320
(dp321
g3
F1.0
sg4
F0.0
sg5
F7.0
sg6
F4.0
sb(dp322
I00
F-6583.875415396999
sI01
F37.40820341762558
ss(i__main__
State
p323
(dp324
g3
F6.0
sg4
F7.0
sg5
F-5.0
sg6
F-8.0
sb(dp325
I00
F4116.502031278445
sI01
F9852.904182183245
ss(i__main__
State
p326
(dp327
g3
F0.0
sg4
F0.0
sg5
F6.0
sg6
F3.0
sb(dp328
I00
F-15935.633762539037
sI01
F49.58248709320014
ss(i__main__
State
p329
(dp330
g3
F3.0
sg4
F0.0
sg5
F-8.0
sg6
F6.0
sb(dp331
I00
F-9057.527679517405
sI01
F144.63681206386022
ss(i__main__
State
p332
(dp333
g3
F7.0
sg4
F1.0
sg5
F-4.0
sg6
F-7.0
sb(dp334
I00
F-6565.631618480018
sI01
F282.8225030543419
ss(i__main__
State
p335
(dp336
g3
F4.0
sg4
F2.0
sg5
F-7.0
sg6
F7.0
sb(dp337
I00
F-9728.743663354526
sI01
F708.460915570816
ss(i__main__
State
p338
(dp339
g3
F-6.0
sg4
F4.0
sg5
F0.0
sg6
F-3.0
sb(dp340
I00
F-2677.31378461809
sI01
F3238.7760218759595
ss(i__main__
State
p341
(dp342
g3
F-4.0
sg4
F5.0
sg5
F2.0
sg6
F-1.0
sb(dp343
I00
F-1505.6358950789113
sI01
F4467.890729578183
ss(i__main__
State
p344
(dp345
g3
F-3.0
sg4
F4.0
sg5
F3.0
sg6
F0.0
sb(dp346
I00
F-4451.587109118453
sI01
F4687.872681255064
ss(i__main__
State
p347
(dp348
g3
F0.0
sg4
F3.0
sg5
F6.0
sg6
F3.0
sb(dp349
I00
F-5002.967299007388
sI01
F785.3147723087084
ss(i__main__
State
p350
(dp351
g3
F-7.0
sg4
F4.0
sg5
F-1.0
sg6
F-4.0
sb(dp352
I00
F-6321.416706866649
sI01
F1998.5225655435509
ss(i__main__
State
p353
(dp354
g3
F-4.0
sg4
F6.0
sg5
F2.0
sg6
F-1.0
sb(dp355
I00
F1218.0928563638367
sI01
F7920.745037955468
ss(i__main__
State
p356
(dp357
g3
F-6.0
sg4
F2.0
sg5
F0.0
sg6
F-3.0
sb(dp358
I00
F-4009.2823832309996
sI01
F534.2659284316987
ss(i__main__
State
p359
(dp360
g3
F-7.0
sg4
F6.0
sg5
F-1.0
sg6
F-4.0
sb(dp361
I00
F435.77734634775425
sI01
F8005.157456322596
ss(i__main__
State
p362
(dp363
g3
F6.0
sg4
F2.0
sg5
F-5.0
sg6
F-8.0
sb(dp364
I00
F-1119.5807676304007
sI01
F630.8109113523074
ss(i__main__
State
p365
(dp366
g3
F3.0
sg4
F5.0
sg5
F-8.0
sg6
F6.0
sb(dp367
I00
F-38.66432978209775
sI01
F5312.682373061488
ss(i__main__
State
p368
(dp369
g3
F-8.0
sg4
F8.0
sg5
F-2.0
sg6
F-5.0
sb(dp370
I00
F-7084.787010160058
sI01
F84.44077497337905
ss(i__main__
State
p371
(dp372
g3
F4.0
sg4
F0.0
sg5
F-7.0
sg6
F7.0
sb(dp373
I00
F-15894.006829131231
sI01
F76.10747733467274
ss(i__main__
State
p374
(dp375
g3
F-2.0
sg4
F0.0
sg5
F4.0
sg6
F1.0
sb(dp376
I00
F-5512.037807283265
sI01
F88.50648490162035
ss(i__main__
State
p377
(dp378
g3
F6.0
sg4
F8.0
sg5
F-5.0
sg6
F-8.0
sb(dp379
I00
F-4524.611453017725
sI01
F29.587380711006123
ss(i__main__
State
p380
(dp381
g3
F5.0
sg4
F1.0
sg5
F-6.0
sg6
F8.0
sb(dp382
I00
F-2561.8804546260862
sI01
F175.34035296952518
ss(i__main__
State
p383
(dp384
g3
F-2.0
sg4
F4.0
sg5
F4.0
sg6
F1.0
sb(dp385
I00
F-3466.821285189232
sI01
F4100.875415051871
ss(i__main__
State
p386
(dp387
g3
F-7.0
sg4
F2.0
sg5
F-1.0
sg6
F-4.0
sb(dp388
I00
F-9716.803451389162
sI01
F883.0701621801434
ss(i__main__
State
p389
(dp390
g3
F2.0
sg4
F4.0
sg5
F8.0
sg6
F5.0
sb(dp391
I00
F-4737.071303995898
sI01
F3292.0460150068975
ss(i__main__
State
p392
(dp393
g3
F-2.0
sg4
F3.0
sg5
F4.0
sg6
F1.0
sb(dp394
I00
F-9447.83690686605
sI01
F989.2822899212498
ss(i__main__
State
p395
(dp396
g3
F7.0
sg4
F5.0
sg5
F-4.0
sg6
F-7.0
sb(dp397
I00
F-1225.8338674091206
sI01
F5385.44036520204
ss(i__main__
State
p398
(dp399
g3
F-4.0
sg4
F0.0
sg5
F2.0
sg6
F-1.0
sb(dp400
I00
F-15788.145289382579
sI01
F28.83342750015704
ss(i__main__
State
p401
(dp402
g3
F3.0
sg4
F1.0
sg5
F-8.0
sg6
F6.0
sb(dp403
I00
F-11652.660014820114
sI01
F205.33828516511312
ss(i__main__
State
p404
(dp405
g3
F-2.0
sg4
F6.0
sg5
F4.0
sg6
F1.0
sb(dp406
I00
F-1746.7752937919947
sI01
F2451.5531331289076
ss(i__main__
State
p407
(dp408
g3
F-6.0
sg4
F1.0
sg5
F0.0
sg6
F-3.0
sb(dp409
I00
F-8139.163134991326
sI01
F558.8741346748391
ss(i__main__
State
p410
(dp411
g3
F2.0
sg4
F2.0
sg5
F8.0
sg6
F5.0
sb(dp412
I00
F-9888.067451623592
sI01
F314.03536291557043
ss(i__main__
State
p413
(dp414
g3
F2.0
sg4
F1.0
sg5
F8.0
sg6
F5.0
sb(dp415
I00
F-5653.290641115384
sI01
F162.3275784439677
ss(i__main__
State
p416
(dp417
g3
F4.0
sg4
F8.0
sg5
F-7.0
sg6
F7.0
sb(dp418
I00
F-15965.282917776298
sI01
F24.18785035207994
ss(i__main__
State
p419
(dp420
g3
F7.0
sg4
F4.0
sg5
F-4.0
sg6
F-7.0
sb(dp421
I00
F-5295.249367714113
sI01
F1792.8376334358559
ss(i__main__
State
p422
(dp423
g3
F2.0
sg4
F3.0
sg5
F8.0
sg6
F5.0
sb(dp424
I00
F-4139.232633699815
sI01
F2628.443846994392
ss(i__main__
State
p425
(dp426
g3
F0.0
sg4
F4.0
sg5
F6.0
sg6
F3.0
sb(dp427
I00
F-2937.1638342241968
sI01
F3352.844827548796
ss(i__main__
State
p428
(dp429
g3
F-1.0
sg4
F8.0
sg5
F5.0
sg6
F2.0
sb(dp430
I00
F-3412.8600000000006
sI01
F27.359637705970155
ss(i__main__
State
p431
(dp432
g3
F8.0
sg4
F6.0
sg5
F-3.0
sg6
F-6.0
sb(dp433
I00
F1482.2633366966402
sI01
F8196.932383823118
ss(i__main__
State
p434
(dp435
g3
F5.0
sg4
F7.0
sg5
F-6.0
sg6
F8.0
sb(dp436
I00
F4054.373786241372
sI01
F9312.1304798882
ss(i__main__
State
p437
(dp438
g3
F-7.0
sg4
F7.0
sg5
F-1.0
sg6
F-4.0
sb(dp439
I00
F-2884.98953786468
sI01
F2171.1256025922767
ss(i__main__
State
p440
(dp441
g3
F-7.0
sg4
F3.0
sg5
F-1.0
sg6
F-4.0
sb(dp442
I00
F-9266.56114508384
sI01
F1681.4470237018636
ss(i__main__
State
p443
(dp444
g3
F-5.0
sg4
F1.0
sg5
F1.0
sg6
F-2.0
sb(dp445
I00
F-11442.780525276354
sI01
F476.4936066408593
ss(i__main__
State
p446
(dp447
g3
F2.0
sg4
F6.0
sg5
F8.0
sg6
F5.0
sb(dp448
I00
F1104.996221657358
sI01
F7734.471085124578
ss(i__main__
State
p449
(dp450
g3
F4.0
sg4
F6.0
sg5
F-7.0
sg6
F7.0
sb(dp451
I00
F2401.355758018056
sI01
F7882.111315474793
ss(i__main__
State
p452
(dp453
g3
F-3.0
sg4
F5.0
sg5
F3.0
sg6
F0.0
sb(dp454
I00
F-3782.6801716445907
sI01
F2352.540764537801
ss(i__main__
State
p455
(dp456
g3
F1.0
sg4
F6.0
sg5
F7.0
sg6
F4.0
sb(dp457
I00
F2605.5109016106653
sI01
F8225.591941769315
ss(i__main__
State
p458
(dp459
g3
F-1.0
sg4
F2.0
sg5
F5.0
sg6
F2.0
sb(dp460
I00
F-6796.488285547637
sI01
F318.2198697355399
ss(i__main__
State
p461
(dp462
g3
F3.0
sg4
F8.0
sg5
F-8.0
sg6
F6.0
sb(dp463
I00
F-15234.719189733789
sI01
F69.61979001644302
ss(i__main__
State
p464
(dp465
g3
F-7.0
sg4
F0.0
sg5
F-1.0
sg6
F-4.0
sb(dp466
I00
F-8331.728040854086
sI01
F156.4477543054797
ss.