(dp0
(i__main__
State
p1
(dp2
S'y1'
p3
F8.0
sS'x'
p4
F3.0
sS'y3'
p5
F-3.0
sS'y2'
p6
F-6.0
sb(dp7
I00
F-5437.560179333569
sI01
F4038.6906828972315
ss(i__main__
State
p8
(dp9
g3
F4.0
sg4
F7.0
sg5
F-7.0
sg6
F7.0
sb(dp10
I00
F189.6709182533882
sI01
F10640.22346812714
ss(i__main__
State
p11
(dp12
g3
F-7.0
sg4
F5.0
sg5
F-1.0
sg6
F-4.0
sb(dp13
I00
F-1659.172310843061
sI01
F6235.538149316975
ss(i__main__
State
p14
(dp15
g3
F0.0
sg4
F8.0
sg5
F6.0
sg6
F3.0
sb(dp16
I00
F-17659.02030922092
sI01
F958.3046034379616
ss(i__main__
State
p17
(dp18
g3
F-1.0
sg4
F1.0
sg5
F5.0
sg6
F2.0
sb(dp19
I00
F-7701.614462878165
sI01
F3409.705416798399
ss(i__main__
State
p20
(dp21
g3
F7.0
sg4
F6.0
sg5
F-4.0
sg6
F-7.0
sb(dp22
I00
F1458.8617179021894
sI01
F10021.856488423928
ss(i__main__
State
p23
(dp24
g3
F0.0
sg4
F7.0
sg5
F6.0
sg6
F3.0
sb(dp25
I00
F920.5589982191088
sI01
F10452.900231791955
ss(i__main__
State
p26
(dp27
g3
F-1.0
sg4
F3.0
sg5
F5.0
sg6
F2.0
sb(dp28
I00
F-5811.631142180878
sI01
F7118.0268019507885
ss(i__main__
State
p29
(dp30
g3
F1.0
sg4
F4.0
sg5
F7.0
sg6
F4.0
sb(dp31
I00
F-4308.542723895706
sI01
F7638.08111039221
ss(i__main__
State
p32
(dp33
g3
F1.0
sg4
F2.0
sg5
F7.0
sg6
F4.0
sb(dp34
I00
F-8044.602356727637
sI01
F5920.062720525031
ss(i__main__
State
p35
(dp36
g3
F-1.0
sg4
F5.0
sg5
F5.0
sg6
F2.0
sb(dp37
I00
F794.6918733127684
sI01
F10222.976252510809
ss(i__main__
State
p38
(dp39
g3
F-6.0
sg4
F5.0
sg5
F0.0
sg6
F-3.0
sb(dp40
I00
F-1839.7027194046104
sI01
F4328.0926841761775
ss(i__main__
State
p41
(dp42
g3
F-2.0
sg4
F8.0
sg5
F4.0
sg6
F1.0
sb(dp43
I00
F-10441.806842639242
sI01
F1925.5188155329545
ss(i__main__
State
p44
(dp45
g3
F6.0
sg4
F0.0
sg5
F-5.0
sg6
F-8.0
sb(dp46
I00
F-10599.917043227302
sI01
F1613.8380492368738
ss(i__main__
State
p47
(dp48
g3
F6.0
sg4
F4.0
sg5
F-5.0
sg6
F-8.0
sb(dp49
I00
F-2091.1041318927764
sI01
F6116.024236797041
ss(i__main__
State
p50
(dp51
g3
F-4.0
sg4
F7.0
sg5
F2.0
sg6
F-1.0
sb(dp52
I00
F-374.8660583002586
sI01
F2896.083255872487
ss(i__main__
State
p53
(dp54
g3
F-3.0
sg4
F2.0
sg5
F3.0
sg6
F0.0
sb(dp55
I00
F-6361.175767130958
sI01
F5170.375844648374
ss(i__main__
State
p56
(dp57
g3
F5.0
sg4
F0.0
sg5
F-6.0
sg6
F8.0
sb(dp58
I00
F-15628.128252279063
sI01
F1445.609553986258
ss(i__main__
State
p59
(dp60
g3
F-4.0
sg4
F1.0
sg5
F2.0
sg6
F-1.0
sb(dp61
I00
F-6493.76237636964
sI01
F3421.9625594327163
ss(i__main__
State
p62
(dp63
g3
F3.0
sg4
F3.0
sg5
F-8.0
sg6
F6.0
sb(dp64
I00
F-5754.6732514734485
sI01
F5887.438032332165
ss(i__main__
State
p65
(dp66
g3
F2.0
sg4
F0.0
sg5
F8.0
sg6
F5.0
sb(dp67
I00
F-12265.253205071656
sI01
F1483.7152524934036
ss(i__main__
State
p68
(dp69
g3
F4.0
sg4
F4.0
sg5
F-7.0
sg6
F7.0
sb(dp70
I00
F-2003.846657054493
sI01
F8053.069171453197
ss(i__main__
State
p71
(dp72
g3
F-2.0
sg4
F2.0
sg5
F4.0
sg6
F1.0
sb(dp73
I00
F-9629.711821479512
sI01
F5351.049576355059
ss(i__main__
State
p74
(dp75
g3
F-4.0
sg4
F2.0
sg5
F2.0
sg6
F-1.0
sb(dp76
I00
F-5599.481616732805
sI01
F5575.046906598571
ss(i__main__
State
p77
(dp78
g3
F-6.0
sg4
F3.0
sg5
F0.0
sg6
F-3.0
sb(dp79
I00
F-6873.114390509809
sI01
F4443.027414350579
ss(i__main__
State
p80
(dp81
g3
F2.0
sg4
F8.0
sg5
F8.0
sg6
F5.0
sb(dp82
I00
F-11913.54729293629
sI01
F1645.0314126166704
ss(i__main__
State
p83
(dp84
g3
F6.0
sg4
F1.0
sg5
F-5.0
sg6
F-8.0
sb(dp85
I00
F-8655.48847847954
sI01
F2341.419952660431
ss(i__main__
State
p86
(dp87
g3
F5.0
sg4
F6.0
sg5
F-6.0
sg6
F8.0
sb(dp88
I00
F3379.103432531171
sI01
F10205.177627168236
ss(i__main__
State
p89
(dp90
g3
F8.0
sg4
F1.0
sg5
F-3.0
sg6
F-6.0
sb(dp91
I00
F-9642.358676802296
sI01
F2914.595328126512
ss(i__main__
State
p92
(dp93
g3
F-5.0
sg4
F5.0
sg5
F1.0
sg6
F-2.0
sb(dp94
I00
F1048.7048721408255
sI01
F9303.377139129607
ss(i__main__
State
p95
(dp96
g3
F-5.0
sg4
F8.0
sg5
F1.0
sg6
F-2.0
sb(dp97
I00
F-17304.395163489604
sI01
F1386.813921714832
ss(i__main__
State
p98
(dp99
g3
F0.0
sg4
F1.0
sg5
F6.0
sg6
F3.0
sb(dp100
I00
F-7271.9071051712735
sI01
F4327.337243995239
ss(i__main__
State
p101
(dp102
g3
F5.0
sg4
F8.0
sg5
F-6.0
sg6
F8.0
sb(dp103
I00
F-7306.993407604779
sI01
F1093.1291919365613
ss(i__main__
State
p104
(dp105
g3
F3.0
sg4
F6.0
sg5
F-8.0
sg6
F6.0
sb(dp106
I00
F-268.01281033906025
sI01
F10132.886338676033
ss(i__main__
State
p107
(dp108
g3
F8.0
sg4
F7.0
sg5
F-3.0
sg6
F-6.0
sb(dp109
I00
F-3685.759957940647
sI01
F11221.303675343079
ss(i__main__
State
p110
(dp111
g3
F8.0
sg4
F4.0
sg5
F-3.0
sg6
F-6.0
sb(dp112
I00
F-982.7004446475532
sI01
F6945.057927030328
ss(i__main__
State
p113
(dp114
g3
F-7.0
sg4
F1.0
sg5
F-1.0
sg6
F-4.0
sb(dp115
I00
F-7443.249962912274
sI01
F3353.988070364433
ss(i__main__
State
p116
(dp117
g3
F8.0
sg4
F8.0
sg5
F-3.0
sg6
F-6.0
sb(dp118
I00
F-14677.655730607958
sI01
F1302.2786328159618
ss(i__main__
State
p119
(dp120
g3
F7.0
sg4
F8.0
sg5
F-4.0
sg6
F-7.0
sb(dp121
I00
F-14048.258221784654
sI01
F976.4359287635533
ss(i__main__
State
p122
(dp123
g3
F-3.0
sg4
F3.0
sg5
F3.0
sg6
F0.0
sb(dp124
I00
F-4607.668685212567
sI01
F7827.421019424282
ss(i__main__
State
p125
(dp126
g3
F-6.0
sg4
F8.0
sg5
F0.0
sg6
F-3.0
sb(dp127
I00
F-13164.893243855822
sI01
F1410.299209421517
ss(i__main__
State
p128
(dp129
g3
F8.0
sg4
F2.0
sg5
F-3.0
sg6
F-6.0
sb(dp130
I00
F-8069.621373162264
sI01
F3437.8765287661995
ss(i__main__
State
p131
(dp132
g3
F-5.0
sg4
F3.0
sg5
F1.0
sg6
F-2.0
sb(dp133
I00
F-6723.330073518981
sI01
F5156.467361661009
ss(i__main__
State
p134
(dp135
g3
F6.0
sg4
F6.0
sg5
F-5.0
sg6
F-8.0
sb(dp136
I00
F4167.408931218117
sI01
F10305.984499573598
ss(i__main__
State
p137
(dp138
g3
F-8.0
sg4
F6.0
sg5
F-2.0
sg6
F-5.0
sb(dp139
I00
F-875.193399122525
sI01
F2970.3925754754623
ss(i__main__
State
p140
(dp141
g3
F8.0
sg4
F5.0
sg5
F-3.0
sg6
F-6.0
sb(dp142
I00
F-3206.418718414552
sI01
F5097.675669552998
ss(i__main__
State
p143
(dp144
g3
F1.0
sg4
F3.0
sg5
F7.0
sg6
F4.0
sb(dp145
I00
F-2806.617104787318
sI01
F6851.994672196355
ss(i__main__
State
p146
(dp147
g3
F1.0
sg4
F1.0
sg5
F7.0
sg6
F4.0
sb(dp148
I00
F-8466.77532024341
sI01
F2442.7861382977985
ss(i__main__
State
p149
(dp150
g3
F2.0
sg4
F5.0
sg5
F8.0
sg6
F5.0
sb(dp151
I00
F-489.69236442966394
sI01
F9299.263296248388
ss(i__main__
State
p152
(dp153
g3
F0.0
sg4
F2.0
sg5
F6.0
sg6
F3.0
sb(dp154
I00
F-9623.809464497572
sI01
F4988.577940776885
ss(i__main__
State
p155
(dp156
g3
F1.0
sg4
F5.0
sg5
F7.0
sg6
F4.0
sb(dp157
I00
F478.76198103398633
sI01
F9403.076270774693
ss(i__main__
State
p158
(dp159
g3
F-5.0
sg4
F2.0
sg5
F1.0
sg6
F-2.0
sb(dp160
I00
F-5558.41533777263
sI01
F7070.087423456603
ss(i__main__
State
p161
(dp162
g3
F2.0
sg4
F7.0
sg5
F8.0
sg6
F5.0
sb(dp163
I00
F3815.401936947624
sI01
F10309.687968851786
ss(i__main__
State
p164
(dp165
g3
F6.0
sg4
F3.0
sg5
F-5.0
sg6
F-8.0
sb(dp166
I00
F-6813.206297695144
sI01
F4371.3075360632965
ss(i__main__
State
p167
(dp168
g3
F7.0
sg4
F2.0
sg5
F-4.0
sg6
F-7.0
sb(dp169
I00
F-7211.6713357857825
sI01
F3174.702202169026
ss(i__main__
State
p170
(dp171
g3
F-5.0
sg4
F6.0
sg5
F1.0
sg6
F-2.0
sb(dp172
I00
F-785.309982650577
sI01
F3946.761118977899
ss(i__main__
State
p173
(dp174
g3
F-6.0
sg4
F7.0
sg5
F0.0
sg6
F-3.0
sb(dp175
I00
F4989.349135663316
sI01
F10459.182202016622
ss(i__main__
State
p176
(dp177
g3
F3.0
sg4
F4.0
sg5
F-8.0
sg6
F6.0
sb(dp178
I00
F-581.0545641616119
sI01
F8399.794430819376
ss(i__main__
State
p179
(dp180
g3
F4.0
sg4
F1.0
sg5
F-7.0
sg6
F7.0
sb(dp181
I00
F-8153.708045049635
sI01
F3183.2830260316496
ss(i__main__
State
p182
(dp183
g3
F1.0
sg4
F7.0
sg5
F7.0
sg6
F4.0
sb(dp184
I00
F2868.4207124055574
sI01
F11065.327639690604
ss(i__main__
State
p185
(dp186
g3
F-1.0
sg4
F4.0
sg5
F5.0
sg6
F2.0
sb(dp187
I00
F-3578.1856822565856
sI01
F8213.109068963991
ss(i__main__
State
p188
(dp189
g3
F-3.0
sg4
F0.0
sg5
F3.0
sg6
F0.0
sb(dp190
I00
F-11721.565083847236
sI01
F1754.8788296340172
ss(i__main__
State
p191
(dp192
g3
F-8.0
sg4
F4.0
sg5
F-2.0
sg6
F-5.0
sb(dp193
I00
F-4495.1331466643815
sI01
F4966.835741540604
ss(i__main__
State
p194
(dp195
g3
F5.0
sg4
F5.0
sg5
F-6.0
sg6
F8.0
sb(dp196
I00
F609.3525781121743
sI01
F9407.823691923952
ss(i__main__
State
p197
(dp198
g3
F5.0
sg4
F4.0
sg5
F-6.0
sg6
F8.0
sb(dp199
I00
F-1824.0406196075883
sI01
F7889.040226802678
ss(i__main__
State
p200
(dp201
g3
F-2.0
sg4
F5.0
sg5
F4.0
sg6
F1.0
sb(dp202
I00
F-1161.959377667156
sI01
F9715.817628352906
ss(i__main__
State
p203
(dp204
g3
F-8.0
sg4
F2.0
sg5
F-2.0
sg6
F-5.0
sb(dp205
I00
F-10871.162994528037
sI01
F4574.354121665247
ss(i__main__
State
p206
(dp207
g3
F-8.0
sg4
F7.0
sg5
F-2.0
sg6
F-5.0
sb(dp208
I00
F-5272.847435220075
sI01
F9058.43355572907
ss(i__main__
State
p209
(dp210
g3
F1.0
sg4
F8.0
sg5
F7.0
sg6
F4.0
sb(dp211
I00
F-10710.650127440938
sI01
F960.2918025879538
ss(i__main__
State
p212
(dp213
g3
F0.0
sg4
F5.0
sg5
F6.0
sg6
F3.0
sb(dp214
I00
F1554.5482235209186
sI01
F9311.83349941687
ss(i__main__
State
p215
(dp216
g3
F-4.0
sg4
F3.0
sg5
F2.0
sg6
F-1.0
sb(dp217
I00
F-3180.4225067203743
sI01
F8278.920996632456
ss(i__main__
State
p218
(dp219
g3
F-8.0
sg4
F5.0
sg5
F-2.0
sg6
F-5.0
sb(dp220
I00
F-3.674807800648807
sI01
F8388.328697862033
ss(i__main__
State
p221
(dp222
g3
F-3.0
sg4
F6.0
sg5
F3.0
sg6
F0.0
sb(dp223
I00
F1420.2473558579388
sI01
F7477.209649805355
ss(i__main__
State
p224
(dp225
g3
F7.0
sg4
F3.0
sg5
F-4.0
sg6
F-7.0
sb(dp226
I00
F-1250.7121896185263
sI01
F5630.695367210251
ss(i__main__
State
p227
(dp228
g3
F-5.0
sg4
F7.0
sg5
F1.0
sg6
F-2.0
sb(dp229
I00
F-2304.396848810322
sI01
F8234.53321179211
ss(i__main__
State
p230
(dp231
g3
F-4.0
sg4
F4.0
sg5
F2.0
sg6
F-1.0
sb(dp232
I00
F-5168.592214118571
sI01
F4089.2670037953794
ss(i__main__
State
p233
(dp234
g3
F3.0
sg4
F7.0
sg5
F-8.0
sg6
F6.0
sb(dp235
I00
F5843.042772194037
sI01
F10509.00861053053
ss(i__main__
State
p236
(dp237
g3
F7.0
sg4
F0.0
sg5
F-4.0
sg6
F-7.0
sb(dp238
I00
F-6849.126253302773
sI01
F1798.2555177708985
ss(i__main__
State
p239
(dp240
g3
F-6.0
sg4
F6.0
sg5
F0.0
sg6
F-3.0
sb(dp241
I00
F2480.963943699126
sI01
F7124.579919698356
ss(i__main__
State
p242
(dp243
g3
F-6.0
sg4
F0.0
sg5
F0.0
sg6
F-3.0
sb(dp244
I00
F-15293.86791696204
sI01
F1992.3806761403932
ss(i__main__
State
p245
(dp246
g3
F-8.0
sg4
F0.0
sg5
F-2.0
sg6
F-5.0
sb(dp247
I00
F-14936.657653723418
sI01
F2176.2892089472566
ss(i__main__
State
p248
(dp249
g3
F-7.0
sg4
F8.0
sg5
F-1.0
sg6
F-4.0
sb(dp250
I00
F-12644.030275374673
sI01
F1079.356870057422
ss(i__main__
State
p251
(dp252
g3
F-1.0
sg4
F7.0
sg5
F5.0
sg6
F2.0
sb(dp253
I00
F3583.300598155194
sI01
F4005.043025078299
ss(i__main__
State
p254
(dp255
g3
F8.0
sg4
F0.0
sg5
F-8.0
sg6
F0.0
sb(dp256
I00
F-9296.8294248
sI01
I78
ss(i__main__
State
p257
(dp258
g3
F5.0
sg4
F2.0
sg5
F-6.0
sg6
F8.0
sb(dp259
I00
F-7545.675372417499
sI01
F3858.064265204761
ss(i__main__
State
p260
(dp261
g3
F-8.0
sg4
F3.0
sg5
F-2.0
sg6
F-5.0
sb(dp262
I00
F-5611.176855387598
sI01
F4356.875786470091
ss(i__main__
State
p263
(dp264
g3
F-2.0
sg4
F7.0
sg5
F4.0
sg6
F1.0
sb(dp265
I00
F-756.1912578498176
sI01
F7509.174187497259
ss(i__main__
State
p266
(dp267
g3
F0.0
sg4
F6.0
sg5
F6.0
sg6
F3.0
sb(dp268
I00
F4484.352217639153
sI01
F10636.074372790707
ss(i__main__
State
p269
(dp270
g3
F-2.0
sg4
F1.0
sg5
F4.0
sg6
F1.0
sb(dp271
I00
F-6034.281552687928
sI01
F2800.890081488118
ss(i__main__
State
p272
(dp273
g3
F-4.0
sg4
F8.0
sg5
F2.0
sg6
F-1.0
sb(dp274
I00
F-15900.960201997706
sI01
F815.9547954076982
ss(i__main__
State
p275
(dp276
g3
F-8.0
sg4
F1.0
sg5
F-2.0
sg6
F-5.0
sb(dp277
I00
F-8474.54068266712
sI01
F2456.284147903796
ss(i__main__
State
p278
(dp279
g3
F4.0
sg4
F5.0
sg5
F-7.0
sg6
F7.0
sb(dp280
I00
F72.60003850002283
sI01
F9482.614827660112
ss(i__main__
State
p281
(dp282
g3
F7.0
sg4
F7.0
sg5
F-4.0
sg6
F-7.0
sb(dp283
I00
F1431.8719494185675
sI01
F10810.89904757022
ss(i__main__
State
p284
(dp285
g3
F-3.0
sg4
F7.0
sg5
F3.0
sg6
F0.0
sb(dp286
I00
F2024.2612094423457
sI01
F10090.095162080643
ss(i__main__
State
p287
(dp288
g3
F-3.0
sg4
F1.0
sg5
F3.0
sg6
F0.0
sb(dp289
I00
F-6737.749804296819
sI01
F3849.9207997367757
ss(i__main__
State
p290
(dp291
g3
F6.0
sg4
F5.0
sg5
F-5.0
sg6
F-8.0
sb(dp292
I00
F-528.7862092829328
sI01
F8824.609696357242
ss(i__main__
State
p293
(dp294
g3
F-5.0
sg4
F4.0
sg5
F1.0
sg6
F-2.0
sb(dp295
I00
F-2277.8570347521413
sI01
F5611.185034466772
ss(i__main__
State
p296
(dp297
g3
F-3.0
sg4
F8.0
sg5
F3.0
sg6
F0.0
sb(dp298
I00
F-16540.55580308535
sI01
F1499.6964506624656
ss(i__main__
State
p299
(dp300
g3
F-1.0
sg4
F0.0
sg5
F5.0
sg6
F2.0
sb(dp301
I00
F-9721.89030584808
sI01
F2431.0177864060556
ss(i__main__
State
p302
(dp303
g3
F-5.0
sg4
F0.0
sg5
F1.0
sg6
F-2.0
sb(dp304
I00
F-13939.830001190998
sI01
F1923.7501215989257
ss(i__main__
State
p305
(dp306
g3
F8.0
sg4
F0.0
sg5
F-3.0
sg6
F-6.0
sb(dp307
I00
F-14130.526897004262
sI01
F1642.884144049147
ss(i__main__
State
p308
(dp309
g3
F5.0
sg4
F3.0
sg5
F-6.0
sg6
F8.0
sb(dp310
I00
F-6735.141173324735
sI01
F5114.510582420676
ss(i__main__
State
p311
(dp312
g3
F-1.0
sg4
F6.0
sg5
F5.0
sg6
F2.0
sb(dp313
I00
F3588.597325623895
sI01
F10138.752855211442
ss(i__main__
State
p314
(dp315
g3
F4.0
sg4
F3.0
sg5
F-7.0
sg6
F7.0
sb(dp316
I00
F-1895.8605616357977
sI01
F6531.423832099765
ss(i__main__
State
p317
(dp318
g3
F3.0
sg4
F2.0
sg5
F-8.0
sg6
F6.0
sb(dp319
I00
F-9952.310998376974
sI01
F4638.542497526817
ss(i__main__
State
p320
(dp321
g3
F1.0
sg4
F0.0
sg5
F7.0
sg6
F4.0
sb(dp322
I00
F-7461.518205959548
sI01
F1570.3530843092644
ss(i__main__
State
p323
(dp324
g3
F6.0
sg4
F7.0
sg5
F-5.0
sg6
F-8.0
sb(dp325
I00
F5258.155758786735
sI01
F10531.51430134578
ss(i__main__
State
p326
(dp327
g3
F0.0
sg4
F0.0
sg5
F6.0
sg6
F3.0
sb(dp328
I00
F-15692.314764349476
sI01
F1216.3420279555435
ss(i__main__
State
p329
(dp330
g3
F3.0
sg4
F0.0
sg5
F-8.0
sg6
F6.0
sb(dp331
I00
F-10194.541322760528
sI01
F2310.6398590495246
ss(i__main__
State
p332
(dp333
g3
F7.0
sg4
F1.0
sg5
F-4.0
sg6
F-7.0
sb(dp334
I00
F-7536.447109032848
sI01
F2843.938794044595
ss(i__main__
State
p335
(dp336
g3
F4.0
sg4
F2.0
sg5
F-7.0
sg6
F7.0
sb(dp337
I00
F-9421.757418492749
sI01
F3600.141837813931
ss(i__main__
State
p338
(dp339
g3
F-6.0
sg4
F4.0
sg5
F0.0
sg6
F-3.0
sb(dp340
I00
F-2453.1709834478597
sI01
F8004.978579374761
ss(i__main__
State
p341
(dp342
g3
F-4.0
sg4
F5.0
sg5
F2.0
sg6
F-1.0
sb(dp343
I00
F-691.5238857735405
sI01
F6828.46979360942
ss(i__main__
State
p344
(dp345
g3
F-3.0
sg4
F4.0
sg5
F3.0
sg6
F0.0
sb(dp346
I00
F-1734.3479641550612
sI01
F9184.62615364135
ss(i__main__
State
p347
(dp348
g3
F0.0
sg4
F3.0
sg5
F6.0
sg6
F3.0
sb(dp349
I00
F-4813.896206541951
sI01
F5624.468779835718
ss(i__main__
State
p350
(dp351
g3
F-7.0
sg4
F4.0
sg5
F-1.0
sg6
F-4.0
sb(dp352
I00
F-5372.603329606928
sI01
F4376.4878297334435
ss(i__main__
State
p353
(dp354
g3
F-4.0
sg4
F6.0
sg5
F2.0
sg6
F-1.0
sb(dp355
I00
F3151.788021938395
sI01
F9438.34400250481
ss(i__main__
State
p356
(dp357
g3
F-6.0
sg4
F2.0
sg5
F0.0
sg6
F-3.0
sb(dp358
I00
F-7082.594357692653
sI01
F3936.310982510243
ss(i__main__
State
p359
(dp360
g3
F-7.0
sg4
F6.0
sg5
F-1.0
sg6
F-4.0
sb(dp361
I00
F3401.4708259698436
sI01
F9515.415030336873
ss(i__main__
State
p362
(dp363
g3
F6.0
sg4
F2.0
sg5
F-5.0
sg6
F-8.0
sb(dp364
I00
F-6059.622832976507
sI01
F3697.727581382154
ss(i__main__
State
p365
(dp366
g3
F3.0
sg4
F5.0
sg5
F-8.0
sg6
F6.0
sb(dp367
I00
F601.5513130048196
sI01
F9417.37974115522
ss(i__main__
State
p368
(dp369
g3
F-8.0
sg4
F8.0
sg5
F-2.0
sg6
F-5.0
sb(dp370
I00
F-9808.390461471721
sI01
F2256.7119859150994
ss(i__main__
State
p371
(dp372
g3
F4.0
sg4
F0.0
sg5
F-7.0
sg6
F7.0
sb(dp373
I00
F-15734.966871240164
sI01
F1235.6652356461232
ss(i__main__
State
p374
(dp375
g3
F-2.0
sg4
F0.0
sg5
F4.0
sg6
F1.0
sb(dp376
I00
F-10220.534205956645
sI01
F2185.2616125235463
ss(i__main__
State
p377
(dp378
g3
F6.0
sg4
F8.0
sg5
F-5.0
sg6
F-8.0
sb(dp379
I00
F-12674.917817407404
sI01
F1170.7828793734739
ss(i__main__
State
p380
(dp381
g3
F5.0
sg4
F1.0
sg5
F-6.0
sg6
F8.0
sb(dp382
I00
F-7511.212011618753
sI01
F2379.742983071929
ss(i__main__
State
p383
(dp384
g3
F-2.0
sg4
F4.0
sg5
F4.0
sg6
F1.0
sb(dp385
I00
F-1485.1073075963548
sI01
F9467.553233053395
ss(i__main__
State
p386
(dp387
g3
F-7.0
sg4
F2.0
sg5
F-1.0
sg6
F-4.0
sb(dp388
I00
F-9498.848748395258
sI01
F3471.436463810439
ss(i__main__
State
p389
(dp390
g3
F2.0
sg4
F4.0
sg5
F8.0
sg6
F5.0
sb(dp391
I00
F-3182.721181554165
sI01
F8284.206308840936
ss(i__main__
State
p392
(dp393
g3
F-2.0
sg4
F3.0
sg5
F4.0
sg6
F1.0
sb(dp394
I00
F-7672.83673790511
sI01
F6639.413386858085
ss(i__main__
State
p395
(dp396
g3
F7.0
sg4
F5.0
sg5
F-4.0
sg6
F-7.0
sb(dp397
I00
F-494.7755158894405
sI01
F6206.637000061075
ss(i__main__
State
p398
(dp399
g3
F-4.0
sg4
F0.0
sg5
F2.0
sg6
F-1.0
sb(dp400
I00
F-14774.758610461564
sI01
F1962.481064404754
ss(i__main__
State
p401
(dp402
g3
F3.0
sg4
F1.0
sg5
F-8.0
sg6
F6.0
sb(dp403
I00
F-11596.938095896068
sI01
F2501.811414500143
ss(i__main__
State
p404
(dp405
g3
F-2.0
sg4
F6.0
sg5
F4.0
sg6
F1.0
sb(dp406
I00
F-1387.5169832802924
sI01
F3691.144460407298
ss(i__main__
State
p407
(dp408
g3
F-6.0
sg4
F1.0
sg5
F0.0
sg6
F-3.0
sb(dp409
I00
F-9017.532980049009
sI01
F5378.287561918713
ss(i__main__
State
p410
(dp411
g3
F2.0
sg4
F2.0
sg5
F8.0
sg6
F5.0
sb(dp412
I00
F-9941.141345261965
sI01
F3895.0113621910873
ss(i__main__
State
p413
(dp414
g3
F2.0
sg4
F1.0
sg5
F8.0
sg6
F5.0
sb(dp415
I00
F-7109.109145425602
sI01
F3200.353080648229
ss(i__main__
State
p416
(dp417
g3
F4.0
sg4
F8.0
sg5
F-7.0
sg6
F7.0
sb(dp418
I00
F-16523.791627950355
sI01
F898.8227999452339
ss(i__main__
State
p419
(dp420
g3
F7.0
sg4
F4.0
sg5
F-4.0
sg6
F-7.0
sb(dp421
I00
F-4667.96361872586
sI01
F4193.171345569822
ss(i__main__
State
p422
(dp423
g3
F2.0
sg4
F3.0
sg5
F8.0
sg6
F5.0
sb(dp424
I00
F-3950.547001275748
sI01
F7094.7565068379245
ss(i__main__
State
p425
(dp426
g3
F0.0
sg4
F4.0
sg5
F6.0
sg6
F3.0
sb(dp427
I00
F-1869.3919990247596
sI01
F8505.595824117305
ss(i__main__
State
p428
(dp429
g3
F-1.0
sg4
F8.0
sg5
F5.0
sg6
F2.0
sb(dp430
I00
F-10843.028499680404
sI01
F668.8761555139603
ss(i__main__
State
p431
(dp432
g3
F8.0
sg4
F6.0
sg5
F-3.0
sg6
F-6.0
sb(dp433
I00
F2801.1569384569084
sI01
F7050.92481000265
ss(i__main__
State
p434
(dp435
g3
F5.0
sg4
F7.0
sg5
F-6.0
sg6
F8.0
sb(dp436
I00
F6223.256368928912
sI01
F10523.66536444962
ss(i__main__
State
p437
(dp438
g3
F-7.0
sg4
F7.0
sg5
F-1.0
sg6
F-4.0
sb(dp439
I00
F-57.855150025355215
sI01
F1534.171496978338
ss(i__main__
State
p440
(dp441
g3
F-7.0
sg4
F3.0
sg5
F-1.0
sg6
F-4.0
sb(dp442
I00
F-6564.1626138164165
sI01
F6188.051109883126
ss(i__main__
State
p443
(dp444
g3
F-5.0
sg4
F1.0
sg5
F1.0
sg6
F-2.0
sb(dp445
I00
F-11182.359014980188
sI01
F3511.248268939302
ss(i__main__
State
p446
(dp447
g3
F2.0
sg4
F6.0
sg5
F8.0
sg6
F5.0
sb(dp448
I00
F2872.3976854970506
sI01
F10107.601956210641
ss(i__main__
State
p449
(dp450
g3
F4.0
sg4
F6.0
sg5
F-7.0
sg6
F7.0
sb(dp451
I00
F3275.777764884838
sI01
F10038.541081742167
ss(i__main__
State
p452
(dp453
g3
F-3.0
sg4
F5.0
sg5
F3.0
sg6
F0.0
sb(dp454
I00
F-3699.2002485185712
sI01
F3518.006734873008
ss(i__main__
State
p455
(dp456
g3
F1.0
sg4
F6.0
sg5
F7.0
sg6
F4.0
sb(dp457
I00
F3920.1424134235767
sI01
F9924.017546523139
ss(i__main__
State
p458
(dp459
g3
F-1.0
sg4
F2.0
sg5
F5.0
sg6
F2.0
sb(dp460
I00
F-7340.947401138372
sI01
F3672.2297345468946
ss(i__main__
State
p461
(dp462
g3
F3.0
sg4
F8.0
sg5
F-8.0
sg6
F6.0
sb(dp463
I00
F-15918.943321130657
sI01
F945.4827846071737
ss(i__main__
State
p464
(dp465
g3
F-7.0
sg4
F0.0
sg5
F-1.0
sg6
F-4.0
sb(dp466
I00
F-9796.486469420099
sI01
F3596.93253726185
ss.