(dp0
(i__main__
State
p1
(dp2
S'y1'
p3
F-3.000000000019773
sS'x'
p4
F7.0
sS'y3'
p5
F6.999999999980227
sS'y2'
p6
F-6.000000000019773
sb(dp7
I00
F40.26834907194665
sI01
F-72.74
ss(i__main__
State
p8
(dp9
g3
F-8.000000000019817
sg4
F4.0
sg5
F5.999999999980184
sg6
F-7.000000000019816
sb(dp10
I00
I8
sI01
F0.9800000000000004
ss(i__main__
State
p11
(dp12
g3
F2.99999999998052
sg4
F7.0
sg5
F-4.00000000001948
sg6
F0.9999999999805199
sb(dp13
I00
I2
sI01
F26.68
ss(i__main__
State
p14
(dp15
g3
F3.999999999980239
sg4
F5.0
sg5
F-4.000000000019761
sg6
F-1.976127294251814e-11
sb(dp16
I00
F-75.32
sI01
F65.08
ss(i__main__
State
p17
(dp18
g3
F2.999999999980182
sg4
F0.0
sg5
F-3.000000000019818
sg6
F3.999999999980182
sb(dp19
I00
F23.978399999999997
sI01
F-35.76
ss(i__main__
State
p20
(dp21
g3
F-7.000000000019622
sg4
F8.0
sg5
F3.999999999980379
sg6
F7.999999999980378
sb(dp22
I00
F88.59280771742807
sI01
F-55.7
ss(i__main__
State
p23
(dp24
g3
F-5.000000000019748
sg4
F6.0
sg5
F7.999999999980252
sg6
F-6.000000000019748
sb(dp25
I00
F2.7771478092220048
sI01
F66.82
ss(i__main__
State
p26
(dp27
g3
F6.999999999980533
sg4
F5.0
sg5
F-1.946728387407457e-11
sg6
F4.999999999980533
sb(dp28
I00
F23.0162
sI01
F-2.38
ss(i__main__
State
p29
(dp30
g3
F3.999999999980188
sg4
F0.0
sg5
F2.999999999980188
sg6
F4.999999999980187
sb(dp31
I00
I-22
sI01
F23.46
ss(i__main__
State
p32
(dp33
g3
F-4.000000000019369
sg4
F5.0
sg5
F7.999999999980631
sg6
F-5.000000000019369
sb(dp34
I00
F67.712
sI01
F25.88
ss(i__main__
State
p35
(dp36
g3
F-7.000000000019783
sg4
F1.0
sg5
F7.999999999980217
sg6
F-5.000000000019783
sb(dp37
I00
F-2.5130890090739983
sI01
F-39.54
ss(i__main__
State
p38
(dp39
g3
F-4.0000000000197184
sg4
F4.0
sg5
F-6.0000000000197184
sg6
F-4.0000000000197184
sb(dp40
I00
F40.99078
sI01
F57.7
ss(i__main__
State
p41
(dp42
g3
F-4.000000000019655
sg4
F4.0
sg5
F-8.000000000019655
sg6
F-3.0000000000196554
sb(dp43
I00
F3.86244
sI01
F-14.04
ss(i__main__
State
p44
(dp45
g3
F-7.000000000019473
sg4
F6.0
sg5
F-8.000000000019474
sg6
F6.999999999980527
sb(dp46
I00
F-3.4820399999999987
sI01
F22.740000000000002
ss(i__main__
State
p47
(dp48
g3
F-5.0000000000195435
sg4
F1.0
sg5
F5.9999999999804565
sg6
F-8.000000000019543
sb(dp49
I00
I-87
sI01
F-62.16
ss(i__main__
State
p50
(dp51
g3
F0.9999999999804421
sg4
F1.0
sg5
F-4.000000000019558
sg6
F0.9999999999804421
sb(dp52
I00
F-18.8
sI01
F86.5
ss(i__main__
State
p53
(dp54
g3
F-1.9500629731887705e-11
sg4
F5.0
sg5
F-6.000000000019501
sg6
F-2.000000000019501
sb(dp55
I00
I46
sI01
F-88.6
ss(i__main__
State
p56
(dp57
g3
F2.999999999980269
sg4
F5.0
sg5
F0.9999999999802689
sg6
F4.999999999980269
sb(dp58
I00
I54
sI01
F-17.42
ss(i__main__
State
p59
(dp60
g3
F-2.0000000000196723
sg4
F2.0
sg5
F-7.000000000019672
sg6
F-4.000000000019672
sb(dp61
I00
I75
sI01
F42.8
ss(i__main__
State
p62
(dp63
g3
F-6.000000000019803
sg4
F4.0
sg5
F5.999999999980197
sg6
F-6.000000000019803
sb(dp64
I00
I68
sI01
F11.26
ss(i__main__
State
p65
(dp66
g3
F2.9999999999807
sg4
F2.0
sg5
F2.999999999980699
sg6
F4.999999999980699
sb(dp67
I00
I-14
sI01
F6.52
ss(i__main__
State
p68
(dp69
g3
F-8.000000000019575
sg4
F5.0
sg5
F1.999999999980424
sg6
F6.9999999999804245
sb(dp70
I00
F-1.96
sI01
F-58.66
ss(i__main__
State
p71
(dp72
g3
F0.9999999999803438
sg4
F8.0
sg5
F-2.0000000000196563
sg6
F-1.9656133243489726e-11
sb(dp73
I00
I47
sI01
F19.9
ss(i__main__
State
p74
(dp75
g3
F-1.943329320051767e-11
sg4
F5.0
sg5
F-3.0000000000194333
sg6
F-1.0000000000194333
sb(dp76
I00
F-19.325400000000002
sI01
F-63.24
ss(i__main__
State
p77
(dp78
g3
F7.999999999980512
sg4
F3.0
sg5
F-1.9488764468391635e-11
sg6
F5.999999999980512
sb(dp79
I00
I92
sI01
F77.58
ss(i__main__
State
p80
(dp81
g3
F-5.000000000019813
sg4
F4.0
sg5
F7.999999999980187
sg6
F-5.000000000019813
sb(dp82
I00
I4
sI01
F-22.2
ss(i__main__
State
p83
(dp84
g3
F-6.0000000000197495
sg4
F9.0
sg5
F-6.0000000000197495
sg6
F-5.0000000000197495
sb(dp85
I00
F1.4742360000000003
sI01
F0.36000000000000004
ss(i__main__
State
p86
(dp87
g3
F-7.000000000019516
sg4
F8.0
sg5
F4.999999999980484
sg6
F-7.000000000019516
sb(dp88
I00
F48.032965287496
sI01
F29.8
ss(i__main__
State
p89
(dp90
g3
F1.999999999980635
sg4
F3.0
sg5
F-8.000000000019366
sg6
F-2.000000000019365
sb(dp91
I00
I58
sI01
F25.12
ss(i__main__
State
p92
(dp93
g3
F-2.000000000019576
sg4
F4.0
sg5
F-6.0000000000195755
sg6
F-5.0000000000195755
sb(dp94
I00
F-36.254760000000005
sI01
F51.96
ss(i__main__
State
p95
(dp96
g3
F-8.000000000019758
sg4
F5.0
sg5
F-1.0000000000197582
sg6
F-5.000000000019758
sb(dp97
I00
F-42.8684
sI01
F-81.5
ss(i__main__
State
p98
(dp99
g3
F2.9999999999804516
sg4
F7.0
sg5
F-3.0000000000195484
sg6
F0.9999999999804517
sb(dp100
I00
F-0.7886459999999997
sI01
F85.74
ss(i__main__
State
p101
(dp102
g3
F6.999999999980221
sg4
F9.0
sg5
F-1.9779019996825492e-11
sg6
F4.0
sb(dp103
I00
F35.56898945342777
sI01
F3.6
ss(i__main__
State
p104
(dp105
g3
F-8.000000000019742
sg4
F9.0
sg5
F-1.000000000019743
sg6
F6.999999999980257
sb(dp106
I00
F0.4800000000000001
sI01
F0.4800000000000001
ss(i__main__
State
p107
(dp108
g3
F-4.000000000019881
sg4
F3.0
sg5
F-4.000000000019881
sg6
F1.999999999980119
sb(dp109
I00
I5
sI01
F59.64
ss(i__main__
State
p110
(dp111
g3
F-6.000000000019638
sg4
F9.0
sg5
F-7.000000000019638
sg6
F-5.000000000019638
sb(dp112
I00
F13.777352899564802
sI01
F1.9200000000000004
ss(i__main__
State
p113
(dp114
g3
F-7.000000000019795
sg4
F3.0
sg5
F3.999999999980205
sg6
F-7.000000000019795
sb(dp115
I00
F25.795575093240124
sI01
F57.76
ss(i__main__
State
p116
(dp117
g3
F-6.000000000019575
sg4
F3.0
sg5
F5.999999999980425
sg6
F-5.000000000019575
sb(dp118
I00
I40
sI01
F0.5200000000000005
ss(i__main__
State
p119
(dp120
g3
F-1.0000000000196914
sg4
F2.0
sg5
F-5.000000000019691
sg6
F-3.0000000000196914
sb(dp121
I00
F20.422708
sI01
F-72.92
ss(i__main__
State
p122
(dp123
g3
F-1.0000000000196037
sg4
F4.0
sg5
F-5.000000000019604
sg6
F-2.000000000019604
sb(dp124
I00
F-31.12
sI01
F93.08
ss(i__main__
State
p125
(dp126
g3
F5.999999999980179
sg4
F6.0
sg5
F-1.0000000000198201
sg6
F3.99999999998018
sb(dp127
I00
I63
sI01
F27.9
ss(i__main__
State
p128
(dp129
g3
F-6.000000000019669
sg4
F8.0
sg5
F5.999999999980331
sg6
F6.999999999980331
sb(dp130
I00
F89.065
sI01
F74.8
ss(i__main__
State
p131
(dp132
g3
F-5.000000000019834
sg4
F6.0
sg5
F-3.0000000000198335
sg6
F-6.000000000019834
sb(dp133
I00
F50.632798
sI01
F31.18
ss(i__main__
State
p134
(dp135
g3
F3.9999999999803557
sg4
F5.0
sg5
F0.9999999999803558
sg6
F7.999999999980356
sb(dp136
I00
F41.0
sI01
F70.7
ss(i__main__
State
p137
(dp138
g3
F-3.00000000001985
sg4
F9.0
sg5
F-3.00000000001985
sg6
F-1.0000000000198497
sb(dp139
I00
F0.0
sI01
F1.2400000000000002
ss(i__main__
State
p140
(dp141
g3
F-1.9577667536031606e-11
sg4
F0.0
sg5
F-3.0000000000195777
sg6
F1.9999999999804223
sb(dp142
I00
I-72
sI01
F-87.8
ss(i__main__
State
p143
(dp144
g3
F-4.00000000001957
sg4
F4.0
sg5
F6.999999999980429
sg6
F-6.00000000001957
sb(dp145
I00
F-18.88061726
sI01
F39.04
ss(i__main__
State
p146
(dp147
g3
F-2.0000000000194285
sg4
F9.0
sg5
F-4.000000000019429
sg6
F-2.0000000000194285
sb(dp148
I00
F0.0
sI01
F2.6
ss(i__main__
State
p149
(dp150
g3
F4.999999999980378
sg4
F9.0
sg5
F-1.0000000000196216
sg6
F0.9999999999803785
sb(dp151
I00
F0.0
sI01
F3.4000000000000004
ss(i__main__
State
p152
(dp153
g3
F-4.000000000019598
sg4
F8.0
sg5
F-8.000000000019597
sg6
F-3.0000000000195977
sb(dp154
I00
F-41.3
sI01
F60.4
ss(i__main__
State
p155
(dp156
g3
F0.9999999999802831
sg4
F1.0
sg5
F-3.000000000019717
sg6
F2.999999999980283
sb(dp157
I00
F27.037066
sI01
F-1.04
ss(i__main__
State
p158
(dp159
g3
F4.999999999980299
sg4
F1.0
sg5
F-1.0000000000197007
sg6
F2.9999999999802993
sb(dp160
I00
I56
sI01
F-12.219999999999999
ss(i__main__
State
p161
(dp162
g3
F2.9999999999804468
sg4
F5.0
sg5
F-1.0000000000195535
sg6
F4.999999999980447
sb(dp163
I00
I-82
sI01
F1.7600000000000002
ss(i__main__
State
p164
(dp165
g3
F0.9999999999802213
sg4
F8.0
sg5
F-1.0000000000197788
sg6
F2.999999999980221
sb(dp166
I00
F71.06599
sI01
F-7.1
ss(i__main__
State
p167
(dp168
g3
F-1.0000000000195195
sg4
F5.0
sg5
F-2.0000000000195195
sg6
F0.9999999999804805
sb(dp169
I00
F-25.042343816318603
sI01
F49.66
ss(i__main__
State
p170
(dp171
g3
F7.999999999980465
sg4
F2.0
sg5
F-2.000000000019535
sg6
F4.999999999980465
sb(dp172
I00
I89
sI01
F50.04
ss(i__main__
State
p173
(dp174
g3
F-3.0000000000196194
sg4
F0.0
sg5
F-7.000000000019619
sg6
F-3.0000000000196194
sb(dp175
I00
F63.12
sI01
F-50.28
ss(i__main__
State
p176
(dp177
g3
F-7.000000000019511
sg4
F9.0
sg5
F-8.00000000001951
sg6
F5.999999999980489
sb(dp178
I00
F0.0
sI01
F2.0400000000000005
ss(i__main__
State
p179
(dp180
g3
F-4.000000000019836
sg4
F2.0
sg5
F7.999999999980164
sg6
F-6.000000000019836
sb(dp181
I00
I-35
sI01
F-22.86
ss(i__main__
State
p182
(dp183
g3
F4.999999999980435
sg4
F1.0
sg5
F2.999999999980435
sg6
F4.999999999980435
sb(dp184
I00
I-54
sI01
F-18.0
ss(i__main__
State
p185
(dp186
g3
F-8.000000000019572
sg4
F6.0
sg5
F0.9999999999804284
sg6
F6.999999999980428
sb(dp187
I00
F9.448984526797537
sI01
F-19.939999999999998
ss(i__main__
State
p188
(dp189
g3
F5.999999999980351
sg4
F3.0
sg5
F-1.0000000000196492
sg6
F5.999999999980351
sb(dp190
I00
I16
sI01
F-59.3
ss(i__main__
State
p191
(dp192
g3
F4.999999999980355
sg4
F6.0
sg5
F-1.9644436796726114e-11
sg6
F4.999999999980355
sb(dp193
I00
I-35
sI01
F-5.319999999999999
ss(i__main__
State
p194
(dp195
g3
F-6.000000000019848
sg4
F3.0
sg5
F-7.000000000019848
sg6
F-6.000000000019848
sb(dp196
I00
I-73
sI01
F41.36
ss(i__main__
State
p197
(dp198
g3
F2.9999999999802758
sg4
F6.0
sg5
F-1.9724053593257245e-11
sg6
F3.0
sb(dp199
I00
F40.343043339999994
sI01
F-40.76
ss(i__main__
State
p200
(dp201
g3
F-3.0000000000195897
sg4
F5.0
sg5
F-7.00000000001959
sg6
F-4.00000000001959
sb(dp202
I00
F-27.807799999999997
sI01
F-54.68
ss(i__main__
State
p203
(dp204
g3
F-2.000000000019598
sg4
F3.0
sg5
F-4.0000000000195985
sg6
F-7.0000000000195985
sb(dp205
I00
I-86
sI01
F65.2
ss(i__main__
State
p206
(dp207
g3
F-7.000000000019423
sg4
F5.0
sg5
F7.999999999980577
sg6
F-7.000000000019423
sb(dp208
I00
F6.2194
sI01
F-67.46
ss(i__main__
State
p209
(dp210
g3
F-5.000000000019828
sg4
F1.0
sg5
F2.9999999999801723
sg6
F6.999999999980172
sb(dp211
I00
F32.6777527579
sI01
F2.2
ss(i__main__
State
p212
(dp213
g3
F-4.000000000019651
sg4
F9.0
sg5
F5.999999999980349
sg6
F-7.000000000019651
sb(dp214
I00
F3.2800000000000007
sI01
F3.2800000000000007
ss(i__main__
State
p215
(dp216
g3
F-2.0000000000195537
sg4
F8.0
sg5
F-4.000000000019554
sg6
F0.9999999999804461
sb(dp217
I00
F-24.659
sI01
F-16.1
ss(i__main__
State
p218
(dp219
g3
F4.999999999980189
sg4
F4.0
sg5
F1.9999999999801894
sg6
F4.999999999980189
sb(dp220
I00
I10
sI01
F38.28
ss(i__main__
State
p221
(dp222
g3
F6.999999999980626
sg4
F7.0
sg5
F0.9999999999806256
sg6
F3.9999999999806257
sb(dp223
I00
F49.58
sI01
F76.58
ss(i__main__
State
p224
(dp225
g3
F-6.000000000019713
sg4
F9.0
sg5
F6.999999999980287
sg6
F-7.000000000019713
sb(dp226
I00
F2.66
sI01
F1.4000000000000001
ss(i__main__
State
p227
(dp228
g3
F6.99999999998036
sg4
F2.0
sg5
F5.99999999998036
sg6
F-4.00000000001964
sb(dp229
I00
I90
sI01
F7.6
ss(i__main__
State
p230
(dp231
g3
F-4.000000000019818
sg4
F1.0
sg5
F3.999999999980182
sg6
F-4.000000000019818
sb(dp232
I00
F9.4
sI01
F-65.3
ss(i__main__
State
p233
(dp234
g3
F-2.000000000019711
sg4
F4.0
sg5
F-4.000000000019711
sg6
F-3.000000000019711
sb(dp235
I00
F44.236443047215005
sI01
F80.5
ss(i__main__
State
p236
(dp237
g3
F-1.9740067979541667e-11
sg4
F9.0
sg5
F-3.00000000001974
sg6
F-1.9740090962757326e-11
sb(dp238
I00
F0.0
sI01
F-1.6
ss(i__main__
State
p239
(dp240
g3
F5.999999999980404
sg4
F4.0
sg5
F0.9999999999804037
sg6
F2.9999999999804037
sb(dp241
I00
I86
sI01
F-26.64
ss(i__main__
State
p242
(dp243
g3
F-1.9550989616288168e-11
sg4
F2.0
sg5
F-3.000000000019551
sg6
F-1.95510142972369e-11
sb(dp244
I00
F62.062591819999994
sI01
F-9.579999999999998
ss(i__main__
State
p245
(dp246
g3
F4.99999999998043
sg4
F3.0
sg5
F-1.0000000000195706
sg6
F0.9999999999804295
sb(dp247
I00
F-65.82
sI01
F-83.82
ss(i__main__
State
p248
(dp249
g3
F-5.000000000019724
sg4
F5.0
sg5
F-6.000000000019724
sg6
F-7.000000000019724
sb(dp250
I00
F43.822
sI01
F73.18
ss(i__main__
State
p251
(dp252
g3
F-5.0
sg4
F9.0
sg5
F7.99999999998029
sg6
F-7.00000000001971
sb(dp253
I00
F0.0
sI01
F-1.9200000000000004
ss(i__main__
State
p254
(dp255
g3
F-6.000000000019354
sg4
F9.0
sg5
F-1.9354026667625318e-11
sg6
F4.0
sb(dp256
I00
F2.8400000000000003
sI01
F2.8400000000000003
ss(i__main__
State
p257
(dp258
g3
F4.99999999998016
sg4
F2.0
sg5
F1.9999999999801594
sg6
F6.99999999998016
sb(dp259
I00
I-6
sI01
F7.879999999999999
ss(i__main__
State
p260
(dp261
g3
F-4.000000000019787
sg4
F5.0
sg5
F-5.000000000019787
sg6
F-4.000000000019787
sb(dp262
I00
F-6.6880368989035155
sI01
F-25.02
ss(i__main__
State
p263
(dp264
g3
F3.9999999999802514
sg4
F8.0
sg5
F5.999999999980251
sg6
F5.999999999980251
sb(dp265
I00
F94.7387341
sI01
F-0.7999999999999989
ss(i__main__
State
p266
(dp267
g3
F-8.000000000019723
sg4
F2.0
sg5
F5.999999999980276
sg6
F-4.000000000019724
sb(dp268
I00
F-48.8
sI01
F-73.1
ss(i__main__
State
p269
(dp270
g3
F7.999999999980212
sg4
F8.0
sg5
F1.9999999999802118
sg6
F5.999999999980212
sb(dp271
I00
F-45.8
sI01
F30.7
ss(i__main__
State
p272
(dp273
g3
F4.999999999980402
sg4
F9.0
sg5
F2.9999999999804023
sg6
F4.999999999980402
sb(dp274
I00
F0.0
sI01
F2.4400000000000004
ss(i__main__
State
p275
(dp276
g3
F-8.00000000001974
sg4
F3.0
sg5
F3.9999999999802593
sg6
F-8.00000000001974
sb(dp277
I00
I-50
sI01
F-75.22
ss(i__main__
State
p278
(dp279
g3
F-1.9615674022661453e-11
sg4
F0.0
sg5
F-5.000000000019615
sg6
F-3.000000000019616
sb(dp280
I00
I-46
sI01
F-25.18
ss(i__main__
State
p281
(dp282
g3
F-1.0000000000193514
sg4
F7.0
sg5
F6.999999999980648
sg6
F-4.000000000019352
sb(dp283
I00
I26
sI01
F-45.56
ss(i__main__
State
p284
(dp285
g3
F5.99999999998038
sg4
F3.0
sg5
F-1.9619687824073667e-11
sg6
F4.99999999998038
sb(dp286
I00
I-70
sI01
F86.68
ss(i__main__
State
p287
(dp288
g3
F-3.0000000000198055
sg4
F4.0
sg5
F-4.0000000000198055
sg6
F0.9999999999801943
sb(dp289
I00
I88
sI01
F-49.96
ss(i__main__
State
p290
(dp291
g3
F1.9999999999804445
sg4
F3.0
sg5
F-1.0000000000195555
sg6
F1.9999999999804445
sb(dp292
I00
F-47.156
sI01
F-43.34
ss(i__main__
State
p293
(dp294
g3
F5.999999999980545
sg4
F0.0
sg5
F3.9999999999805453
sg6
F4.999999999980545
sb(dp295
I00
F7.742704820065145
sI01
F-12.66
ss(i__main__
State
p296
(dp297
g3
F2.999999999980277
sg4
F0.0
sg5
F2.999999999980277
sg6
F-7.000000000019723
sb(dp298
I00
F-48.3688
sI01
F33.92
ss(i__main__
State
p299
(dp300
g3
F6.999999999980482
sg4
F0.0
sg5
F3.9999999999804827
sg6
F6.999999999980482
sb(dp301
I00
F-34.3226
sI01
F71.44
ss(i__main__
State
p302
(dp303
g3
F-1.9570316575997337e-11
sg4
F2.0
sg5
F-5.00000000001957
sg6
F-1.0000000000195703
sb(dp304
I00
F13.2
sI01
F43.8
ss(i__main__
State
p305
(dp306
g3
F-8.000000000019435
sg4
F7.0
sg5
F0.9999999999805642
sg6
F5.999999999980564
sb(dp307
I00
F17.21713611209143
sI01
F84.82
ss(i__main__
State
p308
(dp309
g3
F-8.000000000019508
sg4
F6.0
sg5
F1.999999999980493
sg6
F6.999999999980493
sb(dp310
I00
F33.46994714
sI01
F3.74
ss(i__main__
State
p311
(dp312
g3
F0.9999999999801532
sg4
F5.0
sg5
F-3.000000000019847
sg6
F1.9999999999801532
sb(dp313
I00
I-9
sI01
F34.86
ss(i__main__
State
p314
(dp315
g3
F1.9999999999804432
sg4
F8.0
sg5
F-1.955677576900386e-11
sg6
F1.9999999999804432
sb(dp316
I00
F-58.4
sI01
F-37.7
ss(i__main__
State
p317
(dp318
g3
F-2.0000000000197224
sg4
F9.0
sg5
F-6.000000000019723
sg6
F-2.0000000000197224
sb(dp319
I00
F0.0
sI01
F1.4400000000000002
ss(i__main__
State
p320
(dp321
g3
F6.999999999980298
sg4
F4.0
sg5
F-4.000000000019702
sg6
F5.0
sb(dp322
I00
F48.240463999999996
sI01
F-56.56
ss(i__main__
State
p323
(dp324
g3
F-3.0000000000196114
sg4
F1.0
sg5
F-6.000000000019612
sg6
F-2.0000000000196114
sb(dp325
I00
I-3
sI01
F15.92
ss(i__main__
State
p326
(dp327
g3
F-7.000000000019541
sg4
F6.0
sg5
F-8.000000000019542
sg6
F-6.000000000019541
sb(dp328
I00
I-86
sI01
F-54.26
ss(i__main__
State
p329
(dp330
g3
F-7.000000000019846
sg4
F0.0
sg5
F7.999999999980154
sg6
F-5.000000000019846
sb(dp331
I00
F15.48
sI01
F75.78
ss(i__main__
State
p332
(dp333
g3
F0.9999999999802108
sg4
F3.0
sg5
F-5.0000000000197895
sg6
F-1.9789143203891862e-11
sb(dp334
I00
F36.04169762209495
sI01
F87.62
ss(i__main__
State
p335
(dp336
g3
F3.9999999999801874
sg4
F3.0
sg5
F-1.0000000000198126
sg6
F2.9999999999801874
sb(dp337
I00
F-14.29973686856
sI01
F35.26
ss(i__main__
State
p338
(dp339
g3
F0.9999999999805813
sg4
F8.0
sg5
F-2.0000000000194187
sg6
F-1.9418713641727804e-11
sb(dp340
I00
F-41.3
sI01
F37.0
ss(i__main__
State
p341
(dp342
g3
F-6.000000000019644
sg4
F2.0
sg5
F1.9999999999803562
sg6
F8.0
sb(dp343
I00
I74
sI01
F17.4
ss(i__main__
State
p344
(dp345
g3
F6.999999999980353
sg4
F6.0
sg5
F-1.9647137517693102e-11
sg6
F6.999999999980353
sb(dp346
I00
F-10.275120000000001
sI01
F49.32
ss(i__main__
State
p347
(dp348
g3
F7.999999999980274
sg4
F3.0
sg5
F1.0
sg6
F6.999999999980274
sb(dp349
I00
I-2
sI01
F-30.98
ss(i__main__
State
p350
(dp351
g3
F6.999999999980499
sg4
F6.0
sg5
F1.9999999999804992
sg6
F4.999999999980499
sb(dp352
I00
I-10
sI01
F-55.56
ss(i__main__
State
p353
(dp354
g3
F-7.000000000019713
sg4
F1.0
sg5
F4.999999999980287
sg6
F7.999999999980287
sb(dp355
I00
F13.387599999999999
sI01
F-58.04
ss(i__main__
State
p356
(dp357
g3
F6.9999999999801785
sg4
F0.0
sg5
F2.999999999980179
sg6
F-7.0
sb(dp358
I00
I7
sI01
F-35.96
ss(i__main__
State
p359
(dp360
g3
F-5.000000000019849
sg4
F8.0
sg5
F3.999999999980151
sg6
F-6.000000000019849
sb(dp361
I00
F20.124417700000006
sI01
F-75.5
ss(i__main__
State
p362
(dp363
g3
F0.9999999999805064
sg4
F7.0
sg5
F-1.949375748450726e-11
sg6
F1.9999999999805063
sb(dp364
I00
F21.562829999999998
sI01
F-48.6
ss(i__main__
State
p365
(dp366
g3
F-6.000000000019569
sg4
F8.0
sg5
F3.9999999999804308
sg6
F-8.00000000001957
sb(dp367
I00
F7.489900000000002
sI01
F-42.2
ss(i__main__
State
p368
(dp369
g3
F-2.000000000019567
sg4
F0.0
sg5
F-6.0000000000195675
sg6
F-4.000000000019567
sb(dp370
I00
F-76.82
sI01
F-44.42
ss(i__main__
State
p371
(dp372
g3
F-5.000000000019767
sg4
F1.0
sg5
F-7.000000000019767
sg6
F-6.000000000019767
sb(dp373
I00
I48
sI01
F64.72
ss(i__main__
State
p374
(dp375
g3
F-5.000000000019728
sg4
F6.0
sg5
F-6.000000000019728
sg6
F-3.000000000019728
sb(dp376
I00
F-52.66
sI01
F-57.16
ss(i__main__
State
p377
(dp378
g3
F2.999999999980636
sg4
F2.0
sg5
F0.9999999999806354
sg6
F1.9999999999806355
sb(dp379
I00
F12.996332800000001
sI01
F17.62
ss(i__main__
State
p380
(dp381
g3
F2.999999999980321
sg4
F3.0
sg5
F-2.000000000019679
sg6
F4.9999999999803215
sb(dp382
I00
F83.0
sI01
F-27.7
ss(i__main__
State
p383
(dp384
g3
F-1.9582096257037464e-11
sg4
F6.0
sg5
F-2.000000000019582
sg6
F-1.0000000000195821
sb(dp385
I00
I87
sI01
F80.28
ss(i__main__
State
p386
(dp387
g3
F5.999999999980159
sg4
F4.0
sg5
F3.999999999980159
sg6
F5.999999999980159
sb(dp388
I00
F-57.74
sI01
F-58.64
ss(i__main__
State
p389
(dp390
g3
F3.9999999999804783
sg4
F9.0
sg5
F1.999999999980478
sg6
F3.9999999999804783
sb(dp391
I00
F0.0
sI01
F2.4800000000000004
ss(i__main__
State
p392
(dp393
g3
F-8.000000000019826
sg4
F7.0
sg5
F5.999999999980175
sg6
F-7.000000000019825
sb(dp394
I00
F17.9667417263
sI01
F-15.7
ss(i__main__
State
p395
(dp396
g3
F-8.00000000001971
sg4
F5.0
sg5
F6.999999999980289
sg6
F7.999999999980289
sb(dp397
I00
I100
sI01
F-12.219999999999999
ss(i__main__
State
p398
(dp399
g3
F-1.0000000000197071
sg4
F2.0
sg5
F1.9999999999802929
sg6
F-3.0000000000197073
sb(dp400
I00
F-4.52
sI01
F26.98
ss(i__main__
State
p401
(dp402
g3
F4.999999999980549
sg4
F5.0
sg5
F4.999999999980549
sg6
F-8.000000000019451
sb(dp403
I00
F61.122580000000006
sI01
F-85.88
ss(i__main__
State
p404
(dp405
g3
F-7.000000000019416
sg4
F3.0
sg5
F-5.000000000019416
sg6
F5.999999999980584
sb(dp406
I00
I-59
sI01
F35.42
ss(i__main__
State
p407
(dp408
g3
F-4.000000000019532
sg4
F6.0
sg5
F-6.000000000019533
sg6
F-3.0000000000195324
sb(dp409
I00
F48.2224
sI01
F-6.26
ss(i__main__
State
p410
(dp411
g3
F-1.000000000019601
sg4
F4.0
sg5
F-4.000000000019601
sg6
F-2.0000000000196008
sb(dp412
I00
F-85.32
sI01
F-64.62
ss(i__main__
State
p413
(dp414
g3
F-2.0000000000196283
sg4
F8.0
sg5
F7.999999999980371
sg6
F-4.000000000019629
sb(dp415
I00
F35.636590000000005
sI01
F92.8
ss(i__main__
State
p416
(dp417
g3
F2.999999999980482
sg4
F3.0
sg5
F1.9999999999804816
sg6
F2.999999999980482
sb(dp418
I00
F-7.558416939999995
sI01
F31.46
ss(i__main__
State
p419
(dp420
g3
F7.999999999980477
sg4
F1.0
sg5
F2.9999999999804774
sg6
F5.999999999980477
sb(dp421
I00
F26.193652922464164
sI01
F2.9400000000000004
ss(i__main__
State
p422
(dp423
g3
F-3.000000000019713
sg4
F0.0
sg5
F-3.000000000019713
sg6
F-2.000000000019713
sb(dp424
I00
I35
sI01
F-56.8
ss(i__main__
State
p425
(dp426
g3
F-3.0000000000194698
sg4
F7.0
sg5
F-1.0000000000194698
sg6
F-1.0000000000194698
sb(dp427
I00
I71
sI01
F-43.44
ss(i__main__
State
p428
(dp429
g3
F2.9999999999803806
sg4
F1.0
sg5
F-4.000000000019619
sg6
F0.9999999999803807
sb(dp430
I00
I48
sI01
F4.94
ss(i__main__
State
p431
(dp432
g3
F-6.000000000019712
sg4
F7.0
sg5
F2.9999999999802878
sg6
F6.999999999980288
sb(dp433
I00
I60
sI01
F37.46
ss(i__main__
State
p434
(dp435
g3
F4.9999999999804645
sg4
F4.0
sg5
F2.9999999999804645
sg6
F3.999999999980465
sb(dp436
I00
I24
sI01
F-22.52
ss(i__main__
State
p437
(dp438
g3
F-1.0000000000194322
sg4
F4.0
sg5
F-1.0000000000194325
sg6
F1.0
sb(dp439
I00
F2.3333999999999984
sI01
F23.64
ss(i__main__
State
p440
(dp441
g3
F4.999999999980696
sg4
F5.0
sg5
F2.9999999999806954
sg6
F5.999999999980695
sb(dp442
I00
I-64
sI01
F-71.88
ss(i__main__
State
p443
(dp444
g3
F-6.000000000019776
sg4
F2.0
sg5
F-8.000000000019776
sg6
F-7.000000000019776
sb(dp445
I00
F40.001554298550985
sI01
F-83.32
ss(i__main__
State
p446
(dp447
g3
F-6.000000000019436
sg4
F8.0
sg5
F6.999999999980564
sg6
F-6.000000000019436
sb(dp448
I00
F82.28529999999999
sI01
F-69.2
ss(i__main__
State
p449
(dp450
g3
F-8.000000000019773
sg4
F3.0
sg5
F6.999999999980227
sg6
F6.999999999980227
sb(dp451
I00
F6.84
sI01
F91.44
ss(i__main__
State
p452
(dp453
g3
F-1.9547335569133384e-11
sg4
F6.0
sg5
F-5.000000000019547
sg6
F-1.9547369844159182e-11
sb(dp454
I00
I78
sI01
F59.6
ss(i__main__
State
p455
(dp456
g3
F3.9999999999802727
sg4
F4.0
sg5
F1.9999999999802727
sg6
F3.9999999999802727
sb(dp457
I00
F28.9991713
sI01
F56.2
ss(i__main__
State
p458
(dp459
g3
F7.999999999980345
sg4
F6.0
sg5
F2.999999999980344
sg6
F6.999999999980344
sb(dp460
I00
F-65.34
sI01
F80.46
ss(i__main__
State
p461
(dp462
g3
F7.999999999980364
sg4
F4.0
sg5
F0.9999999999803644
sg6
F5.999999999980364
sb(dp463
I00
I-37
sI01
F-5.76
ss(i__main__
State
p464
(dp465
g3
F-1.975245287162854e-11
sg4
F6.0
sg5
F-2.0000000000197526
sg6
F0.9999999999802475
sb(dp466
I00
I-72
sI01
F84.86
ss(i__main__
State
p467
(dp468
g3
F-1.0000000000194147
sg4
F1.0
sg5
F-7.000000000019415
sg6
F-2.0000000000194147
sb(dp469
I00
F-69.48
sI01
F42.12
ss(i__main__
State
p470
(dp471
g3
F-2.000000000019805
sg4
F1.0
sg5
F-4.0000000000198055
sg6
F-1.0000000000198053
sb(dp472
I00
I-91
sI01
F1.4800000000000004
ss(i__main__
State
p473
(dp474
g3
F3.999999999980284
sg4
F9.0
sg5
F-1.971604743210734e-11
sg6
F4.999999999980284
sb(dp475
I00
F20.033399040000003
sI01
F3.8400000000000007
ss(i__main__
State
p476
(dp477
g3
F-2.000000000019565
sg4
F4.0
sg5
F-6.000000000019565
sg6
F-2.000000000019565
sb(dp478
I00
F-32.244
sI01
F80.94
ss(i__main__
State
p479
(dp480
g3
F-5.000000000019559
sg4
F4.0
sg5
F-7.000000000019559
sg6
F-7.000000000019559
sb(dp481
I00
I70
sI01
F13.9
ss(i__main__
State
p482
(dp483
g3
F-1.0
sg4
F0.0
sg5
F-7.000000000019737
sg6
F-1.000000000019737
sb(dp484
I00
F8.131322781999996
sI01
F-79.82
ss(i__main__
State
p485
(dp486
g3
F3.999999999980236
sg4
F1.0
sg5
F-3.000000000019764
sg6
F1.9999999999802356
sb(dp487
I00
I54
sI01
F90.12
ss(i__main__
State
p488
(dp489
g3
F-1.0000000000196994
sg4
F8.0
sg5
F-5.0000000000197
sg6
F-2.0000000000196994
sb(dp490
I00
F86.2219
sI01
F18.1
ss(i__main__
State
p491
(dp492
g3
F4.999999999980588
sg4
F8.0
sg5
F1.999999999980588
sg6
F4.999999999980588
sb(dp493
I00
F65.2267
sI01
F82.0
ss(i__main__
State
p494
(dp495
g3
F-2.0000000000197207
sg4
F0.0
sg5
F-3.0000000000197207
sg6
F-5.00000000001972
sb(dp496
I00
F8.46
sI01
F87.3
ss(i__main__
State
p497
(dp498
g3
F-8.000000000019647
sg4
F5.0
sg5
F5.999999999980353
sg6
F-7.000000000019647
sb(dp499
I00
I92
sI01
F9.440000000000001
ss(i__main__
State
p500
(dp501
g3
F-7.000000000019767
sg4
F3.0
sg5
F-7.000000000019767
sg6
F-6.000000000019767
sb(dp502
I00
F12.062897554999997
sI01
F3.2
ss(i__main__
State
p503
(dp504
g3
F-3.000000000019604
sg4
F6.0
sg5
F-4.000000000019604
sg6
F-1.000000000019604
sb(dp505
I00
I-7
sI01
F24.62
ss(i__main__
State
p506
(dp507
g3
F-8.000000000019554
sg4
F1.0
sg5
F6.999999999980445
sg6
F-7.000000000019555
sb(dp508
I00
F6.8238891000000015
sI01
F64.8
ss(i__main__
State
p509
(dp510
g3
F1.9999999999803553
sg4
F8.0
sg5
F-2.0000000000196447
sg6
F1.9999999999803553
sb(dp511
I00
F80.09719056418393
sI01
F63.1
ss(i__main__
State
p512
(dp513
g3
F0.9999999999801851
sg4
F9.0
sg5
F-7.000000000019815
sg6
F-4.000000000019815
sb(dp514
I00
F0.0
sI01
F0.52
ss(i__main__
State
p515
(dp516
g3
F6.999999999980242
sg4
F6.0
sg5
F0.9999999999802418
sg6
F5.999999999980242
sb(dp517
I00
I-35
sI01
F-38.44
ss(i__main__
State
p518
(dp519
g3
F4.999999999980431
sg4
F6.0
sg5
F1.999999999980431
sg6
F4.999999999980431
sb(dp520
I00
I18
sI01
F-85.34
ss(i__main__
State
p521
(dp522
g3
F6.999999999980208
sg4
F6.0
sg5
F7.999999999980208
sg6
F7.999999999980208
sb(dp523
I00
I-56
sI01
F-87.82
ss(i__main__
State
p524
(dp525
g3
F3.999999999980527
sg4
F5.0
sg5
F-4.000000000019473
sg6
F1.9999999999805271
sb(dp526
I00
I-4
sI01
F-83.68
ss(i__main__
State
p527
(dp528
g3
F-7.000000000019743
sg4
F3.0
sg5
F7.999999999980257
sg6
F-6.000000000019743
sb(dp529
I00
F-36.5178
sI01
F31.92
ss(i__main__
State
p530
(dp531
g3
F-2.000000000019698
sg4
F2.0
sg5
F-8.000000000019698
sg6
F-1.000000000019698
sb(dp532
I00
F-76.58
sI01
F76.42
ss(i__main__
State
p533
(dp534
g3
F-6.000000000019794
sg4
F1.0
sg5
F4.999999999980206
sg6
F7.999999999980206
sb(dp535
I00
F36.81
sI01
F89.1
ss(i__main__
State
p536
(dp537
g3
F-7.000000000019809
sg4
F9.0
sg5
F-8.00000000001981
sg6
F-6.000000000019809
sb(dp538
I00
F0.0
sI01
F3.3600000000000003
ss(i__main__
State
p539
(dp540
g3
F-8.000000000019515
sg4
F7.0
sg5
F7.999999999980486
sg6
F-8.000000000019515
sb(dp541
I00
I45
sI01
F-10.82
ss(i__main__
State
p542
(dp543
g3
F7.999999999980537
sg4
F0.0
sg5
F3.9999999999805373
sg6
F-8.000000000019464
sb(dp544
I00
F-15.549901440000001
sI01
F-60.9
ss(i__main__
State
p545
(dp546
g3
F-1.0000000000196234
sg4
F1.0
sg5
F-3.0000000000196234
sg6
F-2.0000000000196234
sb(dp547
I00
I72
sI01
F15.8
ss(i__main__
State
p548
(dp549
g3
F-4.0000000000193445
sg4
F2.0
sg5
F-6.0000000000193445
sg6
F-1.0000000000193445
sb(dp550
I00
I-46
sI01
F44.94
ss(i__main__
State
p551
(dp552
g3
F0.9999999999802852
sg4
F5.0
sg5
F0.9999999999802852
sg6
F0.9999999999802852
sb(dp553
I00
I71
sI01
F7.58
ss(i__main__
State
p554
(dp555
g3
F0.9999999999804418
sg4
F3.0
sg5
F7.0
sg6
F-2.000000000019558
sb(dp556
I00
F10.993888000000002
sI01
F-60.2
ss(i__main__
State
p557
(dp558
g3
F-1.0
sg4
F7.0
sg5
F0.0
sg6
F-8.000000000019758
sb(dp559
I00
F-62.3
sI01
F70.0
ss(i__main__
State
p560
(dp561
g3
F0.9999999999803972
sg4
F1.0
sg5
F-3.0000000000196025
sg6
F-1.9602738210011567e-11
sb(dp562
I00
I-65
sI01
F63.879999999999995
ss(i__main__
State
p563
(dp564
g3
F7.999999999980439
sg4
F8.0
sg5
F1.9999999999804392
sg6
F6.999999999980439
sb(dp565
I00
F99.60116778461563
sI01
F-8.899999999999999
ss(i__main__
State
p566
(dp567
g3
F-7.0000000000198055
sg4
F3.0
sg5
F5.9999999999801945
sg6
F7.9999999999801945
sb(dp568
I00
F35.14351409270381
sI01
F70.12
ss(i__main__
State
p569
(dp570
g3
F-1.0000000000198388
sg4
F0.0
sg5
F6.999999999980161
sg6
F-2.000000000019839
sb(dp571
I00
F75.04
sI01
F-59.96
ss(i__main__
State
p572
(dp573
g3
F3.9999999999804863
sg4
F6.0
sg5
F-1.0
sg6
F2.999999999980486
sb(dp574
I00
F24.198727824000002
sI01
F-12.6
ss(i__main__
State
p575
(dp576
g3
F2.9999999999802616
sg4
F3.0
sg5
F-2.0000000000197384
sg6
F1.9999999999802618
sb(dp577
I00
F-47.519999999999996
sI01
F86.58
ss(i__main__
State
p578
(dp579
g3
F-5.000000000019451
sg4
F6.0
sg5
F8.0
sg6
F-4.000000000019451
sb(dp580
I00
F36.446286
sI01
F-4.2
ss(i__main__
State
p581
(dp582
g3
F-5.000000000019676
sg4
F9.0
sg5
F5.999999999980324
sg6
F7.999999999980324
sb(dp583
I00
F0.0
sI01
F2.3600000000000003
ss(i__main__
State
p584
(dp585
g3
F0.9999999999802315
sg4
F5.0
sg5
F-1.0000000000197686
sg6
F-1.0000000000197686
sb(dp586
I00
F-50.12
sI01
F28.18
ss(i__main__
State
p587
(dp588
g3
F-4.000000000019606
sg4
F2.0
sg5
F-6.000000000019606
sg6
F-5.000000000019606
sb(dp589
I00
F-30.6
sI01
F-58.5
ss(i__main__
State
p590
(dp591
g3
F-4.000000000019821
sg4
F7.0
sg5
F6.999999999980179
sg6
F-3.0000000000198206
sb(dp592
I00
F-76.34400000000001
sI01
F-41.46
ss(i__main__
State
p593
(dp594
g3
F2.9999999999803535
sg4
F3.0
sg5
F0.0
sg6
F1.9999999999803533
sb(dp595
I00
I-10
sI01
F23.04
ss(i__main__
State
p596
(dp597
g3
F-3.000000000019648
sg4
F8.0
sg5
F-8.000000000019648
sg6
F-3.000000000019648
sb(dp598
I00
F-30.409999999999997
sI01
F-31.4
ss(i__main__
State
p599
(dp600
g3
F-5.000000000019518
sg4
F2.0
sg5
F4.999999999980481
sg6
F-8.000000000019519
sb(dp601
I00
I-61
sI01
F-72.48
ss(i__main__
State
p602
(dp603
g3
F7.999999999980165
sg4
F8.0
sg5
F7.999999999980165
sg6
F-8.000000000019835
sb(dp604
I00
I-57
sI01
F-18.799999999999997
ss(i__main__
State
p605
(dp606
g3
F6.999999999980275
sg4
F9.0
sg5
F-3.000000000019725
sg6
F3.999999999980275
sb(dp607
I00
F0.4
sI01
F0.4
ss(i__main__
State
p608
(dp609
g3
F-1.9656602663940276e-11
sg4
F0.0
sg5
F-3.0000000000196567
sg6
F1.9999999999803433
sb(dp610
I00
I33
sI01
F-44.8
ss(i__main__
State
p611
(dp612
g3
F0.9999999999803146
sg4
F7.0
sg5
F-5.000000000019686
sg6
F-3.0000000000196856
sb(dp613
I00
I28
sI01
F81.22
ss(i__main__
State
p614
(dp615
g3
F4.0
sg4
F3.0
sg5
F-1.0000000000194031
sg6
F2.999999999980597
sb(dp616
I00
F22.27465809174659
sI01
F-69.24
ss(i__main__
State
p617
(dp618
g3
F-1.000000000019511
sg4
F0.0
sg5
F-8.000000000019512
sg6
F-1.951107087161236e-11
sb(dp619
I00
F47.9
sI01
F14.6
ss(i__main__
State
p620
(dp621
g3
F-6.000000000019538
sg4
F0.0
sg5
F3.999999999980462
sg6
F-8.000000000019538
sb(dp622
I00
F-2.3764423799999985
sI01
F-4.08
ss(i__main__
State
p623
(dp624
g3
F7.999999999980589
sg4
F7.0
sg5
F7.999999999980588
sg6
F-7.000000000019411
sb(dp625
I00
I-37
sI01
F90.5
ss(i__main__
State
p626
(dp627
g3
F2.999999999980392
sg4
F6.0
sg5
F2.999999999980392
sg6
F2.999999999980392
sb(dp628
I00
I-29
sI01
F-77.8
ss(i__main__
State
p629
(dp630
g3
F6.999999999980368
sg4
F4.0
sg5
F0.9999999999803676
sg6
F5.999999999980368
sb(dp631
I00
I58
sI01
F-46.68
ss(i__main__
State
p632
(dp633
g3
F-1.0000000000194917
sg4
F0.0
sg5
F-1.000000000019492
sg6
F-1.000000000019492
sb(dp634
I00
I-91
sI01
F-56.86
ss(i__main__
State
p635
(dp636
g3
F7.999999999980239
sg4
F6.0
sg5
F3.9999999999802385
sg6
F7.999999999980239
sb(dp637
I00
I52
sI01
F-60.58
ss(i__main__
State
p638
(dp639
g3
F-7.000000000019535
sg4
F1.0
sg5
F-5.000000000019535
sg6
F6.999999999980465
sb(dp640
I00
I-58
sI01
F-41.44
ss(i__main__
State
p641
(dp642
g3
F-5.000000000019494
sg4
F5.0
sg5
F7.999999999980506
sg6
F-6.000000000019494
sb(dp643
I00
I35
sI01
F-19.82
ss(i__main__
State
p644
(dp645
g3
F2.99999999998059
sg4
F6.0
sg5
F-2.0000000000194103
sg6
F0.99999999998059
sb(dp646
I00
I37
sI01
F-32.12
ss(i__main__
State
p647
(dp648
g3
F-7.0
sg4
F5.0
sg5
F-2.0000000000195968
sg6
F3.0
sb(dp649
I00
F23.390200000000004
sI01
F92.62
ss(i__main__
State
p650
(dp651
g3
F1.9999999999801656
sg4
F7.0
sg5
F-6.000000000019835
sg6
F-1.0000000000198344
sb(dp652
I00
I82
sI01
F68.02
ss(i__main__
State
p653
(dp654
g3
F-3.0000000000195994
sg4
F9.0
sg5
F7.999999999980401
sg6
F-4.000000000019599
sb(dp655
I00
F3.3200000000000003
sI01
F3.3200000000000003
ss(i__main__
State
p656
(dp657
g3
F2.99999999998042
sg4
F4.0
sg5
F-5.00000000001958
sg6
F0.9999999999804201
sb(dp658
I00
I-55
sI01
F43.44
ss(i__main__
State
p659
(dp660
g3
F-4.000000000019736
sg4
F9.0
sg5
F-7.000000000019736
sg6
F-4.000000000019736
sb(dp661
I00
F4.227600000000001
sI01
F1.5600000000000003
ss(i__main__
State
p662
(dp663
g3
F7.999999999980195
sg4
F0.0
sg5
F1.999999999980195
sg6
F6.999999999980195
sb(dp664
I00
F39.52
sI01
F-26.18
ss(i__main__
State
p665
(dp666
g3
F-7.0000000000194795
sg4
F6.0
sg5
F6.9999999999805205
sg6
F-7.0000000000194795
sb(dp667
I00
I55
sI01
F60.44
ss(i__main__
State
p668
(dp669
g3
F7.999999999980508
sg4
F1.0
sg5
F5.999999999980508
sg6
F-8.000000000019492
sb(dp670
I00
I-30
sI01
F-6.08
ss(i__main__
State
p671
(dp672
g3
F1.9999999999801834
sg4
F7.0
sg5
F-3.0000000000198166
sg6
F-1.981662250359648e-11
sb(dp673
I00
F-56.594302080000006
sI01
F79.32
ss(i__main__
State
p674
(dp675
g3
F5.999999999980442
sg4
F2.0
sg5
F1.0
sg6
F3.999999999980442
sb(dp676
I00
F-47.818599999999996
sI01
F-76.66
ss(i__main__
State
p677
(dp678
g3
F-4.000000000019654
sg4
F3.0
sg5
F2.0
sg6
F-3.0
sb(dp679
I00
I20
sI01
F18.16
ss(i__main__
State
p680
(dp681
g3
F-6.000000000019605
sg4
F9.0
sg5
F3.9999999999803957
sg6
F-7.000000000019605
sb(dp682
I00
F22.1449330366
sI01
F3.4000000000000004
ss(i__main__
State
p683
(dp684
g3
F1.9999999999804714
sg4
F0.0
sg5
F-2.0000000000195284
sg6
F1.9999999999804714
sb(dp685
I00
F24.88
sI01
F68.98
ss(i__main__
State
p686
(dp687
g3
F-1.0
sg4
F8.0
sg5
F-6.000000000019693
sg6
F-2.000000000019693
sb(dp688
I00
F18.689527
sI01
F-66.5
ss(i__main__
State
p689
(dp690
g3
F4.999999999980164
sg4
F3.0
sg5
F4.999999999980164
sg6
F6.999999999980164
sb(dp691
I00
F-58.16
sI01
F-5.059999999999999
ss(i__main__
State
p692
(dp693
g3
F-3.000000000019764
sg4
F0.0
sg5
F7.999999999980235
sg6
F-4.000000000019765
sb(dp694
I00
I27
sI01
F47.94
ss(i__main__
State
p695
(dp696
g3
F-6.000000000019841
sg4
F6.0
sg5
F3.9999999999801585
sg6
F-7.000000000019841
sb(dp697
I00
F15.528709432428082
sI01
F13.1
ss(i__main__
State
p698
(dp699
g3
F6.999999999980388
sg4
F5.0
sg5
F-6.000000000019612
sg6
F0.9999999999803877
sb(dp700
I00
I5
sI01
F-87.46
ss(i__main__
State
p701
(dp702
g3
F-7.000000000019656
sg4
F9.0
sg5
F5.999999999980344
sg6
F-7.000000000019656
sb(dp703
I00
F6.184978800000001
sI01
F1.3200000000000003
ss(i__main__
State
p704
(dp705
g3
F0.9999999999805558
sg4
F4.0
sg5
F-2.0000000000194444
sg6
F-1.0000000000194442
sb(dp706
I00
I51
sI01
F-62.28
ss(i__main__
State
p707
(dp708
g3
F5.0
sg4
F7.0
sg5
F-6.000000000019709
sg6
F-1.9708996072960704e-11
sb(dp709
I00
F-53.286
sI01
F33.06
ss(i__main__
State
p710
(dp711
g3
F-2.0000000000195515
sg4
F3.0
sg5
F-5.0000000000195515
sg6
F-2.0000000000195515
sb(dp712
I00
F49.28114731947999
sI01
F-50.78
ss(i__main__
State
p713
(dp714
g3
F3.9999999999803957
sg4
F8.0
sg5
F1.9999999999803957
sg6
F2.9999999999803957
sb(dp715
I00
F-47.419999999999995
sI01
F-49.4
ss(i__main__
State
p716
(dp717
g3
F4.999999999980312
sg4
F2.0
sg5
F-5.000000000019688
sg6
F-1.968821849934555e-11
sb(dp718
I00
I-100
sI01
F-49.019999999999996
ss(i__main__
State
p719
(dp720
g3
F-1.000000000019694
sg4
F1.0
sg5
F-4.0000000000196945
sg6
F-2.000000000019694
sb(dp721
I00
F-35.97743682
sI01
F-39.42
ss(i__main__
State
p722
(dp723
g3
F-1.0000000000196445
sg4
F7.0
sg5
F-8.000000000019645
sg6
F-3.0000000000196447
sb(dp724
I00
I-93
sI01
F85.16
ss(i__main__
State
p725
(dp726
g3
F6.999999999980292
sg4
F4.0
sg5
F6.999999999980292
sg6
F7.999999999980292
sb(dp727
I00
F39.79
sI01
F-37.7
ss(i__main__
State
p728
(dp729
g3
F2.9999999999802585
sg4
F5.0
sg5
F-1.9741423523374588e-11
sg6
F1.9999999999802587
sb(dp730
I00
F-20.511301999999997
sI01
F-9.32
ss(i__main__
State
p731
(dp732
g3
F-1.0000000000198017
sg4
F1.0
sg5
F-1.0000000000198017
sg6
F2.9999999999801985
sb(dp733
I00
I-67
sI01
F8.38
ss(i__main__
State
p734
(dp735
g3
F8.0
sg4
F7.0
sg5
F5.9999999999801545
sg6
F7.9999999999801545
sb(dp736
I00
I-78
sI01
F74.34
ss(i__main__
State
p737
(dp738
g3
F-8.000000000019739
sg4
F5.0
sg5
F6.999999999980261
sg6
F-5.000000000019739
sb(dp739
I00
F-84.46
sI01
F-88.96
ss(i__main__
State
p740
(dp741
g3
F-7.000000000019753
sg4
F0.0
sg5
F3.9999999999802465
sg6
F-8.000000000019753
sb(dp742
I00
F77.217
sI01
F-64.2
ss(i__main__
State
p743
(dp744
g3
F2.9999999999803424
sg4
F2.0
sg5
F-4.000000000019657
sg6
F0.9999999999803426
sb(dp745
I00
F56.34986
sI01
F39.74
ss(i__main__
State
p746
(dp747
g3
F6.999999999980315
sg4
F2.0
sg5
F1.9999999999803153
sg6
F6.999999999980315
sb(dp748
I00
I4
sI01
F-4.159999999999999
ss(i__main__
State
p749
(dp750
g3
F-6.0000000000197105
sg4
F2.0
sg5
F5.9999999999802895
sg6
F7.9999999999802895
sb(dp751
I00
F-56.157298
sI01
F47.72
ss(i__main__
State
p752
(dp753
g3
F-5.000000000019623
sg4
F0.0
sg5
F5.999999999980377
sg6
F-8.000000000019623
sb(dp754
I00
F79.38
sI01
F55.08
ss(i__main__
State
p755
(dp756
g3
F0.9999999999803986
sg4
F7.0
sg5
F-2.0000000000196017
sg6
F1.9999999999803986
sb(dp757
I00
I64
sI01
F-17.84
ss(i__main__
State
p758
(dp759
g3
F-3.0000000000197695
sg4
F8.0
sg5
F-4.00000000001977
sg6
F-5.00000000001977
sb(dp760
I00
F30.7
sI01
F-62.0
ss(i__main__
State
p761
(dp762
g3
F-8.000000000019448
sg4
F8.0
sg5
F5.9999999999805524
sg6
F7.9999999999805524
sb(dp763
I00
F-20.6
sI01
F29.8
ss(i__main__
State
p764
(dp765
g3
F-7.000000000019731
sg4
F4.0
sg5
F7.999999999980269
sg6
F-8.000000000019732
sb(dp766
I00
F0.6792935940000033
sI01
F-7.74
ss(i__main__
State
p767
(dp768
g3
F5.999999999980199
sg4
F0.0
sg5
F-1.9801235272305752e-11
sg6
F5.999999999980199
sb(dp769
I00
I-78
sI01
F-84.32
ss(i__main__
State
p770
(dp771
g3
F2.9999999999802074
sg4
F7.0
sg5
F-3.0000000000197926
sg6
F0.9999999999802075
sb(dp772
I00
F-19.565200890200003
sI01
F-10.1
ss(i__main__
State
p773
(dp774
g3
F5.999999999980407
sg4
F9.0
sg5
F4.999999999980406
sg6
F7.999999999980406
sb(dp775
I00
F2.2
sI01
F2.2
ss(i__main__
State
p776
(dp777
g3
F-1.955350611977662e-11
sg4
F6.0
sg5
F-5.000000000019553
sg6
F-1.0000000000195535
sb(dp778
I00
F13.74
sI01
F43.44
ss(i__main__
State
p779
(dp780
g3
F-4.000000000019445
sg4
F5.0
sg5
F0.9999999999805551
sg6
F-2.000000000019445
sb(dp781
I00
F-49.12
sI01
F59.78
ss(i__main__
State
p782
(dp783
g3
F-5.000000000019685
sg4
F5.0
sg5
F5.999999999980315
sg6
F-8.000000000019686
sb(dp784
I00
F22.98
sI01
F80.58
ss(i__main__
State
p785
(dp786
g3
F-4.0000000000197655
sg4
F5.0
sg5
F-7.0000000000197655
sg6
F-5.0000000000197655
sb(dp787
I00
F14.764444085999997
sI01
F22.439999999999998
ss(i__main__
State
p788
(dp789
g3
F-1.97660241157422e-11
sg4
F7.0
sg5
F-5.000000000019766
sg6
F-1.0
sb(dp790
I00
F13.233
sI01
F70.5
ss(i__main__
State
p791
(dp792
g3
F6.999999999980233
sg4
F2.0
sg5
F-1.9767494696294546e-11
sg6
F-8.000000000019767
sb(dp793
I00
I59
sI01
F79.56
ss(i__main__
State
p794
(dp795
g3
F5.999999999980558
sg4
F1.0
sg5
F-1.000000000019442
sg6
F4.999999999980558
sb(dp796
I00
I0
sI01
F5.96
ss(i__main__
State
p797
(dp798
g3
F-5.0000000000195355
sg4
F5.0
sg5
F5.9999999999804645
sg6
F-7.0000000000195355
sb(dp799
I00
I-45
sI01
F-18.02
ss(i__main__
State
p800
(dp801
g3
F7.999999999980528
sg4
F2.0
sg5
F3.9999999999805276
sg6
F5.999999999980528
sb(dp802
I00
I-69
sI01
F20.12
ss(i__main__
State
p803
(dp804
g3
F-3.0000000000197162
sg4
F0.0
sg5
F-8.000000000019716
sg6
F-3.0000000000197162
sb(dp805
I00
F44.67303258753199
sI01
F73.22
ss(i__main__
State
p806
(dp807
g3
F5.999999999980401
sg4
F0.0
sg5
F-2.0000000000196
sg6
F1.0
sb(dp808
I00
I15
sI01
F75.26
ss(i__main__
State
p809
(dp810
g3
F-7.000000000019757
sg4
F8.0
sg5
F4.999999999980243
sg6
F-7.000000000019757
sb(dp811
I00
F24.4
sI01
F40.6
ss(i__main__
State
p812
(dp813
g3
F6.999999999980194
sg4
F5.0
sg5
F0.9999999999801932
sg6
F6.999999999980194
sb(dp814
I00
F21.491104282082084
sI01
F53.96
ss(i__main__
State
p815
(dp816
g3
F1.999999999980175
sg4
F6.0
sg5
F-2.000000000019825
sg6
F2.999999999980175
sb(dp817
I00
F-44.06514
sI01
F-28.86
ss(i__main__
State
p818
(dp819
g3
F-8.000000000019549
sg4
F8.0
sg5
F1.9999999999804516
sg6
F-8.000000000019549
sb(dp820
I00
F15.4
sI01
F-3.5
ss(i__main__
State
p821
(dp822
g3
F-7.0000000000198135
sg4
F5.0
sg5
F7.9999999999801865
sg6
F-3.0
sb(dp823
I00
F5.839188341424003
sI01
F69.54
ss(i__main__
State
p824
(dp825
g3
F-1.0000000000194833
sg4
F4.0
sg5
F-8.000000000019483
sg6
F-2.0000000000194835
sb(dp826
I00
F16.16264548088
sI01
F12.92
ss(i__main__
State
p827
(dp828
g3
F-2.0000000000196847
sg4
F1.0
sg5
F-6.000000000019685
sg6
F-6.000000000019685
sb(dp829
I00
F-84.44
sI01
F-34.94
ss(i__main__
State
p830
(dp831
g3
F-4.000000000019625
sg4
F5.0
sg5
F-8.000000000019625
sg6
F-6.000000000019625
sb(dp832
I00
I37
sI01
F-13.48
ss(i__main__
State
p833
(dp834
g3
F-7.0000000000195115
sg4
F2.0
sg5
F5.9999999999804885
sg6
F-8.000000000019512
sb(dp835
I00
F20.2349966454
sI01
F0.54
ss(i__main__
State
p836
(dp837
g3
F2.9999999999805462
sg4
F8.0
sg5
F-1.9453930062620686e-11
sg6
F1.9999999999805462
sb(dp838
I00
F-26.36
sI01
F70.3
ss(i__main__
State
p839
(dp840
g3
F-1.9581174200119225e-11
sg4
F9.0
sg5
F-6.000000000019581
sg6
F-2.0000000000195812
sb(dp841
I00
F0.0
sI01
F0.52
ss(i__main__
State
p842
(dp843
g3
F-2.0000000000198197
sg4
F5.0
sg5
F-8.00000000001982
sg6
F-6.00000000001982
sb(dp844
I00
F50.5692
sI01
F-73.98
ss(i__main__
State
p845
(dp846
g3
F-4.000000000019725
sg4
F8.0
sg5
F-8.000000000019725
sg6
F-4.000000000019725
sb(dp847
I00
F-3.5179999999999954
sI01
F51.4
ss(i__main__
State
p848
(dp849
g3
F-8.000000000019527
sg4
F8.0
sg5
F-1.9528268365897455e-11
sg6
F5.999999999980472
sb(dp850
I00
I20
sI01
F-66.5
ss(i__main__
State
p851
(dp852
g3
F5.99999999998038
sg4
F5.0
sg5
F4.99999999998038
sg6
F-8.00000000001962
sb(dp853
I00
F26.31381059609
sI01
F65.6
ss(i__main__
State
p854
(dp855
g3
F-2.000000000019802
sg4
F2.0
sg5
F-4.000000000019802
sg6
F-4.000000000019802
sb(dp856
I00
F13.992665600000002
sI01
F50.24
ss(i__main__
State
p857
(dp858
g3
F3.999999999980322
sg4
F2.0
sg5
F6.9999999999803215
sg6
F1.999999999980322
sb(dp859
I00
F53.7147
sI01
F29.7
ss(i__main__
State
p860
(dp861
g3
F-4.000000000019848
sg4
F1.0
sg5
F2.999999999980152
sg6
F7.999999999980152
sb(dp862
I00
F-73.48
sI01
F42.62
ss(i__main__
State
p863
(dp864
g3
F-7.000000000019487
sg4
F8.0
sg5
F1.999999999980513
sg6
F-7.000000000019487
sb(dp865
I00
F-0.4423489999999912
sI01
F71.2
ss(i__main__
State
p866
(dp867
g3
F1.9999999999802969
sg4
F7.0
sg5
F0.9999999999802969
sg6
F1.9999999999802969
sb(dp868
I00
F15.174216460360597
sI01
F89.42
ss(i__main__
State
p869
(dp870
g3
F5.999999999980383
sg4
F6.0
sg5
F4.999999999980383
sg6
F6.999999999980383
sb(dp871
I00
F14.464492225714654
sI01
F11.32
ss(i__main__
State
p872
(dp873
g3
F7.999999999980222
sg4
F4.0
sg5
F3.9999999999802225
sg6
F6.999999999980222
sb(dp874
I00
I20
sI01
F-61.72
ss(i__main__
State
p875
(dp876
g3
F-3.000000000019619
sg4
F9.0
sg5
F-6.000000000019619
sg6
F-6.000000000019619
sb(dp877
I00
F0.0
sI01
F2.7200000000000006
ss(i__main__
State
p878
(dp879
g3
F-1.9623719625639117e-11
sg4
F3.0
sg5
F-6.000000000019623
sg6
F-1.0000000000196236
sb(dp880
I00
I22
sI01
F-77.92
ss(i__main__
State
p881
(dp882
g3
F0.9999999999806273
sg4
F6.0
sg5
F-3.000000000019373
sg6
F0.9999999999806272
sb(dp883
I00
F18.54
sI01
F-12.059999999999999
ss(i__main__
State
p884
(dp885
g3
F3.9999999999801994
sg4
F8.0
sg5
F4.999999999980199
sg6
F-2.0
sb(dp886
I00
F41.5
sI01
F30.7
ss(i__main__
State
p887
(dp888
g3
F-3.000000000019696
sg4
F6.0
sg5
F-3.000000000019696
sg6
F-3.000000000019696
sb(dp889
I00
F68.576028
sI01
F46.68
ss(i__main__
State
p890
(dp891
g3
F-5.000000000019583
sg4
F9.0
sg5
F1.9999999999804172
sg6
F6.999999999980417
sb(dp892
I00
F0.0
sI01
F2.0400000000000005
ss(i__main__
State
p893
(dp894
g3
F4.999999999980259
sg4
F1.0
sg5
F-3.00000000001974
sg6
F-1.9740394811446208e-11
sb(dp895
I00
I53
sI01
F52.56
ss(i__main__
State
p896
(dp897
g3
F-1.9705323411607002e-11
sg4
F0.0
sg5
F-7.000000000019705
sg6
F-4.000000000019705
sb(dp898
I00
F34.94
sI01
F-36.16
ss(i__main__
State
p899
(dp900
g3
F-5.0000000000194165
sg4
F4.0
sg5
F3.9999999999805835
sg6
F-6.0000000000194165
sb(dp901
I00
F-48.669999999999995
sI01
F-29.5
ss(i__main__
State
p902
(dp903
g3
F0.9999999999804593
sg4
F5.0
sg5
F-5.000000000019541
sg6
F-1.954082510157795e-11
sb(dp904
I00
I-54
sI01
F61.379999999999995
ss(i__main__
State
p905
(dp906
g3
F4.999999999980475
sg4
F3.0
sg5
F7.999999999980474
sg6
F-5.000000000019526
sb(dp907
I00
F-0.7080270214679993
sI01
F24.12
ss(i__main__
State
p908
(dp909
g3
F-5.000000000019689
sg4
F7.0
sg5
F-8.00000000001969
sg6
F-5.000000000019689
sb(dp910
I00
F-24.57234
sI01
F-77.75999999999999
ss(i__main__
State
p911
(dp912
g3
F-6.000000000019848
sg4
F0.0
sg5
F-1.984794909783403e-11
sg6
F5.999999999980152
sb(dp913
I00
I-67
sI01
F-8.18
ss(i__main__
State
p914
(dp915
g3
F-5.000000000019771
sg4
F1.0
sg5
F7.999999999980229
sg6
F-8.00000000001977
sb(dp916
I00
F51.2186884
sI01
F-30.8
ss(i__main__
State
p917
(dp918
g3
F-1.9602942703817336e-11
sg4
F3.0
sg5
F-4.000000000019603
sg6
F-1.960296691884281e-11
sb(dp919
I00
I80
sI01
F45.4
ss(i__main__
State
p920
(dp921
g3
F-5.000000000019459
sg4
F4.0
sg5
F7.999999999980541
sg6
F-5.000000000019459
sb(dp922
I00
I-60
sI01
F-25.94
ss(i__main__
State
p923
(dp924
g3
F4.999999999980471
sg4
F2.0
sg5
F-3.000000000019529
sg6
F0.9999999999804711
sb(dp925
I00
F66.32
sI01
F37.52
ss(i__main__
State
p926
(dp927
g3
F-2.0000000000198455
sg4
F8.0
sg5
F-5.0000000000198455
sg6
F-2.0000000000198455
sb(dp928
I00
F23.472496
sI01
F1.9000000000000004
ss(i__main__
State
p929
(dp930
g3
F-3.0000000000198166
sg4
F6.0
sg5
F-5.000000000019816
sg6
F0.9999999999801835
sb(dp931
I00
F-51.3
sI01
F29.7
ss(i__main__
State
p932
(dp933
g3
F5.999999999980517
sg4
F1.0
sg5
F3.9999999999805174
sg6
F7.999999999980517
sb(dp934
I00
I-30
sI01
F45.46
ss(i__main__
State
p935
(dp936
g3
F6.999999999980414
sg4
F3.0
sg5
F5.999999999980414
sg6
F-8.000000000019586
sb(dp937
I00
I-30
sI01
F68.38
ss(i__main__
State
p938
(dp939
g3
F-6.000000000019674
sg4
F6.0
sg5
F-7.000000000019674
sg6
F-3.000000000019674
sb(dp940
I00
F10.58
sI01
F47.48
ss(i__main__
State
p941
(dp942
g3
F7.99999999998035
sg4
F6.0
sg5
F5.99999999998035
sg6
F7.99999999998035
sb(dp943
I00
F56.54
sI01
F-52.36
ss(i__main__
State
p944
(dp945
g3
F-1.0000000000196378
sg4
F8.0
sg5
F-5.000000000019638
sg6
F-2.0000000000196376
sb(dp946
I00
F22.941055000000006
sI01
F-49.4
ss(i__main__
State
p947
(dp948
g3
F0.9999999999802537
sg4
F2.0
sg5
F-7.000000000019746
sg6
F-2.0000000000197464
sb(dp949
I00
F-14.448590729620001
sI01
F18.02
ss(i__main__
State
p950
(dp951
g3
F-3.0000000000196865
sg4
F0.0
sg5
F-7.0000000000196865
sg6
F-4.0000000000196865
sb(dp952
I00
F5.49164
sI01
F-12.94
ss(i__main__
State
p953
(dp954
g3
F-1.0000000000198035
sg4
F5.0
sg5
F-4.000000000019804
sg6
F-1.0000000000198035
sb(dp955
I00
F-70.36
sI01
F74.54
ss(i__main__
State
p956
(dp957
g3
F-1.0000000000197864
sg4
F4.0
sg5
F7.999999999980214
sg6
F-2.0000000000197864
sb(dp958
I00
I17
sI01
F-20.96
ss(i__main__
State
p959
(dp960
g3
F1.9999999999806315
sg4
F4.0
sg5
F-1.0000000000193687
sg6
F0.9999999999806314
sb(dp961
I00
F16.963058200000003
sI01
F41.980000000000004
ss(i__main__
State
p962
(dp963
g3
F7.999999999980275
sg4
F7.0
sg5
F4.999999999980275
sg6
F7.999999999980275
sb(dp964
I00
I-29
sI01
F-87.25999999999999
ss(i__main__
State
p965
(dp966
g3
F6.999999999980295
sg4
F9.0
sg5
F3.9999999999802953
sg6
F8.0
sb(dp967
I00
F12.998359654852017
sI01
F1.5600000000000003
ss(i__main__
State
p968
(dp969
g3
F5.999999999980228
sg4
F2.0
sg5
F0.9999999999802284
sg6
F4.999999999980228
sb(dp970
I00
I85
sI01
F-28.4
ss(i__main__
State
p971
(dp972
g3
F4.999999999980424
sg4
F7.0
sg5
F3.9999999999804237
sg6
F5.999999999980424
sb(dp973
I00
I-5
sI01
F-79.14
ss(i__main__
State
p974
(dp975
g3
F-6.000000000019818
sg4
F9.0
sg5
F-6.0
sg6
F-3.0000000000198175
sb(dp976
I00
F1.2800000000000002
sI01
F1.2800000000000002
ss(i__main__
State
p977
(dp978
g3
F-1.0000000000197689
sg4
F7.0
sg5
F6.999999999980231
sg6
F-1.0000000000197689
sb(dp979
I00
F16.483505193200003
sI01
F24.32
ss(i__main__
State
p980
(dp981
g3
F-1.9810993485030912e-11
sg4
F7.0
sg5
F-5.000000000019811
sg6
F-2.000000000019811
sb(dp982
I00
F-77.92
sI01
F13.88
ss(i__main__
State
p983
(dp984
g3
F-1.975512978381612e-11
sg4
F3.0
sg5
F-5.000000000019755
sg6
F-1.9755152630541687e-11
sb(dp985
I00
I5
sI01
F-46.74
ss(i__main__
State
p986
(dp987
g3
F-2.0000000000198357
sg4
F4.0
sg5
F-7.000000000019836
sg6
F-5.000000000019836
sb(dp988
I00
F43.36363399540477
sI01
F6.460000000000001
ss(i__main__
State
p989
(dp990
g3
F1.9999999999805875
sg4
F9.0
sg5
F-6.000000000019413
sg6
F-2.0
sb(dp991
I00
F0.0
sI01
F1.9600000000000002
ss(i__main__
State
p992
(dp993
g3
F-8.000000000019714
sg4
F4.0
sg5
F-1.971460104676541e-11
sg6
F6.999999999980285
sb(dp994
I00
F69.44
sI01
F76.64
ss(i__main__
State
p995
(dp996
g3
F-6.000000000019597
sg4
F6.0
sg5
F5.999999999980403
sg6
F-8.000000000019597
sb(dp997
I00
I88
sI01
F2.040000000000001
ss(i__main__
State
p998
(dp999
g3
F-4.0000000000194245
sg4
F7.0
sg5
F-1.9424641798122633e-11
sg6
F-1.942453427294364e-11
sb(dp1000
I00
F-2.991183584211991
sI01
F44.18
ss(i__main__
State
p1001
(dp1002
g3
F-7.000000000019902
sg4
F6.0
sg5
F-8.000000000019902
sg6
F-7.000000000019902
sb(dp1003
I00
I14
sI01
F83.18
ss(i__main__
State
p1004
(dp1005
g3
F-4.000000000019642
sg4
F6.0
sg5
F6.999999999980358
sg6
F7.999999999980358
sb(dp1006
I00
F62.022
sI01
F-51.9
ss(i__main__
State
p1007
(dp1008
g3
F2.9999999999802247
sg4
F1.0
sg5
F-4.000000000019775
sg6
F2.9999999999802247
sb(dp1009
I00
F47.211999999999996
sI01
F39.58
ss(i__main__
State
p1010
(dp1011
g3
F6.999999999980379
sg4
F7.0
sg5
F0.9999999999803788
sg6
F3.999999999980379
sb(dp1012
I00
F-55.686
sI01
F80.16
ss(i__main__
State
p1013
(dp1014
g3
F-6.00000000001969
sg4
F8.0
sg5
F-5.0
sg6
F1.99999999998031
sb(dp1015
I00
F53.343999999999994
sI01
F37.0
ss(i__main__
State
p1016
(dp1017
g3
F-1.9719496412471335e-11
sg4
F7.0
sg5
F-4.000000000019719
sg6
F-1.971951957868442e-11
sb(dp1018
I00
I-18
sI01
F-9.52
ss(i__main__
State
p1019
(dp1020
g3
F-6.0000000000195675
sg4
F3.0
sg5
F6.9999999999804325
sg6
F-7.0000000000195675
sb(dp1021
I00
F40.878
sI01
F-40.68
ss(i__main__
State
p1022
(dp1023
g3
F-7.000000000019751
sg4
F2.0
sg5
F6.999999999980249
sg6
F-3.000000000019751
sb(dp1024
I00
I91
sI01
F-18.18
ss(i__main__
State
p1025
(dp1026
g3
F7.999999999980597
sg4
F4.0
sg5
F6.999999999980596
sg6
F-6.000000000019404
sb(dp1027
I00
I24
sI01
F-57.94
ss(i__main__
State
p1028
(dp1029
g3
F-2.000000000019376
sg4
F9.0
sg5
F-5.0000000000193765
sg6
F-3.0000000000193765
sb(dp1030
I00
F22.284555435356033
sI01
F2.24
ss(i__main__
State
p1031
(dp1032
g3
F3.999999999980402
sg4
F2.0
sg5
F-3.000000000019598
sg6
F2.999999999980402
sb(dp1033
I00
I-60
sI01
F68.42
ss(i__main__
State
p1034
(dp1035
g3
F-1.9576282081952403e-11
sg4
F6.0
sg5
F-3.0000000000195763
sg6
F0.9999999999804237
sb(dp1036
I00
F27.760695999999996
sI01
F77.2
ss(i__main__
State
p1037
(dp1038
g3
F5.9999999999804645
sg4
F3.0
sg5
F-6.0000000000195355
sg6
F0.9999999999804648
sb(dp1039
I00
F25.26
sI01
F33.36
ss(i__main__
State
p1040
(dp1041
g3
F-5.000000000019755
sg4
F2.0
sg5
F1.9999999999802451
sg6
F-7.000000000019755
sb(dp1042
I00
F67.7
sI01
F11.0
ss(i__main__
State
p1043
(dp1044
g3
F2.999999999980354
sg4
F0.0
sg5
F1.9999999999803537
sg6
F4.9999999999803535
sb(dp1045
I00
I-93
sI01
F82.2
ss(i__main__
State
p1046
(dp1047
g3
F-8.000000000019492
sg4
F7.0
sg5
F6.999999999980509
sg6
F7.999999999980509
sb(dp1048
I00
I16
sI01
F30.52
ss(i__main__
State
p1049
(dp1050
g3
F7.0
sg4
F3.0
sg5
F1.9999999999801714
sg6
F4.999999999980171
sb(dp1051
I00
F21.88955544513964
sI01
F9.14
ss(i__main__
State
p1052
(dp1053
g3
F-7.000000000019735
sg4
F7.0
sg5
F3.9999999999802642
sg6
F-7.000000000019735
sb(dp1054
I00
I-83
sI01
F16.44
ss(i__main__
State
p1055
(dp1056
g3
F-4.0000000000197
sg4
F9.0
sg5
F-8.0000000000197
sg6
F-6.0000000000197
sb(dp1057
I00
F-1.6
sI01
F-1.6
ss(i__main__
State
p1058
(dp1059
g3
F-3.000000000019573
sg4
F8.0
sg5
F-5.0
sg6
F-2.0000000000195732
sb(dp1060
I00
F55.65856277248301
sI01
F-43.1
ss(i__main__
State
p1061
(dp1062
g3
F-1.0000000000195988
sg4
F6.0
sg5
F-8.000000000019599
sg6
F-2.0000000000195985
sb(dp1063
I00
I-97
sI01
F57.78
ss(i__main__
State
p1064
(dp1065
g3
F-5.000000000019585
sg4
F2.0
sg5
F3.9999999999804143
sg6
F-6.000000000019585
sb(dp1066
I00
I-50
sI01
F-84.3
ss(i__main__
State
p1067
(dp1068
g3
F3.9999999999801683
sg4
F5.0
sg5
F4.999999999980169
sg6
F6.999999999980169
sb(dp1069
I00
F19.087365618000003
sI01
F-74.88
ss(i__main__
State
p1070
(dp1071
g3
F-6.000000000019582
sg4
F5.0
sg5
F5.999999999980418
sg6
F-7.000000000019582
sb(dp1072
I00
F-43.12
sI01
F3.6800000000000006
ss(i__main__
State
p1073
(dp1074
g3
F5.999999999980334
sg4
F5.0
sg5
F1.9999999999803342
sg6
F4.999999999980334
sb(dp1075
I00
F-46.391999999999996
sI01
F-39.48
ss(i__main__
State
p1076
(dp1077
g3
F0.9999999999803726
sg4
F7.0
sg5
F-3.0000000000196274
sg6
F-1.9627462767394922e-11
sb(dp1078
I00
I71
sI01
F11.780000000000001
ss(i__main__
State
p1079
(dp1080
g3
F5.99999999998043
sg4
F1.0
sg5
F3.99999999998043
sg6
F5.99999999998043
sb(dp1081
I00
I-100
sI01
F-87.02
ss(i__main__
State
p1082
(dp1083
g3
F-3.00000000001941
sg4
F5.0
sg5
F5.999999999980591
sg6
F-6.000000000019409
sb(dp1084
I00
F-63.057199999999995
sI01
F-26.42
ss(i__main__
State
p1085
(dp1086
g3
F-6.000000000019448
sg4
F1.0
sg5
F2.9999999999805516
sg6
F7.999999999980552
sb(dp1087
I00
I96
sI01
F-43.28
ss(i__main__
State
p1088
(dp1089
g3
F-2.0000000000197624
sg4
F9.0
sg5
F-5.000000000019763
sg6
F-3.0000000000197624
sb(dp1090
I00
F0.0
sI01
F1.9600000000000002
ss(i__main__
State
p1091
(dp1092
g3
F4.999999999980385
sg4
F9.0
sg5
F-3.0000000000196154
sg6
F3.9999999999803846
sb(dp1093
I00
F0.0
sI01
F-1.0
ss(i__main__
State
p1094
(dp1095
g3
F1.9999999999804594
sg4
F4.0
sg5
F-5.000000000019541
sg6
F-1.954056567683912e-11
sb(dp1096
I00
I24
sI01
F42.44
ss(i__main__
State
p1097
(dp1098
g3
F-4.000000000019835
sg4
F0.0
sg5
F-6.000000000019835
sg6
F-3.0000000000198352
sb(dp1099
I00
I-47
sI01
F-46.9
ss(i__main__
State
p1100
(dp1101
g3
F-3.000000000019445
sg4
F6.0
sg5
F0.9999999999805549
sg6
F6.999999999980555
sb(dp1102
I00
F55.1651506
sI01
F-54.56
ss(i__main__
State
p1103
(dp1104
g3
F1.9999999999801763
sg4
F4.0
sg5
F-1.9823716154502438e-11
sg6
F1.9999999999801763
sb(dp1105
I00
F48.51291773694004
sI01
F63.08
ss(i__main__
State
p1106
(dp1107
g3
F1.0
sg4
F0.0
sg5
F-7.000000000019476
sg6
F-2.0
sb(dp1108
I00
F14.9
sI01
F-42.7
ss(i__main__
State
p1109
(dp1110
g3
F-3.0000000000195572
sg4
F0.0
sg5
F-7.000000000019557
sg6
F-5.000000000019557
sb(dp1111
I00
I100
sI01
F-3.2399999999999993
ss(i__main__
State
p1112
(dp1113
g3
F-6.000000000019905
sg4
F8.0
sg5
F5.999999999980095
sg6
F-5.000000000019905
sb(dp1114
I00
F83.25960850000001
sI01
F45.1
ss(i__main__
State
p1115
(dp1116
g3
F-8.000000000019648
sg4
F9.0
sg5
F5.999999999980353
sg6
F7.999999999980353
sb(dp1117
I00
F18.225049280000004
sI01
F3.2
ss(i__main__
State
p1118
(dp1119
g3
F-7.000000000019473
sg4
F7.0
sg5
F-7.000000000019473
sg6
F-6.000000000019473
sb(dp1120
I00
I51
sI01
F-29.7
ss(i__main__
State
p1121
(dp1122
g3
F-1.956730574258344e-11
sg4
F2.0
sg5
F-5.0000000000195675
sg6
F-3.0000000000195675
sb(dp1123
I00
F3.885652220000001
sI01
F43.52
ss(i__main__
State
p1124
(dp1125
g3
F5.999999999980252
sg4
F4.0
sg5
F1.9999999999802527
sg6
F5.999999999980252
sb(dp1126
I00
I-57
sI01
F14.76
ss(i__main__
State
p1127
(dp1128
g3
F4.9999999999805596
sg4
F9.0
sg5
F2.9999999999805596
sg6
F5.9999999999805596
sb(dp1129
I00
F0.0
sI01
F1.3200000000000003
ss(i__main__
State
p1130
(dp1131
g3
F-1.9757717657979208e-11
sg4
F2.0
sg5
F-7.0000000000197575
sg6
F-1.0000000000197578
sb(dp1132
I00
I-99
sI01
F42.42
ss(i__main__
State
p1133
(dp1134
g3
F0.999999999980216
sg4
F2.0
sg5
F-2.000000000019784
sg6
F-1.978394365310148e-11
sb(dp1135
I00
F22.149043018919066
sI01
F-84.24
ss(i__main__
State
p1136
(dp1137
g3
F-7.000000000019442
sg4
F2.0
sg5
F3.9999999999805578
sg6
F-6.000000000019442
sb(dp1138
I00
F16.937117999999998
sI01
F54.9
ss(i__main__
State
p1139
(dp1140
g3
F5.999999999980399
sg4
F5.0
sg5
F2.999999999980399
sg6
F-8.0000000000196
sb(dp1141
I00
F48.48
sI01
F66.48
ss(i__main__
State
p1142
(dp1143
g3
F-6.000000000019645
sg4
F9.0
sg5
F4.999999999980355
sg6
F-8.000000000019645
sb(dp1144
I00
F0.0
sI01
F3.6
ss(i__main__
State
p1145
(dp1146
g3
F4.9999999999804015
sg4
F5.0
sg5
F5.9999999999804015
sg6
F4.9999999999804015
sb(dp1147
I00
I-67
sI01
F-20.96
ss(i__main__
State
p1148
(dp1149
g3
F5.999999999980305
sg4
F4.0
sg5
F5.999999999980305
sg6
F5.999999999980305
sb(dp1150
I00
I58
sI01
F-78.9
ss(i__main__
State
p1151
(dp1152
g3
F-7.000000000019733
sg4
F9.0
sg5
F4.999999999980267
sg6
F-8.000000000019734
sb(dp1153
I00
F7.144
sI01
F3.7600000000000002
ss(i__main__
State
p1154
(dp1155
g3
F3.9999999999801545
sg4
F9.0
sg5
F-4.0000000000198455
sg6
F3.9999999999801545
sb(dp1156
I00
F0.0
sI01
F3.24
ss(i__main__
State
p1157
(dp1158
g3
F-2.0000000000198184
sg4
F2.0
sg5
F7.999999999980181
sg6
F-5.000000000019819
sb(dp1159
I00
F1.84766395
sI01
F90.4
ss(i__main__
State
p1160
(dp1161
g3
F2.9999999999804476
sg4
F4.0
sg5
F-3.0000000000195524
sg6
F0.9999999999804476
sb(dp1162
I00
I58
sI01
F10.8
ss(i__main__
State
p1163
(dp1164
g3
F-5.000000000019789
sg4
F2.0
sg5
F6.9999999999802105
sg6
F-5.000000000019789
sb(dp1165
I00
I-90
sI01
F-29.58
ss(i__main__
State
p1166
(dp1167
g3
F-1.9822950392471948e-11
sg4
F2.0
sg5
F-3.000000000019823
sg6
F-2.000000000019823
sb(dp1168
I00
I87
sI01
F13.84
ss(i__main__
State
p1169
(dp1170
g3
F-1.9772761084494675e-11
sg4
F6.0
sg5
F-6.000000000019773
sg6
F-4.000000000019773
sb(dp1171
I00
F-51.239779999999996
sI01
F78.58
ss(i__main__
State
p1172
(dp1173
g3
F-4.000000000019843
sg4
F0.0
sg5
F-6.000000000019843
sg6
F-3.000000000019843
sb(dp1174
I00
F-43.42902704000001
sI01
F-79.64
ss(i__main__
State
p1175
(dp1176
g3
F4.9999999999801865
sg4
F6.0
sg5
F0.9999999999801863
sg6
F6.9999999999801865
sb(dp1177
I00
I51
sI01
F-27.32
ss(i__main__
State
p1178
(dp1179
g3
F7.999999999980313
sg4
F1.0
sg5
F2.999999999980312
sg6
F4.999999999980313
sb(dp1180
I00
I59
sI01
F-43.6
ss(i__main__
State
p1181
(dp1182
g3
F7.9999999999803695
sg4
F2.0
sg5
F-8.00000000001963
sg6
F-4.0000000000196305
sb(dp1183
I00
I43
sI01
F-41.5
ss(i__main__
State
p1184
(dp1185
g3
F0.9999999999805712
sg4
F0.0
sg5
F-4.000000000019429
sg6
F-2.000000000019429
sb(dp1186
I00
F30.55006718
sI01
F58.58
ss(i__main__
State
p1187
(dp1188
g3
F-4.000000000019509
sg4
F7.0
sg5
F-6.000000000019509
sg6
F-5.000000000019509
sb(dp1189
I00
F61.842000000000006
sI01
F49.08
ss(i__main__
State
p1190
(dp1191
g3
F1.999999999980385
sg4
F7.0
sg5
F0.9999999999803849
sg6
F3.999999999980385
sb(dp1192
I00
I73
sI01
F-70.24
ss(i__main__
State
p1193
(dp1194
g3
F-8.000000000019616
sg4
F5.0
sg5
F-7.000000000019616
sg6
F-3.0000000000196168
sb(dp1195
I00
I-95
sI01
F73.3
ss(i__main__
State
p1196
(dp1197
g3
F3.9999999999803917
sg4
F7.0
sg5
F-2.0000000000196083
sg6
F0.9999999999803916
sb(dp1198
I00
I-50
sI01
F-7.92
ss(i__main__
State
p1199
(dp1200
g3
F7.9999999999805
sg4
F2.0
sg5
F2.9999999999805005
sg6
F7.9999999999805
sb(dp1201
I00
F14.2954
sI01
F48.94
ss(i__main__
State
p1202
(dp1203
g3
F-1.0000000000197022
sg4
F5.0
sg5
F-7.0000000000197025
sg6
F-2.0000000000197025
sb(dp1204
I00
F63.894000000000005
sI01
F-11.94
ss(i__main__
State
p1205
(dp1206
g3
F5.999999999980541
sg4
F5.0
sg5
F0.9999999999805408
sg6
F3.999999999980541
sb(dp1207
I00
I30
sI01
F85.24
ss(i__main__
State
p1208
(dp1209
g3
F-2.000000000019492
sg4
F2.0
sg5
F3.9999999999805076
sg6
F6.999999999980508
sb(dp1210
I00
I-62
sI01
F-55.64
ss(i__main__
State
p1211
(dp1212
g3
F4.999999999980417
sg4
F8.0
sg5
F2.9999999999804174
sg6
F4.999999999980417
sb(dp1213
I00
F91.02764289121599
sI01
F25.3
ss(i__main__
State
p1214
(dp1215
g3
F-8.00000000001974
sg4
F4.0
sg5
F3.999999999980259
sg6
F-8.00000000001974
sb(dp1216
I00
I-13
sI01
F-30.18
ss(i__main__
State
p1217
(dp1218
g3
F-6.000000000019528
sg4
F1.0
sg5
F-8.00000000001953
sg6
F-6.000000000019528
sb(dp1219
I00
F2.8355282995429043
sI01
F-4.4
ss(i__main__
State
p1220
(dp1221
g3
F-8.0000000000196
sg4
F1.0
sg5
F-2.0000000000196
sg6
F-7.0000000000196
sb(dp1222
I00
I-50
sI01
F13.92
ss(i__main__
State
p1223
(dp1224
g3
F4.999999999980647
sg4
F8.0
sg5
F-1.0000000000193534
sg6
F2.9999999999806466
sb(dp1225
I00
F-13.399999999999999
sI01
F78.4
ss(i__main__
State
p1226
(dp1227
g3
F-1.0000000000198428
sg4
F8.0
sg5
F7.999999999980157
sg6
F-5.000000000019843
sb(dp1228
I00
I-21
sI01
F36.1
ss(i__main__
State
p1229
(dp1230
g3
F-5.000000000019792
sg4
F8.0
sg5
F5.0
sg6
F7.999999999980208
sb(dp1231
I00
F71.302186
sI01
F-29.6
ss(i__main__
State
p1232
(dp1233
g3
F-6.000000000019587
sg4
F9.0
sg5
F5.999999999980413
sg6
F-7.000000000019587
sb(dp1234
I00
F-1.0434062000000002
sI01
F-0.2
ss(i__main__
State
p1235
(dp1236
g3
F6.99999999998052
sg4
F8.0
sg5
F4.99999999998052
sg6
F5.99999999998052
sb(dp1237
I00
F-6.8786899999999935
sI01
F83.8
ss(i__main__
State
p1238
(dp1239
g3
F-1.0000000000197262
sg4
F2.0
sg5
F-3.0000000000197264
sg6
F-3.0000000000197264
sb(dp1240
I00
F-34.03206861199999
sI01
F75.52
ss(i__main__
State
p1241
(dp1242
g3
F-6.000000000019672
sg4
F4.0
sg5
F4.999999999980328
sg6
F-7.000000000019672
sb(dp1243
I00
F3.8693464000000013
sI01
F-81.74
ss(i__main__
State
p1244
(dp1245
g3
F-6.000000000019743
sg4
F1.0
sg5
F5.999999999980257
sg6
F-6.000000000019743
sb(dp1246
I00
I-96
sI01
F69.52
ss(i__main__
State
p1247
(dp1248
g3
F7.999999999980531
sg4
F6.0
sg5
F6.999999999980531
sg6
F-7.000000000019469
sb(dp1249
I00
F84.77600000000001
sI01
F48.74
ss(i__main__
State
p1250
(dp1251
g3
F1.9999999999805296
sg4
F9.0
sg5
F-6.000000000019471
sg6
F-1.0000000000194704
sb(dp1252
I00
F0.0
sI01
F-3.2
ss(i__main__
State
p1253
(dp1254
g3
F5.999999999980323
sg4
F1.0
sg5
F-1.9676619860855856e-11
sg6
F4.999999999980323
sb(dp1255
I00
F46.637267058
sI01
F-7.379999999999999
ss(i__main__
State
p1256
(dp1257
g3
F4.999999999980394
sg4
F3.0
sg5
F2.999999999980394
sg6
F4.999999999980394
sb(dp1258
I00
F17.661502767954197
sI01
F-36.74
ss(i__main__
State
p1259
(dp1260
g3
F-5.000000000019589
sg4
F1.0
sg5
F-7.00000000001959
sg6
F-5.000000000019589
sb(dp1261
I00
I8
sI01
F20.82
ss(i__main__
State
p1262
(dp1263
g3
F-2.0000000000195963
sg4
F3.0
sg5
F-6.000000000019596
sg6
F-2.0000000000195963
sb(dp1264
I00
F-21.752056059999997
sI01
F-9.16
ss(i__main__
State
p1265
(dp1266
g3
F3.999999999980494
sg4
F5.0
sg5
F-7.000000000019506
sg6
F1.999999999980494
sb(dp1267
I00
F35.27404151126646
sI01
F67.26
ss(i__main__
State
p1268
(dp1269
g3
F-3.000000000019644
sg4
F4.0
sg5
F7.999999999980356
sg6
F-4.000000000019644
sb(dp1270
I00
F-71.53999999999999
sI01
F-27.44
ss(i__main__
State
p1271
(dp1272
g3
F2.9999999999805014
sg4
F0.0
sg5
F0.9999999999805012
sg6
F3.9999999999805014
sb(dp1273
I00
F7.58
sI01
F-85.12
ss(i__main__
State
p1274
(dp1275
g3
F-5.0
sg4
F8.0
sg5
F3.999999999980234
sg6
F7.999999999980234
sb(dp1276
I00
I75
sI01
F71.2
ss(i__main__
State
p1277
(dp1278
g3
F7.999999999980469
sg4
F3.0
sg5
F5.999999999980469
sg6
F7.999999999980469
sb(dp1279
I00
F57.7915258
sI01
F11.92
ss(i__main__
State
p1280
(dp1281
g3
F-1.9800971071849752e-11
sg4
F9.0
sg5
F-5.000000000019801
sg6
F-1.980099350537584e-11
sb(dp1282
I00
F-10.729680000000002
sI01
F-3.1200000000000006
ss(i__main__
State
p1283
(dp1284
g3
F6.99999999998026
sg4
F8.0
sg5
F3.99999999998026
sg6
F7.99999999998026
sb(dp1285
I00
F5.5
sI01
F37.9
ss(i__main__
State
p1286
(dp1287
g3
F-6.000000000019533
sg4
F7.0
sg5
F5.999999999980467
sg6
F-7.000000000019533
sb(dp1288
I00
F3.85
sI01
F-11.0
ss(i__main__
State
p1289
(dp1290
g3
F1.9999999999802411
sg4
F9.0
sg5
F0.999999999980241
sg6
F3.999999999980241
sb(dp1291
I00
F0.0
sI01
F-1.72
ss(i__main__
State
p1292
(dp1293
g3
F7.999999999980366
sg4
F0.0
sg5
F4.999999999980366
sg6
F-8.000000000019634
sb(dp1294
I00
I-83
sI01
F1.46
ss(i__main__
State
p1295
(dp1296
g3
F6.999999999980512
sg4
F0.0
sg5
F-1.9488172757543007e-11
sg6
F2.999999999980512
sb(dp1297
I00
I27
sI01
F55.3
ss(i__main__
State
p1298
(dp1299
g3
F3.9999999999802385
sg4
F8.0
sg5
F-2.0000000000197615
sg6
F3.9999999999802385
sb(dp1300
I00
F81.8985869831819
sI01
F-39.5
ss(i__main__
State
p1301
(dp1302
g3
F6.99999999998054
sg4
F7.0
sg5
F0.9999999999805403
sg6
F4.99999999998054
sb(dp1303
I00
I-33
sI01
F-27.92
ss(i__main__
State
p1304
(dp1305
g3
F-1.9846650140446472e-11
sg4
F4.0
sg5
F-6.000000000019846
sg6
F-2.000000000019847
sb(dp1306
I00
I-69
sI01
F-87.7
ss(i__main__
State
p1307
(dp1308
g3
F2.9999999999803078
sg4
F4.0
sg5
F-1.9692100136567573e-11
sg6
F-1.9692068918065402e-11
sb(dp1309
I00
F-25.531400000000005
sI01
F-8.84
ss(i__main__
State
p1310
(dp1311
g3
F-1.0000000000193479
sg4
F6.0
sg5
F6.0
sg6
F-6.000000000019348
sb(dp1312
I00
F53.006
sI01
F48.74
ss(i__main__
State
p1313
(dp1314
g3
F7.9999999999805
sg4
F4.0
sg5
F3.9999999999804996
sg6
F7.9999999999805
sb(dp1315
I00
I39
sI01
F45.94
ss(i__main__
State
p1316
(dp1317
g3
F-6.0000000000197895
sg4
F4.0
sg5
F3.999999999980211
sg6
F-8.000000000019789
sb(dp1318
I00
I98
sI01
F76.48
ss(i__main__
State
p1319
(dp1320
g3
F-1.9574711047774116e-11
sg4
F2.0
sg5
F-2.0000000000195746
sg6
F1.9999999999804252
sb(dp1321
I00
F-20.159245639999995
sI01
F-2.0
ss(i__main__
State
p1322
(dp1323
g3
F-8.000000000019684
sg4
F0.0
sg5
F1.9999999999803164
sg6
F6.999999999980316
sb(dp1324
I00
I22
sI01
F-59.16
ss(i__main__
State
p1325
(dp1326
g3
F-2.000000000019495
sg4
F8.0
sg5
F3.999999999980505
sg6
F-6.0000000000194955
sb(dp1327
I00
F80.41265009374162
sI01
F-55.7
ss(i__main__
State
p1328
(dp1329
g3
F-1.9586425704342105e-11
sg4
F6.0
sg5
F-5.000000000019586
sg6
F-1.0000000000195866
sb(dp1330
I00
F31.44784
sI01
F90.4
ss(i__main__
State
p1331
(dp1332
g3
F-2.0000000000198206
sg4
F8.0
sg5
F-8.00000000001982
sg6
F-2.0000000000198206
sb(dp1333
I00
F-0.4399999999999995
sI01
F-67.4
ss(i__main__
State
p1334
(dp1335
g3
F-7.000000000019465
sg4
F2.0
sg5
F-8.000000000019465
sg6
F-1.000000000019465
sb(dp1336
I00
I-98
sI01
F0.12000000000000055
ss(i__main__
State
p1337
(dp1338
g3
F2.9999999999806715
sg4
F6.0
sg5
F-1.932881165784991e-11
sg6
F6.9999999999806715
sb(dp1339
I00
F25.152226308000003
sI01
F46.8
ss(i__main__
State
p1340
(dp1341
g3
F-3.0000000000194995
sg4
F1.0
sg5
F-5.000000000019499
sg6
F-3.0000000000194995
sb(dp1342
I00
I77
sI01
F-78.88
ss(i__main__
State
p1343
(dp1344
g3
F-3.0000000000197593
sg4
F1.0
sg5
F7.999999999980241
sg6
F-5.000000000019759
sb(dp1345
I00
F-78.648
sI01
F-90.42
ss(i__main__
State
p1346
(dp1347
g3
F-4.000000000019743
sg4
F0.0
sg5
F5.999999999980257
sg6
F-5.000000000019743
sb(dp1348
I00
I12
sI01
F-76.08
ss(i__main__
State
p1349
(dp1350
g3
F4.999999999980458
sg4
F9.0
sg5
F-1.0000000000195415
sg6
F2.9999999999804583
sb(dp1351
I00
F0.0
sI01
F1.3200000000000003
ss(i__main__
State
p1352
(dp1353
g3
F-5.000000000019719
sg4
F8.0
sg5
F4.999999999980281
sg6
F-6.000000000019719
sb(dp1354
I00
F47.8656379
sI01
F79.3
ss(i__main__
State
p1355
(dp1356
g3
F-4.000000000019682
sg4
F0.0
sg5
F2.999999999980318
sg6
F-8.000000000019682
sb(dp1357
I00
I-68
sI01
F53.16
ss(i__main__
State
p1358
(dp1359
g3
F2.99999999998054
sg4
F9.0
sg5
F1.9999999999805398
sg6
F-1.9460077497456018e-11
sb(dp1360
I00
F-7.15312
sI01
F-2.08
ss(i__main__
State
p1361
(dp1362
g3
F-5.000000000019841
sg4
F3.0
sg5
F7.999999999980159
sg6
F-5.000000000019841
sb(dp1363
I00
F-64.1248
sI01
F-27.88
ss(i__main__
State
p1364
(dp1365
g3
F-5.000000000019644
sg4
F3.0
sg5
F-3.000000000019644
sg6
F-3.000000000019644
sb(dp1366
I00
I-21
sI01
F-14.86
ss(i__main__
State
p1367
(dp1368
g3
F-1.0000000000195175
sg4
F1.0
sg5
F5.999999999980482
sg6
F-7.000000000019518
sb(dp1369
I00
I-14
sI01
F-32.14
ss(i__main__
State
p1370
(dp1371
g3
F-1.0000000000194997
sg4
F3.0
sg5
F-4.0000000000195
sg6
F-1.9499812342870463e-11
sb(dp1372
I00
F28.834
sI01
F-70.03999999999999
ss(i__main__
State
p1373
(dp1374
g3
F-7.0000000000194715
sg4
F0.0
sg5
F5.999999999980528
sg6
F-6.0000000000194715
sb(dp1375
I00
I-87
sI01
F-69.96
ss(i__main__
State
p1376
(dp1377
g3
F-8.000000000019465
sg4
F4.0
sg5
F7.999999999980535
sg6
F-8.000000000019465
sb(dp1378
I00
F15.649458809738
sI01
F-45.22
ss(i__main__
State
p1379
(dp1380
g3
F2.999999999980436
sg4
F0.0
sg5
F4.999999999980436
sg6
F-1.9563991337356835e-11
sb(dp1381
I00
I12
sI01
F-7.26
ss(i__main__
State
p1382
(dp1383
g3
F1.9999999999801965
sg4
F6.0
sg5
F-4.000000000019804
sg6
F1.9999999999801963
sb(dp1384
I00
I86
sI01
F36.62
ss(i__main__
State
p1385
(dp1386
g3
F-8.000000000019819
sg4
F3.0
sg5
F6.999999999980181
sg6
F-3.000000000019819
sb(dp1387
I00
F8.92
sI01
F-89.18
ss(i__main__
State
p1388
(dp1389
g3
F-5.000000000019665
sg4
F4.0
sg5
F-8.000000000019666
sg6
F-3.0000000000196656
sb(dp1390
I00
I-49
sI01
F13.379999999999999
ss(i__main__
State
p1391
(dp1392
g3
F4.999999999980371
sg4
F9.0
sg5
F2.9999999999803713
sg6
F6.999999999980371
sb(dp1393
I00
F0.0
sI01
F3.3200000000000003
ss(i__main__
State
p1394
(dp1395
g3
F4.999999999980255
sg4
F8.0
sg5
F1.9999999999802547
sg6
F5.999999999980255
sb(dp1396
I00
F-42.155
sI01
F59.5
ss(i__main__
State
p1397
(dp1398
g3
F3.999999999980509
sg4
F6.0
sg5
F-2.000000000019491
sg6
F2.999999999980509
sb(dp1399
I00
I0
sI01
F75.16
ss(i__main__
State
p1400
(dp1401
g3
F-7.000000000019634
sg4
F8.0
sg5
F4.999999999980366
sg6
F-7.000000000019634
sb(dp1402
I00
F-56.599999999999994
sI01
F-42.2
ss(i__main__
State
p1403
(dp1404
g3
F2.9999999999801945
sg4
F2.0
sg5
F-1.0000000000198055
sg6
F0.9999999999801946
sb(dp1405
I00
F31.76
sI01
F76.76
ss(i__main__
State
p1406
(dp1407
g3
F0.9999999999804128
sg4
F8.0
sg5
F-4.000000000019587
sg6
F5.999999999980413
sb(dp1408
I00
F46.6521986647
sI01
F-0.7999999999999989
ss(i__main__
State
p1409
(dp1410
g3
F-6.00000000001958
sg4
F6.0
sg5
F7.99999999998042
sg6
F-5.00000000001958
sb(dp1411
I00
I98
sI01
F25.06
ss(i__main__
State
p1412
(dp1413
g3
F-1.960010531947002e-11
sg4
F3.0
sg5
F-3.0000000000196003
sg6
F-1.0000000000196
sb(dp1414
I00
I66
sI01
F29.4
ss(i__main__
State
p1415
(dp1416
g3
F-6.000000000019802
sg4
F3.0
sg5
F7.999999999980198
sg6
F-5.000000000019802
sb(dp1417
I00
F47.702292277880005
sI01
F25.22
ss(i__main__
State
p1418
(dp1419
g3
F-3.0000000000196425
sg4
F8.0
sg5
F-7.000000000019642
sg6
F-2.0
sb(dp1420
I00
F65.2267
sI01
F86.5
ss(i__main__
State
p1421
(dp1422
g3
F5.999999999980186
sg4
F8.0
sg5
F1.9999999999801852
sg6
F7.0
sb(dp1423
I00
F35.688198826000004
sI01
F37.0
ss(i__main__
State
p1424
(dp1425
g3
F3.9999999999802776
sg4
F8.0
sg5
F1.0
sg6
F2.9999999999802776
sb(dp1426
I00
F31.959999999999997
sI01
F-41.3
ss(i__main__
State
p1427
(dp1428
g3
F6.999999999980184
sg4
F2.0
sg5
F-1.9816020540835686e-11
sg6
F4.999999999980184
sb(dp1429
I00
I41
sI01
F-3.8599999999999994
ss(i__main__
State
p1430
(dp1431
g3
F-7.000000000019751
sg4
F5.0
sg5
F2.9999999999802482
sg6
F6.999999999980248
sb(dp1432
I00
I66
sI01
F0.94
ss(i__main__
State
p1433
(dp1434
g3
F7.9999999999802816
sg4
F3.0
sg5
F-3.0000000000197184
sg6
F3.9999999999802816
sb(dp1435
I00
I-8
sI01
F88.84
ss(i__main__
State
p1436
(dp1437
g3
F5.999999999980418
sg4
F0.0
sg5
F-1.0000000000195814
sg6
F2.9999999999804188
sb(dp1438
I00
I-14
sI01
F11.46
ss(i__main__
State
p1439
(dp1440
g3
F-1.0000000000198481
sg4
F2.0
sg5
F-4.000000000019848
sg6
F-1.9848127619734784e-11
sb(dp1441
I00
I94
sI01
F89.88
ss(i__main__
State
p1442
(dp1443
g3
F-1.0000000000196698
sg4
F0.0
sg5
F-4.00000000001967
sg6
F-1.00000000001967
sb(dp1444
I00
F0.23309437872552152
sI01
F34.82
ss(i__main__
State
p1445
(dp1446
g3
F4.999999999980517
sg4
F3.0
sg5
F1.999999999980517
sg6
F6.999999999980517
sb(dp1447
I00
I-66
sI01
F71.36
ss(i__main__
State
p1448
(dp1449
g3
F-8.000000000019616
sg4
F4.0
sg5
F2.9999999999803837
sg6
F6.999999999980384
sb(dp1450
I00
I88
sI01
F-34.56
ss(i__main__
State
p1451
(dp1452
g3
F-8.000000000019734
sg4
F1.0
sg5
F6.9999999999802665
sg6
F-8.000000000019734
sb(dp1453
I00
I-27
sI01
F-6.3
ss(i__main__
State
p1454
(dp1455
g3
F-3.000000000019474
sg4
F9.0
sg5
F5.999999999980526
sg6
F-6.000000000019474
sb(dp1456
I00
F1.4092
sI01
F0.52
ss(i__main__
State
p1457
(dp1458
g3
F-2.0000000000196323
sg4
F3.0
sg5
F-2.0000000000196323
sg6
F-1.0000000000196323
sb(dp1459
I00
F-2.9468971999999973
sI01
F60.82
ss(i__main__
State
p1460
(dp1461
g3
F6.999999999980268
sg4
F8.0
sg5
F6.999999999980268
sg6
F7.999999999980268
sb(dp1462
I00
F85.42
sI01
F-50.3
ss(i__main__
State
p1463
(dp1464
g3
F-7.000000000019846
sg4
F3.0
sg5
F4.999999999980154
sg6
F-8.000000000019847
sb(dp1465
I00
F-36.96
sI01
F35.04
ss(i__main__
State
p1466
(dp1467
g3
F-6.000000000019752
sg4
F7.0
sg5
F-2.0000000000197526
sg6
F-7.000000000019752
sb(dp1468
I00
I-46
sI01
F66.24
ss(i__main__
State
p1469
(dp1470
g3
F-1.9838483444478823e-11
sg4
F7.0
sg5
F-5.000000000019838
sg6
F-1.0000000000198386
sb(dp1471
I00
I-2
sI01
F8.2
ss(i__main__
State
p1472
(dp1473
g3
F-5.0
sg4
F9.0
sg5
F-5.000000000019766
sg6
F-5.000000000019766
sb(dp1474
I00
F1.1245416000000001
sI01
F0.24000000000000005
ss(i__main__
State
p1475
(dp1476
g3
F4.999999999980479
sg4
F7.0
sg5
F-2.0000000000195213
sg6
F3.0
sb(dp1477
I00
I-72
sI01
F-52.5
ss(i__main__
State
p1478
(dp1479
g3
F-1.0000000000198483
sg4
F4.0
sg5
F-8.000000000019849
sg6
F-5.000000000019848
sb(dp1480
I00
I79
sI01
F79.66
ss(i__main__
State
p1481
(dp1482
g3
F7.999999999980196
sg4
F8.0
sg5
F1.999999999980196
sg6
F5.999999999980196
sb(dp1483
I00
F70.36233259149999
sI01
F55.9
ss(i__main__
State
p1484
(dp1485
g3
F4.999999999980326
sg4
F8.0
sg5
F3.9999999999803255
sg6
F5.999999999980326
sb(dp1486
I00
F48.77440201
sI01
F-58.4
ss(i__main__
State
p1487
(dp1488
g3
F5.999999999980303
sg4
F8.0
sg5
F-1.0000000000196967
sg6
F6.999999999980303
sb(dp1489
I00
F98.2
sI01
F-33.2
ss(i__main__
State
p1490
(dp1491
g3
F1.9999999999801912
sg4
F8.0
sg5
F-1.0
sg6
F1.9999999999801912
sb(dp1492
I00
F37.629999999999995
sI01
F-8.899999999999999
ss(i__main__
State
p1493
(dp1494
g3
F3.999999999980161
sg4
F9.0
sg5
F-1.0000000000198388
sg6
F1.9999999999801612
sb(dp1495
I00
F26.6633018561067
sI01
F3.2
ss(i__main__
State
p1496
(dp1497
g3
F7.999999999980345
sg4
F5.0
sg5
F-1.9655402576465776e-11
sg6
F4.999999999980345
sb(dp1498
I00
I9
sI01
F-7.16
ss(i__main__
State
p1499
(dp1500
g3
F5.999999999980341
sg4
F4.0
sg5
F7.999999999980341
sg6
F7.999999999980341
sb(dp1501
I00
I27
sI01
F20.16
ss(i__main__
State
p1502
(dp1503
g3
F-3.000000000019598
sg4
F1.0
sg5
F-7.0000000000195985
sg6
F-4.0000000000195985
sb(dp1504
I00
I-84
sI01
F54.22
ss(i__main__
State
p1505
(dp1506
g3
F0.9999999999804344
sg4
F7.0
sg5
F-3.0000000000195657
sg6
F1.9999999999804343
sb(dp1507
I00
I57
sI01
F-7.62
ss(i__main__
State
p1508
(dp1509
g3
F-1.000000000019591
sg4
F7.0
sg5
F-7.000000000019591
sg6
F-4.0000000000195906
sb(dp1510
I00
F7.4171039847390166
sI01
F39.62
ss(i__main__
State
p1511
(dp1512
g3
F-8.00000000001961
sg4
F8.0
sg5
F3.9999999999803912
sg6
F7.999999999980392
sb(dp1513
I00
F27.724024000000007
sI01
F34.3
ss(i__main__
State
p1514
(dp1515
g3
F6.999999999980321
sg4
F6.0
sg5
F3.99999999998032
sg6
F6.999999999980321
sb(dp1516
I00
I86
sI01
F60.08
ss(i__main__
State
p1517
(dp1518
g3
F-5.000000000019729
sg4
F9.0
sg5
F-8.000000000019728
sg6
F-5.000000000019729
sb(dp1519
I00
F-0.12000000000000002
sI01
F-0.12000000000000002
ss(i__main__
State
p1520
(dp1521
g3
F-5.000000000019729
sg4
F0.0
sg5
F-8.00000000001973
sg6
F-6.000000000019729
sb(dp1522
I00
F-21.3155760549464
sI01
F-3.8600000000000003
ss(i__main__
State
p1523
(dp1524
g3
F-5.0000000000195275
sg4
F5.0
sg5
F7.9999999999804725
sg6
F-4.0000000000195275
sb(dp1525
I00
F-27.56
sI01
F31.3
ss(i__main__
State
p1526
(dp1527
g3
F-3.0000000000193023
sg4
F4.0
sg5
F5.999999999980697
sg6
F-5.000000000019303
sb(dp1528
I00
F-24.55423725569171
sI01
F79.34
ss(i__main__
State
p1529
(dp1530
g3
F-2.000000000019636
sg4
F5.0
sg5
F-4.0
sg6
F-2.000000000019636
sb(dp1531
I00
F6.6093003031999995
sI01
F73.22
ss(i__main__
State
p1532
(dp1533
g3
F1.9999999999801537
sg4
F2.0
sg5
F-2.0000000000198463
sg6
F1.9999999999801534
sb(dp1534
I00
I-43
sI01
F-47.82
ss(i__main__
State
p1535
(dp1536
g3
F4.999999999980184
sg4
F5.0
sg5
F0.9999999999801836
sg6
F3.999999999980184
sb(dp1537
I00
F83.96
sI01
F-80.74
ss(i__main__
State
p1538
(dp1539
g3
F3.9999999999803344
sg4
F3.0
sg5
F1.9999999999803346
sg6
F4.999999999980335
sb(dp1540
I00
F-33.538
sI01
F34.88
ss(i__main__
State
p1541
(dp1542
g3
F-5.00000000001955
sg4
F1.0
sg5
F7.99999999998045
sg6
F-5.00000000001955
sb(dp1543
I00
F37.280058000000004
sI01
F-41.519999999999996
ss(i__main__
State
p1544
(dp1545
g3
F1.9999999999805365
sg4
F1.0
sg5
F-5.0000000000194635
sg6
F0.9999999999805365
sb(dp1546
I00
I30
sI01
F-24.38
ss(i__main__
State
p1547
(dp1548
g3
F7.999999999980309
sg4
F1.0
sg5
F5.999999999980309
sg6
F7.999999999980309
sb(dp1549
I00
F-29.06
sI01
F51.04
ss(i__main__
State
p1550
(dp1551
g3
F-2.0000000000197007
sg4
F2.0
sg5
F-7.000000000019701
sg6
F-4.000000000019701
sb(dp1552
I00
F8.085155
sI01
F72.5
ss(i__main__
State
p1553
(dp1554
g3
F1.9999999999803841
sg4
F2.0
sg5
F0.999999999980384
sg6
F1.9999999999803841
sb(dp1555
I00
I5
sI01
F-63.019999999999996
ss(i__main__
State
p1556
(dp1557
g3
F-8.000000000019673
sg4
F5.0
sg5
F2.9999999999803264
sg6
F5.999999999980327
sb(dp1558
I00
I49
sI01
F-78.02
ss(i__main__
State
p1559
(dp1560
g3
F-1.9598456426549315e-11
sg4
F4.0
sg5
F-7.0000000000195985
sg6
F-2.0000000000195985
sb(dp1561
I00
I-57
sI01
F88.96
ss(i__main__
State
p1562
(dp1563
g3
F7.999999999980364
sg4
F6.0
sg5
F5.999999999980364
sg6
F-7.000000000019636
sb(dp1564
I00
F17.379030462560003
sI01
F-58.96
ss(i__main__
State
p1565
(dp1566
g3
F-7.000000000019884
sg4
F5.0
sg5
F-8.000000000019883
sg6
F-5.000000000019884
sb(dp1567
I00
I96
sI01
F-32.28
ss(i__main__
State
p1568
(dp1569
g3
F5.999999999980317
sg4
F7.0
sg5
F-1.0000000000196831
sg6
F6.999999999980317
sb(dp1570
I00
I78
sI01
F-79.02
ss(i__main__
State
p1571
(dp1572
g3
F-2.000000000019425
sg4
F8.0
sg5
F7.999999999980575
sg6
F-2.000000000019425
sb(dp1573
I00
I92
sI01
F55.9
ss(i__main__
State
p1574
(dp1575
g3
F6.999999999980552
sg4
F3.0
sg5
F-8.00000000001945
sg6
F-7.000000000019449
sb(dp1576
I00
F28.2738
sI01
F-28.32
ss(i__main__
State
p1577
(dp1578
g3
F-5.000000000019526
sg4
F4.0
sg5
F-6.000000000019526
sg6
F-2.0000000000195253
sb(dp1579
I00
I18
sI01
F-55.46
ss(i__main__
State
p1580
(dp1581
g3
F-8.000000000019826
sg4
F9.0
sg5
F5.0
sg6
F6.999999999980173
sb(dp1582
I00
F0.0
sI01
F3.9600000000000004
ss(i__main__
State
p1583
(dp1584
g3
F-2.0000000000198273
sg4
F0.0
sg5
F7.999999999980172
sg6
F-5.000000000019828
sb(dp1585
I00
I-97
sI01
F89.86
ss(i__main__
State
p1586
(dp1587
g3
F2.9999999999803664
sg4
F7.0
sg5
F-3.0000000000196336
sg6
F1.9999999999803664
sb(dp1588
I00
F61.58
sI01
F71.48
ss(i__main__
State
p1589
(dp1590
g3
F-4.0000000000197415
sg4
F6.0
sg5
F-1.0000000000197415
sg6
F-1.974152305415693e-11
sb(dp1591
I00
I37
sI01
F4.86
ss(i__main__
State
p1592
(dp1593
g3
F-6.000000000019789
sg4
F9.0
sg5
F4.999999999980211
sg6
F-7.000000000019789
sb(dp1594
I00
F0.0
sI01
F2.24
ss(i__main__
State
p1595
(dp1596
g3
F7.9999999999803055
sg4
F3.0
sg5
F7.9999999999803055
sg6
F-6.0000000000196945
sb(dp1597
I00
F-30.062197999999988
sI01
F-45.379999999999995
ss(i__main__
State
p1598
(dp1599
g3
F-4.000000000019838
sg4
F8.0
sg5
F-7.000000000019838
sg6
F-5.000000000019838
sb(dp1600
I00
F-55.7
sI01
F-48.5
ss(i__main__
State
p1601
(dp1602
g3
F7.999999999980224
sg4
F3.0
sg5
F-1.9776325492190607e-11
sg6
F5.999999999980224
sb(dp1603
I00
F37.702237489999995
sI01
F31.4
ss(i__main__
State
p1604
(dp1605
g3
F2.9999999999807008
sg4
F1.0
sg5
F-1.9299628163437123e-11
sg6
F2.9999999999807008
sb(dp1606
I00
I-79
sI01
F44.42
ss(i__main__
State
p1607
(dp1608
g3
F-3.0000000000196585
sg4
F3.0
sg5
F-6.000000000019658
sg6
F-4.000000000019658
sb(dp1609
I00
F59.562000000000005
sI01
F-76.32
ss(i__main__
State
p1610
(dp1611
g3
F-1.95616920766773e-11
sg4
F9.0
sg5
F-1.0000000000195617
sg6
F-1.956171666505631e-11
sb(dp1612
I00
F2.2490832000000003
sI01
F0.4800000000000001
ss(i__main__
State
p1613
(dp1614
g3
F3.9999999999802016
sg4
F6.0
sg5
F-1.9798479732968443e-11
sg6
F3.9999999999802016
sb(dp1615
I00
F36.434642000000004
sI01
F-54.58
ss(i__main__
State
p1616
(dp1617
g3
F7.999999999980698
sg4
F3.0
sg5
F1.999999999980698
sg6
F7.999999999980698
sb(dp1618
I00
F-11.66
sI01
F-72.86
ss(i__main__
State
p1619
(dp1620
g3
F-4.000000000019688
sg4
F4.0
sg5
F3.9999999999803113
sg6
F-7.000000000019688
sb(dp1621
I00
F83.382
sI01
F83.58
ss(i__main__
State
p1622
(dp1623
g3
F-5.00000000001954
sg4
F3.0
sg5
F7.99999999998046
sg6
F-8.00000000001954
sb(dp1624
I00
I85
sI01
F-79.24
ss(i__main__
State
p1625
(dp1626
g3
F-8.000000000019712
sg4
F8.0
sg5
F5.999999999980287
sg6
F-6.000000000019713
sb(dp1627
I00
I59
sI01
F28.9
ss(i__main__
State
p1628
(dp1629
g3
F-6.000000000019723
sg4
F1.0
sg5
F5.999999999980277
sg6
F-4.000000000019723
sb(dp1630
I00
I38
sI01
F-79.96
ss(i__main__
State
p1631
(dp1632
g3
F-2.000000000019807
sg4
F6.0
sg5
F-4.000000000019807
sg6
F-1.98069187346654e-11
sb(dp1633
I00
F83.98
sI01
F-6.02
ss(i__main__
State
p1634
(dp1635
g3
F2.9999999999802567
sg4
F2.0
sg5
F-5.000000000019743
sg6
F1.9999999999802565
sb(dp1636
I00
I-27
sI01
F-13.94
ss(i__main__
State
p1637
(dp1638
g3
F-7.000000000019698
sg4
F9.0
sg5
F6.999999999980302
sg6
F7.999999999980302
sb(dp1639
I00
F0.0
sI01
F0.8
ss(i__main__
State
p1640
(dp1641
g3
F7.999999999980276
sg4
F4.0
sg5
F4.999999999980276
sg6
F-7.000000000019724
sb(dp1642
I00
I-38
sI01
F67.88
ss(i__main__
State
p1643
(dp1644
g3
F7.999999999980395
sg4
F0.0
sg5
F2.9999999999803952
sg6
F4.999999999980395
sb(dp1645
I00
I85
sI01
F-89.12
ss(i__main__
State
p1646
(dp1647
g3
F-2.0000000000197073
sg4
F3.0
sg5
F6.999999999980292
sg6
F-3.0000000000197073
sb(dp1648
I00
F21.44976
sI01
F-39.36
ss(i__main__
State
p1649
(dp1650
g3
F-1.0000000000194473
sg4
F9.0
sg5
F-3.0000000000194476
sg6
F-1.94474923595337e-11
sb(dp1651
I00
F0.0
sI01
F3.24
ss(i__main__
State
p1652
(dp1653
g3
F-4.000000000019491
sg4
F4.0
sg5
F7.999999999980509
sg6
F-7.000000000019491
sb(dp1654
I00
F57.712
sI01
F22.18
ss(i__main__
State
p1655
(dp1656
g3
F-5.000000000019573
sg4
F9.0
sg5
F-8.000000000019574
sg6
F-4.000000000019574
sb(dp1657
I00
F0.0
sI01
F-1.3200000000000003
ss(i__main__
State
p1658
(dp1659
g3
F5.999999999980421
sg4
F2.0
sg5
F-1.957906315125965e-11
sg6
F-3.000000000019579
sb(dp1660
I00
I95
sI01
F-9.62
ss(i__main__
State
p1661
(dp1662
g3
F-1.000000000019533
sg4
F8.0
sg5
F-6.000000000019533
sg6
F-4.000000000019533
sb(dp1663
I00
F71.302186
sI01
F-9.799999999999999
ss(i__main__
State
p1664
(dp1665
g3
F0.9999999999805093
sg4
F5.0
sg5
F-4.000000000019491
sg6
F1.9999999999805091
sb(dp1666
I00
I-8
sI01
F-46.22
ss(i__main__
State
p1667
(dp1668
g3
F6.999999999980154
sg4
F1.0
sg5
F1.9999999999801537
sg6
F7.999999999980154
sb(dp1669
I00
I72
sI01
F57.68
ss(i__main__
State
p1670
(dp1671
g3
F4.999999999980282
sg4
F2.0
sg5
F-1.000000000019718
sg6
F3.999999999980282
sb(dp1672
I00
I-26
sI01
F-24.06
ss(i__main__
State
p1673
(dp1674
g3
F-4.000000000019503
sg4
F0.0
sg5
F-7.000000000019503
sg6
F-2.000000000019502
sb(dp1675
I00
F-20.93798799999999
sI01
F41.12
ss(i__main__
State
p1676
(dp1677
g3
F-2.0000000000197526
sg4
F8.0
sg5
F-2.0000000000197526
sg6
F-1.0000000000197526
sb(dp1678
I00
F35.636590000000005
sI01
F-25.1
ss(i__main__
State
p1679
(dp1680
g3
F3.9999999999806564
sg4
F1.0
sg5
F2.999999999980656
sg6
F6.999999999980656
sb(dp1681
I00
F79.28
sI01
F82.88
ss(i__main__
State
p1682
(dp1683
g3
F-5.000000000019765
sg4
F2.0
sg5
F4.999999999980235
sg6
F-4.000000000019765
sb(dp1684
I00
I15
sI01
F85.9
ss(i__main__
State
p1685
(dp1686
g3
F-1.0000000000195655
sg4
F6.0
sg5
F7.999999999980434
sg6
F0.9999999999804347
sb(dp1687
I00
I87
sI01
F67.98
ss(i__main__
State
p1688
(dp1689
g3
F-1.9712266036283875e-11
sg4
F6.0
sg5
F-2.0
sg6
F-1.971228926653326e-11
sb(dp1690
I00
F16.91412
sI01
F31.2
ss(i__main__
State
p1691
(dp1692
g3
F4.999999999980307
sg4
F7.0
sg5
F0.9999999999803072
sg6
F5.999999999980307
sb(dp1693
I00
F-15.2222
sI01
F68.08
ss(i__main__
State
p1694
(dp1695
g3
F1.99999999998032
sg4
F7.0
sg5
F1.0
sg6
F5.0
sb(dp1696
I00
F-54.8214
sI01
F-64.14
ss(i__main__
State
p1697
(dp1698
g3
F-2.0000000000197358
sg4
F8.0
sg5
F-6.000000000019736
sg6
F-1.0000000000197358
sb(dp1699
I00
F53.24222118259
sI01
F15.4
ss(i__main__
State
p1700
(dp1701
g3
F3.999999999980341
sg4
F5.0
sg5
F-1.9659122375833993e-11
sg6
F2.999999999980341
sb(dp1702
I00
F30.66110016
sI01
F91.86
ss(i__main__
State
p1703
(dp1704
g3
F0.9999999999804353
sg4
F2.0
sg5
F-1.0000000000195648
sg6
F-1.0000000000195648
sb(dp1705
I00
I-81
sI01
F84.8
ss(i__main__
State
p1706
(dp1707
g3
F-2.0000000000195466
sg4
F5.0
sg5
F-8.000000000019547
sg6
F-3.0000000000195466
sb(dp1708
I00
F-20.456065199999994
sI01
F-63.48
ss(i__main__
State
p1709
(dp1710
g3
F-7.0000000000195435
sg4
F3.0
sg5
F4.999999999980456
sg6
F-7.0000000000195435
sb(dp1711
I00
F-21.537319916919117
sI01
F-69.72
ss(i__main__
State
p1712
(dp1713
g3
F2.999999999980302
sg4
F1.0
sg5
F0.9999999999803021
sg6
F1.9999999999803022
sb(dp1714
I00
I-99
sI01
F-60.5
ss(i__main__
State
p1715
(dp1716
g3
F-6.000000000019514
sg4
F5.0
sg5
F4.999999999980486
sg6
F-7.000000000019514
sb(dp1717
I00
F-1.3399999999999999
sI01
F8.56
ss(i__main__
State
p1718
(dp1719
g3
F-7.000000000019488
sg4
F1.0
sg5
F8.0
sg6
F-7.000000000019488
sb(dp1720
I00
F0.14000000000000057
sI01
F52.34
ss(i__main__
State
p1721
(dp1722
g3
F1.9999999999802485
sg4
F3.0
sg5
F-2.0000000000197518
sg6
F3.9999999999802482
sb(dp1723
I00
I-27
sI01
F-81.32
ss(i__main__
State
p1724
(dp1725
g3
F7.999999999980177
sg4
F3.0
sg5
F1.9999999999801763
sg6
F7.999999999980177
sb(dp1726
I00
I-25
sI01
F31.42
ss(i__main__
State
p1727
(dp1728
g3
F5.999999999980377
sg4
F2.0
sg5
F1.9999999999803764
sg6
F4.999999999980377
sb(dp1729
I00
F-1.9104566915636385
sI01
F72.88
ss(i__main__
State
p1730
(dp1731
g3
F4.999999999980548
sg4
F7.0
sg5
F1.9999999999805476
sg6
F5.999999999980547
sb(dp1732
I00
I30
sI01
F-31.52
ss(i__main__
State
p1733
(dp1734
g3
F7.999999999980366
sg4
F2.0
sg5
F7.999999999980366
sg6
F-6.000000000019634
sb(dp1735
I00
F33.896488080000005
sI01
F-51.72
ss(i__main__
State
p1736
(dp1737
g3
F-1.000000000019732
sg4
F6.0
sg5
F4.999999999980268
sg6
F-5.000000000019732
sb(dp1738
I00
I-64
sI01
F33.22
ss(i__main__
State
p1739
(dp1740
g3
F-7.000000000019679
sg4
F4.0
sg5
F5.999999999980321
sg6
F-8.000000000019678
sb(dp1741
I00
I-90
sI01
F45.24
ss(i__main__
State
p1742
(dp1743
g3
F-5.000000000019336
sg4
F8.0
sg5
F-7.000000000019336
sg6
F-3.0
sb(dp1744
I00
F54.284382298000004
sI01
F47.8
ss(i__main__
State
p1745
(dp1746
g3
F-1.0000000000196743
sg4
F7.0
sg5
F-7.000000000019674
sg6
F-2.000000000019674
sb(dp1747
I00
F-1.3470100623106607
sI01
F-36.76
ss(i__main__
State
p1748
(dp1749
g3
F-2.0000000000194484
sg4
F2.0
sg5
F-3.000000000019449
sg6
F-1.9448616659452635e-11
sb(dp1750
I00
F-21.810380000000002
sI01
F40.18
ss(i__main__
State
p1751
(dp1752
g3
F-1.9577251973598216e-11
sg4
F9.0
sg5
F-1.0000000000195772
sg6
F-1.9577276418842202e-11
sb(dp1753
I00
F-19.762254832608
sI01
F-2.8800000000000003
ss(i__main__
State
p1754
(dp1755
g3
F2.999999999980279
sg4
F4.0
sg5
F2.999999999980279
sg6
F3.999999999980279
sb(dp1756
I00
F-31.0110016
sI01
F30.56
ss(i__main__
State
p1757
(dp1758
g3
F2.9999999999805276
sg4
F3.0
sg5
F-2.0000000000194724
sg6
F1.9999999999805276
sb(dp1759
I00
I-89
sI01
F51.06
ss(i__main__
State
p1760
(dp1761
g3
F-7.000000000019721
sg4
F2.0
sg5
F6.999999999980279
sg6
F-8.000000000019721
sb(dp1762
I00
I29
sI01
F65.34
ss(i__main__
State
p1763
(dp1764
g3
F-8.00000000001971
sg4
F0.0
sg5
F6.99999999998029
sg6
F-7.00000000001971
sb(dp1765
I00
F-67.688
sI01
F-44.72
ss(i__main__
State
p1766
(dp1767
g3
F-3.0000000000196465
sg4
F1.0
sg5
F-5.0000000000196465
sg6
F-3.0000000000196465
sb(dp1768
I00
I22
sI01
F30.84
ss(i__main__
State
p1769
(dp1770
g3
F1.9999999999803881
sg4
F3.0
sg5
F-1.000000000019612
sg6
F1.9999999999803881
sb(dp1771
I00
F-76.16
sI01
F-9.559999999999999
ss(i__main__
State
p1772
(dp1773
g3
F6.999999999980227
sg4
F5.0
sg5
F3.9999999999802274
sg6
F4.999999999980227
sb(dp1774
I00
I98
sI01
F80.8
ss(i__main__
State
p1775
(dp1776
g3
F-4.000000000019565
sg4
F5.0
sg5
F4.999999999980435
sg6
F-5.000000000019565
sb(dp1777
I00
F56.58
sI01
F62.88
ss(i__main__
State
p1778
(dp1779
g3
F-6.000000000019432
sg4
F3.0
sg5
F6.9999999999805675
sg6
F-6.0000000000194325
sb(dp1780
I00
F-20.552
sI01
F1.12
ss(i__main__
State
p1781
(dp1782
g3
F3.9999999999801523
sg4
F9.0
sg5
F-1.0000000000198477
sg6
F2.9999999999801523
sb(dp1783
I00
F0.0
sI01
F-0.44000000000000006
ss(i__main__
State
p1784
(dp1785
g3
F7.999999999980351
sg4
F4.0
sg5
F3.9999999999803504
sg6
F-6.000000000019649
sb(dp1786
I00
I-78
sI01
F64.64
ss(i__main__
State
p1787
(dp1788
g3
F-1.0000000000195697
sg4
F9.0
sg5
F-8.00000000001957
sg6
F-2.0000000000195697
sb(dp1789
I00
F0.0
sI01
F1.08
ss(i__main__
State
p1790
(dp1791
g3
F3.9999999999804436
sg4
F7.0
sg5
F0.9999999999804434
sg6
F7.0
sb(dp1792
I00
I28
sI01
F-9.32
ss(i__main__
State
p1793
(dp1794
g3
F-5.000000000019572
sg4
F7.0
sg5
F4.999999999980428
sg6
F-6.000000000019572
sb(dp1795
I00
F55.32
sI01
F-11.280000000000001
ss(i__main__
State
p1796
(dp1797
g3
F0.99999999998029
sg4
F1.0
sg5
F-1.97100813550814e-11
sg6
F0.99999999998029
sb(dp1798
I00
F-75.24
sI01
F-32.04
ss(i__main__
State
p1799
(dp1800
g3
F-1.000000000019788
sg4
F7.0
sg5
F-1.0000000000197882
sg6
F2.999999999980212
sb(dp1801
I00
I-59
sI01
F18.92
ss(i__main__
State
p1802
(dp1803
g3
F-1.9649690086455086e-11
sg4
F5.0
sg5
F-6.00000000001965
sg6
F0.9999999999803503
sb(dp1804
I00
F28.784
sI01
F39.26
ss(i__main__
State
p1805
(dp1806
g3
F-2.0000000000195053
sg4
F4.0
sg5
F-1.0000000000195053
sg6
F4.999999999980495
sb(dp1807
I00
F33.27796542
sI01
F-15.18
ss(i__main__
State
p1808
(dp1809
g3
F7.999999999980239
sg4
F4.0
sg5
F0.9999999999802388
sg6
F6.0
sb(dp1810
I00
I34
sI01
F35.2
ss(i__main__
State
p1811
(dp1812
g3
F0.9999999999805577
sg4
F3.0
sg5
F-1.0000000000194424
sg6
F0.9999999999805576
sb(dp1813
I00
F42.54
sI01
F3.8400000000000003
ss(i__main__
State
p1814
(dp1815
g3
F5.9999999999804015
sg4
F8.0
sg5
F1.999999999980401
sg6
F5.9999999999804015
sb(dp1816
I00
I-67
sI01
F-68.3
ss(i__main__
State
p1817
(dp1818
g3
F4.999999999980425
sg4
F0.0
sg5
F5.999999999980425
sg6
F7.999999999980425
sb(dp1819
I00
I-80
sI01
F-25.82
ss(i__main__
State
p1820
(dp1821
g3
F-4.000000000019659
sg4
F6.0
sg5
F-6.000000000019659
sg6
F-5.000000000019659
sb(dp1822
I00
F28.202817579999994
sI01
F8.08
ss(i__main__
State
p1823
(dp1824
g3
F7.999999999980559
sg4
F0.0
sg5
F3.999999999980558
sg6
F5.999999999980559
sb(dp1825
I00
I10
sI01
F29.86
ss(i__main__
State
p1826
(dp1827
g3
F3.9999999999802056
sg4
F0.0
sg5
F-1.97942345017204e-11
sg6
F3.9999999999802056
sb(dp1828
I00
I27
sI01
F-72.7
ss(i__main__
State
p1829
(dp1830
g3
F-6.0000000000195275
sg4
F7.0
sg5
F4.9999999999804725
sg6
F6.9999999999804725
sb(dp1831
I00
I73
sI01
F58.4
ss(i__main__
State
p1832
(dp1833
g3
F6.999999999980156
sg4
F1.0
sg5
F0.9999999999801561
sg6
F4.999999999980156
sb(dp1834
I00
I-11
sI01
F-37.519999999999996
ss(i__main__
State
p1835
(dp1836
g3
F-4.000000000019637
sg4
F7.0
sg5
F-4.000000000019637
sg6
F-2.0
sb(dp1837
I00
F48.6
sI01
F-16.2
ss(i__main__
State
p1838
(dp1839
g3
F-8.000000000019647
sg4
F7.0
sg5
F1.9999999999803528
sg6
F6.999999999980353
sb(dp1840
I00
I-27
sI01
F-51.34
ss(i__main__
State
p1841
(dp1842
g3
F1.9999999999802447
sg4
F4.0
sg5
F-1.9755398846029455e-11
sg6
F4.999999999980244
sb(dp1843
I00
I-100
sI01
F-57.76
ss(i__main__
State
p1844
(dp1845
g3
F-4.000000000019778
sg4
F5.0
sg5
F7.999999999980222
sg6
F-5.000000000019778
sb(dp1846
I00
F14.899999999999999
sI01
F67.1
ss(i__main__
State
p1847
(dp1848
g3
F-4.000000000019418
sg4
F6.0
sg5
F-1.000000000019418
sg6
F-8.000000000019417
sb(dp1849
I00
I-69
sI01
F11.0
ss(i__main__
State
p1850
(dp1851
g3
F-3.000000000019633
sg4
F6.0
sg5
F7.0
sg6
F-7.000000000019633
sb(dp1852
I00
I-31
sI01
F-46.22
ss(i__main__
State
p1853
(dp1854
g3
F7.999999999980414
sg4
F7.0
sg5
F1.9999999999804134
sg6
F5.999999999980413
sb(dp1855
I00
I55
sI01
F-85.98
ss(i__main__
State
p1856
(dp1857
g3
F0.99999999998038
sg4
F6.0
sg5
F-1.00000000001962
sg6
F1.99999999998038
sb(dp1858
I00
I65
sI01
F-9.98
ss(i__main__
State
p1859
(dp1860
g3
F4.9999999999802425
sg4
F4.0
sg5
F-1.000000000019758
sg6
F2.999999999980242
sb(dp1861
I00
I-53
sI01
F-6.82
ss(i__main__
State
p1862
(dp1863
g3
F-1.968549189868363e-11
sg4
F8.0
sg5
F-1.0000000000196856
sg6
F0.9999999999803145
sb(dp1864
I00
F64.6060294
sI01
F75.7
ss(i__main__
State
p1865
(dp1866
g3
F3.999999999980473
sg4
F6.0
sg5
F0.9999999999804727
sg6
F3.999999999980473
sb(dp1867
I00
F69.87819999999999
sI01
F-45.68
ss(i__main__
State
p1868
(dp1869
g3
F-8.000000000019584
sg4
F1.0
sg5
F1.999999999980415
sg6
F7.999999999980415
sb(dp1870
I00
F0.07665999999999906
sI01
F-76.7
ss(i__main__
State
p1871
(dp1872
g3
F-3.000000000019739
sg4
F6.0
sg5
F-2.000000000019739
sg6
F-2.000000000019739
sb(dp1873
I00
F-26.16941854
sI01
F26.36
ss(i__main__
State
p1874
(dp1875
g3
F4.0
sg4
F5.0
sg5
F-1.9586344490547025e-11
sg6
F1.9999999999804137
sb(dp1876
I00
I34
sI01
F36.32
ss(i__main__
State
p1877
(dp1878
g3
F3.9999999999802323
sg4
F4.0
sg5
F-2.0000000000197677
sg6
F1.9999999999802323
sb(dp1879
I00
I35
sI01
F-86.14
ss(i__main__
State
p1880
(dp1881
g3
F6.999999999980396
sg4
F5.0
sg5
F2.999999999980396
sg6
F5.999999999980396
sb(dp1882
I00
I77
sI01
F-53.82
ss(i__main__
State
p1883
(dp1884
g3
F-6.000000000019906
sg4
F9.0
sg5
F4.999999999980094
sg6
F-7.000000000019906
sb(dp1885
I00
F0.0
sI01
F0.0
ss(i__main__
State
p1886
(dp1887
g3
F-2.0000000000196483
sg4
F0.0
sg5
F-6.000000000019648
sg6
F-3.0000000000196483
sb(dp1888
I00
I80
sI01
F58.78
ss(i__main__
State
p1889
(dp1890
g3
F6.999999999980241
sg4
F0.0
sg5
F0.9999999999802406
sg6
F6.999999999980241
sb(dp1891
I00
F-51.269589565680405
sI01
F-42.46
ss(i__main__
State
p1892
(dp1893
g3
F2.9999999999802727
sg4
F5.0
sg5
F-1.0000000000197276
sg6
F3.9999999999802727
sb(dp1894
I00
F57.21884
sI01
F46.16
ss(i__main__
State
p1895
(dp1896
g3
F3.9999999999803464
sg4
F2.0
sg5
F-1.9653518265262586e-11
sg6
F4.999999999980346
sb(dp1897
I00
F0.19507896455604623
sI01
F62.0
ss(i__main__
State
p1898
(dp1899
g3
F5.999999999980568
sg4
F2.0
sg5
F0.9999999999805684
sg6
F5.999999999980568
sb(dp1900
I00
I-6
sI01
F-40.5
ss(i__main__
State
p1901
(dp1902
g3
F1.9999999999801903
sg4
F1.0
sg5
F-4.00000000001981
sg6
F-2.0000000000198095
sb(dp1903
I00
F39.726634000000004
sI01
F27.04
ss(i__main__
State
p1904
(dp1905
g3
F0.999999999980268
sg4
F7.0
sg5
F-1.9732034875112272e-11
sg6
F4.999999999980268
sb(dp1906
I00
F-2.8389100000000003
sI01
F1.4000000000000004
ss(i__main__
State
p1907
(dp1908
g3
F6.999999999980148
sg4
F1.0
sg5
F2.999999999980148
sg6
F6.999999999980148
sb(dp1909
I00
F19.513821445607995
sI01
F66.3
ss(i__main__
State
p1910
(dp1911
g3
F-5.000000000019609
sg4
F0.0
sg5
F-7.000000000019609
sg6
F-2.000000000019609
sb(dp1912
I00
F32.06
sI01
F27.56
ss(i__main__
State
p1913
(dp1914
g3
F-4.000000000019756
sg4
F5.0
sg5
F6.999999999980244
sg6
F7.999999999980244
sb(dp1915
I00
I33
sI01
F37.5
ss(i__main__
State
p1916
(dp1917
g3
F-1.0000000000194829
sg4
F2.0
sg5
F6.999999999980517
sg6
F-4.000000000019483
sb(dp1918
I00
I-74
sI01
F33.64
ss(i__main__
State
p1919
(dp1920
g3
F0.9999999999803348
sg4
F1.0
sg5
F-3.000000000019665
sg6
F-1.0000000000196652
sb(dp1921
I00
I-75
sI01
F-16.66
ss(i__main__
State
p1922
(dp1923
g3
F4.999999999980305
sg4
F5.0
sg5
F2.999999999980304
sg6
F-8.000000000019696
sb(dp1924
I00
F29.058020000000003
sI01
F71.18
ss(i__main__
State
p1925
(dp1926
g3
F-3.0000000000197002
sg4
F0.0
sg5
F7.999999999980299
sg6
F-2.0000000000197002
sb(dp1927
I00
I-87
sI01
F-33.76
ss(i__main__
State
p1928
(dp1929
g3
F6.999999999980153
sg4
F6.0
sg5
F2.999999999980153
sg6
F5.999999999980153
sb(dp1930
I00
I79
sI01
F79.52
ss(i__main__
State
p1931
(dp1932
g3
F-2.0000000000197335
sg4
F3.0
sg5
F-5.0000000000197335
sg6
F0.9999999999802665
sb(dp1933
I00
I-90
sI01
F-76.44
ss(i__main__
State
p1934
(dp1935
g3
F-5.0000000000195195
sg4
F6.0
sg5
F-8.00000000001952
sg6
F-4.0000000000195195
sb(dp1936
I00
I-41
sI01
F-68.88
ss(i__main__
State
p1937
(dp1938
g3
F2.999999999980157
sg4
F9.0
sg5
F3.999999999980157
sg6
F2.999999999980157
sb(dp1939
I00
F-23.604915494504
sI01
F-3.44
ss(i__main__
State
p1940
(dp1941
g3
F7.999999999980488
sg4
F4.0
sg5
F3.0
sg6
F7.999999999980487
sb(dp1942
I00
I-19
sI01
F-56.379999999999995
ss(i__main__
State
p1943
(dp1944
g3
F5.0
sg4
F1.0
sg5
F-1.0000000000198355
sg6
F2.9999999999801648
sb(dp1945
I00
I-44
sI01
F57.5
ss(i__main__
State
p1946
(dp1947
g3
F-1.9457964741938507e-11
sg4
F3.0
sg5
F-5.000000000019458
sg6
F-2.000000000019458
sb(dp1948
I00
I68
sI01
F19.38
ss(i__main__
State
p1949
(dp1950
g3
F2.999999999980367
sg4
F5.0
sg5
F-3.000000000019633
sg6
F-1.963307695193718e-11
sb(dp1951
I00
F56.75293999999998
sI01
F-61.54
ss(i__main__
State
p1952
(dp1953
g3
F-1.9676475924122698e-11
sg4
F0.0
sg5
F-3.0000000000196767
sg6
F-3.0000000000196767
sb(dp1954
I00
F9.060871865974198
sI01
F56.1
ss(i__main__
State
p1955
(dp1956
g3
F-8.0
sg4
F9.0
sg5
F2.9999999999803095
sg6
F3.9999999999803095
sb(dp1957
I00
F2.08
sI01
F2.08
ss(i__main__
State
p1958
(dp1959
g3
F-6.000000000019616
sg4
F3.0
sg5
F-7.000000000019616
sg6
F-2.000000000019616
sb(dp1960
I00
F5.544280000000002
sI01
F23.32
ss(i__main__
State
p1961
(dp1962
g3
F-1.0000000000195008
sg4
F7.0
sg5
F-7.000000000019501
sg6
F-2.000000000019501
sb(dp1963
I00
I-81
sI01
F84.75999999999999
ss(i__main__
State
p1964
(dp1965
g3
F2.999999999980366
sg4
F9.0
sg5
F-1.9634058490287838e-11
sg6
F2.999999999980366
sb(dp1966
I00
F0.0
sI01
F0.04000000000000001
ss(i__main__
State
p1967
(dp1968
g3
F4.999999999980655
sg4
F3.0
sg5
F-1.0
sg6
F2.999999999980654
sb(dp1969
I00
I-97
sI01
F62.8
ss(i__main__
State
p1970
(dp1971
g3
F7.999999999980388
sg4
F4.0
sg5
F4.999999999980388
sg6
F6.999999999980388
sb(dp1972
I00
F5.872772484402467
sI01
F-35.8
ss(i__main__
State
p1973
(dp1974
g3
F0.9999999999803016
sg4
F5.0
sg5
F-6.0
sg6
F1.9999999999803015
sb(dp1975
I00
I67
sI01
F-17.62
ss(i__main__
State
p1976
(dp1977
g3
F6.9999999999804
sg4
F2.0
sg5
F1.9999999999804
sg6
F6.9999999999804
sb(dp1978
I00
F-13.96825836
sI01
F32.34
ss(i__main__
State
p1979
(dp1980
g3
F3.999999999980233
sg4
F0.0
sg5
F1.9999999999802334
sg6
F4.999999999980234
sb(dp1981
I00
I6
sI01
F-83.68
ss(i__main__
State
p1982
(dp1983
g3
F-1.0000000000197338
sg4
F5.0
sg5
F-4.0000000000197335
sg6
F-1.97337889168813e-11
sb(dp1984
I00
F61.858075
sI01
F13.0
ss(i__main__
State
p1985
(dp1986
g3
F0.9999999999804292
sg4
F5.0
sg5
F0.9999999999804292
sg6
F3.9999999999804294
sb(dp1987
I00
I31
sI01
F24.2
ss(i__main__
State
p1988
(dp1989
g3
F-5.000000000019542
sg4
F8.0
sg5
F7.999999999980458
sg6
F-5.000000000019542
sb(dp1990
I00
F66.37111509120734
sI01
F44.2
ss(i__main__
State
p1991
(dp1992
g3
F3.9999999999803957
sg4
F7.0
sg5
F-4.0
sg6
F1.999999999980396
sb(dp1993
I00
F4.559999999999999
sI01
F1.8599999999999994
ss(i__main__
State
p1994
(dp1995
g3
F-4.000000000019716
sg4
F8.0
sg5
F-3.000000000019716
sg6
F-4.000000000019716
sb(dp1996
I00
F73.9
sI01
F82.0
ss(i__main__
State
p1997
(dp1998
g3
F-6.000000000019582
sg4
F1.0
sg5
F-7.000000000019582
sg6
F-4.000000000019582
sb(dp1999
I00
I-34
sI01
F-6.4
ss(i__main__
State
p2000
(dp2001
g3
F-8.00000000001972
sg4
F6.0
sg5
F3.9999999999802807
sg6
F6.999999999980281
sb(dp2002
I00
I9
sI01
F-8.66
ss(i__main__
State
p2003
(dp2004
g3
F1.9999999999803075
sg4
F6.0
sg5
F-1.9692586562017293e-11
sg6
F0.9999999999803074
sb(dp2005
I00
I3
sI01
F-81.48
ss(i__main__
State
p2006
(dp2007
g3
F7.999999999980221
sg4
F7.0
sg5
F6.999999999980221
sg6
F7.999999999980221
sb(dp2008
I00
F-49.583999999999996
sI01
F-46.56
ss(i__main__
State
p2009
(dp2010
g3
F-8.000000000019627
sg4
F6.0
sg5
F3.9999999999803726
sg6
F-6.000000000019627
sb(dp2011
I00
F16.622417134400003
sI01
F23.54
ss(i__main__
State
p2012
(dp2013
g3
F-2.0000000000195186
sg4
F4.0
sg5
F-4.000000000019519
sg6
F-2.0000000000195186
sb(dp2014
I00
I44
sI01
F31.08
ss(i__main__
State
p2015
(dp2016
g3
F-7.000000000019607
sg4
F5.0
sg5
F7.999999999980393
sg6
F-6.000000000019607
sb(dp2017
I00
F-5.9667254000000005
sI01
F37.54
ss(i__main__
State
p2018
(dp2019
g3
F6.999999999980434
sg4
F8.0
sg5
F1.9999999999804343
sg6
F5.999999999980434
sb(dp2020
I00
F53.68155601711601
sI01
F-19.7
ss(i__main__
State
p2021
(dp2022
g3
F-5.000000000019826
sg4
F8.0
sg5
F7.999999999980174
sg6
F-7.000000000019826
sb(dp2023
I00
F61.64537158900001
sI01
F-31.4
ss(i__main__
State
p2024
(dp2025
g3
F-3.0000000000197606
sg4
F2.0
sg5
F-1.0000000000197609
sg6
F-1.0000000000197609
sb(dp2026
I00
I-38
sI01
F-29.14
ss(i__main__
State
p2027
(dp2028
g3
F-1.0000000000196658
sg4
F6.0
sg5
F-5.000000000019666
sg6
F-2.000000000019666
sb(dp2029
I00
F7.786372628918394
sI01
F-60.26
ss(i__main__
State
p2030
(dp2031
g3
F-5.000000000019356
sg4
F1.0
sg5
F6.999999999980643
sg6
F-8.000000000019357
sb(dp2032
I00
I14
sI01
F-25.42
ss(i__main__
State
p2033
(dp2034
g3
F-6.000000000019824
sg4
F5.0
sg5
F1.9999999999801763
sg6
F-7.000000000019824
sb(dp2035
I00
I92
sI01
F-83.3
ss(i__main__
State
p2036
(dp2037
g3
F1.9999999999804665
sg4
F9.0
sg5
F-2.0000000000195337
sg6
F-3.0000000000195337
sb(dp2038
I00
F0.0
sI01
F1.7600000000000002
ss(i__main__
State
p2039
(dp2040
g3
F1.999999999980286
sg4
F3.0
sg5
F-1.000000000019714
sg6
F2.999999999980286
sb(dp2041
I00
F8.68
sI01
F-72.32
ss(i__main__
State
p2042
(dp2043
g3
F5.999999999980357
sg4
F0.0
sg5
F3.999999999980357
sg6
F6.999999999980357
sb(dp2044
I00
I94
sI01
F79.52
ss(i__main__
State
p2045
(dp2046
g3
F4.999999999980506
sg4
F6.0
sg5
F4.999999999980506
sg6
F4.999999999980506
sb(dp2047
I00
F17.842660661895998
sI01
F62.26
ss(i__main__
State
p2048
(dp2049
g3
F-7.000000000019739
sg4
F7.0
sg5
F6.999999999980261
sg6
F-7.000000000019739
sb(dp2050
I00
I74
sI01
F60.64
ss(i__main__
State
p2051
(dp2052
g3
F2.99999999998042
sg4
F5.0
sg5
F-1.0000000000195801
sg6
F1.9999999999804199
sb(dp2053
I00
F5.537464178000002
sI01
F49.82
ss(i__main__
State
p2054
(dp2055
g3
F-2.0000000000196922
sg4
F5.0
sg5
F-5.000000000019692
sg6
F-2.0000000000196922
sb(dp2056
I00
F76.368
sI01
F68.52
ss(i__main__
State
p2057
(dp2058
g3
F-2.000000000019594
sg4
F0.0
sg5
F6.999999999980406
sg6
F-2.0000000000195945
sb(dp2059
I00
I19
sI01
F53.02
ss(i__main__
State
p2060
(dp2061
g3
F-1.000000000019708
sg4
F5.0
sg5
F-6.000000000019708
sg6
F-2.0
sb(dp2062
I00
F5.489609600000001
sI01
F-35.26
ss(i__main__
State
p2063
(dp2064
g3
F1.9999999999801894
sg4
F3.0
sg5
F-4.000000000019811
sg6
F0.9999999999801895
sb(dp2065
I00
F-88.32
sI01
F-28.92
ss(i__main__
State
p2066
(dp2067
g3
F-8.000000000019822
sg4
F1.0
sg5
F2.999999999980177
sg6
F7.999999999980177
sb(dp2068
I00
F10.991443200000003
sI01
F85.38
ss(i__main__
State
p2069
(dp2070
g3
F5.99999999998032
sg4
F9.0
sg5
F-3.0000000000196807
sg6
F4.0
sb(dp2071
I00
F0.0
sI01
F2.3200000000000003
ss(i__main__
State
p2072
(dp2073
g3
F-6.0000000000195355
sg4
F7.0
sg5
F1.999999999980464
sg6
F-8.000000000019536
sb(dp2074
I00
F25.4744
sI01
F71.54
ss(i__main__
State
p2075
(dp2076
g3
F1.9999999999802445
sg4
F6.0
sg5
F1.9999999999802445
sg6
F4.999999999980244
sb(dp2077
I00
F16.7534036789526
sI01
F16.74
ss(i__main__
State
p2078
(dp2079
g3
F-3.000000000019579
sg4
F1.0
sg5
F-7.000000000019579
sg6
F-5.000000000019579
sb(dp2080
I00
F-23.222003200000003
sI01
F12.8
ss(i__main__
State
p2081
(dp2082
g3
F-3.0000000000196057
sg4
F1.0
sg5
F4.999999999980394
sg6
F-6.000000000019606
sb(dp2083
I00
I-95
sI01
F-21.98
ss(i__main__
State
p2084
(dp2085
g3
F-1.9549471541929512e-11
sg4
F0.0
sg5
F-2.0000000000195497
sg6
F2.9999999999804503
sb(dp2086
I00
F40.830371925636
sI01
F-5.64
ss(i__main__
State
p2087
(dp2088
g3
F0.9999999999802267
sg4
F8.0
sg5
F-1.0000000000197733
sg6
F0.9999999999802267
sb(dp2089
I00
F96.0634
sI01
F5.5
ss(i__main__
State
p2090
(dp2091
g3
F-8.000000000019474
sg4
F8.0
sg5
F6.999999999980526
sg6
F-2.000000000019474
sb(dp2092
I00
F37.58225455
sI01
F10.0
ss(i__main__
State
p2093
(dp2094
g3
F-2.000000000019746
sg4
F1.0
sg5
F-5.000000000019746
sg6
F-2.000000000019746
sb(dp2095
I00
I6
sI01
F-72.06
ss(i__main__
State
p2096
(dp2097
g3
F7.999999999980204
sg4
F5.0
sg5
F2.999999999980204
sg6
F6.999999999980204
sb(dp2098
I00
F14.504291537799887
sI01
F-17.02
ss(i__main__
State
p2099
(dp2100
g3
F7.99999999998019
sg4
F2.0
sg5
F3.99999999998019
sg6
F7.99999999998019
sb(dp2101
I00
I1
sI01
F-64.36
ss(i__main__
State
p2102
(dp2103
g3
F1.9999999999803366
sg4
F9.0
sg5
F-4.000000000019663
sg6
F-1.966338671689444e-11
sb(dp2104
I00
F13.476749242
sI01
F2.2
ss(i__main__
State
p2105
(dp2106
g3
F3.99999999998055
sg4
F4.0
sg5
F4.99999999998055
sg6
F4.99999999998055
sb(dp2107
I00
I12
sI01
F-45.36
ss(i__main__
State
p2108
(dp2109
g3
F-6.000000000019635
sg4
F3.0
sg5
F5.999999999980365
sg6
F-6.000000000019635
sb(dp2110
I00
I57
sI01
F49.1
ss(i__main__
State
p2111
(dp2112
g3
F-2.0000000000197464
sg4
F3.0
sg5
F2.9999999999802536
sg6
F7.999999999980253
sb(dp2113
I00
I-22
sI01
F-31.759999999999998
ss(i__main__
State
p2114
(dp2115
g3
F-3.0000000000196168
sg4
F7.0
sg5
F-5.000000000019617
sg6
F-1.000000000019617
sb(dp2116
I00
I58
sI01
F-79.82
ss(i__main__
State
p2117
(dp2118
g3
F-2.000000000019841
sg4
F5.0
sg5
F-4.000000000019841
sg6
F1.0
sb(dp2119
I00
I64
sI01
F-34.66
ss(i__main__
State
p2120
(dp2121
g3
F2.9999999999805187
sg4
F0.0
sg5
F-1.0000000000194813
sg6
F1.9999999999805187
sb(dp2122
I00
I73
sI01
F34.36
ss(i__main__
State
p2123
(dp2124
g3
F7.9999999999801545
sg4
F6.0
sg5
F-2.000000000019845
sg6
F1.9999999999801548
sb(dp2125
I00
I-46
sI01
F90.62
ss(i__main__
State
p2126
(dp2127
g3
F1.9999999999801892
sg4
F5.0
sg5
F-6.000000000019811
sg6
F-2.000000000019811
sb(dp2128
I00
I12
sI01
F-17.86
ss(i__main__
State
p2129
(dp2130
g3
F0.9999999999801915
sg4
F7.0
sg5
F-4.000000000019808
sg6
F-2.0000000000198086
sb(dp2131
I00
F61.04502199999999
sI01
F72.92
ss(i__main__
State
p2132
(dp2133
g3
F-1.0000000000194214
sg4
F2.0
sg5
F-7.000000000019422
sg6
F-4.000000000019422
sb(dp2134
I00
I-46
sI01
F69.8
ss(i__main__
State
p2135
(dp2136
g3
F-1.0000000000197382
sg4
F2.0
sg5
F-3.0000000000197384
sg6
F-2.0000000000197384
sb(dp2137
I00
I-84
sI01
F68.52
ss(i__main__
State
p2138
(dp2139
g3
F2.999999999980278
sg4
F7.0
sg5
F2.999999999980278
sg6
F4.999999999980278
sb(dp2140
I00
F32.806000000000004
sI01
F-14.66
ss(i__main__
State
p2141
(dp2142
g3
F-6.000000000019755
sg4
F1.0
sg5
F7.999999999980245
sg6
F-6.000000000019755
sb(dp2143
I00
F51.87
sI01
F22.8
ss(i__main__
State
p2144
(dp2145
g3
F7.999999999980291
sg4
F8.0
sg5
F0.9999999999802909
sg6
F-8.000000000019709
sb(dp2146
I00
F10.836010000000007
sI01
F-62.9
ss(i__main__
State
p2147
(dp2148
g3
F1.9999999999803912
sg4
F9.0
sg5
F-3.0000000000196088
sg6
F0.9999999999803914
sb(dp2149
I00
F12.883269796923784
sI01
F1.4000000000000001
ss(i__main__
State
p2150
(dp2151
g3
F-4.000000000019709
sg4
F6.0
sg5
F1.9999999999802918
sg6
F7.999999999980291
sb(dp2152
I00
I86
sI01
F-37.14
ss(i__main__
State
p2153
(dp2154
g3
F4.999999999980189
sg4
F6.0
sg5
F3.999999999980189
sg6
F4.999999999980189
sb(dp2155
I00
I-98
sI01
F-16.62
ss(i__main__
State
p2156
(dp2157
g3
F0.9999999999803499
sg4
F7.0
sg5
F-3.00000000001965
sg6
F2.99999999998035
sb(dp2158
I00
F58.97234
sI01
F-19.6
ss(i__main__
State
p2159
(dp2160
g3
F4.9999999999805125
sg4
F9.0
sg5
F-1.0000000000194873
sg6
F2.999999999980513
sb(dp2161
I00
F0.0
sI01
F2.3600000000000003
ss(i__main__
State
p2162
(dp2163
g3
F-5.000000000019629
sg4
F0.0
sg5
F7.999999999980371
sg6
F-7.000000000019629
sb(dp2164
I00
F17.321556496373447
sI01
F78.3
ss(i__main__
State
p2165
(dp2166
g3
F-8.000000000019588
sg4
F0.0
sg5
F2.9999999999804117
sg6
F-6.000000000019589
sb(dp2167
I00
I-5
sI01
F-73.94
ss(i__main__
State
p2168
(dp2169
g3
F-5.0
sg4
F5.0
sg5
F2.0
sg6
F-5.000000000019483
sb(dp2170
I00
F1.9190512600000011
sI01
F-69.14
ss(i__main__
State
p2171
(dp2172
g3
F-6.00000000001965
sg4
F8.0
sg5
F4.99999999998035
sg6
F-6.00000000001965
sb(dp2173
I00
F96.01167784615637
sI01
F-48.5
ss(i__main__
State
p2174
(dp2175
g3
F0.9999999999802412
sg4
F8.0
sg5
F-6.000000000019758
sg6
F-1.0000000000197586
sb(dp2176
I00
F91.14265
sI01
F8.200000000000001
ss(i__main__
State
p2177
(dp2178
g3
F0.0
sg4
F0.0
sg5
F0.0
sg6
F0.0
sb(dp2179
I00
F84.6
sI01
F62.26
ss(i__main__
State
p2180
(dp2181
g3
F3.999999999980215
sg4
F3.0
sg5
F2.999999999980215
sg6
F6.999999999980215
sb(dp2182
I00
F37.767920000000004
sI01
F-27.22
ss(i__main__
State
p2183
(dp2184
g3
F-3.0000000000198037
sg4
F7.0
sg5
F6.999999999980196
sg6
F-5.000000000019804
sb(dp2185
I00
I-93
sI01
F36.24
ss(i__main__
State
p2186
(dp2187
g3
F-1.0000000000197307
sg4
F2.0
sg5
F7.999999999980269
sg6
F-1.0000000000197309
sb(dp2188
I00
I-49
sI01
F2.12
ss(i__main__
State
p2189
(dp2190
g3
F3.999999999980515
sg4
F6.0
sg5
F-1.000000000019485
sg6
F2.999999999980515
sb(dp2191
I00
F63.6373768
sI01
F-24.08
ss(i__main__
State
p2192
(dp2193
g3
F7.999999999980317
sg4
F5.0
sg5
F2.999999999980317
sg6
F7.999999999980317
sb(dp2194
I00
F25.38
sI01
F61.379999999999995
ss(i__main__
State
p2195
(dp2196
g3
F-5.000000000019566
sg4
F9.0
sg5
F-7.000000000019566
sg6
F-4.000000000019566
sb(dp2197
I00
F0.0
sI01
F-1.8
ss(i__main__
State
p2198
(dp2199
g3
F-2.0000000000194924
sg4
F3.0
sg5
F-2.0000000000194924
sg6
F-1.9492397801070152e-11
sb(dp2200
I00
F25.634062000000004
sI01
F88.12
ss(i__main__
State
p2201
(dp2202
g3
F-1.945492214139933e-11
sg4
F1.0
sg5
F-8.000000000019455
sg6
F-3.000000000019455
sb(dp2203
I00
I66
sI01
F59.16
ss(i__main__
State
p2204
(dp2205
g3
F-2.00000000001964
sg4
F1.0
sg5
F-5.00000000001964
sg6
F-2.00000000001964
sb(dp2206
I00
F6.84
sI01
F25.2
ss(i__main__
State
p2207
(dp2208
g3
F-1.000000000019586
sg4
F4.0
sg5
F-5.000000000019586
sg6
F-1.000000000019586
sb(dp2209
I00
I-85
sI01
F21.24
ss(i__main__
State
p2210
(dp2211
g3
F6.999999999980579
sg4
F1.0
sg5
F-1.9420753869441397e-11
sg6
F4.999999999980579
sb(dp2212
I00
F51.56
sI01
F48.86
ss(i__main__
State
p2213
(dp2214
g3
F-1.978848195138323e-11
sg4
F1.0
sg5
F-7.000000000019789
sg6
F-1.0000000000197884
sb(dp2215
I00
I68
sI01
F-59.98
ss(i__main__
State
p2216
(dp2217
g3
F-6.000000000019521
sg4
F8.0
sg5
F6.0
sg6
F-7.000000000019521
sb(dp2218
I00
F22.645810000000004
sI01
F-17.0
ss(i__main__
State
p2219
(dp2220
g3
F-5.000000000019568
sg4
F5.0
sg5
F8.0
sg6
F-8.000000000019568
sb(dp2221
I00
F72.648
sI01
F-47.879999999999995
ss(i__main__
State
p2222
(dp2223
g3
F-8.000000000019698
sg4
F7.0
sg5
F-3.000000000019699
sg6
F0.9999999999803013
sb(dp2224
I00
F69.62755599999998
sI01
F-34.64
ss(i__main__
State
p2225
(dp2226
g3
F1.9999999999804654
sg4
F0.0
sg5
F-6.000000000019535
sg6
F0.9999999999804654
sb(dp2227
I00
F-26.3
sI01
F37.6
ss(i__main__
State
p2228
(dp2229
g3
F-4.0000000000197105
sg4
F3.0
sg5
F-8.00000000001971
sg6
F-7.0000000000197105
sb(dp2230
I00
I-22
sI01
F-74.9
ss(i__main__
State
p2231
(dp2232
g3
F7.999999999980495
sg4
F3.0
sg5
F1.999999999980495
sg6
F7.999999999980495
sb(dp2233
I00
F-6.50836
sI01
F47.96
ss(i__main__
State
p2234
(dp2235
g3
F-1.000000000019683
sg4
F6.0
sg5
F-8.000000000019684
sg6
F-3.000000000019683
sb(dp2236
I00
F-11.081999999999999
sI01
F-13.079999999999998
ss(i__main__
State
p2237
(dp2238
g3
F-8.00000000001959
sg4
F4.0
sg5
F4.99999999998041
sg6
F6.99999999998041
sb(dp2239
I00
F40.771697599999996
sI01
F-72.16
ss(i__main__
State
p2240
(dp2241
g3
F-2.000000000019693
sg4
F9.0
sg5
F-8.000000000019693
sg6
F-2.000000000019693
sb(dp2242
I00
F0.0
sI01
F3.44
ss(i__main__
State
p2243
(dp2244
g3
F4.999999999980356
sg4
F1.0
sg5
F-1.0000000000196436
sg6
F3.999999999980356
sb(dp2245
I00
F6.5600000000000005
sI01
F10.16
ss(i__main__
State
p2246
(dp2247
g3
F4.999999999980445
sg4
F2.0
sg5
F0.9999999999804453
sg6
F2.9999999999804454
sb(dp2248
I00
I90
sI01
F-1.06
ss(i__main__
State
p2249
(dp2250
g3
F-6.000000000019575
sg4
F1.0
sg5
F2.9999999999804254
sg6
F-8.0
sb(dp2251
I00
I60
sI01
F87.14
ss(i__main__
State
p2252
(dp2253
g3
F0.9999999999804444
sg4
F4.0
sg5
F-6.000000000019556
sg6
F-2.0000000000195555
sb(dp2254
I00
I19
sI01
F-81.42
ss(i__main__
State
p2255
(dp2256
g3
F-1.000000000019477
sg4
F3.0
sg5
F-8.000000000019478
sg6
F-5.000000000019477
sb(dp2257
I00
I-69
sI01
F84.84
ss(i__main__
State
p2258
(dp2259
g3
F-4.000000000019418
sg4
F7.0
sg5
F7.999999999980582
sg6
F-6.000000000019418
sb(dp2260
I00
I-43
sI01
F-34.8
ss(i__main__
State
p2261
(dp2262
g3
F-3.000000000019653
sg4
F1.0
sg5
F7.999999999980346
sg6
F-5.000000000019654
sb(dp2263
I00
I65
sI01
F-1.7799999999999994
ss(i__main__
State
p2264
(dp2265
g3
F3.9999999999806213
sg4
F0.0
sg5
F-5.000000000019379
sg6
F-1.0000000000193787
sb(dp2266
I00
F50.224000000000004
sI01
F-64.94
ss(i__main__
State
p2267
(dp2268
g3
F6.9999999999804015
sg4
F7.0
sg5
F5.9999999999804015
sg6
F7.9999999999804015
sb(dp2269
I00
F-65.7014812
sI01
F62.12
ss(i__main__
State
p2270
(dp2271
g3
F-4.00000000001962
sg4
F2.0
sg5
F-7.00000000001962
sg6
F-4.00000000001962
sb(dp2272
I00
I8
sI01
F54.16
ss(i__main__
State
p2273
(dp2274
g3
F-1.9700787447599613e-11
sg4
F3.0
sg5
F-1.0
sg6
F3.9999999999802993
sb(dp2275
I00
F48.561789992
sI01
F22.28
ss(i__main__
State
p2276
(dp2277
g3
F-1.974544506128985e-11
sg4
F9.0
sg5
F-6.000000000019745
sg6
F-1.0000000000197455
sb(dp2278
I00
F0.0
sI01
F1.12
ss(i__main__
State
p2279
(dp2280
g3
F-3.000000000019829
sg4
F4.0
sg5
F-6.000000000019829
sg6
F-2.000000000019829
sb(dp2281
I00
F10.302716787688567
sI01
F-88.66
ss(i__main__
State
p2282
(dp2283
g3
F5.999999999980405
sg4
F1.0
sg5
F-1.959461587691696e-11
sg6
F3.9999999999804055
sb(dp2284
I00
F34.322247548652854
sI01
F78.34
ss(i__main__
State
p2285
(dp2286
g3
F-8.000000000019845
sg4
F3.0
sg5
F3.9999999999801554
sg6
F6.999999999980155
sb(dp2287
I00
I28
sI01
F35.18
ss(i__main__
State
p2288
(dp2289
g3
F-7.000000000019771
sg4
F9.0
sg5
F6.999999999980229
sg6
F-6.000000000019771
sb(dp2290
I00
F3.2520000000000002
sI01
F1.2000000000000002
ss(i__main__
State
p2291
(dp2292
g3
F2.9999999999804094
sg4
F6.0
sg5
F-3.0000000000195906
sg6
F4.9999999999804094
sb(dp2293
I00
F33.66716415203011
sI01
F24.7
ss(i__main__
State
p2294
(dp2295
g3
F2.999999999980315
sg4
F6.0
sg5
F-4.000000000019686
sg6
F1.9999999999803149
sb(dp2296
I00
I12
sI01
F-37.92
ss(i__main__
State
p2297
(dp2298
g3
F-1.000000000019757
sg4
F0.0
sg5
F-4.0000000000197575
sg6
F-4.0000000000197575
sb(dp2299
I00
I-7
sI01
F-29.06
ss(i__main__
State
p2300
(dp2301
g3
F-2.0000000000196976
sg4
F0.0
sg5
F-4.000000000019698
sg6
F4.999999999980302
sb(dp2302
I00
I-27
sI01
F15.16
ss(i__main__
State
p2303
(dp2304
g3
F0.0
sg4
F0.0
sg5
F2.99999999998058
sg6
F-3.00000000001942
sb(dp2305
I00
F-61.74
sI01
F73.26
ss(i__main__
State
p2306
(dp2307
g3
F3.999999999980514
sg4
F7.0
sg5
F-1.0000000000194862
sg6
F6.999999999980514
sb(dp2308
I00
I73
sI01
F-57.58
ss(i__main__
State
p2309
(dp2310
g3
F-1.000000000019847
sg4
F7.0
sg5
F6.999999999980153
sg6
F-6.000000000019847
sb(dp2311
I00
F-41.704215999999995
sI01
F89.84
ss(i__main__
State
p2312
(dp2313
g3
F-7.000000000019684
sg4
F8.0
sg5
F4.999999999980316
sg6
F7.999999999980316
sb(dp2314
I00
I7
sI01
F34.3
ss(i__main__
State
p2315
(dp2316
g3
F7.999999999980546
sg4
F9.0
sg5
F6.999999999980546
sg6
F7.999999999980546
sb(dp2317
I00
F0.0
sI01
F-0.6800000000000002
ss(i__main__
State
p2318
(dp2319
g3
F7.99999999998044
sg4
F7.0
sg5
F5.99999999998044
sg6
F-8.00000000001956
sb(dp2320
I00
F-1.6029833199999963
sI01
F-44.8
ss(i__main__
State
p2321
(dp2322
g3
F-4.000000000019347
sg4
F5.0
sg5
F6.999999999980653
sg6
F-6.000000000019347
sb(dp2323
I00
F-10.512835199999996
sI01
F-15.48
ss(i__main__
State
p2324
(dp2325
g3
F5.99999999998041
sg4
F2.0
sg5
F7.99999999998041
sg6
F-1.0000000000195892
sb(dp2326
I00
I17
sI01
F85.86
ss(i__main__
State
p2327
(dp2328
g3
F-7.000000000019685
sg4
F4.0
sg5
F7.999999999980315
sg6
F-6.000000000019685
sb(dp2329
I00
I-69
sI01
F80.06
ss(i__main__
State
p2330
(dp2331
g3
F-5.000000000019696
sg4
F7.0
sg5
F-8.000000000019696
sg6
F-2.0000000000196962
sb(dp2332
I00
F57.71869937419999
sI01
F15.620000000000001
ss(i__main__
State
p2333
(dp2334
g3
F0.9999999999803657
sg4
F1.0
sg5
F-4.000000000019634
sg6
F0.9999999999803657
sb(dp2335
I00
F-52.721239999999995
sI01
F14.44
ss(i__main__
State
p2336
(dp2337
g3
F2.9999999999803175
sg4
F4.0
sg5
F5.999999999980318
sg6
F2.9999999999803175
sb(dp2338
I00
I28
sI01
F-19.74
ss(i__main__
State
p2339
(dp2340
g3
F1.9999999999805278
sg4
F1.0
sg5
F-2.000000000019472
sg6
F0.9999999999805279
sb(dp2341
I00
I-72
sI01
F46.7
ss(i__main__
State
p2342
(dp2343
g3
F6.0
sg4
F4.0
sg5
F0.9999999999802563
sg6
F2.9999999999802562
sb(dp2344
I00
F28.25418
sI01
F28.92
ss(i__main__
State
p2345
(dp2346
g3
F2.999999999980249
sg4
F1.0
sg5
F-3.000000000019751
sg6
F2.999999999980249
sb(dp2347
I00
F51.0677716
sI01
F-22.46
ss(i__main__
State
p2348
(dp2349
g3
F-5.000000000019792
sg4
F5.0
sg5
F7.999999999980208
sg6
F-6.000000000019792
sb(dp2350
I00
I-52
sI01
F17.56
ss(i__main__
State
p2351
(dp2352
g3
F5.999999999980524
sg4
F2.0
sg5
F3.9999999999805236
sg6
F4.999999999980523
sb(dp2353
I00
I58
sI01
F-35.84
ss(i__main__
State
p2354
(dp2355
g3
F-8.000000000019556
sg4
F5.0
sg5
F6.999999999980444
sg6
F6.999999999980444
sb(dp2356
I00
F-44.09684
sI01
F13.24
ss(i__main__
State
p2357
(dp2358
g3
F-7.000000000019722
sg4
F6.0
sg5
F6.999999999980278
sg6
F6.999999999980278
sb(dp2359
I00
F8.6016
sI01
F7.86
ss(i__main__
State
p2360
(dp2361
g3
F-6.000000000019471
sg4
F8.0
sg5
F6.999999999980529
sg6
F-5.000000000019471
sb(dp2362
I00
F41.49950616100001
sI01
F4.600000000000001
ss(i__main__
State
p2363
(dp2364
g3
F0.9999999999803152
sg4
F3.0
sg5
F-4.000000000019685
sg6
F-1.000000000019685
sb(dp2365
I00
I-34
sI01
F71.8
ss(i__main__
State
p2366
(dp2367
g3
F-4.00000000001962
sg4
F4.0
sg5
F-6.00000000001962
sg6
F-4.00000000001962
sb(dp2368
I00
I43
sI01
F49.6
ss(i__main__
State
p2369
(dp2370
g3
F-6.000000000019603
sg4
F2.0
sg5
F-8.000000000019602
sg6
F-6.000000000019603
sb(dp2371
I00
F-6.742048899999998
sI01
F-17.5
ss(i__main__
State
p2372
(dp2373
g3
F5.999999999980328
sg4
F3.0
sg5
F-1.9672434664903387e-11
sg6
F4.999999999980328
sb(dp2374
I00
F8.397455648000003
sI01
F71.6
ss(i__main__
State
p2375
(dp2376
g3
F-6.00000000001972
sg4
F1.0
sg5
F2.9999999999802793
sg6
F-7.000000000019721
sb(dp2377
I00
I-15
sI01
F83.84
ss(i__main__
State
p2378
(dp2379
g3
F5.999999999980247
sg4
F9.0
sg5
F6.999999999980247
sg6
F7.0
sb(dp2380
I00
F26.624148871708
sI01
F3.880000000000001
ss(i__main__
State
p2381
(dp2382
g3
F-4.0000000000195035
sg4
F2.0
sg5
F7.9999999999804965
sg6
F-4.0000000000195035
sb(dp2383
I00
I48
sI01
F-68.12
ss(i__main__
State
p2384
(dp2385
g3
F-8.000000000019492
sg4
F9.0
sg5
F7.999999999980508
sg6
F6.999999999980508
sb(dp2386
I00
F0.0
sI01
F-2.5200000000000005
ss(i__main__
State
p2387
(dp2388
g3
F-7.000000000019742
sg4
F8.0
sg5
F-3.0000000000197424
sg6
F-6.000000000019742
sb(dp2389
I00
I9
sI01
F-68.3
ss(i__main__
State
p2390
(dp2391
g3
F2.9999999999802744
sg4
F0.0
sg5
F1.9999999999802744
sg6
F0.9999999999802744
sb(dp2392
I00
F23.307075600000005
sI01
F-18.66
ss(i__main__
State
p2393
(dp2394
g3
F-4.000000000019828
sg4
F2.0
sg5
F-8.000000000019828
sg6
F-4.000000000019828
sb(dp2395
I00
F73.6588
sI01
F-83.42
ss(i__main__
State
p2396
(dp2397
g3
F7.999999999980279
sg4
F5.0
sg5
F5.999999999980279
sg6
F-7.000000000019721
sb(dp2398
I00
I-1
sI01
F-71.72
ss(i__main__
State
p2399
(dp2400
g3
F-5.0000000000196705
sg4
F1.0
sg5
F-4.0000000000196705
sg6
F6.9999999999803295
sb(dp2401
I00
F-3.3
sI01
F-51.0
ss(i__main__
State
p2402
(dp2403
g3
F2.999999999980188
sg4
F1.0
sg5
F-3.000000000019812
sg6
F1.9999999999801876
sb(dp2404
I00
I-48
sI01
F-16.34
ss(i__main__
State
p2405
(dp2406
g3
F6.999999999980504
sg4
F9.0
sg5
F-3.000000000019496
sg6
F3.0
sb(dp2407
I00
F0.542
sI01
F0.2
ss(i__main__
State
p2408
(dp2409
g3
F6.999999999980256
sg4
F5.0
sg5
F1.999999999980256
sg6
F5.999999999980256
sb(dp2410
I00
F16.697814
sI01
F-66.0
ss(i__main__
State
p2411
(dp2412
g3
F3.9999999999803597
sg4
F4.0
sg5
F2.9999999999803597
sg6
F4.99999999998036
sb(dp2413
I00
F36.937118
sI01
F0.20000000000000018
ss(i__main__
State
p2414
(dp2415
g3
F6.999999999980351
sg4
F2.0
sg5
F0.9999999999803509
sg6
F6.999999999980351
sb(dp2416
I00
F-50.7536
sI01
F-55.16
ss(i__main__
State
p2417
(dp2418
g3
F-1.964194810917049e-11
sg4
F7.0
sg5
F-6.000000000019642
sg6
F-1.000000000019642
sb(dp2419
I00
I-60
sI01
F-58.7
ss(i__main__
State
p2420
(dp2421
g3
F-6.000000000019845
sg4
F5.0
sg5
F-8.000000000019845
sg6
F-4.000000000019845
sb(dp2422
I00
I-46
sI01
F-52.82
ss(i__main__
State
p2423
(dp2424
g3
F-7.000000000019742
sg4
F7.0
sg5
F-7.000000000019742
sg6
F-5.000000000019742
sb(dp2425
I00
F-32.817525966
sI01
F-81.54
ss(i__main__
State
p2426
(dp2427
g3
F-1.954111503174545e-11
sg4
F7.0
sg5
F-2.0000000000195413
sg6
F0.9999999999804589
sb(dp2428
I00
I-66
sI01
F56.42
ss(i__main__
State
p2429
(dp2430
g3
F-8.000000000019643
sg4
F9.0
sg5
F0.9999999999803575
sg6
F5.999999999980358
sb(dp2431
I00
F17.6178184
sI01
F3.7600000000000002
ss(i__main__
State
p2432
(dp2433
g3
F2.9999999999802625
sg4
F1.0
sg5
F-1.9737428867702416e-11
sg6
F4.999999999980263
sb(dp2434
I00
I-38
sI01
F-39.42
ss(i__main__
State
p2435
(dp2436
g3
F-3.0000000000198415
sg4
F7.0
sg5
F7.999999999980158
sg6
F-6.000000000019841
sb(dp2437
I00
I80
sI01
F-65.44
ss(i__main__
State
p2438
(dp2439
g3
F-4.000000000019472
sg4
F4.0
sg5
F6.999999999980528
sg6
F-6.000000000019472
sb(dp2440
I00
F67.736
sI01
F-83.86
ss(i__main__
State
p2441
(dp2442
g3
F5.9999999999802425
sg4
F3.0
sg5
F4.9999999999802425
sg6
F-8.000000000019758
sb(dp2443
I00
I93
sI01
F38.5
ss(i__main__
State
p2444
(dp2445
g3
F-2.00000000001951
sg4
F8.0
sg5
F-6.00000000001951
sg6
F-3.00000000001951
sb(dp2446
I00
F68.653
sI01
F-53.0
ss(i__main__
State
p2447
(dp2448
g3
F-4.000000000019531
sg4
F4.0
sg5
F6.999999999980469
sg6
F-6.000000000019531
sb(dp2449
I00
F67.86
sI01
F40.86
ss(i__main__
State
p2450
(dp2451
g3
F-1.972102752090807e-11
sg4
F3.0
sg5
F6.999999999980279
sg6
F-4.000000000019721
sb(dp2452
I00
I-63
sI01
F33.76
ss(i__main__
State
p2453
(dp2454
g3
F2.9999999999805116
sg4
F2.0
sg5
F-3.0000000000194884
sg6
F0.9999999999805116
sb(dp2455
I00
F19.311963101096485
sI01
F67.58
ss(i__main__
State
p2456
(dp2457
g3
F6.999999999980184
sg4
F0.0
sg5
F2.9999999999801843
sg6
F5.999999999980184
sb(dp2458
I00
I-37
sI01
F15.46
ss(i__main__
State
p2459
(dp2460
g3
F-5.000000000019821
sg4
F9.0
sg5
F-8.00000000001982
sg6
F-6.000000000019821
sb(dp2461
I00
F2.4217615190515627
sI01
F0.28
ss(i__main__
State
p2462
(dp2463
g3
F7.999999999980524
sg4
F1.0
sg5
F0.9999999999805239
sg6
F7.999999999980524
sb(dp2464
I00
F14.306200000000002
sI01
F74.32
ss(i__main__
State
p2465
(dp2466
g3
F7.99999999998042
sg4
F3.0
sg5
F6.99999999998042
sg6
F-7.00000000001958
sb(dp2467
I00
I-48
sI01
F89.14
ss(i__main__
State
p2468
(dp2469
g3
F0.999999999980552
sg4
F0.0
sg5
F-2.000000000019448
sg6
F0.9999999999805519
sb(dp2470
I00
I22
sI01
F76.74
ss(i__main__
State
p2471
(dp2472
g3
F-8.00000000001969
sg4
F3.0
sg5
F-2.0000000000196883
sg6
F2.9999999999803117
sb(dp2473
I00
F-78.84
sI01
F14.76
ss(i__main__
State
p2474
(dp2475
g3
F-8.000000000019815
sg4
F7.0
sg5
F0.9999999999801853
sg6
F6.999999999980186
sb(dp2476
I00
I82
sI01
F33.6
ss(i__main__
State
p2477
(dp2478
g3
F-2.0000000000195683
sg4
F4.0
sg5
F-3.0000000000195683
sg6
F-1.0000000000195681
sb(dp2479
I00
F-10.143799999999999
sI01
F-77.48
ss(i__main__
State
p2480
(dp2481
g3
F-4.000000000019703
sg4
F8.0
sg5
F-2.0000000000197034
sg6
F-2.0000000000197034
sb(dp2482
I00
F39.6388
sI01
F-1.6999999999999993
ss(i__main__
State
p2483
(dp2484
g3
F6.999999999980308
sg4
F3.0
sg5
F1.9999999999803084
sg6
F5.999999999980308
sb(dp2485
I00
I67
sI01
F-10.46
ss(i__main__
State
p2486
(dp2487
g3
F-5.000000000019478
sg4
F5.0
sg5
F-8.000000000019478
sg6
F-5.000000000019478
sb(dp2488
I00
I59
sI01
F-34.26
ss(i__main__
State
p2489
(dp2490
g3
F-2.000000000019691
sg4
F0.0
sg5
F-7.000000000019691
sg6
F-4.000000000019691
sb(dp2491
I00
F46.376
sI01
F-78.75999999999999
ss(i__main__
State
p2492
(dp2493
g3
F0.9999999999805228
sg4
F4.0
sg5
F-3.0000000000194773
sg6
F0.9999999999805228
sb(dp2494
I00
F14.160715157988724
sI01
F7.76
ss(i__main__
State
p2495
(dp2496
g3
F5.999999999980447
sg4
F7.0
sg5
F0.9999999999804463
sg6
F4.999999999980447
sb(dp2497
I00
I96
sI01
F27.64
ss(i__main__
State
p2498
(dp2499
g3
F-6.0000000000196385
sg4
F0.0
sg5
F-7.0000000000196385
sg6
F-5.0000000000196385
sb(dp2500
I00
I48
sI01
F18.06
ss(i__main__
State
p2501
(dp2502
g3
F-1.96151732111109e-11
sg4
F8.0
sg5
F-5.0
sg6
F-3.000000000019615
sb(dp2503
I00
F54.073
sI01
F90.1
ss(i__main__
State
p2504
(dp2505
g3
F6.999999999980183
sg4
F8.0
sg5
F4.999999999980183
sg6
F7.999999999980183
sb(dp2506
I00
F-3.5179999999999954
sI01
F-29.6
ss(i__main__
State
p2507
(dp2508
g3
F6.999999999980461
sg4
F2.0
sg5
F-1.9539378942682185e-11
sg6
F2.9999999999804605
sb(dp2509
I00
F-20.738423
sI01
F-4.7
ss(i__main__
State
p2510
(dp2511
g3
F-7.000000000019768
sg4
F6.0
sg5
F2.9999999999802314
sg6
F5.999999999980231
sb(dp2512
I00
F28.763062168000005
sI01
F15.52
ss(i__main__
State
p2513
(dp2514
g3
F2.999999999980411
sg4
F3.0
sg5
F-1.0000000000195894
sg6
F0.9999999999804106
sb(dp2515
I00
F-32.0924
sI01
F52.36
ss(i__main__
State
p2516
(dp2517
g3
F4.999999999980286
sg4
F2.0
sg5
F1.9999999999802864
sg6
F5.999999999980286
sb(dp2518
I00
F-4.721309400000001
sI01
F-89.75999999999999
ss(i__main__
State
p2519
(dp2520
g3
F-5.000000000019459
sg4
F6.0
sg5
F5.999999999980541
sg6
F-6.000000000019459
sb(dp2521
I00
I-74
sI01
F13.2
ss(i__main__
State
p2522
(dp2523
g3
F-2.0000000000198486
sg4
F6.0
sg5
F6.999999999980151
sg6
F-2.0000000000198486
sb(dp2524
I00
I-40
sI01
F66.28
ss(i__main__
State
p2525
(dp2526
g3
F-5.0000000000196945
sg4
F2.0
sg5
F6.9999999999803055
sg6
F-4.0000000000196945
sb(dp2527
I00
F22.18
sI01
F-58.82
ss(i__main__
State
p2528
(dp2529
g3
F-7.000000000019774
sg4
F9.0
sg5
F7.999999999980225
sg6
F-6.000000000019775
sb(dp2530
I00
F0.0
sI01
F3.8000000000000003
ss(i__main__
State
p2531
(dp2532
g3
F-8.00000000001958
sg4
F8.0
sg5
F2.9999999999804188
sg6
F-7.000000000019581
sb(dp2533
I00
F-36.8
sI01
F77.5
ss(i__main__
State
p2534
(dp2535
g3
F-1.9764648759701027e-11
sg4
F4.0
sg5
F-6.000000000019765
sg6
F-1.0000000000197646
sb(dp2536
I00
I-67
sI01
F-70.12
ss(i__main__
State
p2537
(dp2538
g3
F3.9999999999802704
sg4
F1.0
sg5
F6.99999999998027
sg6
F-8.00000000001973
sb(dp2539
I00
I-29
sI01
F-68.32
ss(i__main__
State
p2540
(dp2541
g3
F-3.0000000000197473
sg4
F5.0
sg5
F-3.0000000000197473
sg6
F0.9999999999802526
sb(dp2542
I00
I-59
sI01
F10.940000000000001
ss(i__main__
State
p2543
(dp2544
g3
F1.9999999999802205
sg4
F0.0
sg5
F1.9999999999802203
sg6
F4.99999999998022
sb(dp2545
I00
F42.3944056
sI01
F-34.46
ss(i__main__
State
p2546
(dp2547
g3
F-2.0000000000197646
sg4
F3.0
sg5
F5.999999999980235
sg6
F-5.000000000019765
sb(dp2548
I00
F0.24444200000000027
sI01
F46.82
ss(i__main__
State
p2549
(dp2550
g3
F-5.00000000001964
sg4
F3.0
sg5
F6.99999999998036
sg6
F-4.00000000001964
sb(dp2551
I00
F-2.8186884
sI01
F10.44
ss(i__main__
State
p2552
(dp2553
g3
F0.9999999999803144
sg4
F9.0
sg5
F-4.000000000019686
sg6
F1.9999999999803144
sb(dp2554
I00
F-1.2705741886485618
sI01
F-0.16000000000000003
ss(i__main__
State
p2555
(dp2556
g3
F-3.000000000019557
sg4
F9.0
sg5
F-5.000000000019557
sg6
F-1.0000000000195568
sb(dp2557
I00
F18.74236
sI01
F4.0
ss(i__main__
State
p2558
(dp2559
g3
F5.999999999980271
sg4
F8.0
sg5
F-1.0000000000197289
sg6
F5.999999999980271
sb(dp2560
I00
F53.019999999999996
sI01
F33.4
ss(i__main__
State
p2561
(dp2562
g3
F3.999999999980625
sg4
F8.0
sg5
F-1.0000000000193754
sg6
F3.0
sb(dp2563
I00
F16.6753
sI01
F92.8
ss(i__main__
State
p2564
(dp2565
g3
F0.9999999999803589
sg4
F5.0
sg5
F-1.0000000000196412
sg6
F-1.9641070285702917e-11
sb(dp2566
I00
F84.09400000000001
sI01
F-21.44
ss(i__main__
State
p2567
(dp2568
g3
F1.9999999999804976
sg4
F1.0
sg5
F2.9999999999804974
sg6
F3.9999999999804974
sb(dp2569
I00
F23.978707757258523
sI01
F19.02
ss(i__main__
State
p2570
(dp2571
g3
F-7.0000000000196465
sg4
F4.0
sg5
F-1.000000000019647
sg6
F7.9999999999803535
sb(dp2572
I00
I-32
sI01
F-4.419999999999999
ss(i__main__
State
p2573
(dp2574
g3
F7.999999999980578
sg4
F3.0
sg5
F-2.0000000000194222
sg6
F3.9999999999805778
sb(dp2575
I00
I-28
sI01
F71.12
ss(i__main__
State
p2576
(dp2577
g3
F6.999999999980586
sg4
F0.0
sg5
F2.9999999999805858
sg6
F6.999999999980585
sb(dp2578
I00
I49
sI01
F-71.8
ss(i__main__
State
p2579
(dp2580
g3
F-2.0000000000199036
sg4
F7.0
sg5
F4.999999999980096
sg6
F4.999999999980096
sb(dp2581
I00
I-13
sI01
F-83.8
ss(i__main__
State
p2582
(dp2583
g3
F-8.000000000019435
sg4
F6.0
sg5
F2.9999999999805653
sg6
F5.999999999980566
sb(dp2584
I00
I84
sI01
F-25.16
ss(i__main__
State
p2585
(dp2586
g3
F-5.000000000019544
sg4
F4.0
sg5
F-8.000000000019545
sg6
F-4.000000000019544
sb(dp2587
I00
F-30.73026
sI01
F-83.64
ss(i__main__
State
p2588
(dp2589
g3
F4.999999999980272
sg4
F7.0
sg5
F-1.0000000000197287
sg6
F3.9999999999802713
sb(dp2590
I00
F14.28
sI01
F52.08
ss(i__main__
State
p2591
(dp2592
g3
F1.999999999980351
sg4
F1.0
sg5
F-8.000000000019648
sg6
F-2.0000000000196487
sb(dp2593
I00
F4.720000000000001
sI01
F44.32
ss(i__main__
State
p2594
(dp2595
g3
F-3.0000000000195595
sg4
F6.0
sg5
F-6.0000000000195595
sg6
F-5.0000000000195595
sb(dp2596
I00
F-38.80146971160001
sI01
F-84.96
ss(i__main__
State
p2597
(dp2598
g3
F-1.0000000000194915
sg4
F8.0
sg5
F-2.0
sg6
F-2.0000000000194915
sb(dp2599
I00
I-91
sI01
F8.200000000000001
ss(i__main__
State
p2600
(dp2601
g3
F5.9999999999801465
sg4
F2.0
sg5
F3.999999999980147
sg6
F6.9999999999801465
sb(dp2602
I00
I60
sI01
F-42.44
ss(i__main__
State
p2603
(dp2604
g3
F2.999999999980285
sg4
F6.0
sg5
F1.9999999999802849
sg6
F1.9999999999802849
sb(dp2605
I00
F-19.42410633
sI01
F70.5
ss(i__main__
State
p2606
(dp2607
g3
F4.999999999980571
sg4
F1.0
sg5
F3.9999999999805707
sg6
F7.999999999980571
sb(dp2608
I00
F1.56
sI01
F-63.24
ss(i__main__
State
p2609
(dp2610
g3
F0.9999999999806009
sg4
F1.0
sg5
F-1.939941384585587e-11
sg6
F1.0
sb(dp2611
I00
F48.8186884
sI01
F37.36
ss(i__main__
State
p2612
(dp2613
g3
F4.999999999980399
sg4
F6.0
sg5
F4.999999999980399
sg6
F7.999999999980399
sb(dp2614
I00
I42
sI01
F-24.439999999999998
ss(i__main__
State
p2615
(dp2616
g3
F-8.000000000019446
sg4
F7.0
sg5
F0.9999999999805543
sg6
F-8.000000000019446
sb(dp2617
I00
I76
sI01
F57.58
ss(i__main__
State
p2618
(dp2619
g3
F-1.0000000000196818
sg4
F1.0
sg5
F7.999999999980318
sg6
F0.9999999999803181
sb(dp2620
I00
I-94
sI01
F24.12
ss(i__main__
State
p2621
(dp2622
g3
F-8.000000000019615
sg4
F6.0
sg5
F1.999999999980385
sg6
F6.9999999999803855
sb(dp2623
I00
I41
sI01
F-17.78
ss(i__main__
State
p2624
(dp2625
g3
F1.9999999999802247
sg4
F0.0
sg5
F-7.000000000019775
sg6
F-2.0000000000197753
sb(dp2626
I00
F-16.282771999999994
sI01
F87.58
ss(i__main__
State
p2627
(dp2628
g3
F-6.000000000019813
sg4
F2.0
sg5
F4.999999999980187
sg6
F2.9999999999801874
sb(dp2629
I00
I-22
sI01
F59.16
ss(i__main__
State
p2630
(dp2631
g3
F-4.000000000019585
sg4
F0.0
sg5
F-7.000000000019585
sg6
F-3.000000000019585
sb(dp2632
I00
F-48.59385999999999
sI01
F46.46
ss(i__main__
State
p2633
(dp2634
g3
F1.9999999999804021
sg4
F0.0
sg5
F0.999999999980402
sg6
F0.999999999980402
sb(dp2635
I00
I-20
sI01
F57.18
ss(i__main__
State
p2636
(dp2637
g3
F6.999999999980336
sg4
F0.0
sg5
F4.999999999980336
sg6
F7.999999999980336
sb(dp2638
I00
I55
sI01
F-3.54
ss(i__main__
State
p2639
(dp2640
g3
F5.99999999998033
sg4
F9.0
sg5
F1.9999999999803304
sg6
F4.99999999998033
sb(dp2641
I00
F0.0
sI01
F1.5600000000000003
ss(i__main__
State
p2642
(dp2643
g3
F-2.0000000000193294
sg4
F7.0
sg5
F-7.000000000019329
sg6
F-5.000000000019329
sb(dp2644
I00
I90
sI01
F6.18
ss(i__main__
State
p2645
(dp2646
g3
F-1.000000000019847
sg4
F8.0
sg5
F5.999999999980153
sg6
F-2.0000000000198472
sb(dp2647
I00
F56.989000000000004
sI01
F-41.3
ss(i__main__
State
p2648
(dp2649
g3
F3.999999999980664
sg4
F9.0
sg5
F3.9999999999806635
sg6
F7.9999999999806635
sb(dp2650
I00
F3.6800000000000006
sI01
F3.6800000000000006
ss(i__main__
State
p2651
(dp2652
g3
F-1.0000000000194003
sg4
F2.0
sg5
F7.9999999999805995
sg6
F0.0
sb(dp2653
I00
I79
sI01
F-36.48
ss(i__main__
State
p2654
(dp2655
g3
F5.9999999999802665
sg4
F4.0
sg5
F-1.9733689086444377e-11
sg6
F2.9999999999802665
sb(dp2656
I00
F14.825121507200878
sI01
F-83.42
ss(i__main__
State
p2657
(dp2658
g3
F-1.9811246694592096e-11
sg4
F9.0
sg5
F-4.000000000019812
sg6
F-1.9811269036122234e-11
sb(dp2659
I00
F0.0
sI01
F1.08
ss(i__main__
State
p2660
(dp2661
g3
F4.999999999980239
sg4
F3.0
sg5
F-3.000000000019761
sg6
F0.9999999999802389
sb(dp2662
I00
I-36
sI01
F14.04
ss(i__main__
State
p2663
(dp2664
g3
F-1.0000000000196836
sg4
F9.0
sg5
F-4.000000000019684
sg6
F-1.0000000000196836
sb(dp2665
I00
F5.3906996968000005
sI01
F0.8800000000000001
ss(i__main__
State
p2666
(dp2667
g3
F1.9999999999802498
sg4
F0.0
sg5
F2.9999999999802496
sg6
F3.9999999999802496
sb(dp2668
I00
I9
sI01
F-78.44
ss(i__main__
State
p2669
(dp2670
g3
F5.9999999999804885
sg4
F3.0
sg5
F2.9999999999804885
sg6
F4.9999999999804885
sb(dp2671
I00
F39.4856726
sI01
F71.24
ss(i__main__
State
p2672
(dp2673
g3
F6.999999999980499
sg4
F9.0
sg5
F2.9999999999804987
sg6
F8.0
sb(dp2674
I00
F0.0
sI01
F1.7600000000000002
ss(i__main__
State
p2675
(dp2676
g3
F3.9999999999803393
sg4
F8.0
sg5
F-3.0000000000196607
sg6
F2.9999999999803393
sb(dp2677
I00
F100.0
sI01
F38.8
ss(i__main__
State
p2678
(dp2679
g3
F-6.000000000019583
sg4
F7.0
sg5
F-6.000000000019583
sg6
F-7.000000000019583
sb(dp2680
I00
F-53.4528
sI01
F-55.98
ss(i__main__
State
p2681
(dp2682
g3
F0.9999999999803019
sg4
F3.0
sg5
F3.999999999980302
sg6
F3.999999999980302
sb(dp2683
I00
I-2
sI01
F-28.36
ss(i__main__
State
p2684
(dp2685
g3
F0.9999999999804775
sg4
F0.0
sg5
F-3.0000000000195226
sg6
F-1.9522557206650064e-11
sb(dp2686
I00
I-39
sI01
F58.16
ss(i__main__
State
p2687
(dp2688
g3
F-1.9815884273126393e-11
sg4
F1.0
sg5
F-4.000000000019816
sg6
F-1.0
sb(dp2689
I00
I-95
sI01
F86.24
ss(i__main__
State
p2690
(dp2691
g3
F4.9999999999802345
sg4
F6.0
sg5
F1.9999999999802347
sg6
F1.9999999999802347
sb(dp2692
I00
I-24
sI01
F-34.8
ss(i__main__
State
p2693
(dp2694
g3
F-8.000000000019883
sg4
F4.0
sg5
F0.9999999999801178
sg6
F6.999999999980118
sb(dp2695
I00
F25.26872113085239
sI01
F49.74
ss(i__main__
State
p2696
(dp2697
g3
F2.9999999999806577
sg4
F0.0
sg5
F-6.000000000019343
sg6
F-3.0000000000193423
sb(dp2698
I00
I11
sI01
F86.4
ss(i__main__
State
p2699
(dp2700
g3
F-6.0000000000197575
sg4
F1.0
sg5
F4.9999999999802425
sg6
F-7.0000000000197575
sb(dp2701
I00
I-46
sI01
F-24.38
ss(i__main__
State
p2702
(dp2703
g3
F-2.000000000019656
sg4
F7.0
sg5
F-6.000000000019656
sg6
F-3.000000000019656
sb(dp2704
I00
F-21.1492
sI01
F-73.72
ss(i__main__
State
p2705
(dp2706
g3
F-1.0000000000197333
sg4
F2.0
sg5
F-3.0000000000197335
sg6
F-1.9733440768679237e-11
sb(dp2707
I00
I-9
sI01
F37.22
ss(i__main__
State
p2708
(dp2709
g3
F0.0
sg4
F4.0
sg5
F-8.000000000019773
sg6
F-4.000000000019773
sb(dp2710
I00
I36
sI01
F-52.78
ss(i__main__
State
p2711
(dp2712
g3
F-1.0000000000196796
sg4
F5.0
sg5
F-3.0000000000196794
sg6
F0.0
sb(dp2713
I00
F11.396
sI01
F-62.26
ss(i__main__
State
p2714
(dp2715
g3
F1.9999999999802691
sg4
F3.0
sg5
F0.9999999999802691
sg6
F3.999999999980269
sb(dp2716
I00
I-50
sI01
F6.76
ss(i__main__
State
p2717
(dp2718
g3
F-6.000000000019845
sg4
F4.0
sg5
F0.9999999999801552
sg6
F-8.000000000019845
sb(dp2719
I00
F-26.176
sI01
F40.46
ss(i__main__
State
p2720
(dp2721
g3
F3.999999999980441
sg4
F5.0
sg5
F1.9999999999804408
sg6
F2.9999999999804405
sb(dp2722
I00
F-34.43066400000001
sI01
F46.86
ss(i__main__
State
p2723
(dp2724
g3
F8.0
sg4
F9.0
sg5
F5.999999999980243
sg6
F5.999999999980243
sb(dp2725
I00
F-1.1466280000000002
sI01
F-0.28
ss(i__main__
State
p2726
(dp2727
g3
F-8.000000000019416
sg4
F2.0
sg5
F2.999999999980585
sg6
F6.999999999980584
sb(dp2728
I00
I-93
sI01
F-63.16
ss(i__main__
State
p2729
(dp2730
g3
F1.9999999999804716
sg4
F9.0
sg5
F6.999999999980472
sg6
F-2.0000000000195284
sb(dp2731
I00
F0.0
sI01
F3.08
ss(i__main__
State
p2732
(dp2733
g3
F7.999999999980213
sg4
F6.0
sg5
F0.9999999999802132
sg6
F5.999999999980213
sb(dp2734
I00
I27
sI01
F-84.7
ss(i__main__
State
p2735
(dp2736
g3
F0.9999999999803338
sg4
F7.0
sg5
F-3.000000000019666
sg6
F0.9999999999803338
sb(dp2737
I00
F24.679825296127003
sI01
F-17.3
ss(i__main__
State
p2738
(dp2739
g3
F5.999999999980418
sg4
F2.0
sg5
F2.9999999999804183
sg6
F5.999999999980418
sb(dp2740
I00
I-41
sI01
F-19.82
ss(i__main__
State
p2741
(dp2742
g3
F-1.000000000019567
sg4
F1.0
sg5
F-7.0000000000195675
sg6
F-4.0000000000195675
sb(dp2743
I00
I-98
sI01
F-86.36
ss(i__main__
State
p2744
(dp2745
g3
F-5.000000000019845
sg4
F2.0
sg5
F-8.000000000019845
sg6
F-4.000000000019845
sb(dp2746
I00
I36
sI01
F88.78
ss(i__main__
State
p2747
(dp2748
g3
F-7.000000000019698
sg4
F4.0
sg5
F5.999999999980302
sg6
F-6.000000000019698
sb(dp2749
I00
F-69.32
sI01
F-27.92
ss(i__main__
State
p2750
(dp2751
g3
F4.999999999980229
sg4
F0.0
sg5
F-1.9770799140799378e-11
sg6
F0.9999999999802293
sb(dp2752
I00
F29.836196
sI01
F-84.34
ss(i__main__
State
p2753
(dp2754
g3
F1.9999999999805833
sg4
F5.0
sg5
F4.9999999999805835
sg6
F1.9999999999805833
sb(dp2755
I00
I95
sI01
F12.26
ss(i__main__
State
p2756
(dp2757
g3
F1.999999999980318
sg4
F2.0
sg5
F-1.9682086160157116e-11
sg6
F3.999999999980318
sb(dp2758
I00
I-38
sI01
F59.74
ss(i__main__
State
p2759
(dp2760
g3
F2.9999999999803197
sg4
F8.0
sg5
F-1.9680176480726425e-11
sg6
F2.9999999999803197
sb(dp2761
I00
F84.4946184471931
sI01
F24.4
ss(i__main__
State
p2762
(dp2763
g3
F3.9999999999804645
sg4
F6.0
sg5
F0.9999999999804643
sg6
F3.999999999980464
sb(dp2764
I00
I6
sI01
F63.54
ss(i__main__
State
p2765
(dp2766
g3
F-6.000000000019554
sg4
F9.0
sg5
F4.999999999980446
sg6
F-8.000000000019554
sb(dp2767
I00
F0.0
sI01
F2.5600000000000005
ss(i__main__
State
p2768
(dp2769
g3
F1.999999999980464
sg4
F8.0
sg5
F0.999999999980464
sg6
F1.999999999980464
sb(dp2770
I00
F57.94938012394
sI01
F-65.6
ss(i__main__
State
p2771
(dp2772
g3
F3.999999999980375
sg4
F4.0
sg5
F1.9999999999803748
sg6
F3.999999999980375
sb(dp2773
I00
F6.615459612962877
sI01
F-50.72
ss(i__main__
State
p2774
(dp2775
g3
F5.0
sg4
F8.0
sg5
F1.9999999999803812
sg6
F1.9999999999803812
sb(dp2776
I00
F11.4265
sI01
F97.3
ss(i__main__
State
p2777
(dp2778
g3
F-8.000000000019458
sg4
F2.0
sg5
F5.999999999980542
sg6
F7.999999999980542
sb(dp2779
I00
F40.84688
sI01
F78.32
ss(i__main__
State
p2780
(dp2781
g3
F1.9999999999802485
sg4
F4.0
sg5
F-8.000000000019751
sg6
F-3.0000000000197518
sb(dp2782
I00
F-13.96825836
sI01
F-4.559999999999999
ss(i__main__
State
p2783
(dp2784
g3
F-6.000000000019538
sg4
F1.0
sg5
F4.999999999980462
sg6
F-8.000000000019538
sb(dp2785
I00
F69.84
sI01
F-41.76
ss(i__main__
State
p2786
(dp2787
g3
F7.9999999999802975
sg4
F6.0
sg5
F4.9999999999802975
sg6
F-8.000000000019703
sb(dp2788
I00
F79.56
sI01
F-59.94
ss(i__main__
State
p2789
(dp2790
g3
F6.999999999980238
sg4
F7.0
sg5
F3.0
sg6
F6.999999999980238
sb(dp2791
I00
F-42.8115048706
sI01
F-48.16
ss(i__main__
State
p2792
(dp2793
g3
F-2.0000000000194804
sg4
F9.0
sg5
F-4.00000000001948
sg6
F-1.0000000000194804
sb(dp2794
I00
F19.01858954908
sI01
F2.9200000000000004
ss(i__main__
State
p2795
(dp2796
g3
F-2.000000000019682
sg4
F3.0
sg5
F-8.000000000019682
sg6
F-3.000000000019682
sb(dp2797
I00
F24.072682
sI01
F69.52
ss(i__main__
State
p2798
(dp2799
g3
F-5.000000000019741
sg4
F2.0
sg5
F-4.000000000019741
sg6
F0.9999999999802593
sb(dp2800
I00
F48.496840000000006
sI01
F87.1
ss(i__main__
State
p2801
(dp2802
g3
F-1.9419113809641997e-11
sg4
F9.0
sg5
F-2.000000000019419
sg6
F-1.941919934248785e-11
sb(dp2803
I00
F3.16
sI01
F3.16
ss(i__main__
State
p2804
(dp2805
g3
F0.9999999999804843
sg4
F9.0
sg5
F-2.000000000019516
sg6
F-1.9515708707802758e-11
sb(dp2806
I00
F0.0
sI01
F3.2
ss(i__main__
State
p2807
(dp2808
g3
F-2.0
sg4
F5.0
sg5
F-8.00000000001969
sg6
F-4.000000000019688
sb(dp2809
I00
I42
sI01
F-80.14
ss(i__main__
State
p2810
(dp2811
g3
F6.999999999980189
sg4
F8.0
sg5
F0.9999999999801888
sg6
F5.999999999980189
sb(dp2812
I00
F91.98039587769999
sI01
F10.0
ss(i__main__
State
p2813
(dp2814
g3
F2.9999999999803015
sg4
F6.0
sg5
F3.9999999999803015
sg6
F3.9999999999803015
sb(dp2815
I00
F23.381477340000004
sI01
F73.14
ss(i__main__
State
p2816
(dp2817
g3
F-5.000000000019748
sg4
F7.0
sg5
F5.999999999980252
sg6
F-5.000000000019748
sb(dp2818
I00
F51.699473653999995
sI01
F-8.14
ss(i__main__
State
p2819
(dp2820
g3
F1.9999999999802116
sg4
F0.0
sg5
F7.999999999980211
sg6
F-5.000000000019789
sb(dp2821
I00
F32.396311999999995
sI01
F53.12
ss(i__main__
State
p2822
(dp2823
g3
F-5.0000000000196065
sg4
F4.0
sg5
F-5.0000000000196065
sg6
F-2.000000000019606
sb(dp2824
I00
F86.32
sI01
F-81.08
ss(i__main__
State
p2825
(dp2826
g3
F-4.0
sg4
F5.0
sg5
F5.999999999980164
sg6
F-6.000000000019836
sb(dp2827
I00
F50.49171979868
sI01
F-16.18
ss(i__main__
State
p2828
(dp2829
g3
F-3.0
sg4
F2.0
sg5
F-7.0
sg6
F5.0
sb(dp2830
I00
I51
sI01
F-81.75999999999999
ss(i__main__
State
p2831
(dp2832
g3
F-4.000000000019816
sg4
F3.0
sg5
F-8.000000000019815
sg6
F-5.000000000019816
sb(dp2833
I00
I56
sI01
F55.22
ss(i__main__
State
p2834
(dp2835
g3
F6.999999999980402
sg4
F7.0
sg5
F0.9999999999804026
sg6
F4.999999999980402
sb(dp2836
I00
F80.54
sI01
F88.64
ss(i__main__
State
p2837
(dp2838
g3
F6.999999999980507
sg4
F4.0
sg5
F-7.000000000019493
sg6
F4.999999999980507
sb(dp2839
I00
I88
sI01
F80.6
ss(i__main__
State
p2840
(dp2841
g3
F5.999999999980152
sg4
F5.0
sg5
F2.9999999999801514
sg6
F6.999999999980152
sb(dp2842
I00
I-30
sI01
F-7.1
ss(i__main__
State
p2843
(dp2844
g3
F6.999999999980576
sg4
F6.0
sg5
F-1.9423261143202588e-11
sg6
F5.999999999980576
sb(dp2845
I00
I91
sI01
F83.7
ss(i__main__
State
p2846
(dp2847
g3
F4.0
sg4
F0.0
sg5
F-1.9850483847673287e-11
sg6
F5.999999999980149
sb(dp2848
I00
I-40
sI01
F30.740000000000002
ss(i__main__
State
p2849
(dp2850
g3
F-1.9346436499553417e-11
sg4
F4.0
sg5
F-4.000000000019346
sg6
F-1.9346587414041514e-11
sb(dp2851
I00
I85
sI01
F-83.6
ss(i__main__
State
p2852
(dp2853
g3
F3.99999999998028
sg4
F9.0
sg5
F-5.000000000019719
sg6
F0.9999999999802802
sb(dp2854
I00
F3.7200000000000006
sI01
F3.7200000000000006
ss(i__main__
State
p2855
(dp2856
g3
F-6.000000000019694
sg4
F0.0
sg5
F4.999999999980306
sg6
F6.999999999980306
sb(dp2857
I00
I-2
sI01
F75.6
ss(i__main__
State
p2858
(dp2859
g3
F3.9999999999802216
sg4
F6.0
sg5
F-4.000000000019779
sg6
F-1.0000000000197784
sb(dp2860
I00
I-55
sI01
F-78.66
ss(i__main__
State
p2861
(dp2862
g3
F-1.0000000000198195
sg4
F4.0
sg5
F-7.00000000001982
sg6
F-3.0
sb(dp2863
I00
F6.9414
sI01
F-86.7
ss(i__main__
State
p2864
(dp2865
g3
F-1.0000000000195948
sg4
F2.0
sg5
F-8.000000000019595
sg6
F-3.0000000000195945
sb(dp2866
I00
I46
sI01
F28.24
ss(i__main__
State
p2867
(dp2868
g3
F3.999999999980489
sg4
F1.0
sg5
F-1.9511247730823236e-11
sg6
F4.9999999999804885
sb(dp2869
I00
I50
sI01
F-52.16
ss(i__main__
State
p2870
(dp2871
g3
F-1.972570268346844e-11
sg4
F1.0
sg5
F-7.0000000000197256
sg6
F-2.0000000000197256
sb(dp2872
I00
I96
sI01
F50.16
ss(i__main__
State
p2873
(dp2874
g3
F-2.0
sg4
F9.0
sg5
F-1.0000000000195366
sg6
F6.0
sb(dp2875
I00
F0.0
sI01
F-0.32000000000000006
ss(i__main__
State
p2876
(dp2877
g3
F0.9999999999803983
sg4
F9.0
sg5
F-3.0000000000196017
sg6
F0.9999999999803983
sb(dp2878
I00
F0.0
sI01
F-3.08
ss(i__main__
State
p2879
(dp2880
g3
F-6.000000000019601
sg4
F8.0
sg5
F4.999999999980399
sg6
F-7.000000000019601
sb(dp2881
I00
F78.30445261599999
sI01
F54.1
ss(i__main__
State
p2882
(dp2883
g3
F7.9999999999802816
sg4
F5.0
sg5
F4.9999999999802816
sg6
F7.9999999999802816
sb(dp2884
I00
F63.36
sI01
F-0.54
ss(i__main__
State
p2885
(dp2886
g3
F-7.00000000001957
sg4
F0.0
sg5
F-7.0
sg6
F-5.00000000001957
sb(dp2887
I00
I27
sI01
F-79.56
ss(i__main__
State
p2888
(dp2889
g3
F-4.000000000019689
sg4
F6.0
sg5
F-1.000000000019689
sg6
F4.999999999980311
sb(dp2890
I00
F-5.602544352000002
sI01
F37.8
ss(i__main__
State
p2891
(dp2892
g3
F2.0
sg4
F5.0
sg5
F-1.9532105482077972e-11
sg6
F4.999999999980468
sb(dp2893
I00
I54
sI01
F-20.759999999999998
ss(i__main__
State
p2894
(dp2895
g3
F-8.000000000019735
sg4
F6.0
sg5
F6.999999999980265
sg6
F-7.000000000019735
sb(dp2896
I00
I55
sI01
F-20.88
ss(i__main__
State
p2897
(dp2898
g3
F-5.000000000019665
sg4
F2.0
sg5
F3.999999999980335
sg6
F-8.000000000019666
sb(dp2899
I00
I-59
sI01
F51.92
ss(i__main__
State
p2900
(dp2901
g3
F-6.000000000019355
sg4
F0.0
sg5
F5.999999999980645
sg6
F-6.000000000019355
sb(dp2902
I00
F-12.02428090730195
sI01
F64.46
ss(i__main__
State
p2903
(dp2904
g3
F-1.9543384108927473e-11
sg4
F0.0
sg5
F-1.9543464170571474e-11
sg6
F-1.954341841979792e-11
sb(dp2905
I00
I33
sI01
F-75.78
ss(i__main__
State
p2906
(dp2907
g3
F0.9999999999804989
sg4
F8.0
sg5
F-4.000000000019501
sg6
F-1.000000000019501
sb(dp2908
I00
F8.592148000000009
sI01
F-26.9
ss(i__main__
State
p2909
(dp2910
g3
F5.999999999980371
sg4
F1.0
sg5
F5.99999999998037
sg6
F7.99999999998037
sb(dp2911
I00
F35.704783230235115
sI01
F44.019999999999996
ss(i__main__
State
p2912
(dp2913
g3
F6.999999999980254
sg4
F0.0
sg5
F0.9999999999802541
sg6
F3.999999999980254
sb(dp2914
I00
F-25.593599999999995
sI01
F25.439999999999998
ss(i__main__
State
p2915
(dp2916
g3
F0.999999999980267
sg4
F0.0
sg5
F-2.000000000019733
sg6
F0.9999999999802669
sb(dp2917
I00
I94
sI01
F-9.36
ss(i__main__
State
p2918
(dp2919
g3
F6.999999999980444
sg4
F6.0
sg5
F-2.000000000019556
sg6
F4.999999999980444
sb(dp2920
I00
F56.019999999999996
sI01
F-62.78
ss(i__main__
State
p2921
(dp2922
g3
F0.9999999999802766
sg4
F3.0
sg5
F-3.0000000000197233
sg6
F-1.9723498523536546e-11
sb(dp2923
I00
I40
sI01
F4.68
ss(i__main__
State
p2924
(dp2925
g3
F-1.0000000000197944
sg4
F2.0
sg5
F-1.979444693436296e-11
sg6
F-1.9794416944807434e-11
sb(dp2926
I00
I90
sI01
F-10.2
ss(i__main__
State
p2927
(dp2928
g3
F0.9999999999801513
sg4
F7.0
sg5
F-4.000000000019849
sg6
F-2.0000000000198486
sb(dp2929
I00
F7.300751441779999
sI01
F71.12
ss(i__main__
State
p2930
(dp2931
g3
F3.999999999980456
sg4
F2.0
sg5
F-2.000000000019544
sg6
F-1.954374246132117e-11
sb(dp2932
I00
F-33.22786000000001
sI01
F57.56
ss(i__main__
State
p2933
(dp2934
g3
F6.999999999980408
sg4
F8.0
sg5
F-3.0000000000195923
sg6
F3.9999999999804077
sb(dp2935
I00
F35.164198
sI01
F-25.1
ss(i__main__
State
p2936
(dp2937
g3
F6.999999999980343
sg4
F1.0
sg5
F7.999999999980343
sg6
F4.999999999980343
sb(dp2938
I00
F20.938281381860005
sI01
F88.34
ss(i__main__
State
p2939
(dp2940
g3
F-4.0000000000198375
sg4
F6.0
sg5
F6.9999999999801625
sg6
F-7.0000000000198375
sb(dp2941
I00
I68
sI01
F-56.22
ss(i__main__
State
p2942
(dp2943
g3
F-1.0000000000197453
sg4
F7.0
sg5
F7.999999999980255
sg6
F-6.000000000019745
sb(dp2944
I00
I-2
sI01
F-44.6
ss(i__main__
State
p2945
(dp2946
g3
F-1.0000000000195692
sg4
F7.0
sg5
F-4.000000000019569
sg6
F-1.9569229785395594e-11
sb(dp2947
I00
F26.259999999999998
sI01
F82.96
ss(i__main__
State
p2948
(dp2949
g3
F-7.0000000000196465
sg4
F2.0
sg5
F6.9999999999803535
sg6
F-8.000000000019647
sb(dp2950
I00
F58.64
sI01
F87.44
ss(i__main__
State
p2951
(dp2952
g3
F-2.000000000019715
sg4
F7.0
sg5
F-8.000000000019716
sg6
F-3.0000000000197153
sb(dp2953
I00
I30
sI01
F-54.4
ss(i__main__
State
p2954
(dp2955
g3
F-6.00000000001946
sg4
F8.0
sg5
F6.99999999998054
sg6
F-7.00000000001946
sb(dp2956
I00
F59.73684527926864
sI01
F-10.7
ss(i__main__
State
p2957
(dp2958
g3
F2.999999999980256
sg4
F6.0
sg5
F-3.0000000000197447
sg6
F2.9999999999802553
sb(dp2959
I00
I-30
sI01
F-56.78
ss(i__main__
State
p2960
(dp2961
g3
F7.999999999980435
sg4
F3.0
sg5
F3.999999999980435
sg6
F7.999999999980435
sb(dp2962
I00
I-99
sI01
F88.98
ss(i__main__
State
p2963
(dp2964
g3
F6.999999999980446
sg4
F0.0
sg5
F-1.0000000000195546
sg6
F3.9999999999804454
sb(dp2965
I00
I22
sI01
F60.32
ss(i__main__
State
p2966
(dp2967
g3
F1.9999999999801998
sg4
F7.0
sg5
F-1.0000000000198002
sg6
F3.9999999999802
sb(dp2968
I00
F45.59
sI01
F14.0
ss(i__main__
State
p2969
(dp2970
g3
F-6.000000000019612
sg4
F2.0
sg5
F-4.000000000019612
sg6
F-7.000000000019612
sb(dp2971
I00
I-62
sI01
F74.14
ss(i__main__
State
p2972
(dp2973
g3
F3.9999999999804183
sg4
F3.0
sg5
F2.9999999999804183
sg6
F3.9999999999804183
sb(dp2974
I00
I-95
sI01
F62.14
ss(i__main__
State
p2975
(dp2976
g3
F-7.000000000019707
sg4
F1.0
sg5
F7.999999999980293
sg6
F-8.000000000019707
sb(dp2977
I00
F-51.04
sI01
F-2.4399999999999995
ss(i__main__
State
p2978
(dp2979
g3
F-8.000000000019423
sg4
F4.0
sg5
F1.9999999999805775
sg6
F6.999999999980577
sb(dp2980
I00
I-60
sI01
F-20.0
ss(i__main__
State
p2981
(dp2982
g3
F3.99999999998016
sg4
F1.0
sg5
F-5.00000000001984
sg6
F2.99999999998016
sb(dp2983
I00
F-49.1
sI01
F68.8
ss(i__main__
State
p2984
(dp2985
g3
F2.9999999999805347
sg4
F3.0
sg5
F-3.0000000000194653
sg6
F0.9999999999805347
sb(dp2986
I00
F-18.155900586999998
sI01
F44.6
ss(i__main__
State
p2987
(dp2988
g3
F1.999999999980418
sg4
F4.0
sg5
F-3.000000000019582
sg6
F-1.9581890175264412e-11
sb(dp2989
I00
I-95
sI01
F41.4
ss(i__main__
State
p2990
(dp2991
g3
F-6.000000000019549
sg4
F9.0
sg5
F4.999999999980451
sg6
F-6.000000000019549
sb(dp2992
I00
F10.406400000000001
sI01
F3.8400000000000007
ss(i__main__
State
p2993
(dp2994
g3
F-3.0000000000197384
sg4
F4.0
sg5
F-6.000000000019739
sg6
F-1.0000000000197384
sb(dp2995
I00
F42.19
sI01
F-59.6
ss(i__main__
State
p2996
(dp2997
g3
F-4.000000000019741
sg4
F0.0
sg5
F-6.000000000019741
sg6
F-4.000000000019741
sb(dp2998
I00
F-81.53999999999999
sI01
F-33.84
ss(i__main__
State
p2999
(dp3000
g3
F-2.000000000019581
sg4
F7.0
sg5
F-4.000000000019581
sg6
F-1.958096805119087e-11
sb(dp3001
I00
I9
sI01
F20.1
ss(i__main__
State
p3002
(dp3003
g3
F-8.00000000001966
sg4
F7.0
sg5
F-1.9659973168355205e-11
sg6
F5.99999999998034
sb(dp3004
I00
F36.70290991192763
sI01
F-86.0
ss(i__main__
State
p3005
(dp3006
g3
F7.999999999980397
sg4
F0.0
sg5
F4.999999999980397
sg6
F-8.0
sb(dp3007
I00
I-88
sI01
F-66.42
ss(i__main__
State
p3008
(dp3009
g3
F6.999999999980385
sg4
F1.0
sg5
F2.999999999980384
sg6
F8.0
sb(dp3010
I00
I-74
sI01
F-60.1
ss(i__main__
State
p3011
(dp3012
g3
F5.0
sg4
F9.0
sg5
F1.9999999999802065
sg6
F4.999999999980207
sb(dp3013
I00
F0.0
sI01
F1.08
ss(i__main__
State
p3014
(dp3015
g3
F-1.9755690717669084e-11
sg4
F7.0
sg5
F-1.0000000000197558
sg6
F0.9999999999802442
sb(dp3016
I00
I81
sI01
F-4.04
ss(i__main__
State
p3017
(dp3018
g3
F7.999999999980165
sg4
F9.0
sg5
F4.999999999980165
sg6
F7.999999999980165
sb(dp3019
I00
F-3.572
sI01
F-1.8800000000000001
ss(i__main__
State
p3020
(dp3021
g3
F7.999999999980423
sg4
F8.0
sg5
F4.999999999980423
sg6
F6.999999999980423
sb(dp3022
I00
F10.333000000000002
sI01
F31.6
ss(i__main__
State
p3023
(dp3024
g3
F1.9999999999801905
sg4
F0.0
sg5
F2.9999999999801905
sg6
F5.99999999998019
sb(dp3025
I00
F-31.374199999999995
sI01
F78.28
ss(i__main__
State
p3026
(dp3027
g3
F-1.980402011963869e-11
sg4
F9.0
sg5
F-3.000000000019804
sg6
F-1.9804042524918557e-11
sb(dp3028
I00
F3.3440000000000003
sI01
F1.7600000000000002
ss(i__main__
State
p3029
(dp3030
g3
F3.999999999980347
sg4
F0.0
sg5
F-2.000000000019653
sg6
F0.9999999999803469
sb(dp3031
I00
F76.4
sI01
F56.6
ss(i__main__
State
p3032
(dp3033
g3
F-1.9794776791523827e-11
sg4
F4.0
sg5
F6.999999999980205
sg6
F-4.000000000019795
sb(dp3034
I00
F0.5684539107015729
sI01
F-54.519999999999996
ss.