(dp0
(i__main__
State
p1
(dp2
S'v1'
p3
I2
sS'v2'
p4
I3
sS'v3'
p5
I2
sS'y1'
p6
F8.0
sS'x'
p7
F3.0
sS'y3'
p8
F-8.0
sS'y2'
p9
F4.0
sb(dp10
I00
F54.49636607757856
sI01
F61.12826111451058
ss(i__main__
State
p11
(dp12
g3
I2
sg4
I3
sg5
I2
sg6
F-2.0
sg7
F1.0
sg8
F2.0
sg9
F-8.0
sb(dp13
I00
F13.66023580342841
sI01
F31.368569915689147
ss(i__main__
State
p14
(dp15
g3
I2
sg4
I3
sg5
I2
sg6
F-4.0
sg7
F8.0
sg8
F4.0
sg9
F-2.0
sb(dp16
I00
F11.200000000000001
sI01
F0.0
ss(i__main__
State
p17
(dp18
g3
I2
sg4
I3
sg5
I2
sg6
F-8.0
sg7
F5.0
sg8
F8.0
sg9
F-2.0
sb(dp19
I00
F41.39121731743167
sI01
F61.09367405583728
ss(i__main__
State
p20
(dp21
g3
I2
sg4
I3
sg5
I2
sg6
F8.0
sg7
F1.0
sg8
F-8.0
sg9
F-5.0
sb(dp22
I00
F24.272341799661675
sI01
F65.53292324866013
ss(i__main__
State
p23
(dp24
g3
I2
sg4
I3
sg5
I2
sg6
F6.0
sg7
F10.0
sg8
F-6.0
sg9
F-2.0
sb(dp25
I00
F217.97817507444103
sI01
F0.0
ss(i__main__
State
p26
(dp27
g3
I2
sg4
I3
sg5
I2
sg6
F6.0
sg7
F7.0
sg8
F-6.0
sg9
F-5.0
sb(dp28
I00
F53.691174422658946
sI01
F341.30765537534853
ss(i__main__
State
p29
(dp30
g3
I2
sg4
I3
sg5
I2
sg6
F-2.0
sg7
F2.0
sg8
F2.0
sg9
F-8.0
sb(dp31
I00
F-62.62200989997676
sI01
F-0.7525776441191032
ss(i__main__
State
p32
(dp33
g3
I2
sg4
I3
sg5
I2
sg6
F0.0
sg7
F8.0
sg8
F0.0
sg9
F7.0
sb(dp34
I00
F-4015.502141219619
sI01
F-3408.4778737080364
ss(i__main__
State
p35
(dp36
g3
I2
sg4
I3
sg5
I2
sg6
F-5.0
sg7
F0.0
sg8
F5.0
sg9
F3.0
sb(dp37
I00
F74.6
sI01
I4
ss(i__main__
State
p38
(dp39
g3
I2
sg4
I3
sg5
I2
sg6
F4.0
sg7
F4.0
sg8
F-4.0
sg9
F-8.0
sb(dp40
I00
F-17.992719717498833
sI01
F33.9089105981857
ss(i__main__
State
p41
(dp42
g3
I2
sg4
I3
sg5
I2
sg6
F6.0
sg7
F4.0
sg8
F-6.0
sg9
F-2.0
sb(dp43
I00
F100.95666459429641
sI01
F-86.14054623950041
ss(i__main__
State
p44
(dp45
g3
I2
sg4
I3
sg5
I2
sg6
F2.0
sg7
F9.0
sg8
F-2.0
sg9
F1.0
sb(dp46
I00
F-6392.235521782584
sI01
F-7302.353266371815
ss(i__main__
State
p47
(dp48
g3
I2
sg4
I3
sg5
I2
sg6
F0.0
sg7
F8.0
sg8
F0.0
sg9
F-2.0
sb(dp49
I00
F-2686.9140155818814
sI01
F-2178.5994259534805
ss(i__main__
State
p50
(dp51
g3
I2
sg4
I3
sg5
I2
sg6
F-6.0
sg7
F10.0
sg8
F6.0
sg9
F-2.0
sb(dp52
I00
F339.7624066854755
sI01
F96.60118440449364
ss(i__main__
State
p53
(dp54
g3
I2
sg4
I3
sg5
I2
sg6
F2.0
sg7
F0.0
sg8
F-2.0
sg9
F-8.0
sb(dp55
I00
F35.50147146608185
sI01
I-3
ss(i__main__
State
p56
(dp57
g3
I2
sg4
I3
sg5
I2
sg6
F-6.0
sg7
F6.0
sg8
F6.0
sg9
F4.0
sb(dp58
I00
F26.434990985188733
sI01
F101.09655848141652
ss(i__main__
State
p59
(dp60
g3
I2
sg4
I3
sg5
I2
sg6
F-4.0
sg7
F6.0
sg8
F4.0
sg9
F1.0
sb(dp61
I00
F62.17034485130548
sI01
F-8.800933099393124
ss(i__main__
State
p62
(dp63
g3
I2
sg4
I3
sg5
I2
sg6
F-8.0
sg7
F3.0
sg8
F8.0
sg9
F1.0
sb(dp64
I00
F48.461187804278204
sI01
F33.470252932
ss(i__main__
State
p65
(dp66
g3
I2
sg4
I3
sg5
I2
sg6
F2.0
sg7
F10.0
sg8
F-2.0
sg9
F-5.0
sb(dp67
I00
F-486.3208377710171
sI01
F119.53005921757119
ss(i__main__
State
p68
(dp69
g3
I2
sg4
I3
sg5
I2
sg6
F8.0
sg7
F6.0
sg8
F-8.0
sg9
F-2.0
sb(dp70
I00
F-27.37084692656989
sI01
F108.76103413012719
ss(i__main__
State
p71
(dp72
g3
I2
sg4
I3
sg5
I2
sg6
F-4.0
sg7
F1.0
sg8
F4.0
sg9
F-8.0
sb(dp73
I00
F71.81050757640435
sI01
F-46.26519254944889
ss(i__main__
State
p74
(dp75
g3
I2
sg4
I3
sg5
I2
sg6
F8.0
sg7
F4.0
sg8
F-8.0
sg9
F1.0
sb(dp76
I00
F-11.903428235119499
sI01
F-66.05
ss(i__main__
State
p77
(dp78
g3
I2
sg4
I3
sg5
I2
sg6
F8.0
sg7
F5.0
sg8
F-8.0
sg9
F1.0
sb(dp79
I00
I-94
sI01
F-16.52736634973391
ss(i__main__
State
p80
(dp81
g3
I2
sg4
I3
sg5
I2
sg6
F-4.0
sg7
F1.0
sg8
F4.0
sg9
F10.0
sb(dp82
I00
F-46.530092091999826
sI01
F47.73241958049515
ss(i__main__
State
p83
(dp84
g3
I2
sg4
I3
sg5
I2
sg6
F0.0
sg7
F10.0
sg8
F0.0
sg9
F-2.0
sb(dp85
I00
F-4038.8095793424845
sI01
F-3425.1684988630764
ss(i__main__
State
p86
(dp87
g3
I2
sg4
I3
sg5
I2
sg6
F-2.0
sg7
F0.0
sg8
F2.0
sg9
F1.0
sb(dp88
I00
F52.590587052253795
sI01
F17.417732591673204
ss(i__main__
State
p89
(dp90
g3
I2
sg4
I3
sg5
I2
sg6
F4.0
sg7
F10.0
sg8
F-4.0
sg9
F10.0
sb(dp91
I00
F22.619800400000003
sI01
F49.31587078194753
ss(i__main__
State
p92
(dp93
g3
I2
sg4
I3
sg5
I2
sg6
F2.0
sg7
F9.0
sg8
F-2.0
sg9
F7.0
sb(dp94
I00
F315.5053136639854
sI01
F-1077.6099957493007
ss(i__main__
State
p95
(dp96
g3
I2
sg4
I3
sg5
I2
sg6
F-4.0
sg7
F7.0
sg8
F4.0
sg9
F-8.0
sb(dp97
I00
F50.108534211450774
sI01
F400.2610978597507
ss(i__main__
State
p98
(dp99
g3
I2
sg4
I3
sg5
I2
sg6
F2.0
sg7
F6.0
sg8
F-2.0
sg9
F4.0
sb(dp100
I00
F95.48870828282303
sI01
F384.59833928704364
ss(i__main__
State
p101
(dp102
g3
I2
sg4
I3
sg5
I2
sg6
F6.0
sg7
F3.0
sg8
F-6.0
sg9
F4.0
sb(dp103
I00
F51.86974905742374
sI01
F-47.3986
ss(i__main__
State
p104
(dp105
g3
I2
sg4
I3
sg5
I2
sg6
F-4.0
sg7
F2.0
sg8
F4.0
sg9
F-2.0
sb(dp106
I00
F18.455640150942063
sI01
F44.21365309474532
ss(i__main__
State
p107
(dp108
g3
I2
sg4
I3
sg5
I2
sg6
F0.0
sg7
F1.0
sg8
F0.0
sg9
F10.0
sb(dp109
I00
F43.939581575080716
sI01
F17.528583485655254
ss(i__main__
State
p110
(dp111
g3
I2
sg4
I3
sg5
I2
sg6
F8.0
sg7
F10.0
sg8
F-8.0
sg9
F4.0
sb(dp112
I00
F207.72888462365745
sI01
F57.90238382750497
ss(i__main__
State
p113
(dp114
g3
I2
sg4
I3
sg5
I2
sg6
F0.0
sg7
F1.0
sg8
F0.0
sg9
F-2.0
sb(dp115
I00
F80.45144560249767
sI01
F78.66282187054013
ss(i__main__
State
p116
(dp117
g3
I2
sg4
I3
sg5
I2
sg6
F4.0
sg7
F1.0
sg8
F-4.0
sg9
F7.0
sb(dp118
I00
F58.51666870228008
sI01
F42.799252075519554
ss(i__main__
State
p119
(dp120
g3
I2
sg4
I3
sg5
I2
sg6
F0.0
sg7
F3.0
sg8
F0.0
sg9
F-8.0
sb(dp121
I00
F-13.904885853023126
sI01
F6.639360942506339
ss(i__main__
State
p122
(dp123
g3
I2
sg4
I3
sg5
I2
sg6
F-2.0
sg7
F0.0
sg8
F2.0
sg9
F-2.0
sb(dp124
I00
F31.56178675704414
sI01
F-0.7455879464075998
ss(i__main__
State
p125
(dp126
g3
I2
sg4
I3
sg5
I2
sg6
F-8.0
sg7
F0.0
sg8
F8.0
sg9
F-5.0
sb(dp127
I00
F19.0821208730685
sI01
F67.30752540603216
ss(i__main__
State
p128
(dp129
g3
I2
sg4
I3
sg5
I2
sg6
F4.0
sg7
F7.0
sg8
F-4.0
sg9
F-5.0
sb(dp130
I00
F-16.083053709435326
sI01
F-388.78449597552355
ss(i__main__
State
p131
(dp132
g3
I2
sg4
I3
sg5
I2
sg6
F6.0
sg7
F4.0
sg8
F-6.0
sg9
F10.0
sb(dp133
I00
F7.662872797985017
sI01
F26.68097959303945
ss(i__main__
State
p134
(dp135
g3
I2
sg4
I3
sg5
I2
sg6
F8.0
sg7
F2.0
sg8
F-8.0
sg9
F-2.0
sb(dp136
I00
F-31.981038230221564
sI01
F27.034873220728443
ss(i__main__
State
p137
(dp138
g3
I2
sg4
I3
sg5
I2
sg6
F-4.0
sg7
F1.0
sg8
F4.0
sg9
F7.0
sb(dp139
I00
F54.76025069041267
sI01
F-29.542726250682783
ss(i__main__
State
p140
(dp141
g3
I2
sg4
I3
sg5
I2
sg6
F8.0
sg7
F7.0
sg8
F-8.0
sg9
F10.0
sb(dp142
I00
F-44.37685407944776
sI01
F117.42120867937619
ss(i__main__
State
p143
(dp144
g3
I2
sg4
I3
sg5
I2
sg6
F2.0
sg7
F3.0
sg8
F-2.0
sg9
F-5.0
sb(dp145
I00
F-65.51426718151984
sI01
F15.925142480660647
ss(i__main__
State
p146
(dp147
g3
I2
sg4
I3
sg5
I2
sg6
F0.0
sg7
F4.0
sg8
F0.0
sg9
F10.0
sb(dp148
I00
F164.31554759242744
sI01
F16.09868042563733
ss(i__main__
State
p149
(dp150
g3
I2
sg4
I3
sg5
I2
sg6
F6.0
sg7
F2.0
sg8
F-6.0
sg9
F10.0
sb(dp151
I00
F-15.385944754778667
sI01
F58.081652197405404
ss(i__main__
State
p152
(dp153
g3
I2
sg4
I3
sg5
I2
sg6
F4.0
sg7
F8.0
sg8
F-4.0
sg9
F7.0
sb(dp154
I00
F302.58950473209757
sI01
F670.859116899723
ss(i__main__
State
p155
(dp156
g3
I2
sg4
I3
sg5
I2
sg6
F-8.0
sg7
F7.0
sg8
F8.0
sg9
F4.0
sb(dp157
I00
F58.3920097575007
sI01
F72.17211867207045
ss(i__main__
State
p158
(dp159
g3
I2
sg4
I3
sg5
I2
sg6
F-8.0
sg7
F5.0
sg8
F8.0
sg9
F-8.0
sb(dp160
I00
F80.97131616585708
sI01
F-7.750424613278738
ss(i__main__
State
p161
(dp162
g3
I2
sg4
I3
sg5
I2
sg6
F-6.0
sg7
F6.0
sg8
F6.0
sg9
F-5.0
sb(dp163
I00
F21.645109986426277
sI01
I-50
ss(i__main__
State
p164
(dp165
g3
I2
sg4
I3
sg5
I2
sg6
F-8.0
sg7
F9.0
sg8
F8.0
sg9
F7.0
sb(dp166
I00
F31.79942118749407
sI01
F0.0
ss(i__main__
State
p167
(dp168
g3
I2
sg4
I3
sg5
I2
sg6
F0.0
sg7
F8.0
sg8
F0.0
sg9
F1.0
sb(dp169
I00
F-6082.178687849758
sI01
F-6443.826949480767
ss(i__main__
State
p170
(dp171
g3
I2
sg4
I3
sg5
I2
sg6
F-2.0
sg7
F7.0
sg8
F2.0
sg9
F-8.0
sb(dp172
I00
F98.4326334978819
sI01
F-65.71680158
ss(i__main__
State
p173
(dp174
g3
I2
sg4
I3
sg5
I2
sg6
F4.0
sg7
F9.0
sg8
F-4.0
sg9
F10.0
sb(dp175
I00
F615.1671439433264
sI01
F64.65106914278235
ss(i__main__
State
p176
(dp177
g3
I2
sg4
I3
sg5
I2
sg6
F8.0
sg7
F7.0
sg8
F-8.0
sg9
F1.0
sb(dp178
I00
F171.02740734877017
sI01
F53.19599413151844
ss(i__main__
State
p179
(dp180
g3
I2
sg4
I3
sg5
I2
sg6
F6.0
sg7
F9.0
sg8
F-6.0
sg9
F1.0
sb(dp181
I00
F-4657.976843088849
sI01
F-5185.580743448492
ss(i__main__
State
p182
(dp183
g3
I2
sg4
I3
sg5
I2
sg6
F4.0
sg7
F3.0
sg8
F-4.0
sg9
F10.0
sb(dp184
I00
F-21.05598542373354
sI01
I-86
ss(i__main__
State
p185
(dp186
g3
I2
sg4
I3
sg5
I2
sg6
F-2.0
sg7
F2.0
sg8
F2.0
sg9
F7.0
sb(dp187
I00
F57.2024483127599
sI01
F49.95334385616789
ss(i__main__
State
p188
(dp189
g3
I2
sg4
I3
sg5
I2
sg6
F2.0
sg7
F5.0
sg8
F-2.0
sg9
F-2.0
sb(dp190
I00
F45.35179777505065
sI01
F44.52869356939349
ss(i__main__
State
p191
(dp192
g3
I2
sg4
I3
sg5
I2
sg6
F-6.0
sg7
F8.0
sg8
F6.0
sg9
F-5.0
sb(dp193
I00
F830.6803898269363
sI01
F191.98567657883225
ss(i__main__
State
p194
(dp195
g3
I2
sg4
I3
sg5
I2
sg6
F4.0
sg7
F1.0
sg8
F-4.0
sg9
F-2.0
sb(dp196
I00
F66.89297899487714
sI01
F23.107800835689126
ss(i__main__
State
p197
(dp198
g3
I2
sg4
I3
sg5
I2
sg6
F-4.0
sg7
F8.0
sg8
F4.0
sg9
F1.0
sb(dp199
I00
F186.02673643984596
sI01
F38.019324401717654
ss(i__main__
State
p200
(dp201
g3
I2
sg4
I3
sg5
I2
sg6
F6.0
sg7
F6.0
sg8
F-6.0
sg9
F-2.0
sb(dp202
I00
F154.91417682955563
sI01
F52.30865066528798
ss(i__main__
State
p203
(dp204
g3
I2
sg4
I3
sg5
I2
sg6
F-2.0
sg7
F1.0
sg8
F2.0
sg9
F7.0
sb(dp205
I00
F55.57898169492324
sI01
F57.23310239371639
ss(i__main__
State
p206
(dp207
g3
I2
sg4
I3
sg5
I2
sg6
F0.0
sg7
F0.0
sg8
F0.0
sg9
F-5.0
sb(dp208
I00
F18.14208911881074
sI01
F-12.425329769939228
ss(i__main__
State
p209
(dp210
g3
I2
sg4
I3
sg5
I2
sg6
F4.0
sg7
F3.0
sg8
F-4.0
sg9
F1.0
sb(dp211
I00
F5.757733025545688
sI01
F70.18792419269506
ss(i__main__
State
p212
(dp213
g3
I2
sg4
I3
sg5
I2
sg6
F-2.0
sg7
F7.0
sg8
F2.0
sg9
F-5.0
sb(dp214
I00
F-14.76
sI01
F69.3
ss(i__main__
State
p215
(dp216
g3
I2
sg4
I3
sg5
I2
sg6
F-6.0
sg7
F7.0
sg8
F6.0
sg9
F10.0
sb(dp217
I00
F95.43739955505669
sI01
F62.47435731067709
ss(i__main__
State
p218
(dp219
g3
I2
sg4
I3
sg5
I2
sg6
F6.0
sg7
F7.0
sg8
F-6.0
sg9
F1.0
sb(dp220
I00
I-95
sI01
F227.8121371363123
ss(i__main__
State
p221
(dp222
g3
I2
sg4
I3
sg5
I2
sg6
F8.0
sg7
F9.0
sg8
F-8.0
sg9
F1.0
sb(dp223
I00
F-6015.650201699491
sI01
F-6383.325436200146
ss(i__main__
State
p224
(dp225
g3
I2
sg4
I3
sg5
I2
sg6
F-6.0
sg7
F6.0
sg8
F6.0
sg9
F-2.0
sb(dp226
I00
F-8.865391781866641
sI01
F63.05667027018322
ss(i__main__
State
p227
(dp228
g3
I2
sg4
I3
sg5
I2
sg6
F-6.0
sg7
F10.0
sg8
F6.0
sg9
F4.0
sb(dp229
I00
F545.2728704655106
sI01
F107.49220743210462
ss(i__main__
State
p230
(dp231
g3
I2
sg4
I3
sg5
I2
sg6
F-8.0
sg7
F7.0
sg8
F8.0
sg9
F-8.0
sb(dp232
I00
F149.05570110935602
sI01
F71.32069707062784
ss(i__main__
State
p233
(dp234
g3
I2
sg4
I3
sg5
I2
sg6
F6.0
sg7
F1.0
sg8
F-6.0
sg9
F-8.0
sb(dp235
I00
I33
sI01
F78.59499414469703
ss(i__main__
State
p236
(dp237
g3
I2
sg4
I3
sg5
I2
sg6
F6.0
sg7
F8.0
sg8
F-6.0
sg9
F-2.0
sb(dp238
I00
F387.4469131634785
sI01
F-1196.829646944911
ss(i__main__
State
p239
(dp240
g3
I2
sg4
I3
sg5
I2
sg6
F-8.0
sg7
F10.0
sg8
F8.0
sg9
F10.0
sb(dp241
I00
F175.81580998359863
sI01
F0.0
ss(i__main__
State
p242
(dp243
g3
I2
sg4
I3
sg5
I2
sg6
F-6.0
sg7
F0.0
sg8
F6.0
sg9
F7.0
sb(dp244
I00
F70.56329137700845
sI01
F15.446443322805932
ss(i__main__
State
p245
(dp246
g3
I2
sg4
I3
sg5
I2
sg6
F0.0
sg7
F2.0
sg8
F0.0
sg9
F7.0
sb(dp247
I00
I-68
sI01
F-7.40896535379904
ss(i__main__
State
p248
(dp249
g3
I2
sg4
I3
sg5
I2
sg6
F-8.0
sg7
F0.0
sg8
F8.0
sg9
F4.0
sb(dp250
I00
F13.848217582146301
sI01
F14.438855876858359
ss(i__main__
State
p251
(dp252
g3
I2
sg4
I3
sg5
I2
sg6
F2.0
sg7
F10.0
sg8
F-2.0
sg9
F-8.0
sb(dp253
I00
F0.0
sI01
F63.7744028665588
ss(i__main__
State
p254
(dp255
g3
I2
sg4
I3
sg5
I2
sg6
F4.0
sg7
F9.0
sg8
F-4.0
sg9
F4.0
sb(dp256
I00
F124.44678582021322
sI01
F26.949061915544
ss(i__main__
State
p257
(dp258
g3
I2
sg4
I3
sg5
I2
sg6
F2.0
sg7
F4.0
sg8
F-2.0
sg9
F10.0
sb(dp259
I00
F-13.964629799999997
sI01
F-28.385109985286327
ss(i__main__
State
p260
(dp261
g3
I2
sg4
I3
sg5
I2
sg6
F-4.0
sg7
F3.0
sg8
F4.0
sg9
F4.0
sb(dp262
I00
F33.34310017300251
sI01
F29.047165089416584
ss(i__main__
State
p263
(dp264
g3
I2
sg4
I3
sg5
I2
sg6
F8.0
sg7
F1.0
sg8
F-8.0
sg9
F10.0
sb(dp265
I00
F-65.709121543072
sI01
F-59.654016463
ss(i__main__
State
p266
(dp267
g3
I2
sg4
I3
sg5
I2
sg6
F-4.0
sg7
F8.0
sg8
F4.0
sg9
F4.0
sb(dp268
I00
F22.1001
sI01
F183.38051647489803
ss(i__main__
State
p269
(dp270
g3
I2
sg4
I3
sg5
I2
sg6
F-6.0
sg7
F7.0
sg8
F6.0
sg9
F4.0
sb(dp271
I00
F-26.826
sI01
F171.4777262975606
ss(i__main__
State
p272
(dp273
g3
I2
sg4
I3
sg5
I2
sg6
F-8.0
sg7
F1.0
sg8
F8.0
sg9
F7.0
sb(dp274
I00
F-62.5007913358
sI01
F46.32916710135637
ss(i__main__
State
p275
(dp276
g3
I2
sg4
I3
sg5
I2
sg6
F-8.0
sg7
F3.0
sg8
F8.0
sg9
F4.0
sb(dp277
I00
F36.53682270674885
sI01
F37.92588010719732
ss(i__main__
State
p278
(dp279
g3
I2
sg4
I3
sg5
I2
sg6
F-2.0
sg7
F8.0
sg8
F2.0
sg9
F-5.0
sb(dp280
I00
F0.0
sI01
F106.88611611005132
ss(i__main__
State
p281
(dp282
g3
I2
sg4
I3
sg5
I2
sg6
F4.0
sg7
F10.0
sg8
F-4.0
sg9
F1.0
sb(dp283
I00
F213.66602805573237
sI01
F22.889258009528803
ss(i__main__
State
p284
(dp285
g3
I2
sg4
I3
sg5
I2
sg6
F-2.0
sg7
F1.0
sg8
F2.0
sg9
F-5.0
sb(dp286
I00
F14.127521678800141
sI01
F46.95991949031419
ss(i__main__
State
p287
(dp288
g3
I2
sg4
I3
sg5
I2
sg6
F-2.0
sg7
F5.0
sg8
F2.0
sg9
F4.0
sb(dp289
I00
F29.32018145679506
sI01
F-24.270096358995684
ss(i__main__
State
p290
(dp291
g3
I2
sg4
I3
sg5
I2
sg6
F-4.0
sg7
F0.0
sg8
F4.0
sg9
F-2.0
sb(dp292
I00
I-4
sI01
F82.78918819174552
ss(i__main__
State
p293
(dp294
g3
I2
sg4
I3
sg5
I2
sg6
F8.0
sg7
F6.0
sg8
F-8.0
sg9
F-8.0
sb(dp295
I00
F10.530247971409818
sI01
F236.99401786451085
ss(i__main__
State
p296
(dp297
g3
I2
sg4
I3
sg5
I2
sg6
F-6.0
sg7
F0.0
sg8
F6.0
sg9
F4.0
sb(dp298
I00
F-71.09481277953049
sI01
F47.201425559173856
ss(i__main__
State
p299
(dp300
g3
I2
sg4
I3
sg5
I2
sg6
F8.0
sg7
F8.0
sg8
F-8.0
sg9
F-5.0
sb(dp301
I00
F286.3945224322123
sI01
F123.464265882382
ss(i__main__
State
p302
(dp303
g3
I2
sg4
I3
sg5
I2
sg6
F4.0
sg7
F0.0
sg8
F-4.0
sg9
F10.0
sb(dp304
I00
F11.6188626
sI01
F24.98148331967139
ss(i__main__
State
p305
(dp306
g3
I2
sg4
I3
sg5
I2
sg6
F2.0
sg7
F7.0
sg8
F-2.0
sg9
F7.0
sb(dp307
I00
F-30.376770397952285
sI01
F-501.44822000000005
ss(i__main__
State
p308
(dp309
g3
I2
sg4
I3
sg5
I2
sg6
F8.0
sg7
F5.0
sg8
F-8.0
sg9
F7.0
sb(dp310
I00
F-5.422982290818042
sI01
F-81.47420449
ss(i__main__
State
p311
(dp312
g3
I2
sg4
I3
sg5
I2
sg6
F-4.0
sg7
F6.0
sg8
F4.0
sg9
F4.0
sb(dp313
I00
F58.78957776351243
sI01
F-59.58124023839999
ss(i__main__
State
p314
(dp315
g3
I2
sg4
I3
sg5
I2
sg6
F-8.0
sg7
F10.0
sg8
F8.0
sg9
F4.0
sb(dp316
I00
F330.349599404814
sI01
F149.17032396954596
ss(i__main__
State
p317
(dp318
g3
I2
sg4
I3
sg5
I2
sg6
F2.0
sg7
F2.0
sg8
F-2.0
sg9
F1.0
sb(dp319
I00
F56.14145753582618
sI01
F-26.629147564239002
ss(i__main__
State
p320
(dp321
g3
I2
sg4
I3
sg5
I2
sg6
F-6.0
sg7
F7.0
sg8
F6.0
sg9
F7.0
sb(dp322
I00
F236.86336543996782
sI01
F41.005038957828425
ss(i__main__
State
p323
(dp324
g3
I2
sg4
I3
sg5
I2
sg6
F6.0
sg7
F2.0
sg8
F-6.0
sg9
F7.0
sb(dp325
I00
F36.44031837790121
sI01
F30.750728846586135
ss(i__main__
State
p326
(dp327
g3
I2
sg4
I3
sg5
I2
sg6
F6.0
sg7
F5.0
sg8
F-6.0
sg9
F-2.0
sb(dp328
I00
F13.634217999999997
sI01
F108.63048031791942
ss(i__main__
State
p329
(dp330
g3
I2
sg4
I3
sg5
I2
sg6
F-2.0
sg7
F8.0
sg8
F2.0
sg9
F-8.0
sb(dp331
I00
F10.0
sI01
F135.23097191865284
ss(i__main__
State
p332
(dp333
g3
I2
sg4
I3
sg5
I2
sg6
F2.0
sg7
F6.0
sg8
F-2.0
sg9
F10.0
sb(dp334
I00
F0.5748700000000024
sI01
I-100
ss(i__main__
State
p335
(dp336
g3
I2
sg4
I3
sg5
I2
sg6
F6.0
sg7
F6.0
sg8
F-6.0
sg9
F1.0
sb(dp337
I00
F19.69844413204562
sI01
I-71
ss(i__main__
State
p338
(dp339
g3
I2
sg4
I3
sg5
I2
sg6
F8.0
sg7
F2.0
sg8
F-8.0
sg9
F-8.0
sb(dp340
I00
F-40.75166940614803
sI01
F-85.7854149904
ss(i__main__
State
p341
(dp342
g3
I2
sg4
I3
sg5
I2
sg6
F0.0
sg7
F9.0
sg8
F0.0
sg9
F-8.0
sb(dp343
I00
F545.5132333590452
sI01
F288.949094587795
ss(i__main__
State
p344
(dp345
g3
I2
sg4
I3
sg5
I2
sg6
F0.0
sg7
F9.0
sg8
F0.0
sg9
F4.0
sb(dp346
I00
F329.2466580979442
sI01
F189.70427666696514
ss(i__main__
State
p347
(dp348
g3
I2
sg4
I3
sg5
I2
sg6
F2.0
sg7
F7.0
sg8
F-2.0
sg9
F1.0
sb(dp349
I00
F110.24968105040539
sI01
F-738.2103408623
ss(i__main__
State
p350
(dp351
g3
I2
sg4
I3
sg5
I2
sg6
F-4.0
sg7
F9.0
sg8
F4.0
sg9
F-2.0
sb(dp352
I00
F-2874.5685952782433
sI01
F416.6111579035241
ss(i__main__
State
p353
(dp354
g3
I2
sg4
I3
sg5
I2
sg6
F-8.0
sg7
F10.0
sg8
F8.0
sg9
F1.0
sb(dp355
I00
F284.57612883473814
sI01
F56.19056089160877
ss(i__main__
State
p356
(dp357
g3
I2
sg4
I3
sg5
I2
sg6
F6.0
sg7
F2.0
sg8
F-6.0
sg9
F-5.0
sb(dp358
I00
F47.69874144376426
sI01
F24.435322495999998
ss(i__main__
State
p359
(dp360
g3
I2
sg4
I3
sg5
I2
sg6
F8.0
sg7
F2.0
sg8
F-8.0
sg9
F10.0
sb(dp361
I00
F-1.7540184610547165
sI01
F47.717582093926936
ss(i__main__
State
p362
(dp363
g3
I2
sg4
I3
sg5
I2
sg6
F2.0
sg7
F8.0
sg8
F-2.0
sg9
F7.0
sb(dp364
I00
F-1978.055871024063
sI01
F435.9860223367058
ss(i__main__
State
p365
(dp366
g3
I2
sg4
I3
sg5
I2
sg6
F2.0
sg7
F8.0
sg8
F-2.0
sg9
F-2.0
sb(dp367
I00
F-2511.924828749784
sI01
F-2269.466654158142
ss(i__main__
State
p368
(dp369
g3
I2
sg4
I3
sg5
I2
sg6
F6.0
sg7
F5.0
sg8
F-6.0
sg9
F1.0
sb(dp370
I00
F-62.69772
sI01
F-21.225598207925685
ss(i__main__
State
p371
(dp372
g3
I2
sg4
I3
sg5
I2
sg6
F2.0
sg7
F4.0
sg8
F-2.0
sg9
F4.0
sb(dp373
I00
F79.91261378193194
sI01
F45.54922803087249
ss(i__main__
State
p374
(dp375
g3
I2
sg4
I3
sg5
I2
sg6
F2.0
sg7
F2.0
sg8
F-2.0
sg9
F-2.0
sb(dp376
I00
F11.980692139082503
sI01
F31.099960041923833
ss(i__main__
State
p377
(dp378
g3
I2
sg4
I3
sg5
I2
sg6
F-8.0
sg7
F6.0
sg8
F8.0
sg9
F10.0
sb(dp379
I00
F157.77655810377834
sI01
F6.433928620809839
ss(i__main__
State
p380
(dp381
g3
I2
sg4
I3
sg5
I2
sg6
F2.0
sg7
F7.0
sg8
F-2.0
sg9
F-8.0
sb(dp382
I00
F-6.436900937884797
sI01
F-282.59590000000003
ss(i__main__
State
p383
(dp384
g3
I2
sg4
I3
sg5
I2
sg6
F8.0
sg7
F8.0
sg8
F-8.0
sg9
F4.0
sb(dp385
I00
F561.030143123737
sI01
F155.61300539871633
ss(i__main__
State
p386
(dp387
g3
I2
sg4
I3
sg5
I2
sg6
F6.0
sg7
F0.0
sg8
F-6.0
sg9
F-5.0
sb(dp388
I00
F-17.97019187
sI01
F64.81149356526511
ss(i__main__
State
p389
(dp390
g3
I2
sg4
I3
sg5
I2
sg6
F-2.0
sg7
F2.0
sg8
F2.0
sg9
F-2.0
sb(dp391
I00
F-35.46789476970902
sI01
F50.84130555606578
ss(i__main__
State
p392
(dp393
g3
I2
sg4
I3
sg5
I2
sg6
F8.0
sg7
F6.0
sg8
F-8.0
sg9
F10.0
sb(dp394
I00
F30.34713382202267
sI01
F21.979381345703032
ss(i__main__
State
p395
(dp396
g3
I2
sg4
I3
sg5
I2
sg6
F-8.0
sg7
F2.0
sg8
F8.0
sg9
F10.0
sb(dp397
I00
F15.784557999794405
sI01
F32.2604822527434
ss(i__main__
State
p398
(dp399
g3
I2
sg4
I3
sg5
I2
sg6
F8.0
sg7
F9.0
sg8
F-8.0
sg9
F7.0
sb(dp400
I00
F10.0
sI01
F131.61871413482106
ss(i__main__
State
p401
(dp402
g3
I2
sg4
I3
sg5
I2
sg6
F6.0
sg7
F1.0
sg8
F-6.0
sg9
F-5.0
sb(dp403
I00
F73.8649322004238
sI01
F9.072845526191031
ss(i__main__
State
p404
(dp405
g3
I2
sg4
I3
sg5
I2
sg6
F0.0
sg7
F2.0
sg8
F0.0
sg9
F-5.0
sb(dp406
I00
F47.31872338419499
sI01
F43.273264620716674
ss(i__main__
State
p407
(dp408
g3
I2
sg4
I3
sg5
I2
sg6
F-8.0
sg7
F6.0
sg8
F8.0
sg9
F-2.0
sb(dp409
I00
F-26.808361665811343
sI01
F48.10340187982615
ss(i__main__
State
p410
(dp411
g3
I2
sg4
I3
sg5
I2
sg6
F-6.0
sg7
F6.0
sg8
F6.0
sg9
F-8.0
sb(dp412
I00
F-75.6987
sI01
F60.226444285057006
ss(i__main__
State
p413
(dp414
g3
I2
sg4
I3
sg5
I2
sg6
F6.0
sg7
F1.0
sg8
F-6.0
sg9
F4.0
sb(dp415
I00
F43.32599061260564
sI01
I1
ss(i__main__
State
p416
(dp417
g3
I2
sg4
I3
sg5
I2
sg6
F8.0
sg7
F9.0
sg8
F-8.0
sg9
F-8.0
sb(dp418
I00
F69.98466565375321
sI01
F0.0
ss(i__main__
State
p419
(dp420
g3
I2
sg4
I3
sg5
I2
sg6
F-6.0
sg7
F8.0
sg8
F6.0
sg9
F-8.0
sb(dp421
I00
F325.32504035666335
sI01
F103.00609468194534
ss(i__main__
State
p422
(dp423
g3
I2
sg4
I3
sg5
I2
sg6
F-2.0
sg7
F2.0
sg8
F2.0
sg9
F4.0
sb(dp424
I00
F28.890298248499704
sI01
F-54.1880923177753
ss(i__main__
State
p425
(dp426
g3
I2
sg4
I3
sg5
I2
sg6
F-8.0
sg7
F2.0
sg8
F8.0
sg9
F1.0
sb(dp427
I00
F54.57432431065163
sI01
I-18
ss(i__main__
State
p428
(dp429
g3
I2
sg4
I3
sg5
I2
sg6
F-6.0
sg7
F1.0
sg8
F6.0
sg9
F-8.0
sb(dp430
I00
F-36.640964085227054
sI01
F29.19556335499409
ss(i__main__
State
p431
(dp432
g3
I2
sg4
I3
sg5
I2
sg6
F0.0
sg7
F4.0
sg8
F0.0
sg9
F7.0
sb(dp433
I00
F25.745201198482032
sI01
F128.85265467823706
ss(i__main__
State
p434
(dp435
g3
I2
sg4
I3
sg5
I2
sg6
F-4.0
sg7
F0.0
sg8
F4.0
sg9
F7.0
sb(dp436
I00
F-15.977708100909135
sI01
F38.32923081963933
ss(i__main__
State
p437
(dp438
g3
I2
sg4
I3
sg5
I2
sg6
F8.0
sg7
F4.0
sg8
F-8.0
sg9
F10.0
sb(dp439
I00
F53.96000579516024
sI01
F34.78012155413958
ss(i__main__
State
p440
(dp441
g3
I2
sg4
I3
sg5
I2
sg6
F0.0
sg7
F7.0
sg8
F0.0
sg9
F-8.0
sb(dp442
I00
F55.13
sI01
F-41.022091037966234
ss(i__main__
State
p443
(dp444
g3
I2
sg4
I3
sg5
I2
sg6
F-4.0
sg7
F10.0
sg8
F4.0
sg9
F-8.0
sb(dp445
I00
F12.123771115
sI01
F145.60371460998098
ss(i__main__
State
p446
(dp447
g3
I2
sg4
I3
sg5
I2
sg6
F-2.0
sg7
F9.0
sg8
F2.0
sg9
F1.0
sb(dp448
I00
F-3431.089806253413
sI01
F-4030.2212605501636
ss(i__main__
State
p449
(dp450
g3
I2
sg4
I3
sg5
I2
sg6
F-4.0
sg7
F5.0
sg8
F4.0
sg9
F-2.0
sb(dp451
I00
F-2.9613609923554938
sI01
F-36.152367999999996
ss(i__main__
State
p452
(dp453
g3
I2
sg4
I3
sg5
I2
sg6
F-8.0
sg7
F6.0
sg8
F8.0
sg9
F-8.0
sb(dp454
I00
F58.267038617754224
sI01
I-21
ss(i__main__
State
p455
(dp456
g3
I2
sg4
I3
sg5
I2
sg6
F-6.0
sg7
F1.0
sg8
F6.0
sg9
F-2.0
sb(dp457
I00
F74.95571129205844
sI01
F75.76
ss(i__main__
State
p458
(dp459
g3
I2
sg4
I3
sg5
I2
sg6
F2.0
sg7
F2.0
sg8
F-2.0
sg9
F10.0
sb(dp460
I00
F57.473555187160684
sI01
F59.314517746100094
ss(i__main__
State
p461
(dp462
g3
I2
sg4
I3
sg5
I2
sg6
F4.0
sg7
F1.0
sg8
F-4.0
sg9
F1.0
sb(dp463
I00
F-73.6
sI01
F36.1766
ss(i__main__
State
p464
(dp465
g3
I2
sg4
I3
sg5
I2
sg6
F4.0
sg7
F6.0
sg8
F-4.0
sg9
F10.0
sb(dp466
I00
F-35.61619592161933
sI01
F-1.5138459054016398
ss(i__main__
State
p467
(dp468
g3
I2
sg4
I3
sg5
I2
sg6
F0.0
sg7
F7.0
sg8
F0.0
sg9
F1.0
sb(dp469
I00
F180.5678013355062
sI01
F-12.242374194091823
ss(i__main__
State
p470
(dp471
g3
I2
sg4
I3
sg5
I2
sg6
F-2.0
sg7
F3.0
sg8
F2.0
sg9
F10.0
sb(dp472
I00
F55.552704927259626
sI01
F-19.523319601688804
ss(i__main__
State
p473
(dp474
g3
I2
sg4
I3
sg5
I2
sg6
F2.0
sg7
F5.0
sg8
F-2.0
sg9
F1.0
sb(dp475
I00
F39.76735182397784
sI01
F78.7339557917118
ss(i__main__
State
p476
(dp477
g3
I2
sg4
I3
sg5
I2
sg6
F0.0
sg7
F4.0
sg8
F0.0
sg9
F-2.0
sb(dp478
I00
F43.53956440934516
sI01
F-54.730000000000004
ss(i__main__
State
p479
(dp480
g3
I2
sg4
I3
sg5
I2
sg6
F2.0
sg7
F8.0
sg8
F-2.0
sg9
F1.0
sb(dp481
I00
F-2356.6208723353075
sI01
F399.286162980325
ss(i__main__
State
p482
(dp483
g3
I2
sg4
I3
sg5
I2
sg6
F6.0
sg7
F2.0
sg8
F-6.0
sg9
F4.0
sb(dp484
I00
F56.984402309576545
sI01
F54.37764958506975
ss(i__main__
State
p485
(dp486
g3
I2
sg4
I3
sg5
I2
sg6
F6.0
sg7
F9.0
sg8
F-6.0
sg9
F-2.0
sb(dp487
I00
F-1893.5089457416934
sI01
F273.5062063119422
ss(i__main__
State
p488
(dp489
g3
I2
sg4
I3
sg5
I2
sg6
F-4.0
sg7
F3.0
sg8
F4.0
sg9
F1.0
sb(dp490
I00
F55.76792745915695
sI01
F-6.325762729965486
ss(i__main__
State
p491
(dp492
g3
I2
sg4
I3
sg5
I2
sg6
F-4.0
sg7
F4.0
sg8
F4.0
sg9
F7.0
sb(dp493
I00
F24.866742907323772
sI01
F36.52972274404749
ss(i__main__
State
p494
(dp495
g3
I2
sg4
I3
sg5
I2
sg6
F2.0
sg7
F0.0
sg8
F-2.0
sg9
F10.0
sb(dp496
I00
F35.02798241294128
sI01
F-66.396486076833
ss(i__main__
State
p497
(dp498
g3
I2
sg4
I3
sg5
I2
sg6
F-6.0
sg7
F7.0
sg8
F6.0
sg9
F1.0
sb(dp499
I00
F-13.510312470387984
sI01
F80.09683151190607
ss(i__main__
State
p500
(dp501
g3
I2
sg4
I3
sg5
I2
sg6
F-8.0
sg7
F5.0
sg8
F8.0
sg9
F4.0
sb(dp502
I00
F-57.03780138301937
sI01
F38.73594670948996
ss(i__main__
State
p503
(dp504
g3
I2
sg4
I3
sg5
I2
sg6
F2.0
sg7
F8.0
sg8
F-2.0
sg9
F4.0
sb(dp505
I00
F-689.6680792497916
sI01
F236.28330614394073
ss(i__main__
State
p506
(dp507
g3
I2
sg4
I3
sg5
I2
sg6
F2.0
sg7
F7.0
sg8
F-2.0
sg9
F-2.0
sb(dp508
I00
F100.80470458146377
sI01
F-2036.2202585797484
ss(i__main__
State
p509
(dp510
g3
I2
sg4
I3
sg5
I2
sg6
F-2.0
sg7
F1.0
sg8
F2.0
sg9
F10.0
sb(dp511
I00
F61.20353823803399
sI01
F-4.586451799999992
ss(i__main__
State
p512
(dp513
g3
I2
sg4
I3
sg5
I2
sg6
F0.0
sg7
F5.0
sg8
F0.0
sg9
F1.0
sb(dp514
I00
F0.36831018835738627
sI01
F51.37934661700492
ss(i__main__
State
p515
(dp516
g3
I2
sg4
I3
sg5
I2
sg6
F-6.0
sg7
F4.0
sg8
F6.0
sg9
F-5.0
sb(dp517
I00
F27.408231993271023
sI01
F57.86588166176924
ss(i__main__
State
p518
(dp519
g3
I2
sg4
I3
sg5
I2
sg6
F8.0
sg7
F2.0
sg8
F-8.0
sg9
F7.0
sb(dp520
I00
F-26.399853100951802
sI01
F47.551380447201275
ss(i__main__
State
p521
(dp522
g3
I2
sg4
I3
sg5
I2
sg6
F-2.0
sg7
F8.0
sg8
F2.0
sg9
F10.0
sb(dp523
I00
F494.3114062157104
sI01
F57.53950002645916
ss(i__main__
State
p524
(dp525
g3
I2
sg4
I3
sg5
I2
sg6
F-2.0
sg7
F6.0
sg8
F2.0
sg9
F7.0
sb(dp526
I00
F-49.709444712310265
sI01
F54.485338705416886
ss(i__main__
State
p527
(dp528
g3
I2
sg4
I3
sg5
I2
sg6
F-4.0
sg7
F8.0
sg8
F4.0
sg9
F-8.0
sb(dp529
I00
F833.2985432855482
sI01
F196.76978752882601
ss(i__main__
State
p530
(dp531
g3
I2
sg4
I3
sg5
I2
sg6
F-6.0
sg7
F9.0
sg8
F6.0
sg9
F4.0
sb(dp532
I00
F21.0
sI01
F198.62626235200435
ss(i__main__
State
p533
(dp534
g3
I2
sg4
I3
sg5
I2
sg6
F8.0
sg7
F5.0
sg8
F-8.0
sg9
F10.0
sb(dp535
I00
F53.323531131461614
sI01
I-45
ss(i__main__
State
p536
(dp537
g3
I2
sg4
I3
sg5
I2
sg6
F2.0
sg7
F3.0
sg8
F-2.0
sg9
F4.0
sb(dp538
I00
F-6.128074071369751
sI01
F73.72193218965343
ss(i__main__
State
p539
(dp540
g3
I2
sg4
I3
sg5
I2
sg6
F-8.0
sg7
F10.0
sg8
F8.0
sg9
F-2.0
sb(dp541
I00
F269.20676575596747
sI01
F33.37432982
ss(i__main__
State
p542
(dp543
g3
I2
sg4
I3
sg5
I2
sg6
F8.0
sg7
F2.0
sg8
F-8.0
sg9
F1.0
sb(dp544
I00
F60.82864961847154
sI01
F28.218885715956933
ss(i__main__
State
p545
(dp546
g3
I2
sg4
I3
sg5
I2
sg6
F-2.0
sg7
F5.0
sg8
F2.0
sg9
F7.0
sb(dp547
I00
F-53.36260944561609
sI01
F32.9388630374997
ss(i__main__
State
p548
(dp549
g3
I2
sg4
I3
sg5
I2
sg6
F-2.0
sg7
F3.0
sg8
F2.0
sg9
F-5.0
sb(dp550
I00
F42.9485071935068
sI01
F16.8741621598
ss(i__main__
State
p551
(dp552
g3
I2
sg4
I3
sg5
I2
sg6
F6.0
sg7
F1.0
sg8
F-6.0
sg9
F1.0
sb(dp553
I00
F8.36609384316926
sI01
F28.018823335682825
ss(i__main__
State
p554
(dp555
g3
I2
sg4
I3
sg5
I2
sg6
F8.0
sg7
F5.0
sg8
F-8.0
sg9
F-8.0
sb(dp556
I00
F6.396662423075661
sI01
F71.25436191768279
ss(i__main__
State
p557
(dp558
g3
I2
sg4
I3
sg5
I2
sg6
F-6.0
sg7
F4.0
sg8
F6.0
sg9
F-8.0
sb(dp559
I00
I-74
sI01
F58.52175496317539
ss(i__main__
State
p560
(dp561
g3
I2
sg4
I3
sg5
I2
sg6
F8.0
sg7
F6.0
sg8
F-8.0
sg9
F7.0
sb(dp562
I00
F62.885320507094846
sI01
F-35.06862422692102
ss(i__main__
State
p563
(dp564
g3
I2
sg4
I3
sg5
I2
sg6
F6.0
sg7
F3.0
sg8
F-6.0
sg9
F-5.0
sb(dp565
I00
F39.6813418893
sI01
F-0.23098165028406936
ss(i__main__
State
p566
(dp567
g3
I2
sg4
I3
sg5
I2
sg6
F0.0
sg7
F5.0
sg8
F0.0
sg9
F7.0
sb(dp568
I00
F18.870648845125082
sI01
F-64.17247746674444
ss(i__main__
State
p569
(dp570
g3
I2
sg4
I3
sg5
I2
sg6
F-8.0
sg7
F4.0
sg8
F8.0
sg9
F4.0
sb(dp571
I00
F-0.9242374417446686
sI01
F-33.67507518361474
ss(i__main__
State
p572
(dp573
g3
I2
sg4
I3
sg5
I2
sg6
F0.0
sg7
F6.0
sg8
F0.0
sg9
F-8.0
sb(dp574
I00
F60.93308700000001
sI01
I-17
ss(i__main__
State
p575
(dp576
g3
I2
sg4
I3
sg5
I2
sg6
F6.0
sg7
F4.0
sg8
F-6.0
sg9
F7.0
sb(dp577
I00
F60.7537166040314
sI01
I-6
ss(i__main__
State
p578
(dp579
g3
I2
sg4
I3
sg5
I2
sg6
F-4.0
sg7
F1.0
sg8
F4.0
sg9
F4.0
sb(dp580
I00
F-87.85
sI01
F50.745125746801335
ss(i__main__
State
p581
(dp582
g3
I2
sg4
I3
sg5
I2
sg6
F8.0
sg7
F5.0
sg8
F-8.0
sg9
F-2.0
sb(dp583
I00
F-62.8
sI01
F-0.04907369999999878
ss(i__main__
State
p584
(dp585
g3
I2
sg4
I3
sg5
I2
sg6
F-4.0
sg7
F9.0
sg8
F4.0
sg9
F-5.0
sb(dp586
I00
F59.968303649855
sI01
F387.5500180105709
ss(i__main__
State
p587
(dp588
g3
I2
sg4
I3
sg5
I2
sg6
F-6.0
sg7
F9.0
sg8
F6.0
sg9
F1.0
sb(dp589
I00
F-5201.388734042789
sI01
F-6039.768190747329
ss(i__main__
State
p590
(dp591
g3
I2
sg4
I3
sg5
I2
sg6
F-8.0
sg7
F4.0
sg8
F8.0
sg9
F-5.0
sb(dp592
I00
F7.625835716484755
sI01
F15.649118900000001
ss(i__main__
State
p593
(dp594
g3
I2
sg4
I3
sg5
I2
sg6
F-6.0
sg7
F8.0
sg8
F6.0
sg9
F1.0
sb(dp595
I00
F23.8
sI01
F0.0
ss(i__main__
State
p596
(dp597
g3
I2
sg4
I3
sg5
I2
sg6
F-2.0
sg7
F1.0
sg8
F2.0
sg9
F-2.0
sb(dp598
I00
I-75
sI01
F42.906702388201076
ss(i__main__
State
p599
(dp600
g3
I2
sg4
I3
sg5
I2
sg6
F4.0
sg7
F9.0
sg8
F-4.0
sg9
F-5.0
sb(dp601
I00
F-581.9075749249088
sI01
F213.47384635386538
ss(i__main__
State
p602
(dp603
g3
I2
sg4
I3
sg5
I2
sg6
F2.0
sg7
F10.0
sg8
F-2.0
sg9
F7.0
sb(dp604
I00
F-561.40876889
sI01
F83.18102347315701
ss(i__main__
State
p605
(dp606
g3
I2
sg4
I3
sg5
I2
sg6
F8.0
sg7
F6.0
sg8
F-8.0
sg9
F-5.0
sb(dp607
I00
F62.26735511701557
sI01
F-46.67913006176988
ss(i__main__
State
p608
(dp609
g3
I2
sg4
I3
sg5
I2
sg6
F6.0
sg7
F8.0
sg8
F-6.0
sg9
F1.0
sb(dp610
I00
F479.02995090119373
sI01
F59.392366874360384
ss(i__main__
State
p611
(dp612
g3
I2
sg4
I3
sg5
I2
sg6
F6.0
sg7
F1.0
sg8
F-6.0
sg9
F7.0
sb(dp613
I00
F-42.80810886311097
sI01
F23.57454873174848
ss(i__main__
State
p614
(dp615
g3
I2
sg4
I3
sg5
I2
sg6
F2.0
sg7
F9.0
sg8
F-2.0
sg9
F-2.0
sb(dp616
I00
F-2470.4816550553714
sI01
F-2744.4760212264396
ss(i__main__
State
p617
(dp618
g3
I2
sg4
I3
sg5
I2
sg6
F4.0
sg7
F4.0
sg8
F-4.0
sg9
F7.0
sb(dp619
I00
I-99
sI01
F34.71467751210288
ss(i__main__
State
p620
(dp621
g3
I2
sg4
I3
sg5
I2
sg6
F6.0
sg7
F0.0
sg8
F-6.0
sg9
F10.0
sb(dp622
I00
F-40.42679194808884
sI01
F4.5215482876331325
ss(i__main__
State
p623
(dp624
g3
I2
sg4
I3
sg5
I2
sg6
F2.0
sg7
F5.0
sg8
F-2.0
sg9
F-8.0
sb(dp625
I00
F7.194513241128937
sI01
I-62
ss(i__main__
State
p626
(dp627
g3
I2
sg4
I3
sg5
I2
sg6
F-2.0
sg7
F7.0
sg8
F2.0
sg9
F1.0
sb(dp628
I00
F99.37979532011026
sI01
F59.77753429631566
ss(i__main__
State
p629
(dp630
g3
I2
sg4
I3
sg5
I2
sg6
F-2.0
sg7
F4.0
sg8
F2.0
sg9
F-2.0
sb(dp631
I00
F60.185046512777916
sI01
F34.72741031300027
ss(i__main__
State
p632
(dp633
g3
I2
sg4
I3
sg5
I2
sg6
F6.0
sg7
F7.0
sg8
F-6.0
sg9
F-2.0
sb(dp634
I00
I-75
sI01
F115.79958449021326
ss(i__main__
State
p635
(dp636
g3
I2
sg4
I3
sg5
I2
sg6
F6.0
sg7
F10.0
sg8
F-6.0
sg9
F1.0
sb(dp637
I00
F111.84685488651157
sI01
F159.2504710559433
ss(i__main__
State
p638
(dp639
g3
I2
sg4
I3
sg5
I2
sg6
F4.0
sg7
F3.0
sg8
F-4.0
sg9
F-2.0
sb(dp640
I00
F-63.848
sI01
F23.97584542947422
ss(i__main__
State
p641
(dp642
g3
I2
sg4
I3
sg5
I2
sg6
F-4.0
sg7
F1.0
sg8
F4.0
sg9
F1.0
sb(dp643
I00
F60.72
sI01
F91.2614261343723
ss(i__main__
State
p644
(dp645
g3
I2
sg4
I3
sg5
I2
sg6
F-6.0
sg7
F5.0
sg8
F6.0
sg9
F1.0
sb(dp646
I00
F15.290991175450486
sI01
F-59.96538305152077
ss(i__main__
State
p647
(dp648
g3
I2
sg4
I3
sg5
I2
sg6
F-6.0
sg7
F8.0
sg8
F6.0
sg9
F10.0
sb(dp649
I00
F108.00058575682428
sI01
F34.270781344508684
ss(i__main__
State
p650
(dp651
g3
I2
sg4
I3
sg5
I2
sg6
F-8.0
sg7
F2.0
sg8
F8.0
sg9
F4.0
sb(dp652
I00
F59.63461559819563
sI01
F11.46099068253175
ss(i__main__
State
p653
(dp654
g3
I2
sg4
I3
sg5
I2
sg6
F8.0
sg7
F3.0
sg8
F-8.0
sg9
F-5.0
sb(dp655
I00
F131.11369417572467
sI01
F17.373626596272842
ss(i__main__
State
p656
(dp657
g3
I2
sg4
I3
sg5
I2
sg6
F8.0
sg7
F9.0
sg8
F-8.0
sg9
F10.0
sb(dp658
I00
F97.71518444777097
sI01
F33.02614219265797
ss(i__main__
State
p659
(dp660
g3
I2
sg4
I3
sg5
I2
sg6
F-8.0
sg7
F4.0
sg8
F8.0
sg9
F7.0
sb(dp661
I00
F57.11310773165519
sI01
F53.90967064424575
ss(i__main__
State
p662
(dp663
g3
I2
sg4
I3
sg5
I2
sg6
F-2.0
sg7
F0.0
sg8
F2.0
sg9
F7.0
sb(dp664
I00
F-75.07067690444313
sI01
F53.23080776496962
ss(i__main__
State
p665
(dp666
g3
I2
sg4
I3
sg5
I2
sg6
F8.0
sg7
F7.0
sg8
F-8.0
sg9
F-2.0
sb(dp667
I00
F56.11550905430989
sI01
F250.8006151848887
ss(i__main__
State
p668
(dp669
g3
I2
sg4
I3
sg5
I2
sg6
F-3.0
sg7
F0.0
sg8
F3.0
sg9
F0.0
sb(dp670
I00
F-9.0
sI01
I-75
ss(i__main__
State
p671
(dp672
g3
I2
sg4
I3
sg5
I2
sg6
F-8.0
sg7
F0.0
sg8
F8.0
sg9
F-2.0
sb(dp673
I00
F84.23514586109548
sI01
F76.57524659138048
ss(i__main__
State
p674
(dp675
g3
I2
sg4
I3
sg5
I2
sg6
F4.0
sg7
F2.0
sg8
F-4.0
sg9
F4.0
sb(dp676
I00
F58.651227208769505
sI01
I-81
ss(i__main__
State
p677
(dp678
g3
I2
sg4
I3
sg5
I2
sg6
F8.0
sg7
F9.0
sg8
F-8.0
sg9
F-2.0
sb(dp679
I00
F-90.0
sI01
F120.96440151471849
ss(i__main__
State
p680
(dp681
g3
I2
sg4
I3
sg5
I2
sg6
F8.0
sg7
F3.0
sg8
F-8.0
sg9
F7.0
sb(dp682
I00
F-17.65884341296171
sI01
F28.681710482334427
ss(i__main__
State
p683
(dp684
g3
I2
sg4
I3
sg5
I2
sg6
F8.0
sg7
F7.0
sg8
F-8.0
sg9
F-8.0
sb(dp685
I00
F18.436431478227274
sI01
F188.72177343925398
ss(i__main__
State
p686
(dp687
g3
I2
sg4
I3
sg5
I2
sg6
F-8.0
sg7
F8.0
sg8
F8.0
sg9
F1.0
sb(dp688
I00
F514.503346510638
sI01
F48.788267835488966
ss(i__main__
State
p689
(dp690
g3
I2
sg4
I3
sg5
I2
sg6
F-4.0
sg7
F2.0
sg8
F4.0
sg9
F7.0
sb(dp691
I00
F27.770010576278334
sI01
F-17.64785296972723
ss(i__main__
State
p692
(dp693
g3
I2
sg4
I3
sg5
I2
sg6
F8.0
sg7
F4.0
sg8
F-8.0
sg9
F7.0
sb(dp694
I00
F32.17822326677866
sI01
F-24.584855341044847
ss(i__main__
State
p695
(dp696
g3
I2
sg4
I3
sg5
I2
sg6
F-4.0
sg7
F5.0
sg8
F4.0
sg9
F-5.0
sb(dp697
I00
F312.31394566265584
sI01
F38.35116859862826
ss(i__main__
State
p698
(dp699
g3
I2
sg4
I3
sg5
I2
sg6
F-6.0
sg7
F1.0
sg8
F6.0
sg9
F-5.0
sb(dp700
I00
F72.7066193041007
sI01
F18.47698633278726
ss(i__main__
State
p701
(dp702
g3
I2
sg4
I3
sg5
I2
sg6
F-6.0
sg7
F5.0
sg8
F6.0
sg9
F4.0
sb(dp703
I00
F-59.519999999999996
sI01
F45.06879407023348
ss(i__main__
State
p704
(dp705
g3
I2
sg4
I3
sg5
I2
sg6
F-2.0
sg7
F0.0
sg8
F2.0
sg9
F4.0
sb(dp706
I00
F-5.996126890373166
sI01
F38.83135791862181
ss(i__main__
State
p707
(dp708
g3
I2
sg4
I3
sg5
I2
sg6
F-2.0
sg7
F10.0
sg8
F2.0
sg9
F-5.0
sb(dp709
I00
F349.89700476052855
sI01
F50.5683481356634
ss(i__main__
State
p710
(dp711
g3
I2
sg4
I3
sg5
I2
sg6
F6.0
sg7
F7.0
sg8
F-6.0
sg9
F7.0
sb(dp712
I00
F81.42613931388732
sI01
F732.2234910714703
ss(i__main__
State
p713
(dp714
g3
I2
sg4
I3
sg5
I2
sg6
F2.0
sg7
F3.0
sg8
F-2.0
sg9
F-8.0
sb(dp715
I00
F18.914656578960543
sI01
F-46.90269530077593
ss(i__main__
State
p716
(dp717
g3
I2
sg4
I3
sg5
I2
sg6
F4.0
sg7
F1.0
sg8
F-4.0
sg9
F-8.0
sb(dp718
I00
F34.48682975073267
sI01
F-35.689160217192324
ss(i__main__
State
p719
(dp720
g3
I2
sg4
I3
sg5
I2
sg6
F2.0
sg7
F1.0
sg8
F-2.0
sg9
F10.0
sb(dp721
I00
F17.246444655079248
sI01
F51.010518237029885
ss(i__main__
State
p722
(dp723
g3
I2
sg4
I3
sg5
I2
sg6
F8.0
sg7
F10.0
sg8
F-8.0
sg9
F-5.0
sb(dp724
I00
F166.65696521584826
sI01
F0.0
ss(i__main__
State
p725
(dp726
g3
I2
sg4
I3
sg5
I2
sg6
F6.0
sg7
F6.0
sg8
F-6.0
sg9
F10.0
sb(dp727
I00
F-16.6975517278034
sI01
F92.97412514868536
ss(i__main__
State
p728
(dp729
g3
I2
sg4
I3
sg5
I2
sg6
F-4.0
sg7
F6.0
sg8
F4.0
sg9
F7.0
sb(dp730
I00
F-9.359875048199997
sI01
F53.29661399033815
ss(i__main__
State
p731
(dp732
g3
I2
sg4
I3
sg5
I2
sg6
F6.0
sg7
F8.0
sg8
F-6.0
sg9
F-8.0
sb(dp733
I00
F-111.37900635226413
sI01
F273.6417153992034
ss(i__main__
State
p734
(dp735
g3
I2
sg4
I3
sg5
I2
sg6
F-8.0
sg7
F6.0
sg8
F8.0
sg9
F1.0
sb(dp736
I00
F225.77025665832087
sI01
F11.247798062602838
ss(i__main__
State
p737
(dp738
g3
I2
sg4
I3
sg5
I2
sg6
F0.0
sg7
F10.0
sg8
F0.0
sg9
F4.0
sb(dp739
I00
F-4053.30366788186
sI01
F-3416.8481657599223
ss(i__main__
State
p740
(dp741
g3
I2
sg4
I3
sg5
I2
sg6
F2.0
sg7
F6.0
sg8
F-2.0
sg9
F-5.0
sb(dp742
I00
F42.36540103924339
sI01
F26.447447088772268
ss(i__main__
State
p743
(dp744
g3
I2
sg4
I3
sg5
I2
sg6
F4.0
sg7
F3.0
sg8
F-4.0
sg9
F4.0
sb(dp745
I00
F-2.1704242422262805
sI01
F71.60922117225205
ss(i__main__
State
p746
(dp747
g3
I2
sg4
I3
sg5
I2
sg6
F2.0
sg7
F9.0
sg8
F-2.0
sg9
F-8.0
sb(dp748
I00
F786.4720567686321
sI01
F-2578.5476885325957
ss(i__main__
State
p749
(dp750
g3
I2
sg4
I3
sg5
I2
sg6
F-6.0
sg7
F4.0
sg8
F6.0
sg9
F-2.0
sb(dp751
I00
F53.17130226094108
sI01
F-19.892027793128978
ss(i__main__
State
p752
(dp753
g3
I2
sg4
I3
sg5
I2
sg6
F-4.0
sg7
F4.0
sg8
F4.0
sg9
F-5.0
sb(dp754
I00
F-4.292448982874467
sI01
F134.220509053165
ss(i__main__
State
p755
(dp756
g3
I2
sg4
I3
sg5
I2
sg6
F-9.0
sg7
F1.0
sg8
F9.0
sg9
F9.0
sb(dp757
I00
F48.1
sI01
I-54
ss(i__main__
State
p758
(dp759
g3
I2
sg4
I3
sg5
I2
sg6
F8.0
sg7
F0.0
sg8
F-8.0
sg9
F10.0
sb(dp760
I00
F40.75871655127582
sI01
F-33.823297663520684
ss(i__main__
State
p761
(dp762
g3
I2
sg4
I3
sg5
I2
sg6
F8.0
sg7
F10.0
sg8
F-8.0
sg9
F10.0
sb(dp763
I00
F395.69223241267105
sI01
F101.9757729118802
ss(i__main__
State
p764
(dp765
g3
I2
sg4
I3
sg5
I2
sg6
F-8.0
sg7
F3.0
sg8
F8.0
sg9
F-5.0
sb(dp766
I00
F32.323760529728226
sI01
F56.537731161712514
ss(i__main__
State
p767
(dp768
g3
I2
sg4
I3
sg5
I2
sg6
F4.0
sg7
F2.0
sg8
F-4.0
sg9
F10.0
sb(dp769
I00
F24.69626389686734
sI01
F20.930489792962593
ss(i__main__
State
p770
(dp771
g3
I2
sg4
I3
sg5
I2
sg6
F2.0
sg7
F10.0
sg8
F-2.0
sg9
F4.0
sb(dp772
I00
F-1628.2227246537502
sI01
F133.68697216320825
ss(i__main__
State
p773
(dp774
g3
I2
sg4
I3
sg5
I2
sg6
F-2.0
sg7
F1.0
sg8
F2.0
sg9
F4.0
sb(dp775
I00
F7.9402402433882
sI01
F12.393373501764648
ss(i__main__
State
p776
(dp777
g3
I2
sg4
I3
sg5
I2
sg6
F0.0
sg7
F8.0
sg8
F0.0
sg9
F4.0
sb(dp778
I00
F-5160.23996195474
sI01
F-5613.002932564695
ss(i__main__
State
p779
(dp780
g3
I2
sg4
I3
sg5
I2
sg6
F-2.0
sg7
F6.0
sg8
F2.0
sg9
F4.0
sb(dp781
I00
F39.271136551035376
sI01
F59.56527808719742
ss(i__main__
State
p782
(dp783
g3
I2
sg4
I3
sg5
I2
sg6
F-6.0
sg7
F9.0
sg8
F6.0
sg9
F7.0
sb(dp784
I00
F35.424561000000004
sI01
F182.53355126410312
ss(i__main__
State
p785
(dp786
g3
I2
sg4
I3
sg5
I2
sg6
F-4.0
sg7
F7.0
sg8
F4.0
sg9
F-2.0
sb(dp787
I00
F-53.88024447727439
sI01
F5.4
ss(i__main__
State
p788
(dp789
g3
I2
sg4
I3
sg5
I2
sg6
F0.0
sg7
F7.0
sg8
F0.0
sg9
F4.0
sb(dp790
I00
F-15.631585065525888
sI01
F239.15071022054113
ss(i__main__
State
p791
(dp792
g3
I2
sg4
I3
sg5
I2
sg6
F6.0
sg7
F4.0
sg8
F-6.0
sg9
F1.0
sb(dp793
I00
F61.10935157691136
sI01
F-6.8135173030630085
ss(i__main__
State
p794
(dp795
g3
I2
sg4
I3
sg5
I2
sg6
F-4.0
sg7
F0.0
sg8
F4.0
sg9
F-5.0
sb(dp796
I00
F59.86461594614229
sI01
F-3.402366516982159
ss(i__main__
State
p797
(dp798
g3
I2
sg4
I3
sg5
I2
sg6
F-2.0
sg7
F2.0
sg8
F2.0
sg9
F10.0
sb(dp799
I00
F-24.0369
sI01
I-80
ss(i__main__
State
p800
(dp801
g3
I2
sg4
I3
sg5
I2
sg6
F0.0
sg7
F4.0
sg8
F0.0
sg9
F-5.0
sb(dp802
I00
F-69.92569322657069
sI01
F51.15426957901451
ss(i__main__
State
p803
(dp804
g3
I2
sg4
I3
sg5
I2
sg6
F-4.0
sg7
F4.0
sg8
F4.0
sg9
F1.0
sb(dp805
I00
F67.00347520001783
sI01
F-42.2621429042404
ss(i__main__
State
p806
(dp807
g3
I2
sg4
I3
sg5
I2
sg6
F4.0
sg7
F10.0
sg8
F-4.0
sg9
F7.0
sb(dp808
I00
F235.86767367101595
sI01
F56.12819330814102
ss(i__main__
State
p809
(dp810
g3
I2
sg4
I3
sg5
I2
sg6
F4.0
sg7
F8.0
sg8
F-4.0
sg9
F4.0
sb(dp811
I00
F454.65046640839677
sI01
F207.10539663733766
ss(i__main__
State
p812
(dp813
g3
I2
sg4
I3
sg5
I2
sg6
F8.0
sg7
F1.0
sg8
F-8.0
sg9
F4.0
sb(dp814
I00
F38.75606660053436
sI01
F52.558294377159775
ss(i__main__
State
p815
(dp816
g3
I2
sg4
I3
sg5
I2
sg6
F2.0
sg7
F7.0
sg8
F-2.0
sg9
F-5.0
sb(dp817
I00
F61.33895628623391
sI01
F36.0
ss(i__main__
State
p818
(dp819
g3
I2
sg4
I3
sg5
I2
sg6
F0.0
sg7
F8.0
sg8
F0.0
sg9
F10.0
sb(dp820
I00
F-5195.52975778849
sI01
F-5111.75975943017
ss(i__main__
State
p821
(dp822
g3
I2
sg4
I3
sg5
I2
sg6
F-6.0
sg7
F4.0
sg8
F6.0
sg9
F10.0
sb(dp823
I00
F28.99101423264832
sI01
I-78
ss(i__main__
State
p824
(dp825
g3
I2
sg4
I3
sg5
I2
sg6
F-2.0
sg7
F6.0
sg8
F2.0
sg9
F10.0
sb(dp826
I00
F24.275225332555593
sI01
F-53.0653397798738
ss(i__main__
State
p827
(dp828
g3
I2
sg4
I3
sg5
I2
sg6
F2.0
sg7
F3.0
sg8
F-2.0
sg9
F1.0
sb(dp829
I00
I65
sI01
F87.275921249
ss(i__main__
State
p830
(dp831
g3
I2
sg4
I3
sg5
I2
sg6
F-4.0
sg7
F7.0
sg8
F4.0
sg9
F-5.0
sb(dp832
I00
F21.472249190584108
sI01
F281.8715985974942
ss(i__main__
State
p833
(dp834
g3
I2
sg4
I3
sg5
I2
sg6
F0.0
sg7
F3.0
sg8
F0.0
sg9
F4.0
sb(dp835
I00
I-92
sI01
F-32.62955935853517
ss(i__main__
State
p836
(dp837
g3
I2
sg4
I3
sg5
I2
sg6
F6.0
sg7
F1.0
sg8
F-6.0
sg9
F10.0
sb(dp838
I00
F1.9046462263729071
sI01
F52.47431006873535
ss(i__main__
State
p839
(dp840
g3
I2
sg4
I3
sg5
I2
sg6
F4.0
sg7
F7.0
sg8
F-4.0
sg9
F1.0
sb(dp841
I00
I-40
sI01
F81.8783202785601
ss(i__main__
State
p842
(dp843
g3
I2
sg4
I3
sg5
I2
sg6
F-8.0
sg7
F5.0
sg8
F8.0
sg9
F1.0
sb(dp844
I00
F-38.8297214165021
sI01
F517.0226445656251
ss(i__main__
State
p845
(dp846
g3
I2
sg4
I3
sg5
I2
sg6
F-2.0
sg7
F3.0
sg8
F2.0
sg9
F1.0
sb(dp847
I00
F-24.36713775713735
sI01
F24.666445908202775
ss(i__main__
State
p848
(dp849
g3
I2
sg4
I3
sg5
I2
sg6
F2.0
sg7
F1.0
sg8
F-2.0
sg9
F4.0
sb(dp850
I00
I83
sI01
F28.909999999999997
ss(i__main__
State
p851
(dp852
g3
I2
sg4
I3
sg5
I2
sg6
F-4.0
sg7
F8.0
sg8
F4.0
sg9
F10.0
sb(dp853
I00
F79.58831402899396
sI01
F321.137394466763
ss(i__main__
State
p854
(dp855
g3
I2
sg4
I3
sg5
I2
sg6
F0.0
sg7
F2.0
sg8
F0.0
sg9
F10.0
sb(dp856
I00
F-0.28002837087346266
sI01
F-74.2
ss(i__main__
State
p857
(dp858
g3
I2
sg4
I3
sg5
I2
sg6
F0.0
sg7
F3.0
sg8
F0.0
sg9
F-5.0
sb(dp859
I00
I-98
sI01
F38.24325186948701
ss(i__main__
State
p860
(dp861
g3
I2
sg4
I3
sg5
I2
sg6
F-8.0
sg7
F6.0
sg8
F8.0
sg9
F7.0
sb(dp862
I00
F-0.791273094702809
sI01
F68.19827909711934
ss(i__main__
State
p863
(dp864
g3
I2
sg4
I3
sg5
I2
sg6
F-8.0
sg7
F3.0
sg8
F8.0
sg9
F-8.0
sb(dp865
I00
F63.1727598908673
sI01
F20.863898800589972
ss(i__main__
State
p866
(dp867
g3
I2
sg4
I3
sg5
I2
sg6
F4.0
sg7
F0.0
sg8
F-4.0
sg9
F-5.0
sb(dp868
I00
F-57.43058306331708
sI01
F3.765220080353729
ss(i__main__
State
p869
(dp870
g3
I2
sg4
I3
sg5
I2
sg6
F2.0
sg7
F6.0
sg8
F-2.0
sg9
F-2.0
sb(dp871
I00
I-44
sI01
F55.24971055770898
ss(i__main__
State
p872
(dp873
g3
I2
sg4
I3
sg5
I2
sg6
F-2.0
sg7
F7.0
sg8
F2.0
sg9
F4.0
sb(dp874
I00
F-6.85530812101749
sI01
F279.2307286316019
ss(i__main__
State
p875
(dp876
g3
I2
sg4
I3
sg5
I2
sg6
F0.0
sg7
F5.0
sg8
F0.0
sg9
F10.0
sb(dp877
I00
F-48.84710147793861
sI01
F46.311693392444845
ss(i__main__
State
p878
(dp879
g3
I2
sg4
I3
sg5
I2
sg6
F8.0
sg7
F3.0
sg8
F-8.0
sg9
F1.0
sb(dp880
I00
F-32.062738299575905
sI01
F-62.416011986937406
ss(i__main__
State
p881
(dp882
g3
I2
sg4
I3
sg5
I2
sg6
F6.0
sg7
F0.0
sg8
F-6.0
sg9
F1.0
sb(dp883
I00
F56.79622390636453
sI01
F2.756422058980291
ss(i__main__
State
p884
(dp885
g3
I2
sg4
I3
sg5
I2
sg6
F-8.0
sg7
F1.0
sg8
F8.0
sg9
F-5.0
sb(dp886
I00
F61.53872284904935
sI01
F15.624398866961982
ss(i__main__
State
p887
(dp888
g3
I2
sg4
I3
sg5
I2
sg6
F-8.0
sg7
F9.0
sg8
F8.0
sg9
F-8.0
sb(dp889
I00
F337.6308471857097
sI01
F64.16778365439302
ss(i__main__
State
p890
(dp891
g3
I2
sg4
I3
sg5
I2
sg6
F-2.0
sg7
F5.0
sg8
F2.0
sg9
F1.0
sb(dp892
I00
F43.3214335
sI01
F67.3838067627572
ss(i__main__
State
p893
(dp894
g3
I2
sg4
I3
sg5
I2
sg6
F2.0
sg7
F8.0
sg8
F-2.0
sg9
F-5.0
sb(dp895
I00
F-334.0509481701329
sI01
F278.4287247039284
ss(i__main__
State
p896
(dp897
g3
I2
sg4
I3
sg5
I2
sg6
F6.0
sg7
F6.0
sg8
F-6.0
sg9
F-5.0
sb(dp898
I00
F76.04331445871051
sI01
F61.311803165683244
ss(i__main__
State
p899
(dp900
g3
I2
sg4
I3
sg5
I2
sg6
F-2.0
sg7
F6.0
sg8
F2.0
sg9
F-2.0
sb(dp901
I00
F-2.664234872888498
sI01
F54.02276929100401
ss(i__main__
State
p902
(dp903
g3
I2
sg4
I3
sg5
I2
sg6
F8.0
sg7
F4.0
sg8
F-8.0
sg9
F-2.0
sb(dp904
I00
F56.613642859764
sI01
F-45.175804685121676
ss(i__main__
State
p905
(dp906
g3
I2
sg4
I3
sg5
I2
sg6
F-8.0
sg7
F5.0
sg8
F8.0
sg9
F7.0
sb(dp907
I00
F18.187191142436717
sI01
F52.24706632933052
ss(i__main__
State
p908
(dp909
g3
I2
sg4
I3
sg5
I2
sg6
F0.0
sg7
F1.0
sg8
F0.0
sg9
F7.0
sb(dp910
I00
I-98
sI01
F-40.5
ss(i__main__
State
p911
(dp912
g3
I2
sg4
I3
sg5
I2
sg6
F-4.0
sg7
F10.0
sg8
F4.0
sg9
F-5.0
sb(dp913
I00
F131.1612694162154
sI01
F16.484013224446148
ss(i__main__
State
p914
(dp915
g3
I2
sg4
I3
sg5
I2
sg6
F-6.0
sg7
F2.0
sg8
F6.0
sg9
F7.0
sb(dp916
I00
F50.64512455821404
sI01
F-36.52338473472526
ss(i__main__
State
p917
(dp918
g3
I2
sg4
I3
sg5
I2
sg6
F4.0
sg7
F1.0
sg8
F-4.0
sg9
F10.0
sb(dp919
I00
F-5.774471086141544
sI01
F-81.484706
ss(i__main__
State
p920
(dp921
g3
I2
sg4
I3
sg5
I2
sg6
F2.0
sg7
F4.0
sg8
F-2.0
sg9
F1.0
sb(dp922
I00
F82.25154203374211
sI01
F-15.382457487782222
ss(i__main__
State
p923
(dp924
g3
I2
sg4
I3
sg5
I2
sg6
F-4.0
sg7
F10.0
sg8
F4.0
sg9
F10.0
sb(dp925
I00
F104.36696069858361
sI01
F157.84578179218008
ss(i__main__
State
p926
(dp927
g3
I2
sg4
I3
sg5
I2
sg6
F2.0
sg7
F6.0
sg8
F-2.0
sg9
F-8.0
sb(dp928
I00
F40.945807590550196
sI01
F-40.81386245167116
ss(i__main__
State
p929
(dp930
g3
I2
sg4
I3
sg5
I2
sg6
F-8.0
sg7
F7.0
sg8
F8.0
sg9
F7.0
sb(dp931
I00
F52.542093242630976
sI01
F179.24098467521515
ss(i__main__
State
p932
(dp933
g3
I2
sg4
I3
sg5
I2
sg6
F-6.0
sg7
F2.0
sg8
F6.0
sg9
F1.0
sb(dp934
I00
F70.6037779437244
sI01
F18.629392855368756
ss(i__main__
State
p935
(dp936
g3
I2
sg4
I3
sg5
I2
sg6
F2.0
sg7
F9.0
sg8
F-2.0
sg9
F-5.0
sb(dp937
I00
F266.2986803669753
sI01
F-768.1519024372641
ss(i__main__
State
p938
(dp939
g3
I2
sg4
I3
sg5
I2
sg6
F4.0
sg7
F5.0
sg8
F-4.0
sg9
F-8.0
sb(dp940
I00
F28.276620759850573
sI01
F-2.912372130011275
ss(i__main__
State
p941
(dp942
g3
I2
sg4
I3
sg5
I2
sg6
F4.0
sg7
F4.0
sg8
F-4.0
sg9
F10.0
sb(dp943
I00
F33.529245657748085
sI01
F9.579320440746262
ss(i__main__
State
p944
(dp945
g3
I2
sg4
I3
sg5
I2
sg6
F0.0
sg7
F6.0
sg8
F0.0
sg9
F1.0
sb(dp946
I00
F77.25782767137851
sI01
F77.60726637235322
ss(i__main__
State
p947
(dp948
g3
I2
sg4
I3
sg5
I2
sg6
F-8.0
sg7
F8.0
sg8
F8.0
sg9
F4.0
sb(dp949
I00
F129.52700968413092
sI01
F60.01597064752026
ss(i__main__
State
p950
(dp951
g3
I2
sg4
I3
sg5
I2
sg6
F-6.0
sg7
F3.0
sg8
F6.0
sg9
F-8.0
sb(dp952
I00
F56.91207057713546
sI01
F32.8107637556
ss(i__main__
State
p953
(dp954
g3
I2
sg4
I3
sg5
I2
sg6
F-8.0
sg7
F2.0
sg8
F8.0
sg9
F-5.0
sb(dp955
I00
F0.12694813402762328
sI01
F58.995444315939096
ss(i__main__
State
p956
(dp957
g3
I2
sg4
I3
sg5
I2
sg6
F-6.0
sg7
F8.0
sg8
F6.0
sg9
F-2.0
sb(dp958
I00
F420.5255151084761
sI01
F-970.4181743636757
ss(i__main__
State
p959
(dp960
g3
I2
sg4
I3
sg5
I2
sg6
F-2.0
sg7
F7.0
sg8
F2.0
sg9
F10.0
sb(dp961
I00
F133.23877895011145
sI01
F719.4229163677719
ss(i__main__
State
p962
(dp963
g3
I2
sg4
I3
sg5
I2
sg6
F0.0
sg7
F0.0
sg8
F0.0
sg9
F-8.0
sb(dp964
I00
F20.42917975968199
sI01
F48.31792098729773
ss(i__main__
State
p965
(dp966
g3
I2
sg4
I3
sg5
I2
sg6
F-2.0
sg7
F4.0
sg8
F2.0
sg9
F-5.0
sb(dp967
I00
F-29.666000000000004
sI01
F-9.453719260129663
ss(i__main__
State
p968
(dp969
g3
I2
sg4
I3
sg5
I2
sg6
F0.0
sg7
F9.0
sg8
F0.0
sg9
F1.0
sb(dp970
I00
F-6455.650944047447
sI01
F-6080.432815316841
ss(i__main__
State
p971
(dp972
g3
I2
sg4
I3
sg5
I2
sg6
F8.0
sg7
F0.0
sg8
F-8.0
sg9
F-5.0
sb(dp973
I00
I-68
sI01
F9.342170739726717
ss(i__main__
State
p974
(dp975
g3
I2
sg4
I3
sg5
I2
sg6
F8.0
sg7
F8.0
sg8
F-8.0
sg9
F-8.0
sb(dp976
I00
F457.9038274285897
sI01
F101.47720718534534
ss(i__main__
State
p977
(dp978
g3
I2
sg4
I3
sg5
I2
sg6
F0.0
sg7
F1.0
sg8
F0.0
sg9
F-5.0
sb(dp979
I00
F-12.476941678283602
sI01
F38.44409230501888
ss(i__main__
State
p980
(dp981
g3
I2
sg4
I3
sg5
I2
sg6
F-2.0
sg7
F4.0
sg8
F2.0
sg9
F10.0
sb(dp982
I00
F65.32546058898836
sI01
F-3.7382113530874275
ss(i__main__
State
p983
(dp984
g3
I2
sg4
I3
sg5
I2
sg6
F-2.0
sg7
F9.0
sg8
F2.0
sg9
F4.0
sb(dp985
I00
F170.61961307398158
sI01
F75.41048306323172
ss(i__main__
State
p986
(dp987
g3
I2
sg4
I3
sg5
I2
sg6
F-8.0
sg7
F5.0
sg8
F8.0
sg9
F10.0
sb(dp988
I00
F-17.78498151615559
sI01
F-48.48079502620608
ss(i__main__
State
p989
(dp990
g3
I2
sg4
I3
sg5
I2
sg6
F-2.0
sg7
F9.0
sg8
F2.0
sg9
F-8.0
sb(dp991
I00
F414.4401053657032
sI01
F73.13517409316478
ss(i__main__
State
p992
(dp993
g3
I2
sg4
I3
sg5
I2
sg6
F-4.0
sg7
F2.0
sg8
F4.0
sg9
F-8.0
sb(dp994
I00
F-28.47410470392047
sI01
F82.12177955229399
ss(i__main__
State
p995
(dp996
g3
I2
sg4
I3
sg5
I2
sg6
F0.0
sg7
F2.0
sg8
F0.0
sg9
F1.0
sb(dp997
I00
F-43.60212446280279
sI01
F15.455817510479635
ss(i__main__
State
p998
(dp999
g3
I2
sg4
I3
sg5
I2
sg6
F6.0
sg7
F3.0
sg8
F-6.0
sg9
F1.0
sb(dp1000
I00
I15
sI01
F67.92904365779653
ss(i__main__
State
p1001
(dp1002
g3
I2
sg4
I3
sg5
I2
sg6
F-4.0
sg7
F10.0
sg8
F4.0
sg9
F-2.0
sb(dp1003
I00
F365.208532022404
sI01
F0.0
ss(i__main__
State
p1004
(dp1005
g3
I2
sg4
I3
sg5
I2
sg6
F-6.0
sg7
F4.0
sg8
F6.0
sg9
F4.0
sb(dp1006
I00
F-12.807995872509423
sI01
F56.373639307065496
ss(i__main__
State
p1007
(dp1008
g3
I2
sg4
I3
sg5
I2
sg6
F-2.0
sg7
F10.0
sg8
F2.0
sg9
F-8.0
sb(dp1009
I00
F20.0
sI01
F90.78890141717453
ss(i__main__
State
p1010
(dp1011
g3
I2
sg4
I3
sg5
I2
sg6
F-6.0
sg7
F3.0
sg8
F6.0
sg9
F-5.0
sb(dp1012
I00
I60
sI01
F64.72817522279031
ss(i__main__
State
p1013
(dp1014
g3
I2
sg4
I3
sg5
I2
sg6
F-8.0
sg7
F5.0
sg8
F8.0
sg9
F-5.0
sb(dp1015
I00
F44.94573
sI01
F74.94536351985987
ss(i__main__
State
p1016
(dp1017
g3
I2
sg4
I3
sg5
I2
sg6
F4.0
sg7
F6.0
sg8
F-4.0
sg9
F-5.0
sb(dp1018
I00
F-47.8942572315649
sI01
F44.790668603265964
ss(i__main__
State
p1019
(dp1020
g3
I2
sg4
I3
sg5
I2
sg6
F-4.0
sg7
F7.0
sg8
F4.0
sg9
F10.0
sb(dp1021
I00
F34.913486955821924
sI01
F240.79542989967806
ss(i__main__
State
p1022
(dp1023
g3
I2
sg4
I3
sg5
I2
sg6
F4.0
sg7
F5.0
sg8
F-4.0
sg9
F4.0
sb(dp1024
I00
F33.54894924816639
sI01
F-50.07619450627095
ss(i__main__
State
p1025
(dp1026
g3
I2
sg4
I3
sg5
I2
sg6
F-2.0
sg7
F4.0
sg8
F2.0
sg9
F-8.0
sb(dp1027
I00
F37.39397014908775
sI01
F230.0348554981438
ss(i__main__
State
p1028
(dp1029
g3
I2
sg4
I3
sg5
I2
sg6
F-4.0
sg7
F4.0
sg8
F4.0
sg9
F-2.0
sb(dp1030
I00
F61.237289918987734
sI01
I43
ss(i__main__
State
p1031
(dp1032
g3
I2
sg4
I3
sg5
I2
sg6
F2.0
sg7
F1.0
sg8
F-2.0
sg9
F1.0
sb(dp1033
I00
F62.22660277041644
sI01
F45.46199576961599
ss(i__main__
State
p1034
(dp1035
g3
I2
sg4
I3
sg5
I2
sg6
F0.0
sg7
F0.0
sg8
F0.0
sg9
F-2.0
sb(dp1036
I00
F40.57297825710406
sI01
F7.965706645048523
ss(i__main__
State
p1037
(dp1038
g3
I2
sg4
I3
sg5
I2
sg6
F6.0
sg7
F5.0
sg8
F-6.0
sg9
F-8.0
sb(dp1039
I00
F-39.23786374866409
sI01
F22.333972853220924
ss(i__main__
State
p1040
(dp1041
g3
I2
sg4
I3
sg5
I2
sg6
F-8.0
sg7
F3.0
sg8
F8.0
sg9
F-2.0
sb(dp1042
I00
F-26.8481506091
sI01
F-20.27214152534313
ss(i__main__
State
p1043
(dp1044
g3
I2
sg4
I3
sg5
I2
sg6
F-4.0
sg7
F3.0
sg8
F4.0
sg9
F7.0
sb(dp1045
I00
F41.98897418648461
sI01
F-2.956841716039277
ss(i__main__
State
p1046
(dp1047
g3
I2
sg4
I3
sg5
I2
sg6
F-4.0
sg7
F3.0
sg8
F4.0
sg9
F-8.0
sb(dp1048
I00
F52.61121610322435
sI01
F79.0931254098058
ss(i__main__
State
p1049
(dp1050
g3
I2
sg4
I3
sg5
I2
sg6
F-7.0
sg7
F0.0
sg8
F7.0
sg9
F6.0
sb(dp1051
I00
I0
sI01
F93.4
ss(i__main__
State
p1052
(dp1053
g3
I2
sg4
I3
sg5
I2
sg6
F-2.0
sg7
F3.0
sg8
F2.0
sg9
F-8.0
sb(dp1054
I00
F25.4076559073297
sI01
I18
ss(i__main__
State
p1055
(dp1056
g3
I2
sg4
I3
sg5
I2
sg6
F-6.0
sg7
F2.0
sg8
F6.0
sg9
F-5.0
sb(dp1057
I00
F21.341411725017224
sI01
F17.471146968282966
ss(i__main__
State
p1058
(dp1059
g3
I2
sg4
I3
sg5
I2
sg6
F8.0
sg7
F0.0
sg8
F-8.0
sg9
F7.0
sb(dp1060
I00
F-30.296456776427956
sI01
F52.33442942653439
ss(i__main__
State
p1061
(dp1062
g3
I2
sg4
I3
sg5
I2
sg6
F0.0
sg7
F5.0
sg8
F0.0
sg9
F4.0
sb(dp1063
I00
F34.59937892724078
sI01
F-16.353697085106006
ss(i__main__
State
p1064
(dp1065
g3
I2
sg4
I3
sg5
I2
sg6
F-2.0
sg7
F4.0
sg8
F2.0
sg9
F7.0
sb(dp1066
I00
F47.139817789315615
sI01
F-53.86921889012398
ss(i__main__
State
p1067
(dp1068
g3
I2
sg4
I3
sg5
I2
sg6
F0.0
sg7
F6.0
sg8
F0.0
sg9
F-5.0
sb(dp1069
I00
F45.81319850857466
sI01
F-23.669410614005372
ss(i__main__
State
p1070
(dp1071
g3
I2
sg4
I3
sg5
I2
sg6
F-6.0
sg7
F3.0
sg8
F6.0
sg9
F4.0
sb(dp1072
I00
F-24.673166280570907
sI01
F57.949816131316155
ss(i__main__
State
p1073
(dp1074
g3
I2
sg4
I3
sg5
I2
sg6
F-4.0
sg7
F9.0
sg8
F4.0
sg9
F-8.0
sb(dp1075
I00
F304.73881794063027
sI01
F78.69860855095487
ss(i__main__
State
p1076
(dp1077
g3
I2
sg4
I3
sg5
I2
sg6
F-4.0
sg7
F10.0
sg8
F4.0
sg9
F1.0
sb(dp1078
I00
F613.8693270366294
sI01
F129.6853143392713
ss(i__main__
State
p1079
(dp1080
g3
I2
sg4
I3
sg5
I2
sg6
F-4.0
sg7
F5.0
sg8
F4.0
sg9
F7.0
sb(dp1081
I00
F47.03078404787181
sI01
F-22.310026119810946
ss(i__main__
State
p1082
(dp1083
g3
I2
sg4
I3
sg5
I2
sg6
F0.0
sg7
F2.0
sg8
F0.0
sg9
F-2.0
sb(dp1084
I00
F40.04843660835714
sI01
F12.989221813356735
ss(i__main__
State
p1085
(dp1086
g3
I2
sg4
I3
sg5
I2
sg6
F-8.0
sg7
F7.0
sg8
F8.0
sg9
F-5.0
sb(dp1087
I00
F123.7410040346526
sI01
F109.2378273928712
ss(i__main__
State
p1088
(dp1089
g3
I2
sg4
I3
sg5
I2
sg6
F-8.0
sg7
F10.0
sg8
F8.0
sg9
F-5.0
sb(dp1090
I00
F305.521722862588
sI01
F17.389075561378
ss(i__main__
State
p1091
(dp1092
g3
I2
sg4
I3
sg5
I2
sg6
F2.0
sg7
F1.0
sg8
F-2.0
sg9
F7.0
sb(dp1093
I00
F-20.602217386638138
sI01
F9.842528077821425
ss(i__main__
State
p1094
(dp1095
g3
I2
sg4
I3
sg5
I2
sg6
F-2.0
sg7
F3.0
sg8
F2.0
sg9
F-2.0
sb(dp1096
I00
F77.11043728657388
sI01
I-32
ss(i__main__
State
p1097
(dp1098
g3
I2
sg4
I3
sg5
I2
sg6
F-2.0
sg7
F3.0
sg8
F2.0
sg9
F7.0
sb(dp1099
I00
I-44
sI01
F61.37054686590592
ss(i__main__
State
p1100
(dp1101
g3
I2
sg4
I3
sg5
I2
sg6
F6.0
sg7
F2.0
sg8
F-6.0
sg9
F-2.0
sb(dp1102
I00
F65.50823842714962
sI01
F-21.469785754257508
ss(i__main__
State
p1103
(dp1104
g3
I2
sg4
I3
sg5
I2
sg6
F0.0
sg7
F9.0
sg8
F0.0
sg9
F-2.0
sb(dp1105
I00
F-885.8437057619929
sI01
F303.29898685572664
ss(i__main__
State
p1106
(dp1107
g3
I2
sg4
I3
sg5
I2
sg6
F4.0
sg7
F2.0
sg8
F-4.0
sg9
F-8.0
sb(dp1108
I00
F49.568423451088236
sI01
F-30.71394532639172
ss(i__main__
State
p1109
(dp1110
g3
I2
sg4
I3
sg5
I2
sg6
F-2.0
sg7
F4.0
sg8
F2.0
sg9
F4.0
sb(dp1111
I00
F75.9
sI01
F75.00436
ss(i__main__
State
p1112
(dp1113
g3
I2
sg4
I3
sg5
I2
sg6
F0.0
sg7
F0.0
sg8
F0.0
sg9
F7.0
sb(dp1114
I00
F-32.690438198408
sI01
F49.786824333273294
ss(i__main__
State
p1115
(dp1116
g3
I2
sg4
I3
sg5
I2
sg6
F-6.0
sg7
F0.0
sg8
F6.0
sg9
F-8.0
sb(dp1117
I00
F62.580092310368755
sI01
F30.273181551171902
ss(i__main__
State
p1118
(dp1119
g3
I2
sg4
I3
sg5
I2
sg6
F-2.0
sg7
F8.0
sg8
F2.0
sg9
F-2.0
sb(dp1120
I00
F60.7678544729846
sI01
F0.0
ss(i__main__
State
p1121
(dp1122
g3
I2
sg4
I3
sg5
I2
sg6
F-6.0
sg7
F3.0
sg8
F6.0
sg9
F7.0
sb(dp1123
I00
F28.046761407080666
sI01
F-5.833751773245398
ss(i__main__
State
p1124
(dp1125
g3
I2
sg4
I3
sg5
I2
sg6
F-8.0
sg7
F7.0
sg8
F8.0
sg9
F1.0
sb(dp1126
I00
F138.0248012709524
sI01
F44.85646179776476
ss(i__main__
State
p1127
(dp1128
g3
I2
sg4
I3
sg5
I2
sg6
F-8.0
sg7
F1.0
sg8
F8.0
sg9
F10.0
sb(dp1129
I00
F52.52305824497043
sI01
F-54.37870265549575
ss(i__main__
State
p1130
(dp1131
g3
I2
sg4
I3
sg5
I2
sg6
F-8.0
sg7
F1.0
sg8
F8.0
sg9
F-8.0
sb(dp1132
I00
F64.10753990087079
sI01
F48.10967361837657
ss(i__main__
State
p1133
(dp1134
g3
I2
sg4
I3
sg5
I2
sg6
F-6.0
sg7
F2.0
sg8
F6.0
sg9
F-2.0
sb(dp1135
I00
F-13.469579509749998
sI01
F50.00167566978046
ss(i__main__
State
p1136
(dp1137
g3
I2
sg4
I3
sg5
I2
sg6
F4.0
sg7
F7.0
sg8
F-4.0
sg9
F10.0
sb(dp1138
I00
F24.82059665175725
sI01
F286.90485799205993
ss(i__main__
State
p1139
(dp1140
g3
I2
sg4
I3
sg5
I2
sg6
F2.0
sg7
F2.0
sg8
F-2.0
sg9
F-5.0
sb(dp1141
I00
F45.076971665019194
sI01
F44.63715106571574
ss(i__main__
State
p1142
(dp1143
g3
I2
sg4
I3
sg5
I2
sg6
F4.0
sg7
F0.0
sg8
F-4.0
sg9
F7.0
sb(dp1144
I00
F-34.97265786759803
sI01
I-94
ss(i__main__
State
p1145
(dp1146
g3
I2
sg4
I3
sg5
I2
sg6
F-2.0
sg7
F6.0
sg8
F2.0
sg9
F1.0
sb(dp1147
I00
F35.719207293029974
sI01
F-52.45538900615609
ss(i__main__
State
p1148
(dp1149
g3
I2
sg4
I3
sg5
I2
sg6
F8.0
sg7
F1.0
sg8
F-8.0
sg9
F-8.0
sb(dp1150
I00
F20.495506435592652
sI01
F38.554916323825346
ss(i__main__
State
p1151
(dp1152
g3
I2
sg4
I3
sg5
I2
sg6
F-2.0
sg7
F5.0
sg8
F2.0
sg9
F-2.0
sb(dp1153
I00
F-53.30176062328301
sI01
F57.754302022305126
ss(i__main__
State
p1154
(dp1155
g3
I2
sg4
I3
sg5
I2
sg6
F4.0
sg7
F10.0
sg8
F-4.0
sg9
F-5.0
sb(dp1156
I00
F212.69308363239827
sI01
F52.6420464297359
ss(i__main__
State
p1157
(dp1158
g3
I2
sg4
I3
sg5
I2
sg6
F8.0
sg7
F3.0
sg8
F-8.0
sg9
F10.0
sb(dp1159
I00
F13.443382624832564
sI01
F75.49670341010915
ss(i__main__
State
p1160
(dp1161
g3
I2
sg4
I3
sg5
I2
sg6
F4.0
sg7
F8.0
sg8
F-4.0
sg9
F-8.0
sb(dp1162
I00
F130.69794524293044
sI01
F234.45040539011268
ss(i__main__
State
p1163
(dp1164
g3
I2
sg4
I3
sg5
I2
sg6
F-8.0
sg7
F4.0
sg8
F8.0
sg9
F-2.0
sb(dp1165
I00
F12.047642445787725
sI01
I-53
ss(i__main__
State
p1166
(dp1167
g3
I2
sg4
I3
sg5
I2
sg6
F-2.0
sg7
F8.0
sg8
F2.0
sg9
F1.0
sb(dp1168
I00
F141.71256223723952
sI01
F13.596940570836
ss(i__main__
State
p1169
(dp1170
g3
I2
sg4
I3
sg5
I2
sg6
F4.0
sg7
F6.0
sg8
F-4.0
sg9
F-2.0
sb(dp1171
I00
F90.20270555365033
sI01
F-9.066358706485051
ss(i__main__
State
p1172
(dp1173
g3
I2
sg4
I3
sg5
I2
sg6
F8.0
sg7
F1.0
sg8
F-8.0
sg9
F-2.0
sb(dp1174
I00
F-30.91005073768811
sI01
F65.97326334908907
ss(i__main__
State
p1175
(dp1176
g3
I2
sg4
I3
sg5
I2
sg6
F4.0
sg7
F5.0
sg8
F-4.0
sg9
F1.0
sb(dp1177
I00
F-15.405462395004047
sI01
F-42.34750971914668
ss(i__main__
State
p1178
(dp1179
g3
I2
sg4
I3
sg5
I2
sg6
F-8.0
sg7
F0.0
sg8
F8.0
sg9
F7.0
sb(dp1180
I00
F44.45389386847847
sI01
F-34.3
ss(i__main__
State
p1181
(dp1182
g3
I2
sg4
I3
sg5
I2
sg6
F4.0
sg7
F9.0
sg8
F-4.0
sg9
F-2.0
sb(dp1183
I00
F-90.0
sI01
F139.21501777107287
ss(i__main__
State
p1184
(dp1185
g3
I2
sg4
I3
sg5
I2
sg6
F4.0
sg7
F9.0
sg8
F-4.0
sg9
F7.0
sb(dp1186
I00
F608.8241869306268
sI01
F118.8038422865942
ss(i__main__
State
p1187
(dp1188
g3
I2
sg4
I3
sg5
I2
sg6
F-4.0
sg7
F0.0
sg8
F4.0
sg9
F1.0
sb(dp1189
I00
F-5.630380558740658
sI01
F47.42582027094938
ss(i__main__
State
p1190
(dp1191
g3
I2
sg4
I3
sg5
I2
sg6
F-6.0
sg7
F10.0
sg8
F6.0
sg9
F10.0
sb(dp1192
I00
F10.0
sI01
F78.01060675840662
ss(i__main__
State
p1193
(dp1194
g3
I2
sg4
I3
sg5
I2
sg6
F6.0
sg7
F7.0
sg8
F-6.0
sg9
F10.0
sb(dp1195
I00
I-55
sI01
F35.74768053638704
ss(i__main__
State
p1196
(dp1197
g3
I2
sg4
I3
sg5
I2
sg6
F-4.0
sg7
F5.0
sg8
F4.0
sg9
F-8.0
sb(dp1198
I00
F-4.339267301547668
sI01
F31.754200418588532
ss(i__main__
State
p1199
(dp1200
g3
I2
sg4
I3
sg5
I2
sg6
F6.0
sg7
F4.0
sg8
F-6.0
sg9
F-5.0
sb(dp1201
I00
F-29.011134203218774
sI01
F47.79105609659082
ss(i__main__
State
p1202
(dp1203
g3
I2
sg4
I3
sg5
I2
sg6
F6.0
sg7
F3.0
sg8
F-6.0
sg9
F-8.0
sb(dp1204
I00
F2.4429264349999995
sI01
F45.94971858847572
ss(i__main__
State
p1205
(dp1206
g3
I2
sg4
I3
sg5
I2
sg6
F-4.0
sg7
F9.0
sg8
F4.0
sg9
F7.0
sb(dp1207
I00
F243.9986724486656
sI01
F32.623778399
ss(i__main__
State
p1208
(dp1209
g3
I2
sg4
I3
sg5
I2
sg6
F6.0
sg7
F6.0
sg8
F-6.0
sg9
F7.0
sb(dp1210
I00
F-58.34468397906813
sI01
F56.046166413232264
ss(i__main__
State
p1211
(dp1212
g3
I2
sg4
I3
sg5
I2
sg6
F-4.0
sg7
F7.0
sg8
F4.0
sg9
F4.0
sb(dp1213
I00
F159.59948188397863
sI01
F-46.0489
ss(i__main__
State
p1214
(dp1215
g3
I2
sg4
I3
sg5
I2
sg6
F8.0
sg7
F8.0
sg8
F-8.0
sg9
F-2.0
sb(dp1216
I00
F415.63511075652764
sI01
F-2037.894948055398
ss(i__main__
State
p1217
(dp1218
g3
I2
sg4
I3
sg5
I2
sg6
F4.0
sg7
F4.0
sg8
F-4.0
sg9
F1.0
sb(dp1219
I00
F5.34300041375306
sI01
F265.8840495624211
ss(i__main__
State
p1220
(dp1221
g3
I2
sg4
I3
sg5
I2
sg6
F0.0
sg7
F6.0
sg8
F0.0
sg9
F4.0
sb(dp1222
I00
F-40.63307361736101
sI01
F111.46443204586913
ss(i__main__
State
p1223
(dp1224
g3
I2
sg4
I3
sg5
I2
sg6
F8.0
sg7
F10.0
sg8
F-8.0
sg9
F7.0
sb(dp1225
I00
F287.61694985500634
sI01
F32.0994596384141
ss(i__main__
State
p1226
(dp1227
g3
I2
sg4
I3
sg5
I2
sg6
F6.0
sg7
F1.0
sg8
F-6.0
sg9
F-2.0
sb(dp1228
I00
F15.389660000000001
sI01
F65.43155753857957
ss(i__main__
State
p1229
(dp1230
g3
I2
sg4
I3
sg5
I2
sg6
F0.0
sg7
F5.0
sg8
F0.0
sg9
F-5.0
sb(dp1231
I00
F-4.977910879143777
sI01
I-97
ss(i__main__
State
p1232
(dp1233
g3
I2
sg4
I3
sg5
I2
sg6
F-6.0
sg7
F2.0
sg8
F6.0
sg9
F4.0
sb(dp1234
I00
F58.79438416852419
sI01
I-28
ss(i__main__
State
p1235
(dp1236
g3
I2
sg4
I3
sg5
I2
sg6
F6.0
sg7
F9.0
sg8
F-6.0
sg9
F-8.0
sb(dp1237
I00
F185.58786605040913
sI01
F30.693385309757204
ss(i__main__
State
p1238
(dp1239
g3
I2
sg4
I3
sg5
I2
sg6
F6.0
sg7
F5.0
sg8
F-6.0
sg9
F-5.0
sb(dp1240
I00
F40.21867653301857
sI01
F19.160343498096978
ss(i__main__
State
p1241
(dp1242
g3
I2
sg4
I3
sg5
I2
sg6
F4.0
sg7
F0.0
sg8
F-4.0
sg9
F-8.0
sb(dp1243
I00
F24.618997855189594
sI01
F-35.408935280926954
ss(i__main__
State
p1244
(dp1245
g3
I2
sg4
I3
sg5
I2
sg6
F4.0
sg7
F10.0
sg8
F-4.0
sg9
F-2.0
sb(dp1246
I00
F18.68522791586538
sI01
F0.0
ss(i__main__
State
p1247
(dp1248
g3
I2
sg4
I3
sg5
I2
sg6
F0.0
sg7
F0.0
sg8
F0.0
sg9
F1.0
sb(dp1249
I00
F-10.729908927170868
sI01
F7.483166977694369
ss(i__main__
State
p1250
(dp1251
g3
I2
sg4
I3
sg5
I2
sg6
F6.0
sg7
F3.0
sg8
F-6.0
sg9
F7.0
sb(dp1252
I00
F-59.64025695801
sI01
F39.9225430415682
ss(i__main__
State
p1253
(dp1254
g3
I2
sg4
I3
sg5
I2
sg6
F0.0
sg7
F10.0
sg8
F0.0
sg9
F7.0
sb(dp1255
I00
F-5646.852660849309
sI01
F-5654.772001224151
ss(i__main__
State
p1256
(dp1257
g3
I2
sg4
I3
sg5
I2
sg6
F4.0
sg7
F1.0
sg8
F-4.0
sg9
F4.0
sb(dp1258
I00
F-58.274507539715124
sI01
F22.003133071363024
ss(i__main__
State
p1259
(dp1260
g3
I2
sg4
I3
sg5
I2
sg6
F6.0
sg7
F2.0
sg8
F-6.0
sg9
F-8.0
sb(dp1261
I00
F-44.71086899215645
sI01
F22.13668222143422
ss(i__main__
State
p1262
(dp1263
g3
I2
sg4
I3
sg5
I2
sg6
F2.0
sg7
F5.0
sg8
F-2.0
sg9
F4.0
sb(dp1264
I00
F-47.203725285697246
sI01
F364.4565588312263
ss(i__main__
State
p1265
(dp1266
g3
I2
sg4
I3
sg5
I2
sg6
F0.0
sg7
F4.0
sg8
F0.0
sg9
F4.0
sb(dp1267
I00
F62.44908563600439
sI01
F63.3448460955917
ss(i__main__
State
p1268
(dp1269
g3
I2
sg4
I3
sg5
I2
sg6
F-2.0
sg7
F10.0
sg8
F2.0
sg9
F7.0
sb(dp1270
I00
F194.27010556602406
sI01
F26.156143425752155
ss(i__main__
State
p1271
(dp1272
g3
I2
sg4
I3
sg5
I2
sg6
F-4.0
sg7
F0.0
sg8
F4.0
sg9
F4.0
sb(dp1273
I00
F63.26614819690377
sI01
F-42.51125055667229
ss(i__main__
State
p1274
(dp1275
g3
I2
sg4
I3
sg5
I2
sg6
F8.0
sg7
F10.0
sg8
F-8.0
sg9
F1.0
sb(dp1276
I00
F372.4391976722599
sI01
F75.71706201910212
ss(i__main__
State
p1277
(dp1278
g3
I2
sg4
I3
sg5
I2
sg6
F-2.0
sg7
F0.0
sg8
F2.0
sg9
F10.0
sb(dp1279
I00
F-58.2
sI01
F68.81508233481462
ss(i__main__
State
p1280
(dp1281
g3
I2
sg4
I3
sg5
I2
sg6
F0.0
sg7
F7.0
sg8
F0.0
sg9
F-5.0
sb(dp1282
I00
F36.64603848543346
sI01
F-3.5
ss(i__main__
State
p1283
(dp1284
g3
I2
sg4
I3
sg5
I2
sg6
F-6.0
sg7
F5.0
sg8
F6.0
sg9
F-8.0
sb(dp1285
I00
I-86
sI01
F-20.275122226107857
ss(i__main__
State
p1286
(dp1287
g3
I2
sg4
I3
sg5
I2
sg6
F4.0
sg7
F7.0
sg8
F-4.0
sg9
F7.0
sb(dp1288
I00
F9.083929999999999
sI01
F429.1674144418637
ss(i__main__
State
p1289
(dp1290
g3
I2
sg4
I3
sg5
I2
sg6
F-8.0
sg7
F4.0
sg8
F8.0
sg9
F-8.0
sb(dp1291
I00
F44.10730862913548
sI01
F83.11094769006293
ss(i__main__
State
p1292
(dp1293
g3
I2
sg4
I3
sg5
I2
sg6
F4.0
sg7
F10.0
sg8
F-4.0
sg9
F-8.0
sb(dp1294
I00
F189.59581566857563
sI01
F10.600000000000001
ss(i__main__
State
p1295
(dp1296
g3
I2
sg4
I3
sg5
I2
sg6
F4.0
sg7
F3.0
sg8
F-4.0
sg9
F-8.0
sb(dp1297
I00
F-54.17004541151434
sI01
F34.38147641212312
ss(i__main__
State
p1298
(dp1299
g3
I2
sg4
I3
sg5
I2
sg6
F-2.0
sg7
F9.0
sg8
F2.0
sg9
F7.0
sb(dp1300
I00
F94.39992269663703
sI01
F248.36616871893986
ss(i__main__
State
p1301
(dp1302
g3
I2
sg4
I3
sg5
I2
sg6
F0.0
sg7
F8.0
sg8
F0.0
sg9
F-5.0
sb(dp1303
I00
F-2704.355191019
sI01
F-3358.268333925995
ss(i__main__
State
p1304
(dp1305
g3
I2
sg4
I3
sg5
I2
sg6
F-2.0
sg7
F9.0
sg8
F2.0
sg9
F-5.0
sb(dp1306
I00
F474.40514221549165
sI01
F271.9667071185021
ss(i__main__
State
p1307
(dp1308
g3
I2
sg4
I3
sg5
I2
sg6
F6.0
sg7
F0.0
sg8
F-6.0
sg9
F7.0
sb(dp1309
I00
F-68.04858839265668
sI01
F46.65468414133373
ss(i__main__
State
p1310
(dp1311
g3
I2
sg4
I3
sg5
I2
sg6
F-8.0
sg7
F9.0
sg8
F8.0
sg9
F1.0
sb(dp1312
I00
F-3424.370731482659
sI01
F-4629.256966245026
ss(i__main__
State
p1313
(dp1314
g3
I2
sg4
I3
sg5
I2
sg6
F-6.0
sg7
F5.0
sg8
F6.0
sg9
F-2.0
sb(dp1315
I00
F416.41716555365326
sI01
F69.4586366079081
ss(i__main__
State
p1316
(dp1317
g3
I2
sg4
I3
sg5
I2
sg6
F-8.0
sg7
F7.0
sg8
F8.0
sg9
F-2.0
sb(dp1318
I00
F73.0718811279151
sI01
F572.2014120791074
ss(i__main__
State
p1319
(dp1320
g3
I2
sg4
I3
sg5
I2
sg6
F4.0
sg7
F2.0
sg8
F-4.0
sg9
F1.0
sb(dp1321
I00
F-44.255530760110766
sI01
F64.67865406508733
ss(i__main__
State
p1322
(dp1323
g3
I2
sg4
I3
sg5
I2
sg6
F-4.0
sg7
F4.0
sg8
F4.0
sg9
F4.0
sb(dp1324
I00
F20.66451664495767
sI01
F-19.15691039171581
ss(i__main__
State
p1325
(dp1326
g3
I2
sg4
I3
sg5
I2
sg6
F2.0
sg7
F7.0
sg8
F-2.0
sg9
F4.0
sb(dp1327
I00
F22.1240125451458
sI01
F-459.82062700000006
ss(i__main__
State
p1328
(dp1329
g3
I2
sg4
I3
sg5
I2
sg6
F-6.0
sg7
F3.0
sg8
F6.0
sg9
F1.0
sb(dp1330
I00
F41.27769213408797
sI01
F-45.51979777209954
ss(i__main__
State
p1331
(dp1332
g3
I2
sg4
I3
sg5
I2
sg6
F-8.0
sg7
F0.0
sg8
F8.0
sg9
F1.0
sb(dp1333
I00
F30.50162547799819
sI01
F-38.663278907584285
ss(i__main__
State
p1334
(dp1335
g3
I2
sg4
I3
sg5
I2
sg6
F8.0
sg7
F4.0
sg8
F-8.0
sg9
F-5.0
sb(dp1336
I00
F-52.57594722958613
sI01
F30.4326460798803
ss(i__main__
State
p1337
(dp1338
g3
I2
sg4
I3
sg5
I2
sg6
F2.0
sg7
F7.0
sg8
F-2.0
sg9
F10.0
sb(dp1339
I00
F-24.574
sI01
F-128.4134288483147
ss(i__main__
State
p1340
(dp1341
g3
I2
sg4
I3
sg5
I2
sg6
F-8.0
sg7
F6.0
sg8
F8.0
sg9
F4.0
sb(dp1342
I00
F-0.5712116639675093
sI01
I-81
ss(i__main__
State
p1343
(dp1344
g3
I2
sg4
I3
sg5
I2
sg6
F8.0
sg7
F7.0
sg8
F-8.0
sg9
F4.0
sb(dp1345
I00
F351.0490035580994
sI01
F99.70882028590776
ss(i__main__
State
p1346
(dp1347
g3
I2
sg4
I3
sg5
I2
sg6
F-4.0
sg7
F10.0
sg8
F4.0
sg9
F4.0
sb(dp1348
I00
F229.49281524624598
sI01
F75.11746932988673
ss(i__main__
State
p1349
(dp1350
g3
I2
sg4
I3
sg5
I2
sg6
F0.0
sg7
F1.0
sg8
F0.0
sg9
F-8.0
sb(dp1351
I00
F39.05427168014076
sI01
I-10
ss(i__main__
State
p1352
(dp1353
g3
I2
sg4
I3
sg5
I2
sg6
F-2.0
sg7
F9.0
sg8
F2.0
sg9
F10.0
sb(dp1354
I00
F309.0815946270268
sI01
F113.61432823685266
ss(i__main__
State
p1355
(dp1356
g3
I2
sg4
I3
sg5
I2
sg6
F-6.0
sg7
F3.0
sg8
F6.0
sg9
F-2.0
sb(dp1357
I00
F-25.817196003800106
sI01
F-2.364404094153783
ss(i__main__
State
p1358
(dp1359
g3
I2
sg4
I3
sg5
I2
sg6
F4.0
sg7
F8.0
sg8
F-4.0
sg9
F-2.0
sb(dp1360
I00
F452.9136984862141
sI01
F-3789.876958162783
ss(i__main__
State
p1361
(dp1362
g3
I2
sg4
I3
sg5
I2
sg6
F2.0
sg7
F0.0
sg8
F-2.0
sg9
F4.0
sb(dp1363
I00
F-28.610578647767078
sI01
F-69.8
ss(i__main__
State
p1364
(dp1365
g3
I2
sg4
I3
sg5
I2
sg6
F-2.0
sg7
F0.0
sg8
F2.0
sg9
F-5.0
sb(dp1366
I00
F-29.433139131820752
sI01
F48.50514143112819
ss(i__main__
State
p1367
(dp1368
g3
I2
sg4
I3
sg5
I2
sg6
F4.0
sg7
F4.0
sg8
F-4.0
sg9
F4.0
sb(dp1369
I00
F75.83951163285026
sI01
F17.648276621984937
ss(i__main__
State
p1370
(dp1371
g3
I2
sg4
I3
sg5
I2
sg6
F6.0
sg7
F10.0
sg8
F-6.0
sg9
F-5.0
sb(dp1372
I00
F10.0
sI01
F0.0
ss(i__main__
State
p1373
(dp1374
g3
I2
sg4
I3
sg5
I2
sg6
F2.0
sg7
F0.0
sg8
F-2.0
sg9
F7.0
sb(dp1375
I00
F-29.006172721080986
sI01
F54.32171563355636
ss(i__main__
State
p1376
(dp1377
g3
I2
sg4
I3
sg5
I2
sg6
F6.0
sg7
F8.0
sg8
F-6.0
sg9
F4.0
sb(dp1378
I00
F716.9942686080207
sI01
F241.87766709101953
ss(i__main__
State
p1379
(dp1380
g3
I2
sg4
I3
sg5
I2
sg6
F4.0
sg7
F5.0
sg8
F-4.0
sg9
F10.0
sb(dp1381
I00
F-43.793795173999996
sI01
F33.56638434733758
ss(i__main__
State
p1382
(dp1383
g3
I2
sg4
I3
sg5
I2
sg6
F-8.0
sg7
F8.0
sg8
F8.0
sg9
F7.0
sb(dp1384
I00
F267.6229545876997
sI01
F63.76853798311272
ss(i__main__
State
p1385
(dp1386
g3
I2
sg4
I3
sg5
I2
sg6
F2.0
sg7
F10.0
sg8
F-2.0
sg9
F-2.0
sb(dp1387
I00
F-4341.398092818499
sI01
F108.15154535337955
ss(i__main__
State
p1388
(dp1389
g3
I2
sg4
I3
sg5
I2
sg6
F0.0
sg7
F9.0
sg8
F0.0
sg9
F10.0
sb(dp1390
I00
F440.42171711817
sI01
F65.4772655184231
ss(i__main__
State
p1391
(dp1392
g3
I2
sg4
I3
sg5
I2
sg6
F6.0
sg7
F4.0
sg8
F-6.0
sg9
F-8.0
sb(dp1393
I00
F48.008875908738624
sI01
F-4.103667498611061
ss(i__main__
State
p1394
(dp1395
g3
I2
sg4
I3
sg5
I2
sg6
F8.0
sg7
F9.0
sg8
F-8.0
sg9
F-5.0
sb(dp1396
I00
F318.9418826398421
sI01
F87.44768339887047
ss(i__main__
State
p1397
(dp1398
g3
I2
sg4
I3
sg5
I2
sg6
F6.0
sg7
F10.0
sg8
F-6.0
sg9
F7.0
sb(dp1399
I00
F42.155135317983834
sI01
F118.58973631344888
ss(i__main__
State
p1400
(dp1401
g3
I2
sg4
I3
sg5
I2
sg6
F-8.0
sg7
F1.0
sg8
F8.0
sg9
F1.0
sb(dp1402
I00
F65.47457796581429
sI01
F37.110140007292514
ss(i__main__
State
p1403
(dp1404
g3
I2
sg4
I3
sg5
I2
sg6
F6.0
sg7
F8.0
sg8
F-6.0
sg9
F-5.0
sb(dp1405
I00
F470.97709482521077
sI01
F57.799590513888965
ss(i__main__
State
p1406
(dp1407
g3
I2
sg4
I3
sg5
I2
sg6
F-6.0
sg7
F0.0
sg8
F6.0
sg9
F10.0
sb(dp1408
I00
F19.13354465751812
sI01
F52.33782151807923
ss(i__main__
State
p1409
(dp1410
g3
I2
sg4
I3
sg5
I2
sg6
F-2.0
sg7
F0.0
sg8
F2.0
sg9
F-8.0
sb(dp1411
I00
F42.11217727083805
sI01
F-38.519999999999996
ss(i__main__
State
p1412
(dp1413
g3
I2
sg4
I3
sg5
I2
sg6
F-8.0
sg7
F9.0
sg8
F8.0
sg9
F10.0
sb(dp1414
I00
F50.188869909
sI01
F16.179715649660192
ss(i__main__
State
p1415
(dp1416
g3
I2
sg4
I3
sg5
I2
sg6
F-2.0
sg7
F10.0
sg8
F2.0
sg9
F-2.0
sb(dp1417
I00
F473.1634516803641
sI01
F46.18444729430058
ss(i__main__
State
p1418
(dp1419
g3
I2
sg4
I3
sg5
I2
sg6
F6.0
sg7
F6.0
sg8
F-6.0
sg9
F4.0
sb(dp1420
I00
F-36.6
sI01
F112.27487333216587
ss(i__main__
State
p1421
(dp1422
g3
I2
sg4
I3
sg5
I2
sg6
F4.0
sg7
F4.0
sg8
F-4.0
sg9
F-5.0
sb(dp1423
I00
F43.24092795116157
sI01
F36.847717970957426
ss(i__main__
State
p1424
(dp1425
g3
I2
sg4
I3
sg5
I2
sg6
F0.0
sg7
F10.0
sg8
F0.0
sg9
F10.0
sb(dp1426
I00
F-4671.364818885227
sI01
F-4089.5488205072315
ss(i__main__
State
p1427
(dp1428
g3
I2
sg4
I3
sg5
I2
sg6
F0.0
sg7
F1.0
sg8
F0.0
sg9
F4.0
sb(dp1429
I00
F58.84629725638417
sI01
F23.86603999103985
ss(i__main__
State
p1430
(dp1431
g3
I2
sg4
I3
sg5
I2
sg6
F-8.0
sg7
F3.0
sg8
F8.0
sg9
F10.0
sb(dp1432
I00
F29.735759464640296
sI01
F9.66861168683067
ss(i__main__
State
p1433
(dp1434
g3
I2
sg4
I3
sg5
I2
sg6
F-4.0
sg7
F1.0
sg8
F4.0
sg9
F-2.0
sb(dp1435
I00
F62.527423841245444
sI01
F14.060455063004756
ss(i__main__
State
p1436
(dp1437
g3
I2
sg4
I3
sg5
I2
sg6
F6.0
sg7
F9.0
sg8
F-6.0
sg9
F-5.0
sb(dp1438
I00
F143.61405249923413
sI01
F0.0
ss(i__main__
State
p1439
(dp1440
g3
I2
sg4
I3
sg5
I2
sg6
F8.0
sg7
F7.0
sg8
F-8.0
sg9
F-5.0
sb(dp1441
I00
F54.23818370250041
sI01
F249.18099818643407
ss(i__main__
State
p1442
(dp1443
g3
I2
sg4
I3
sg5
I2
sg6
F8.0
sg7
F5.0
sg8
F-8.0
sg9
F4.0
sb(dp1444
I00
F11.892061963461314
sI01
F-8.658338915347269
ss(i__main__
State
p1445
(dp1446
g3
I2
sg4
I3
sg5
I2
sg6
F8.0
sg7
F4.0
sg8
F-8.0
sg9
F4.0
sb(dp1447
I00
F-11.261278062569803
sI01
F7.165743529436629
ss(i__main__
State
p1448
(dp1449
g3
I2
sg4
I3
sg5
I2
sg6
F0.0
sg7
F6.0
sg8
F0.0
sg9
F10.0
sb(dp1450
I00
F104.63491504010963
sI01
F-24.245791343146365
ss(i__main__
State
p1451
(dp1452
g3
I2
sg4
I3
sg5
I2
sg6
F2.0
sg7
F0.0
sg8
F-2.0
sg9
F-2.0
sb(dp1453
I00
F-75.13052051990195
sI01
F16.17262160249918
ss(i__main__
State
p1454
(dp1455
g3
I2
sg4
I3
sg5
I2
sg6
F2.0
sg7
F5.0
sg8
F-2.0
sg9
F7.0
sb(dp1456
I00
F9.853156161439987
sI01
F66.31516765546216
ss(i__main__
State
p1457
(dp1458
g3
I2
sg4
I3
sg5
I2
sg6
F-2.0
sg7
F7.0
sg8
F2.0
sg9
F-2.0
sb(dp1459
I00
F-15.726592808189121
sI01
F85.1748881552075
ss(i__main__
State
p1460
(dp1461
g3
I2
sg4
I3
sg5
I2
sg6
F-4.0
sg7
F7.0
sg8
F4.0
sg9
F1.0
sb(dp1462
I00
F89.19087303127961
sI01
F-13.531834030548243
ss(i__main__
State
p1463
(dp1464
g3
I2
sg4
I3
sg5
I2
sg6
F-6.0
sg7
F9.0
sg8
F6.0
sg9
F-8.0
sb(dp1465
I00
F100.0085168355603
sI01
F334.59345036326533
ss(i__main__
State
p1466
(dp1467
g3
I2
sg4
I3
sg5
I2
sg6
F-2.0
sg7
F6.0
sg8
F2.0
sg9
F-5.0
sb(dp1468
I00
F44.47122883679468
sI01
F-34.209
ss(i__main__
State
p1469
(dp1470
g3
I2
sg4
I3
sg5
I2
sg6
F-6.0
sg7
F9.0
sg8
F6.0
sg9
F10.0
sb(dp1471
I00
F360.7408246531881
sI01
F86.12144823447116
ss(i__main__
State
p1472
(dp1473
g3
I2
sg4
I3
sg5
I2
sg6
F8.0
sg7
F2.0
sg8
F-8.0
sg9
F-5.0
sb(dp1474
I00
F-11.143735396537354
sI01
F65.67851370584748
ss(i__main__
State
p1475
(dp1476
g3
I2
sg4
I3
sg5
I2
sg6
F6.0
sg7
F10.0
sg8
F-6.0
sg9
F10.0
sb(dp1477
I00
F241.6796502951265
sI01
F96.3736492249806
ss(i__main__
State
p1478
(dp1479
g3
I2
sg4
I3
sg5
I2
sg6
F-2.0
sg7
F1.0
sg8
F2.0
sg9
F1.0
sb(dp1480
I00
F-55.8668335008
sI01
F56.84138969313473
ss(i__main__
State
p1481
(dp1482
g3
I2
sg4
I3
sg5
I2
sg6
F-6.0
sg7
F10.0
sg8
F6.0
sg9
F-8.0
sb(dp1483
I00
F48.57170991406604
sI01
F99.32796701880243
ss(i__main__
State
p1484
(dp1485
g3
I2
sg4
I3
sg5
I2
sg6
F8.0
sg7
F2.0
sg8
F-8.0
sg9
F4.0
sb(dp1486
I00
F-60.06271727384707
sI01
F53.89612297633516
ss(i__main__
State
p1487
(dp1488
g3
I2
sg4
I3
sg5
I2
sg6
F4.0
sg7
F2.0
sg8
F-4.0
sg9
F-2.0
sb(dp1489
I00
F52.55062921249516
sI01
I-75
ss(i__main__
State
p1490
(dp1491
g3
I2
sg4
I3
sg5
I2
sg6
F0.0
sg7
F10.0
sg8
F0.0
sg9
F-8.0
sb(dp1492
I00
F-7022.942600129036
sI01
F-7434.002811148997
ss(i__main__
State
p1493
(dp1494
g3
I2
sg4
I3
sg5
I2
sg6
F0.0
sg7
F3.0
sg8
F0.0
sg9
F-2.0
sb(dp1495
I00
F37.974341785161606
sI01
F35.8756342963287
ss(i__main__
State
p1496
(dp1497
g3
I2
sg4
I3
sg5
I2
sg6
F4.0
sg7
F3.0
sg8
F-4.0
sg9
F7.0
sb(dp1498
I00
F44.214777158332645
sI01
F-8.87096298
ss(i__main__
State
p1499
(dp1500
g3
I2
sg4
I3
sg5
I2
sg6
F-6.0
sg7
F9.0
sg8
F6.0
sg9
F-2.0
sb(dp1501
I00
F-72.9
sI01
F90.37275730769535
ss(i__main__
State
p1502
(dp1503
g3
I2
sg4
I3
sg5
I2
sg6
F4.0
sg7
F7.0
sg8
F-4.0
sg9
F-8.0
sb(dp1504
I00
F18.972248131171202
sI01
F156.82460770231683
ss(i__main__
State
p1505
(dp1506
g3
I2
sg4
I3
sg5
I2
sg6
F-8.0
sg7
F7.0
sg8
F8.0
sg9
F10.0
sb(dp1507
I00
F32.812475271960366
sI01
F346.1312186530783
ss(i__main__
State
p1508
(dp1509
g3
I2
sg4
I3
sg5
I2
sg6
F-6.0
sg7
F4.0
sg8
F6.0
sg9
F1.0
sb(dp1510
I00
F-1.947783784428489
sI01
F-6.403282413461453
ss(i__main__
State
p1511
(dp1512
g3
I2
sg4
I3
sg5
I2
sg6
F8.0
sg7
F10.0
sg8
F-8.0
sg9
F-2.0
sb(dp1513
I00
F247.23182791932652
sI01
F53.44362962030185
ss(i__main__
State
p1514
(dp1515
g3
I2
sg4
I3
sg5
I2
sg6
F2.0
sg7
F0.0
sg8
F-2.0
sg9
F1.0
sb(dp1516
I00
I18
sI01
F52.408254246917444
ss(i__main__
State
p1517
(dp1518
g3
I2
sg4
I3
sg5
I2
sg6
F-4.0
sg7
F2.0
sg8
F4.0
sg9
F4.0
sb(dp1519
I00
F-12.7
sI01
F37.74508276564462
ss(i__main__
State
p1520
(dp1521
g3
I2
sg4
I3
sg5
I2
sg6
F-8.0
sg7
F10.0
sg8
F8.0
sg9
F-8.0
sb(dp1522
I00
F99.55206553863606
sI01
F10.30890084294068
ss(i__main__
State
p1523
(dp1524
g3
I2
sg4
I3
sg5
I2
sg6
F0.0
sg7
F10.0
sg8
F0.0
sg9
F-5.0
sb(dp1525
I00
F-5574.200417642667
sI01
F-5201.830970932167
ss(i__main__
State
p1526
(dp1527
g3
I2
sg4
I3
sg5
I2
sg6
F-4.0
sg7
F6.0
sg8
F4.0
sg9
F-8.0
sb(dp1528
I00
F20.041279558468005
sI01
F309.5775680139775
ss(i__main__
State
p1529
(dp1530
g3
I2
sg4
I3
sg5
I2
sg6
F-6.0
sg7
F4.0
sg8
F6.0
sg9
F7.0
sb(dp1531
I00
F40.08336777220353
sI01
F-4.393724768000002
ss(i__main__
State
p1532
(dp1533
g3
I2
sg4
I3
sg5
I2
sg6
F8.0
sg7
F5.0
sg8
F-8.0
sg9
F-5.0
sb(dp1534
I00
F48.039706354200334
sI01
F107.92795941526612
ss(i__main__
State
p1535
(dp1536
g3
I2
sg4
I3
sg5
I2
sg6
F6.0
sg7
F9.0
sg8
F-6.0
sg9
F4.0
sb(dp1537
I00
F524.828401574446
sI01
F129.20521991315624
ss(i__main__
State
p1538
(dp1539
g3
I2
sg4
I3
sg5
I2
sg6
F8.0
sg7
F6.0
sg8
F-8.0
sg9
F4.0
sb(dp1540
I00
F-2.2478664527066377
sI01
F627.7712746764423
ss(i__main__
State
p1541
(dp1542
g3
I2
sg4
I3
sg5
I2
sg6
F-2.0
sg7
F3.0
sg8
F2.0
sg9
F4.0
sb(dp1543
I00
F30.11682376675375
sI01
F3.126788150794354
ss(i__main__
State
p1544
(dp1545
g3
I2
sg4
I3
sg5
I2
sg6
F6.0
sg7
F6.0
sg8
F-6.0
sg9
F-8.0
sb(dp1546
I00
F-3.8844775197130765
sI01
F56.519230642224564
ss(i__main__
State
p1547
(dp1548
g3
I2
sg4
I3
sg5
I2
sg6
F-8.0
sg7
F2.0
sg8
F8.0
sg9
F-2.0
sb(dp1549
I00
F71.29615559847625
sI01
F-48.92202511071154
ss(i__main__
State
p1550
(dp1551
g3
I2
sg4
I3
sg5
I2
sg6
F-2.0
sg7
F10.0
sg8
F2.0
sg9
F4.0
sb(dp1552
I00
F166.15045243682303
sI01
F33.36410315573261
ss(i__main__
State
p1553
(dp1554
g3
I2
sg4
I3
sg5
I2
sg6
F-6.0
sg7
F5.0
sg8
F6.0
sg9
F-5.0
sb(dp1555
I00
I28
sI01
F46.51297276180736
ss(i__main__
State
p1556
(dp1557
g3
I2
sg4
I3
sg5
I2
sg6
F-6.0
sg7
F1.0
sg8
F6.0
sg9
F4.0
sb(dp1558
I00
F63.431437345007524
sI01
F-34.68117007683695
ss(i__main__
State
p1559
(dp1560
g3
I2
sg4
I3
sg5
I2
sg6
F-4.0
sg7
F8.0
sg8
F4.0
sg9
F7.0
sb(dp1561
I00
F36.5755300605162
sI01
F384.60990060714084
ss(i__main__
State
p1562
(dp1563
g3
I2
sg4
I3
sg5
I2
sg6
F-4.0
sg7
F5.0
sg8
F4.0
sg9
F4.0
sb(dp1564
I00
F32.06276565824367
sI01
F-6.734010631670708
ss(i__main__
State
p1565
(dp1566
g3
I2
sg4
I3
sg5
I2
sg6
F-6.0
sg7
F2.0
sg8
F6.0
sg9
F-8.0
sb(dp1567
I00
F-8.548424500760934
sI01
F51.98341194430033
ss(i__main__
State
p1568
(dp1569
g3
I2
sg4
I3
sg5
I2
sg6
F6.0
sg7
F10.0
sg8
F-6.0
sg9
F-8.0
sb(dp1570
I00
F309.9552199003546
sI01
F80.03882615141688
ss(i__main__
State
p1571
(dp1572
g3
I2
sg4
I3
sg5
I2
sg6
F8.0
sg7
F9.0
sg8
F-8.0
sg9
F4.0
sb(dp1573
I00
F111.44073958550183
sI01
F21.52524434896973
ss(i__main__
State
p1574
(dp1575
g3
I2
sg4
I3
sg5
I2
sg6
F6.0
sg7
F4.0
sg8
F-6.0
sg9
F4.0
sb(dp1576
I00
F5.953921718309266
sI01
F-36.79911293130995
ss(i__main__
State
p1577
(dp1578
g3
I2
sg4
I3
sg5
I2
sg6
F0.0
sg7
F5.0
sg8
F0.0
sg9
F-2.0
sb(dp1579
I00
F1.9234523473700378
sI01
F3.7368003292358605
ss(i__main__
State
p1580
(dp1581
g3
I2
sg4
I3
sg5
I2
sg6
F8.0
sg7
F6.0
sg8
F-8.0
sg9
F1.0
sb(dp1582
I00
F-17.802862601366463
sI01
F77.06977000427887
ss(i__main__
State
p1583
(dp1584
g3
I2
sg4
I3
sg5
I2
sg6
F2.0
sg7
F9.0
sg8
F-2.0
sg9
F10.0
sb(dp1585
I00
F617.3209178602779
sI01
F-4346.113909077522
ss(i__main__
State
p1586
(dp1587
g3
I2
sg4
I3
sg5
I2
sg6
F4.0
sg7
F9.0
sg8
F-4.0
sg9
F1.0
sb(dp1588
I00
F-5601.402588863167
sI01
F-5172.589396257223
ss(i__main__
State
p1589
(dp1590
g3
I2
sg4
I3
sg5
I2
sg6
F-4.0
sg7
F4.0
sg8
F4.0
sg9
F-8.0
sb(dp1591
I00
F58.64613331189072
sI01
F-43.52876358308767
ss(i__main__
State
p1592
(dp1593
g3
I2
sg4
I3
sg5
I2
sg6
F4.0
sg7
F5.0
sg8
F-4.0
sg9
F-2.0
sb(dp1594
I00
F60.652033950530445
sI01
F-3.9691480516700643
ss(i__main__
State
p1595
(dp1596
g3
I2
sg4
I3
sg5
I2
sg6
F6.0
sg7
F10.0
sg8
F-6.0
sg9
F4.0
sb(dp1597
I00
F311.0097620195593
sI01
F13.984526614121151
ss(i__main__
State
p1598
(dp1599
g3
I2
sg4
I3
sg5
I2
sg6
F8.0
sg7
F1.0
sg8
F-8.0
sg9
F1.0
sb(dp1600
I00
F29.70646306581901
sI01
F-11.814817042249
ss(i__main__
State
p1601
(dp1602
g3
I2
sg4
I3
sg5
I2
sg6
F2.0
sg7
F3.0
sg8
F-2.0
sg9
F10.0
sb(dp1603
I00
F28.384374127290815
sI01
F42.37105870289003
ss(i__main__
State
p1604
(dp1605
g3
I2
sg4
I3
sg5
I2
sg6
F4.0
sg7
F6.0
sg8
F-4.0
sg9
F1.0
sb(dp1606
I00
F267.4768209260519
sI01
F-22.427154796378307
ss(i__main__
State
p1607
(dp1608
g3
I2
sg4
I3
sg5
I2
sg6
F0.0
sg7
F3.0
sg8
F0.0
sg9
F10.0
sb(dp1609
I00
F-2.718344472970599
sI01
F65.01691589881864
ss(i__main__
State
p1610
(dp1611
g3
I2
sg4
I3
sg5
I2
sg6
F4.0
sg7
F8.0
sg8
F-4.0
sg9
F1.0
sb(dp1612
I00
F164.4984804445969
sI01
F360.7623779923756
ss(i__main__
State
p1613
(dp1614
g3
I2
sg4
I3
sg5
I2
sg6
F-6.0
sg7
F1.0
sg8
F6.0
sg9
F1.0
sb(dp1615
I00
F63.65486073007823
sI01
F39.277028455903334
ss(i__main__
State
p1616
(dp1617
g3
I2
sg4
I3
sg5
I2
sg6
F-4.0
sg7
F5.0
sg8
F4.0
sg9
F1.0
sb(dp1618
I00
F23.917665521967006
sI01
F-1.7543342334484802
ss(i__main__
State
p1619
(dp1620
g3
I2
sg4
I3
sg5
I2
sg6
F-2.0
sg7
F9.0
sg8
F2.0
sg9
F-2.0
sb(dp1621
I00
F-2099.9028377871664
sI01
F668.7217338558024
ss(i__main__
State
p1622
(dp1623
g3
I2
sg4
I3
sg5
I2
sg6
F2.0
sg7
F2.0
sg8
F-2.0
sg9
F7.0
sb(dp1624
I00
F-55.31792914414812
sI01
F48.701283237325725
ss(i__main__
State
p1625
(dp1626
g3
I2
sg4
I3
sg5
I2
sg6
F0.0
sg7
F7.0
sg8
F0.0
sg9
F7.0
sb(dp1627
I00
F529.5308837756016
sI01
F146.79330909309988
ss(i__main__
State
p1628
(dp1629
g3
I2
sg4
I3
sg5
I2
sg6
F-4.0
sg7
F0.0
sg8
F4.0
sg9
F10.0
sb(dp1630
I00
F-83.51443846039365
sI01
F-24.808872374439066
ss(i__main__
State
p1631
(dp1632
g3
I2
sg4
I3
sg5
I2
sg6
F-4.0
sg7
F0.0
sg8
F4.0
sg9
F-8.0
sb(dp1633
I00
I-86
sI01
F20.63039633509279
ss(i__main__
State
p1634
(dp1635
g3
I2
sg4
I3
sg5
I2
sg6
F-2.0
sg7
F4.0
sg8
F2.0
sg9
F1.0
sb(dp1636
I00
F23.22029603677957
sI01
F26.409091899973703
ss(i__main__
State
p1637
(dp1638
g3
I2
sg4
I3
sg5
I2
sg6
F0.0
sg7
F4.0
sg8
F0.0
sg9
F-8.0
sb(dp1639
I00
F27.77308488979963
sI01
F40.59103333927356
ss(i__main__
State
p1640
(dp1641
g3
I2
sg4
I3
sg5
I2
sg6
F-8.0
sg7
F1.0
sg8
F8.0
sg9
F4.0
sb(dp1642
I00
F25.40723648766322
sI01
F55.94259747672057
ss(i__main__
State
p1643
(dp1644
g3
I2
sg4
I3
sg5
I2
sg6
F-2.0
sg7
F10.0
sg8
F2.0
sg9
F10.0
sb(dp1645
I00
F158.44104336026436
sI01
F11.47
ss(i__main__
State
p1646
(dp1647
g3
I2
sg4
I3
sg5
I2
sg6
F4.0
sg7
F8.0
sg8
F-4.0
sg9
F10.0
sb(dp1648
I00
F135.16432525722223
sI01
F822.0412122989917
ss(i__main__
State
p1649
(dp1650
g3
I2
sg4
I3
sg5
I2
sg6
F-8.0
sg7
F9.0
sg8
F8.0
sg9
F-5.0
sb(dp1651
I00
F15.201064133672496
sI01
F207.66599886285843
ss(i__main__
State
p1652
(dp1653
g3
I2
sg4
I3
sg5
I2
sg6
F0.0
sg7
F10.0
sg8
F0.0
sg9
F1.0
sb(dp1654
I00
F-7369.713477546403
sI01
F-7430.83177928886
ss(i__main__
State
p1655
(dp1656
g3
I2
sg4
I3
sg5
I2
sg6
F2.0
sg7
F4.0
sg8
F-2.0
sg9
F-5.0
sb(dp1657
I00
F55.55779148440078
sI01
F-71.65819067822555
ss(i__main__
State
p1658
(dp1659
g3
I2
sg4
I3
sg5
I2
sg6
F6.0
sg7
F2.0
sg8
F-6.0
sg9
F1.0
sb(dp1660
I00
F10.675741040322944
sI01
F62.54488706576933
ss(i__main__
State
p1661
(dp1662
g3
I2
sg4
I3
sg5
I2
sg6
F-6.0
sg7
F5.0
sg8
F6.0
sg9
F10.0
sb(dp1663
I00
F64.84853271414185
sI01
F-47.15801091109573
ss(i__main__
State
p1664
(dp1665
g3
I2
sg4
I3
sg5
I2
sg6
F-8.0
sg7
F10.0
sg8
F8.0
sg9
F7.0
sb(dp1666
I00
F471.74279474000514
sI01
F115.36045138974512
ss(i__main__
State
p1667
(dp1668
g3
I2
sg4
I3
sg5
I2
sg6
F0.0
sg7
F0.0
sg8
F0.0
sg9
F10.0
sb(dp1669
I00
F24.813257551347334
sI01
F-17.002418544999998
ss(i__main__
State
p1670
(dp1671
g3
I2
sg4
I3
sg5
I2
sg6
F-4.0
sg7
F4.0
sg8
F4.0
sg9
F10.0
sb(dp1672
I00
F50.85103868392527
sI01
F5.240000000000001
ss(i__main__
State
p1673
(dp1674
g3
I2
sg4
I3
sg5
I2
sg6
F-4.0
sg7
F9.0
sg8
F4.0
sg9
F4.0
sb(dp1675
I00
F0.0
sI01
F69.91716771112321
ss(i__main__
State
p1676
(dp1677
g3
I2
sg4
I3
sg5
I2
sg6
F-4.0
sg7
F1.0
sg8
F4.0
sg9
F-5.0
sb(dp1678
I00
F43.62431964875469
sI01
F-28.2527291655457
ss(i__main__
State
p1679
(dp1680
g3
I2
sg4
I3
sg5
I2
sg6
F0.0
sg7
F6.0
sg8
F0.0
sg9
F7.0
sb(dp1681
I00
F-34.71632824324159
sI01
F515.6822408084121
ss(i__main__
State
p1682
(dp1683
g3
I2
sg4
I3
sg5
I2
sg6
F-4.0
sg7
F2.0
sg8
F4.0
sg9
F10.0
sb(dp1684
I00
F18.74683701470706
sI01
F56.958294879113595
ss(i__main__
State
p1685
(dp1686
g3
I2
sg4
I3
sg5
I2
sg6
F2.0
sg7
F5.0
sg8
F-2.0
sg9
F-5.0
sb(dp1687
I00
F10.296227824995224
sI01
F44.73073470282565
ss(i__main__
State
p1688
(dp1689
g3
I2
sg4
I3
sg5
I2
sg6
F-6.0
sg7
F8.0
sg8
F6.0
sg9
F7.0
sb(dp1690
I00
F38.48411803673659
sI01
F31.000999999999998
ss(i__main__
State
p1691
(dp1692
g3
I2
sg4
I3
sg5
I2
sg6
F6.0
sg7
F9.0
sg8
F-6.0
sg9
F10.0
sb(dp1693
I00
F10.0
sI01
F46.9598996895125
ss(i__main__
State
p1694
(dp1695
g3
I2
sg4
I3
sg5
I2
sg6
F-8.0
sg7
F2.0
sg8
F8.0
sg9
F-8.0
sb(dp1696
I00
F8.404863125582159
sI01
F88.28167837189969
ss(i__main__
State
p1697
(dp1698
g3
I2
sg4
I3
sg5
I2
sg6
F0.0
sg7
F5.0
sg8
F0.0
sg9
F-8.0
sb(dp1699
I00
F54.776316823009296
sI01
F-54.05287711632053
ss(i__main__
State
p1700
(dp1701
g3
I2
sg4
I3
sg5
I2
sg6
F4.0
sg7
F1.0
sg8
F-4.0
sg9
F-5.0
sb(dp1702
I00
F1.7690412279000312
sI01
F32.79351723230287
ss(i__main__
State
p1703
(dp1704
g3
I2
sg4
I3
sg5
I2
sg6
F-8.0
sg7
F9.0
sg8
F8.0
sg9
F-2.0
sb(dp1705
I00
F-1519.4790137335349
sI01
F381.60141960901956
ss(i__main__
State
p1706
(dp1707
g3
I2
sg4
I3
sg5
I2
sg6
F8.0
sg7
F10.0
sg8
F-8.0
sg9
F-8.0
sb(dp1708
I00
F10.0
sI01
F133.95368857538315
ss(i__main__
State
p1709
(dp1710
g3
I2
sg4
I3
sg5
I2
sg6
F8.0
sg7
F0.0
sg8
F-8.0
sg9
F-8.0
sb(dp1711
I00
F60.89268964496924
sI01
F76.322718632861
ss(i__main__
State
p1712
(dp1713
g3
I2
sg4
I3
sg5
I2
sg6
F6.0
sg7
F0.0
sg8
F-6.0
sg9
F4.0
sb(dp1714
I00
F-83.94773407550161
sI01
F76.11303971008653
ss(i__main__
State
p1715
(dp1716
g3
I2
sg4
I3
sg5
I2
sg6
F4.0
sg7
F6.0
sg8
F-4.0
sg9
F7.0
sb(dp1717
I00
F27.154
sI01
I-81
ss(i__main__
State
p1718
(dp1719
g3
I2
sg4
I3
sg5
I2
sg6
F-8.0
sg7
F4.0
sg8
F8.0
sg9
F10.0
sb(dp1720
I00
F-0.2770556407809528
sI01
F59.93914308645623
ss(i__main__
State
p1721
(dp1722
g3
I2
sg4
I3
sg5
I2
sg6
F6.0
sg7
F9.0
sg8
F-6.0
sg9
F7.0
sb(dp1723
I00
F341.836825333826
sI01
F22.734029730770004
ss(i__main__
State
p1724
(dp1725
g3
I2
sg4
I3
sg5
I2
sg6
F6.0
sg7
F3.0
sg8
F-6.0
sg9
F10.0
sb(dp1726
I00
F28.039072593400697
sI01
F40.42116467764538
ss(i__main__
State
p1727
(dp1728
g3
I2
sg4
I3
sg5
I2
sg6
F2.0
sg7
F2.0
sg8
F-2.0
sg9
F-8.0
sb(dp1729
I00
F34.18142786121784
sI01
F-88.51238555901
ss(i__main__
State
p1730
(dp1731
g3
I2
sg4
I3
sg5
I2
sg6
F-2.0
sg7
F5.0
sg8
F2.0
sg9
F-8.0
sb(dp1732
I00
F92.12494353318854
sI01
F-21.08746379249912
ss(i__main__
State
p1733
(dp1734
g3
I2
sg4
I3
sg5
I2
sg6
F2.0
sg7
F4.0
sg8
F-2.0
sg9
F7.0
sb(dp1735
I00
F114.06601000676632
sI01
F-20.544158257815756
ss(i__main__
State
p1736
(dp1737
g3
I2
sg4
I3
sg5
I2
sg6
F-6.0
sg7
F9.0
sg8
F6.0
sg9
F-5.0
sb(dp1738
I00
F343.2670407576436
sI01
F150.1029598936158
ss(i__main__
State
p1739
(dp1740
g3
I2
sg4
I3
sg5
I2
sg6
F8.0
sg7
F8.0
sg8
F-8.0
sg9
F1.0
sb(dp1741
I00
F758.2233252855939
sI01
F430.7079331291202
ss(i__main__
State
p1742
(dp1743
g3
I2
sg4
I3
sg5
I2
sg6
F-2.0
sg7
F6.0
sg8
F2.0
sg9
F-8.0
sb(dp1744
I00
F26.000551263956687
sI01
F174.2664453802986
ss(i__main__
State
p1745
(dp1746
g3
I2
sg4
I3
sg5
I2
sg6
F-4.0
sg7
F6.0
sg8
F4.0
sg9
F10.0
sb(dp1747
I00
F18.108406485882384
sI01
F42.78396181972659
ss(i__main__
State
p1748
(dp1749
g3
I2
sg4
I3
sg5
I2
sg6
F-4.0
sg7
F9.0
sg8
F4.0
sg9
F1.0
sb(dp1750
I00
F-4662.508229530835
sI01
F-5064.899710715564
ss(i__main__
State
p1751
(dp1752
g3
I2
sg4
I3
sg5
I2
sg6
F4.0
sg7
F9.0
sg8
F-4.0
sg9
F-8.0
sb(dp1753
I00
F55.982902553860846
sI01
F28.813104387949597
ss(i__main__
State
p1754
(dp1755
g3
I2
sg4
I3
sg5
I2
sg6
F-6.0
sg7
F7.0
sg8
F6.0
sg9
F-2.0
sb(dp1756
I00
F-21.085013862035886
sI01
F206.19961740004533
ss(i__main__
State
p1757
(dp1758
g3
I2
sg4
I3
sg5
I2
sg6
F8.0
sg7
F8.0
sg8
F-8.0
sg9
F7.0
sb(dp1759
I00
F171.81316873869156
sI01
F22.20737551152601
ss(i__main__
State
p1760
(dp1761
g3
I2
sg4
I3
sg5
I2
sg6
F8.0
sg7
F0.0
sg8
F-8.0
sg9
F4.0
sb(dp1762
I00
F-12.397704296472039
sI01
F25.05011393699166
ss(i__main__
State
p1763
(dp1764
g3
I2
sg4
I3
sg5
I2
sg6
F-4.0
sg7
F3.0
sg8
F4.0
sg9
F-2.0
sb(dp1765
I00
F-24.6287982807263
sI01
F17.494053845339117
ss(i__main__
State
p1766
(dp1767
g3
I2
sg4
I3
sg5
I2
sg6
F-8.0
sg7
F2.0
sg8
F8.0
sg9
F7.0
sb(dp1768
I00
F-35.706678297564494
sI01
F47.72499804243196
ss(i__main__
State
p1769
(dp1770
g3
I2
sg4
I3
sg5
I2
sg6
F8.0
sg7
F8.0
sg8
F-8.0
sg9
F10.0
sb(dp1771
I00
F286.69498603690187
sI01
F113.87280145798266
ss(i__main__
State
p1772
(dp1773
g3
I2
sg4
I3
sg5
I2
sg6
F-2.0
sg7
F8.0
sg8
F2.0
sg9
F7.0
sb(dp1774
I00
F319.8457759978137
sI01
F103.48256043937937
ss(i__main__
State
p1775
(dp1776
g3
I2
sg4
I3
sg5
I2
sg6
F0.0
sg7
F4.0
sg8
F0.0
sg9
F1.0
sb(dp1777
I00
F-47.938599999999994
sI01
F28.19889888309496
ss(i__main__
State
p1778
(dp1779
g3
I2
sg4
I3
sg5
I2
sg6
F-6.0
sg7
F7.0
sg8
F6.0
sg9
F-8.0
sb(dp1780
I00
F75.4124779867447
sI01
F26.30228047052507
ss(i__main__
State
p1781
(dp1782
g3
I2
sg4
I3
sg5
I2
sg6
F4.0
sg7
F10.0
sg8
F-4.0
sg9
F4.0
sb(dp1783
I00
F112.7682685072555
sI01
F55.569610296462464
ss(i__main__
State
p1784
(dp1785
g3
I2
sg4
I3
sg5
I2
sg6
F0.0
sg7
F7.0
sg8
F0.0
sg9
F-2.0
sb(dp1786
I00
F17.49637525921301
sI01
F68.35866493594847
ss(i__main__
State
p1787
(dp1788
g3
I2
sg4
I3
sg5
I2
sg6
F8.0
sg7
F1.0
sg8
F-8.0
sg9
F7.0
sb(dp1789
I00
F31.960838361846985
sI01
F-15.66178342384577
ss(i__main__
State
p1790
(dp1791
g3
I2
sg4
I3
sg5
I2
sg6
F-2.0
sg7
F5.0
sg8
F2.0
sg9
F10.0
sb(dp1792
I00
F40.08268907306756
sI01
F204.32303345045014
ss(i__main__
State
p1793
(dp1794
g3
I2
sg4
I3
sg5
I2
sg6
F-8.0
sg7
F0.0
sg8
F8.0
sg9
F-8.0
sb(dp1795
I00
F33.32107076399999
sI01
F65.21586563009541
ss(i__main__
State
p1796
(dp1797
g3
I2
sg4
I3
sg5
I2
sg6
F-4.0
sg7
F10.0
sg8
F4.0
sg9
F7.0
sb(dp1798
I00
F50.06434360483594
sI01
F123.45596034139113
ss(i__main__
State
p1799
(dp1800
g3
I2
sg4
I3
sg5
I2
sg6
F-8.0
sg7
F6.0
sg8
F8.0
sg9
F-5.0
sb(dp1801
I00
F-25.049999999999997
sI01
F62.14107074059075
ss(i__main__
State
p1802
(dp1803
g3
I2
sg4
I3
sg5
I2
sg6
F-6.0
sg7
F0.0
sg8
F6.0
sg9
F-5.0
sb(dp1804
I00
F-32.700783896285955
sI01
F67.42512259496075
ss(i__main__
State
p1805
(dp1806
g3
I2
sg4
I3
sg5
I2
sg6
F0.0
sg7
F6.0
sg8
F0.0
sg9
F-2.0
sb(dp1807
I00
F-4.284261378833503
sI01
F69.24298678610262
ss(i__main__
State
p1808
(dp1809
g3
I2
sg4
I3
sg5
I2
sg6
F2.0
sg7
F2.0
sg8
F-2.0
sg9
F4.0
sb(dp1810
I00
F7.652270826898524
sI01
F-57.7326443
ss(i__main__
State
p1811
(dp1812
g3
I2
sg4
I3
sg5
I2
sg6
F-8.0
sg7
F9.0
sg8
F8.0
sg9
F4.0
sb(dp1813
I00
F52.808517450106635
sI01
F37.54655643445143
ss(i__main__
State
p1814
(dp1815
g3
I2
sg4
I3
sg5
I2
sg6
F-6.0
sg7
F1.0
sg8
F6.0
sg9
F7.0
sb(dp1816
I00
F-70.34769417550295
sI01
F-10.196848912885624
ss(i__main__
State
p1817
(dp1818
g3
I2
sg4
I3
sg5
I2
sg6
F-2.0
sg7
F8.0
sg8
F2.0
sg9
F4.0
sb(dp1819
I00
F178.16152878806017
sI01
F88.52632082280404
ss(i__main__
State
p1820
(dp1821
g3
I2
sg4
I3
sg5
I2
sg6
F-2.0
sg7
F2.0
sg8
F2.0
sg9
F-5.0
sb(dp1822
I00
F-55.95064789098989
sI01
F46.99879846238969
ss(i__main__
State
p1823
(dp1824
g3
I2
sg4
I3
sg5
I2
sg6
F-2.0
sg7
F2.0
sg8
F2.0
sg9
F1.0
sb(dp1825
I00
F12.55803457305394
sI01
F38.27059369950385
ss(i__main__
State
p1826
(dp1827
g3
I2
sg4
I3
sg5
I2
sg6
F-6.0
sg7
F7.0
sg8
F6.0
sg9
F-5.0
sb(dp1828
I00
F436.12130809126586
sI01
F103.42740417279566
ss(i__main__
State
p1829
(dp1830
g3
I2
sg4
I3
sg5
I2
sg6
F-4.0
sg7
F8.0
sg8
F4.0
sg9
F-5.0
sb(dp1831
I00
F58.0962721262533
sI01
F10.0
ss(i__main__
State
p1832
(dp1833
g3
I2
sg4
I3
sg5
I2
sg6
F-4.0
sg7
F3.0
sg8
F4.0
sg9
F-5.0
sb(dp1834
I00
F5.596779393050022
sI01
F-16.425677917437362
ss(i__main__
State
p1835
(dp1836
g3
I2
sg4
I3
sg5
I2
sg6
F2.0
sg7
F6.0
sg8
F-2.0
sg9
F1.0
sb(dp1837
I00
F4.841518029783125
sI01
F150.2983457580395
ss(i__main__
State
p1838
(dp1839
g3
I2
sg4
I3
sg5
I2
sg6
F4.0
sg7
F2.0
sg8
F-4.0
sg9
F7.0
sb(dp1840
I00
F-7.776609965953878
sI01
F53.13985053707034
ss(i__main__
State
p1841
(dp1842
g3
I2
sg4
I3
sg5
I2
sg6
F4.0
sg7
F0.0
sg8
F-4.0
sg9
F4.0
sb(dp1843
I00
F60.22698390427113
sI01
F7.278329770355347
ss(i__main__
State
p1844
(dp1845
g3
I2
sg4
I3
sg5
I2
sg6
F-6.0
sg7
F6.0
sg8
F6.0
sg9
F7.0
sb(dp1846
I00
F92.06109807096647
sI01
F11.936626272905059
ss(i__main__
State
p1847
(dp1848
g3
I2
sg4
I3
sg5
I2
sg6
F6.0
sg7
F0.0
sg8
F-6.0
sg9
F-8.0
sb(dp1849
I00
F19.797599502921837
sI01
F35.30707280030609
ss(i__main__
State
p1850
(dp1851
g3
I2
sg4
I3
sg5
I2
sg6
F0.0
sg7
F2.0
sg8
F0.0
sg9
F4.0
sb(dp1852
I00
F57.37157428574189
sI01
F17.876959108823456
ss(i__main__
State
p1853
(dp1854
g3
I2
sg4
I3
sg5
I2
sg6
F4.0
sg7
F2.0
sg8
F-4.0
sg9
F-5.0
sb(dp1855
I00
F63.01850895096629
sI01
I-62
ss(i__main__
State
p1856
(dp1857
g3
I2
sg4
I3
sg5
I2
sg6
F2.0
sg7
F1.0
sg8
F-2.0
sg9
F-8.0
sb(dp1858
I00
F30.87785247428576
sI01
F-7.876726708046411
ss(i__main__
State
p1859
(dp1860
g3
I2
sg4
I3
sg5
I2
sg6
F-4.0
sg7
F9.0
sg8
F4.0
sg9
F10.0
sb(dp1861
I00
F228.4011686102355
sI01
F16.60018373701692
ss(i__main__
State
p1862
(dp1863
g3
I2
sg4
I3
sg5
I2
sg6
F0.0
sg7
F7.0
sg8
F0.0
sg9
F10.0
sb(dp1864
I00
F33.83512506485321
sI01
I-74
ss(i__main__
State
p1865
(dp1866
g3
I2
sg4
I3
sg5
I2
sg6
F2.0
sg7
F8.0
sg8
F-2.0
sg9
F10.0
sb(dp1867
I00
F-619.9162253049702
sI01
F564.7187776703497
ss(i__main__
State
p1868
(dp1869
g3
I2
sg4
I3
sg5
I2
sg6
F-6.0
sg7
F6.0
sg8
F6.0
sg9
F1.0
sb(dp1870
I00
F-15.159609080000001
sI01
F27.071093060155995
ss(i__main__
State
p1871
(dp1872
g3
I2
sg4
I3
sg5
I2
sg6
F-6.0
sg7
F1.0
sg8
F6.0
sg9
F10.0
sb(dp1873
I00
F62.58150135712013
sI01
F-24.816405844601434
ss(i__main__
State
p1874
(dp1875
g3
I2
sg4
I3
sg5
I2
sg6
F2.0
sg7
F8.0
sg8
F-2.0
sg9
F-8.0
sb(dp1876
I00
F-486.0396044434
sI01
F533.6316327320899
ss(i__main__
State
p1877
(dp1878
g3
I2
sg4
I3
sg5
I2
sg6
F-4.0
sg7
F3.0
sg8
F4.0
sg9
F10.0
sb(dp1879
I00
F44.220377548750264
sI01
F-19.47
ss(i__main__
State
p1880
(dp1881
g3
I2
sg4
I3
sg5
I2
sg6
F-8.0
sg7
F1.0
sg8
F8.0
sg9
F-2.0
sb(dp1882
I00
F19.71033055
sI01
F66.45890462892699
ss(i__main__
State
p1883
(dp1884
g3
I2
sg4
I3
sg5
I2
sg6
F6.0
sg7
F5.0
sg8
F-6.0
sg9
F10.0
sb(dp1885
I00
F-38.092225950544105
sI01
F27.525937643605566
ss(i__main__
State
p1886
(dp1887
g3
I2
sg4
I3
sg5
I2
sg6
F0.0
sg7
F0.0
sg8
F0.0
sg9
F4.0
sb(dp1888
I00
F39.05729408924164
sI01
F-28.50776122898317
ss(i__main__
State
p1889
(dp1890
g3
I2
sg4
I3
sg5
I2
sg6
F-6.0
sg7
F5.0
sg8
F6.0
sg9
F7.0
sb(dp1891
I00
F-67.87504964627874
sI01
F68.80692496363173
ss(i__main__
State
p1892
(dp1893
g3
I2
sg4
I3
sg5
I2
sg6
F6.0
sg7
F5.0
sg8
F-6.0
sg9
F7.0
sb(dp1894
I00
F23.4224861516462
sI01
F0.43262860106654877
ss(i__main__
State
p1895
(dp1896
g3
I2
sg4
I3
sg5
I2
sg6
F-8.0
sg7
F8.0
sg8
F8.0
sg9
F-8.0
sb(dp1897
I00
F201.1758360506706
sI01
F76.47464293295721
ss(i__main__
State
p1898
(dp1899
g3
I2
sg4
I3
sg5
I2
sg6
F4.0
sg7
F8.0
sg8
F-4.0
sg9
F-5.0
sb(dp1900
I00
F-713.8968200051665
sI01
F-851.8000164522516
ss(i__main__
State
p1901
(dp1902
g3
I2
sg4
I3
sg5
I2
sg6
F4.0
sg7
F5.0
sg8
F-4.0
sg9
F-5.0
sb(dp1903
I00
F9.91742453818895
sI01
F-62.00785864589878
ss(i__main__
State
p1904
(dp1905
g3
I2
sg4
I3
sg5
I2
sg6
F-6.0
sg7
F2.0
sg8
F6.0
sg9
F10.0
sb(dp1906
I00
F51.85899030234374
sI01
F-51.16300087593838
ss(i__main__
State
p1907
(dp1908
g3
I2
sg4
I3
sg5
I2
sg6
F8.0
sg7
F0.0
sg8
F-8.0
sg9
F-2.0
sb(dp1909
I00
F-44.31338296784639
sI01
F6.552485849494816
ss(i__main__
State
p1910
(dp1911
g3
I2
sg4
I3
sg5
I2
sg6
F4.0
sg7
F6.0
sg8
F-4.0
sg9
F4.0
sb(dp1912
I00
F-12.293730580772793
sI01
F-16.301144666911856
ss(i__main__
State
p1913
(dp1914
g3
I2
sg4
I3
sg5
I2
sg6
F4.0
sg7
F7.0
sg8
F-4.0
sg9
F-2.0
sb(dp1915
I00
F86.50614664501789
sI01
F63.18523838195268
ss(i__main__
State
p1916
(dp1917
g3
I2
sg4
I3
sg5
I2
sg6
F-2.0
sg7
F7.0
sg8
F2.0
sg9
F7.0
sb(dp1918
I00
F167.04982558000262
sI01
F40.281800000000004
ss(i__main__
State
p1919
(dp1920
g3
I2
sg4
I3
sg5
I2
sg6
F6.0
sg7
F3.0
sg8
F-6.0
sg9
F-2.0
sb(dp1921
I00
F39.98704654509461
sI01
F184.71756466045488
ss(i__main__
State
p1922
(dp1923
g3
I2
sg4
I3
sg5
I2
sg6
F-6.0
sg7
F6.0
sg8
F6.0
sg9
F10.0
sb(dp1924
I00
F-60.65
sI01
F90.4815848630168
ss(i__main__
State
p1925
(dp1926
g3
I2
sg4
I3
sg5
I2
sg6
F-8.0
sg7
F8.0
sg8
F8.0
sg9
F10.0
sb(dp1927
I00
F211.69527657317693
sI01
F15.292341381250763
ss(i__main__
State
p1928
(dp1929
g3
I2
sg4
I3
sg5
I2
sg6
F6.0
sg7
F5.0
sg8
F-6.0
sg9
F4.0
sb(dp1930
I00
F30.884684697137747
sI01
I3
ss(i__main__
State
p1931
(dp1932
g3
I2
sg4
I3
sg5
I2
sg6
F2.0
sg7
F10.0
sg8
F-2.0
sg9
F10.0
sb(dp1933
I00
F-2194.3143595715387
sI01
F146.16705317134466
ss(i__main__
State
p1934
(dp1935
g3
I2
sg4
I3
sg5
I2
sg6
F0.0
sg7
F9.0
sg8
F0.0
sg9
F-5.0
sb(dp1936
I00
F727.0621757296719
sI01
F290.36643622175444
ss(i__main__
State
p1937
(dp1938
g3
I2
sg4
I3
sg5
I2
sg6
F0.0
sg7
F9.0
sg8
F0.0
sg9
F7.0
sb(dp1939
I00
F337.6269459255148
sI01
F95.10582369866137
ss(i__main__
State
p1940
(dp1941
g3
I2
sg4
I3
sg5
I2
sg6
F-6.0
sg7
F3.0
sg8
F6.0
sg9
F10.0
sb(dp1942
I00
F32.44693720272538
sI01
F58.05030634833991
ss(i__main__
State
p1943
(dp1944
g3
I2
sg4
I3
sg5
I2
sg6
F-6.0
sg7
F8.0
sg8
F6.0
sg9
F4.0
sb(dp1945
I00
F222.5369622040461
sI01
F11.0
ss(i__main__
State
p1946
(dp1947
g3
I2
sg4
I3
sg5
I2
sg6
F-8.0
sg7
F8.0
sg8
F8.0
sg9
F-2.0
sb(dp1948
I00
F803.6721923183608
sI01
F-2903.6903821232295
ss(i__main__
State
p1949
(dp1950
g3
I2
sg4
I3
sg5
I2
sg6
F6.0
sg7
F7.0
sg8
F-6.0
sg9
F4.0
sb(dp1951
I00
F290.3476694180847
sI01
F33.312334948243134
ss(i__main__
State
p1952
(dp1953
g3
I2
sg4
I3
sg5
I2
sg6
F4.0
sg7
F6.0
sg8
F-4.0
sg9
F-8.0
sb(dp1954
I00
F38.1378877413671
sI01
F11.675845602395597
ss(i__main__
State
p1955
(dp1956
g3
I2
sg4
I3
sg5
I2
sg6
F4.0
sg7
F5.0
sg8
F-4.0
sg9
F7.0
sb(dp1957
I00
F49.03913009777262
sI01
I-56
ss(i__main__
State
p1958
(dp1959
g3
I2
sg4
I3
sg5
I2
sg6
F2.0
sg7
F9.0
sg8
F-2.0
sg9
F4.0
sb(dp1960
I00
F343.1940495349486
sI01
F-1947.427046285955
ss(i__main__
State
p1961
(dp1962
g3
I2
sg4
I3
sg5
I2
sg6
F2.0
sg7
F6.0
sg8
F-2.0
sg9
F7.0
sb(dp1963
I00
F1.5413829520291635
sI01
F-66.72846270253932
ss(i__main__
State
p1964
(dp1965
g3
I2
sg4
I3
sg5
I2
sg6
F0.0
sg7
F3.0
sg8
F0.0
sg9
F7.0
sb(dp1966
I00
F1.1242843353312129
sI01
F64.65920334893856
ss(i__main__
State
p1967
(dp1968
g3
I2
sg4
I3
sg5
I2
sg6
F-4.0
sg7
F6.0
sg8
F4.0
sg9
F-5.0
sb(dp1969
I00
I49
sI01
F66.29746410535454
ss(i__main__
State
p1970
(dp1971
g3
I2
sg4
I3
sg5
I2
sg6
F4.0
sg7
F3.0
sg8
F-4.0
sg9
F-5.0
sb(dp1972
I00
F35.32576896735529
sI01
F21.92263482446252
ss(i__main__
State
p1973
(dp1974
g3
I2
sg4
I3
sg5
I2
sg6
F2.0
sg7
F4.0
sg8
F-2.0
sg9
F-2.0
sb(dp1975
I00
F33.776437225730454
sI01
F46.2406024267473
ss(i__main__
State
p1976
(dp1977
g3
I2
sg4
I3
sg5
I2
sg6
F6.0
sg7
F8.0
sg8
F-6.0
sg9
F7.0
sb(dp1978
I00
F632.6536503411908
sI01
F272.27288075724385
ss(i__main__
State
p1979
(dp1980
g3
I2
sg4
I3
sg5
I2
sg6
F-2.0
sg7
F5.0
sg8
F2.0
sg9
F-5.0
sb(dp1981
I00
F16.707892328543632
sI01
F41.523355404003155
ss(i__main__
State
p1982
(dp1983
g3
I2
sg4
I3
sg5
I2
sg6
F2.0
sg7
F1.0
sg8
F-2.0
sg9
F-2.0
sb(dp1984
I00
F-39.32785183173274
sI01
F5.278601369708549
ss(i__main__
State
p1985
(dp1986
g3
I2
sg4
I3
sg5
I2
sg6
F-4.0
sg7
F7.0
sg8
F4.0
sg9
F7.0
sb(dp1987
I00
F72.67764768824534
sI01
F5.910044428434283
ss(i__main__
State
p1988
(dp1989
g3
I2
sg4
I3
sg5
I2
sg6
F6.0
sg7
F8.0
sg8
F-6.0
sg9
F10.0
sb(dp1990
I00
F218.89651390106687
sI01
F44.32203538247466
ss(i__main__
State
p1991
(dp1992
g3
I2
sg4
I3
sg5
I2
sg6
F8.0
sg7
F0.0
sg8
F-8.0
sg9
F1.0
sb(dp1993
I00
F76.71252898793121
sI01
I38
ss(i__main__
State
p1994
(dp1995
g3
I2
sg4
I3
sg5
I2
sg6
F-8.0
sg7
F4.0
sg8
F8.0
sg9
F1.0
sb(dp1996
I00
F-1.1009578669382472
sI01
F-5.977919515565349
ss(i__main__
State
p1997
(dp1998
g3
I2
sg4
I3
sg5
I2
sg6
F2.0
sg7
F3.0
sg8
F-2.0
sg9
F7.0
sb(dp1999
I00
I-55
sI01
F34.053664590295206
ss(i__main__
State
p2000
(dp2001
g3
I2
sg4
I3
sg5
I2
sg6
F-8.0
sg7
F8.0
sg8
F8.0
sg9
F-5.0
sb(dp2002
I00
F352.27207013411453
sI01
F79.86768398997256
ss(i__main__
State
p2003
(dp2004
g3
I2
sg4
I3
sg5
I2
sg6
F6.0
sg7
F7.0
sg8
F-6.0
sg9
F-8.0
sb(dp2005
I00
F-21.049959407342993
sI01
F-134.09324983436255
ss(i__main__
State
p2006
(dp2007
g3
I2
sg4
I3
sg5
I2
sg6
F2.0
sg7
F0.0
sg8
F-2.0
sg9
F-5.0
sb(dp2008
I00
F11.533614951323624
sI01
F-52.9
ss(i__main__
State
p2009
(dp2010
g3
I2
sg4
I3
sg5
I2
sg6
F8.0
sg7
F3.0
sg8
F-8.0
sg9
F-2.0
sb(dp2011
I00
F6.026104205929922
sI01
F58.62534462354275
ss(i__main__
State
p2012
(dp2013
g3
I2
sg4
I3
sg5
I2
sg6
F2.0
sg7
F5.0
sg8
F-2.0
sg9
F10.0
sb(dp2014
I00
F52.153106392869844
sI01
F-45.287487
ss(i__main__
State
p2015
(dp2016
g3
I2
sg4
I3
sg5
I2
sg6
F-4.0
sg7
F5.0
sg8
F4.0
sg9
F10.0
sb(dp2017
I00
F-45.99149149785194
sI01
F-18.28609445616092
ss(i__main__
State
p2018
(dp2019
g3
I2
sg4
I3
sg5
I2
sg6
F-8.0
sg7
F0.0
sg8
F8.0
sg9
F10.0
sb(dp2020
I00
F75.36970796349519
sI01
F23.10556421297513
ss(i__main__
State
p2021
(dp2022
g3
I2
sg4
I3
sg5
I2
sg6
F-4.0
sg7
F2.0
sg8
F4.0
sg9
F-5.0
sb(dp2023
I00
F9.351897422742201
sI01
F11.910627438798167
ss(i__main__
State
p2024
(dp2025
g3
I2
sg4
I3
sg5
I2
sg6
F0.0
sg7
F3.0
sg8
F0.0
sg9
F1.0
sb(dp2026
I00
F30.392453584783425
sI01
I2
ss(i__main__
State
p2027
(dp2028
g3
I2
sg4
I3
sg5
I2
sg6
F-6.0
sg7
F10.0
sg8
F6.0
sg9
F7.0
sb(dp2029
I00
F66.74887110575932
sI01
F162.51139039463425
ss(i__main__
State
p2030
(dp2031
g3
I2
sg4
I3
sg5
I2
sg6
F8.0
sg7
F4.0
sg8
F-8.0
sg9
F-8.0
sb(dp2032
I00
F-57.46410191073287
sI01
F14.999483786808684
ss(i__main__
State
p2033
(dp2034
g3
I2
sg4
I3
sg5
I2
sg6
F2.0
sg7
F4.0
sg8
F-2.0
sg9
F-8.0
sb(dp2035
I00
F32.521469405953376
sI01
I-43
ss(i__main__
State
p2036
(dp2037
g3
I2
sg4
I3
sg5
I2
sg6
F0.0
sg7
F2.0
sg8
F0.0
sg9
F-8.0
sb(dp2038
I00
F36.80097159585348
sI01
F-33.76378939238977
ss(i__main__
State
p2039
(dp2040
g3
I2
sg4
I3
sg5
I2
sg6
F4.0
sg7
F0.0
sg8
F-4.0
sg9
F-2.0
sb(dp2041
I00
F68.90009822709999
sI01
I25
ss(i__main__
State
p2042
(dp2043
g3
I2
sg4
I3
sg5
I2
sg6
F8.0
sg7
F7.0
sg8
F-8.0
sg9
F7.0
sb(dp2044
I00
I15
sI01
F82.25808862473222
ss(i__main__
State
p2045
(dp2046
g3
I2
sg4
I3
sg5
I2
sg6
F-4.0
sg7
F6.0
sg8
F4.0
sg9
F-2.0
sb(dp2047
I00
F-26.693732832992033
sI01
F54.68841818701102
ss(i__main__
State
p2048
(dp2049
g3
I2
sg4
I3
sg5
I2
sg6
F8.0
sg7
F3.0
sg8
F-8.0
sg9
F-8.0
sb(dp2050
I00
F0.30057180400000316
sI01
F38.087978252335255
ss(i__main__
State
p2051
(dp2052
g3
I2
sg4
I3
sg5
I2
sg6
F-6.0
sg7
F10.0
sg8
F6.0
sg9
F1.0
sb(dp2053
I00
F375.7231220265314
sI01
F98.38719063544018
ss(i__main__
State
p2054
(dp2055
g3
I2
sg4
I3
sg5
I2
sg6
F2.0
sg7
F1.0
sg8
F-2.0
sg9
F-5.0
sb(dp2056
I00
F-9.328967434888803
sI01
F40.11294867360539
ss(i__main__
State
p2057
(dp2058
g3
I2
sg4
I3
sg5
I2
sg6
F-6.0
sg7
F10.0
sg8
F6.0
sg9
F-5.0
sb(dp2059
I00
F122.1269464566609
sI01
F19.5
ss(i__main__
State
p2060
(dp2061
g3
I2
sg4
I3
sg5
I2
sg6
F2.0
sg7
F10.0
sg8
F-2.0
sg9
F1.0
sb(dp2062
I00
F0.0
sI01
F103.24825136451776
ss(i__main__
State
p2063
(dp2064
g3
I2
sg4
I3
sg5
I2
sg6
F-6.0
sg7
F0.0
sg8
F6.0
sg9
F-2.0
sb(dp2065
I00
F-3.657599006997086
sI01
F65.52526960756306
ss(i__main__
State
p2066
(dp2067
g3
I2
sg4
I3
sg5
I2
sg6
F2.0
sg7
F3.0
sg8
F-2.0
sg9
F-2.0
sb(dp2068
I00
I-95
sI01
F10.757636713771154
ss(i__main__
State
p2069
(dp2070
g3
I2
sg4
I3
sg5
I2
sg6
F0.0
sg7
F8.0
sg8
F0.0
sg9
F-8.0
sb(dp2071
I00
F-2700.6685098862054
sI01
F-3351.1125101186426
ss(i__main__
State
p2072
(dp2073
g3
I2
sg4
I3
sg5
I2
sg6
F-2.0
sg7
F10.0
sg8
F2.0
sg9
F1.0
sb(dp2074
I00
F273.09358809553294
sI01
F72.62252258010082
ss(i__main__
State
p2075
(dp2076
g3
I2
sg4
I3
sg5
I2
sg6
F0.0
sg7
F1.0
sg8
F0.0
sg9
F1.0
sb(dp2077
I00
F-42.754665754487824
sI01
F28.284488791551325
ss(i__main__
State
p2078
(dp2079
g3
I2
sg4
I3
sg5
I2
sg6
F-4.0
sg7
F2.0
sg8
F4.0
sg9
F1.0
sb(dp2080
I00
F-47.95682764219454
sI01
F43.999229219750525
ss(i__main__
State
p2081
(dp2082
g3
I2
sg4
I3
sg5
I2
sg6
F-8.0
sg7
F3.0
sg8
F8.0
sg9
F7.0
sb(dp2083
I00
F32.01404550104483
sI01
I-14
ss(i__main__
State
p2084
(dp2085
g3
I2
sg4
I3
sg5
I2
sg6
F4.0
sg7
F4.0
sg8
F-4.0
sg9
F-2.0
sb(dp2086
I00
F-28.132315999999996
sI01
F22.689096434544112
ss.