(dp0
(i__main__
State
p1
(dp2
S'v1'
p3
I2
sS'v2'
p4
I3
sS'v3'
p5
I2
sS'y1'
p6
F8.0
sS'x'
p7
F3.0
sS'y3'
p8
F-8.0
sS'y2'
p9
F4.0
sb(dp10
I00
F56.090020025
sI01
I55
ss(i__main__
State
p11
(dp12
g3
I2
sg4
I3
sg5
I2
sg6
F-2.0
sg7
F1.0
sg8
F2.0
sg9
F-8.0
sb(dp13
I00
F-1.4
sI01
F61.12711922626394
ss(i__main__
State
p14
(dp15
g3
I2
sg4
I3
sg5
I2
sg6
F-8.0
sg7
F5.0
sg8
F8.0
sg9
F-2.0
sb(dp16
I00
F49.01897923867551
sI01
F60.14611802759373
ss(i__main__
State
p17
(dp18
g3
I2
sg4
I3
sg5
I2
sg6
F8.0
sg7
F1.0
sg8
F-8.0
sg9
F-5.0
sb(dp19
I00
F8.917645994999999
sI01
F61.676969371382235
ss(i__main__
State
p20
(dp21
g3
I2
sg4
I3
sg5
I2
sg6
F6.0
sg7
F10.0
sg8
F-6.0
sg9
F-2.0
sb(dp22
I00
F126.47843844548139
sI01
F0.0
ss(i__main__
State
p23
(dp24
g3
I2
sg4
I3
sg5
I2
sg6
F6.0
sg7
F7.0
sg8
F-6.0
sg9
F-5.0
sb(dp25
I00
F25.825080440316796
sI01
F77.13308048089218
ss(i__main__
State
p26
(dp27
g3
I2
sg4
I3
sg5
I2
sg6
F-2.0
sg7
F2.0
sg8
F2.0
sg9
F-8.0
sb(dp28
I00
F-71.48783900000001
sI01
F-8.180083648609967
ss(i__main__
State
p29
(dp30
g3
I2
sg4
I3
sg5
I2
sg6
F0.0
sg7
F8.0
sg8
F0.0
sg9
F7.0
sb(dp31
I00
F-2702.2846962248063
sI01
F-2699.1162700000004
ss(i__main__
State
p32
(dp33
g3
I2
sg4
I3
sg5
I2
sg6
F-5.0
sg7
F0.0
sg8
F5.0
sg9
F3.0
sb(dp34
I00
F74.6
sI01
I4
ss(i__main__
State
p35
(dp36
g3
I2
sg4
I3
sg5
I2
sg6
F4.0
sg7
F4.0
sg8
F-4.0
sg9
F-8.0
sb(dp37
I00
F-45.728426847023876
sI01
F56.73462265955367
ss(i__main__
State
p38
(dp39
g3
I2
sg4
I3
sg5
I2
sg6
F6.0
sg7
F4.0
sg8
F-6.0
sg9
F-2.0
sb(dp40
I00
F13.482495299746054
sI01
I-94
ss(i__main__
State
p41
(dp42
g3
I2
sg4
I3
sg5
I2
sg6
F2.0
sg7
F9.0
sg8
F-2.0
sg9
F1.0
sb(dp43
I00
F-4082.9869303
sI01
F-3628.415
ss(i__main__
State
p44
(dp45
g3
I2
sg4
I3
sg5
I2
sg6
F0.0
sg7
F8.0
sg8
F0.0
sg9
F-2.0
sb(dp46
I00
F-995.1
sI01
F-1099.9
ss(i__main__
State
p47
(dp48
g3
I2
sg4
I3
sg5
I2
sg6
F-6.0
sg7
F10.0
sg8
F6.0
sg9
F-2.0
sb(dp49
I00
F138.0563136003837
sI01
F78.04043970308001
ss(i__main__
State
p50
(dp51
g3
I2
sg4
I3
sg5
I2
sg6
F2.0
sg7
F0.0
sg8
F-2.0
sg9
F-8.0
sb(dp52
I00
F46.456626
sI01
I-3
ss(i__main__
State
p53
(dp54
g3
I2
sg4
I3
sg5
I2
sg6
F-6.0
sg7
F6.0
sg8
F6.0
sg9
F4.0
sb(dp55
I00
F22.9033071034084
sI01
F47.37721037826734
ss(i__main__
State
p56
(dp57
g3
I2
sg4
I3
sg5
I2
sg6
F-4.0
sg7
F6.0
sg8
F4.0
sg9
F1.0
sb(dp58
I00
F48.105975975117126
sI01
F-25.53670988901504
ss(i__main__
State
p59
(dp60
g3
I2
sg4
I3
sg5
I2
sg6
F-8.0
sg7
F3.0
sg8
F8.0
sg9
F1.0
sb(dp61
I00
F41.830219
sI01
F33.470252932
ss(i__main__
State
p62
(dp63
g3
I2
sg4
I3
sg5
I2
sg6
F2.0
sg7
F10.0
sg8
F-2.0
sg9
F-5.0
sb(dp64
I00
F-80.5
sI01
F45.70726780206043
ss(i__main__
State
p65
(dp66
g3
I2
sg4
I3
sg5
I2
sg6
F8.0
sg7
F6.0
sg8
F-8.0
sg9
F-2.0
sb(dp67
I00
I-33
sI01
F70.00492389975955
ss(i__main__
State
p68
(dp69
g3
I2
sg4
I3
sg5
I2
sg6
F-4.0
sg7
F1.0
sg8
F4.0
sg9
F-8.0
sb(dp70
I00
F54.87826683633227
sI01
F-72.63999999999999
ss(i__main__
State
p71
(dp72
g3
I2
sg4
I3
sg5
I2
sg6
F8.0
sg7
F4.0
sg8
F-8.0
sg9
F1.0
sb(dp73
I00
F-19.99601141911
sI01
F-76.6
ss(i__main__
State
p74
(dp75
g3
I2
sg4
I3
sg5
I2
sg6
F8.0
sg7
F5.0
sg8
F-8.0
sg9
F1.0
sb(dp76
I00
I-94
sI01
F-27.258639973762968
ss(i__main__
State
p77
(dp78
g3
I2
sg4
I3
sg5
I2
sg6
F-4.0
sg7
F1.0
sg8
F4.0
sg9
F10.0
sb(dp79
I00
F-78.15
sI01
F53.32905212995411
ss(i__main__
State
p80
(dp81
g3
I2
sg4
I3
sg5
I2
sg6
F0.0
sg7
F10.0
sg8
F0.0
sg9
F-2.0
sb(dp82
I00
F-1899.0
sI01
F-1891.27
ss(i__main__
State
p83
(dp84
g3
I2
sg4
I3
sg5
I2
sg6
F-2.0
sg7
F0.0
sg8
F2.0
sg9
F1.0
sb(dp85
I00
F24.807223336280394
sI01
F-15.899999999999999
ss(i__main__
State
p86
(dp87
g3
I2
sg4
I3
sg5
I2
sg6
F4.0
sg7
F10.0
sg8
F-4.0
sg9
F10.0
sb(dp88
I00
F10.0
sI01
F15.600000000000001
ss(i__main__
State
p89
(dp90
g3
I2
sg4
I3
sg5
I2
sg6
F2.0
sg7
F9.0
sg8
F-2.0
sg9
F7.0
sb(dp91
I00
F65.94177591600098
sI01
F-407.84562000000005
ss(i__main__
State
p92
(dp93
g3
I2
sg4
I3
sg5
I2
sg6
F-4.0
sg7
F7.0
sg8
F4.0
sg9
F-8.0
sb(dp94
I00
F23.29
sI01
F99.41589598587923
ss(i__main__
State
p95
(dp96
g3
I2
sg4
I3
sg5
I2
sg6
F2.0
sg7
F6.0
sg8
F-2.0
sg9
F4.0
sb(dp97
I00
I53
sI01
F59.193381187954365
ss(i__main__
State
p98
(dp99
g3
I2
sg4
I3
sg5
I2
sg6
F6.0
sg7
F3.0
sg8
F-6.0
sg9
F4.0
sb(dp100
I00
F53.437464419213
sI01
F-47.3986
ss(i__main__
State
p101
(dp102
g3
I2
sg4
I3
sg5
I2
sg6
F-4.0
sg7
F2.0
sg8
F4.0
sg9
F-2.0
sb(dp103
I00
F-2.4800099999999983
sI01
F59.41083526199023
ss(i__main__
State
p104
(dp105
g3
I2
sg4
I3
sg5
I2
sg6
F0.0
sg7
F1.0
sg8
F0.0
sg9
F10.0
sb(dp106
I00
F67.43842805968329
sI01
F29.1322392083
ss(i__main__
State
p107
(dp108
g3
I2
sg4
I3
sg5
I2
sg6
F8.0
sg7
F10.0
sg8
F-8.0
sg9
F4.0
sb(dp109
I00
F127.50044289057952
sI01
F34.726200000000006
ss(i__main__
State
p110
(dp111
g3
I2
sg4
I3
sg5
I2
sg6
F0.0
sg7
F1.0
sg8
F0.0
sg9
F-2.0
sb(dp112
I00
F85.15976332215
sI01
I83
ss(i__main__
State
p113
(dp114
g3
I2
sg4
I3
sg5
I2
sg6
F4.0
sg7
F1.0
sg8
F-4.0
sg9
F7.0
sb(dp115
I00
F63.59694999999999
sI01
F34.0
ss(i__main__
State
p116
(dp117
g3
I2
sg4
I3
sg5
I2
sg6
F0.0
sg7
F3.0
sg8
F0.0
sg9
F-8.0
sb(dp118
I00
F-28.332739999999994
sI01
F32.84462658845337
ss(i__main__
State
p119
(dp120
g3
I2
sg4
I3
sg5
I2
sg6
F-2.0
sg7
F0.0
sg8
F2.0
sg9
F-2.0
sb(dp121
I00
F25.2695781183
sI01
F-23.5
ss(i__main__
State
p122
(dp123
g3
I2
sg4
I3
sg5
I2
sg6
F-8.0
sg7
F0.0
sg8
F8.0
sg9
F-5.0
sb(dp124
I00
F36.0911764052121
sI01
F42.22183812149771
ss(i__main__
State
p125
(dp126
g3
I2
sg4
I3
sg5
I2
sg6
F4.0
sg7
F7.0
sg8
F-4.0
sg9
F-5.0
sb(dp127
I00
F-67.1176932052962
sI01
F0.0512510000000006
ss(i__main__
State
p128
(dp129
g3
I2
sg4
I3
sg5
I2
sg6
F6.0
sg7
F4.0
sg8
F-6.0
sg9
F10.0
sb(dp130
I00
F4.863615381605367
sI01
F44.32523265207597
ss(i__main__
State
p131
(dp132
g3
I2
sg4
I3
sg5
I2
sg6
F8.0
sg7
F2.0
sg8
F-8.0
sg9
F-2.0
sb(dp133
I00
I-43
sI01
F11.039316270093
ss(i__main__
State
p134
(dp135
g3
I2
sg4
I3
sg5
I2
sg6
F-4.0
sg7
F1.0
sg8
F4.0
sg9
F7.0
sb(dp136
I00
F26.251857186409577
sI01
I-53
ss(i__main__
State
p137
(dp138
g3
I2
sg4
I3
sg5
I2
sg6
F8.0
sg7
F7.0
sg8
F-8.0
sg9
F10.0
sb(dp139
I00
I-47
sI01
F66.13644145894827
ss(i__main__
State
p140
(dp141
g3
I2
sg4
I3
sg5
I2
sg6
F2.0
sg7
F3.0
sg8
F-2.0
sg9
F-5.0
sb(dp142
I00
I-78
sI01
F-7.213469654617992
ss(i__main__
State
p143
(dp144
g3
I2
sg4
I3
sg5
I2
sg6
F0.0
sg7
F4.0
sg8
F0.0
sg9
F10.0
sb(dp145
I00
F60.43016676753179
sI01
F-21.72
ss(i__main__
State
p146
(dp147
g3
I2
sg4
I3
sg5
I2
sg6
F6.0
sg7
F2.0
sg8
F-6.0
sg9
F10.0
sb(dp148
I00
I-23
sI01
F73.31479046
ss(i__main__
State
p149
(dp150
g3
I2
sg4
I3
sg5
I2
sg6
F4.0
sg7
F8.0
sg8
F-4.0
sg9
F7.0
sb(dp151
I00
F72.41951722327202
sI01
F284.5961036510521
ss(i__main__
State
p152
(dp153
g3
I2
sg4
I3
sg5
I2
sg6
F-8.0
sg7
F7.0
sg8
F8.0
sg9
F4.0
sb(dp154
I00
F80.6
sI01
I54
ss(i__main__
State
p155
(dp156
g3
I2
sg4
I3
sg5
I2
sg6
F-8.0
sg7
F5.0
sg8
F8.0
sg9
F-8.0
sb(dp157
I00
F66.92217537806184
sI01
I-39
ss(i__main__
State
p158
(dp159
g3
I2
sg4
I3
sg5
I2
sg6
F-6.0
sg7
F6.0
sg8
F6.0
sg9
F-5.0
sb(dp160
I00
F27.62843527754719
sI01
I-50
ss(i__main__
State
p161
(dp162
g3
I2
sg4
I3
sg5
I2
sg6
F-8.0
sg7
F9.0
sg8
F8.0
sg9
F7.0
sb(dp163
I00
F20.0
sI01
F0.0
ss(i__main__
State
p164
(dp165
g3
I2
sg4
I3
sg5
I2
sg6
F0.0
sg7
F8.0
sg8
F0.0
sg9
F1.0
sb(dp166
I00
F-4666.20471973402
sI01
F-4657.378813196646
ss(i__main__
State
p167
(dp168
g3
I2
sg4
I3
sg5
I2
sg6
F-2.0
sg7
F7.0
sg8
F2.0
sg9
F-8.0
sb(dp169
I00
F7.5639408
sI01
F-75.8409482
ss(i__main__
State
p170
(dp171
g3
I2
sg4
I3
sg5
I2
sg6
F4.0
sg7
F9.0
sg8
F-4.0
sg9
F10.0
sb(dp172
I00
F58.805540018604006
sI01
F32.382842000000004
ss(i__main__
State
p173
(dp174
g3
I2
sg4
I3
sg5
I2
sg6
F8.0
sg7
F7.0
sg8
F-8.0
sg9
F1.0
sb(dp175
I00
F21.273559880961464
sI01
F-28.862387219530792
ss(i__main__
State
p176
(dp177
g3
I2
sg4
I3
sg5
I2
sg6
F6.0
sg7
F9.0
sg8
F-6.0
sg9
F1.0
sb(dp178
I00
F-1899.0
sI01
F-3430.47892
ss(i__main__
State
p179
(dp180
g3
I2
sg4
I3
sg5
I2
sg6
F4.0
sg7
F3.0
sg8
F-4.0
sg9
F10.0
sb(dp181
I00
F-34.5899867141418
sI01
I-86
ss(i__main__
State
p182
(dp183
g3
I2
sg4
I3
sg5
I2
sg6
F-2.0
sg7
F2.0
sg8
F2.0
sg9
F7.0
sb(dp184
I00
F58.34240481061987
sI01
F57.1585088869
ss(i__main__
State
p185
(dp186
g3
I2
sg4
I3
sg5
I2
sg6
F2.0
sg7
F5.0
sg8
F-2.0
sg9
F-2.0
sb(dp187
I00
F50.48748336503
sI01
F30.1
ss(i__main__
State
p188
(dp189
g3
I2
sg4
I3
sg5
I2
sg6
F-6.0
sg7
F8.0
sg8
F6.0
sg9
F-5.0
sb(dp190
I00
F256.3965378281315
sI01
F58.56875410254315
ss(i__main__
State
p191
(dp192
g3
I2
sg4
I3
sg5
I2
sg6
F4.0
sg7
F1.0
sg8
F-4.0
sg9
F-2.0
sb(dp193
I00
F85.35441007719282
sI01
F-18.04705461320969
ss(i__main__
State
p194
(dp195
g3
I2
sg4
I3
sg5
I2
sg6
F-4.0
sg7
F8.0
sg8
F4.0
sg9
F1.0
sb(dp196
I00
F104.2418953074165
sI01
F0.0
ss(i__main__
State
p197
(dp198
g3
I2
sg4
I3
sg5
I2
sg6
F6.0
sg7
F6.0
sg8
F-6.0
sg9
F-2.0
sb(dp199
I00
F74.66034083274658
sI01
F49.5
ss(i__main__
State
p200
(dp201
g3
I2
sg4
I3
sg5
I2
sg6
F-2.0
sg7
F1.0
sg8
F2.0
sg9
F7.0
sb(dp202
I00
F59.690999999999995
sI01
F61.542788269262694
ss(i__main__
State
p203
(dp204
g3
I2
sg4
I3
sg5
I2
sg6
F0.0
sg7
F0.0
sg8
F0.0
sg9
F-5.0
sb(dp205
I00
F11.92009677
sI01
F-33.22
ss(i__main__
State
p206
(dp207
g3
I2
sg4
I3
sg5
I2
sg6
F4.0
sg7
F3.0
sg8
F-4.0
sg9
F1.0
sb(dp208
I00
F-0.6188037422035908
sI01
F69.40266963165472
ss(i__main__
State
p209
(dp210
g3
I2
sg4
I3
sg5
I2
sg6
F-2.0
sg7
F7.0
sg8
F2.0
sg9
F-5.0
sb(dp211
I00
F-14.76
sI01
I77
ss(i__main__
State
p212
(dp213
g3
I2
sg4
I3
sg5
I2
sg6
F-6.0
sg7
F7.0
sg8
F6.0
sg9
F10.0
sb(dp214
I00
F76.9300286079
sI01
F-1.7
ss(i__main__
State
p215
(dp216
g3
I2
sg4
I3
sg5
I2
sg6
F6.0
sg7
F7.0
sg8
F-6.0
sg9
F1.0
sb(dp217
I00
I-95
sI01
F68.14626478918291
ss(i__main__
State
p218
(dp219
g3
I2
sg4
I3
sg5
I2
sg6
F8.0
sg7
F9.0
sg8
F-8.0
sg9
F1.0
sb(dp220
I00
F-3426.0421898259815
sI01
F-3419.8020172488104
ss(i__main__
State
p221
(dp222
g3
I2
sg4
I3
sg5
I2
sg6
F-6.0
sg7
F6.0
sg8
F6.0
sg9
F-2.0
sb(dp223
I00
F-16.043899999999994
sI01
F27.400858942665163
ss(i__main__
State
p224
(dp225
g3
I2
sg4
I3
sg5
I2
sg6
F-6.0
sg7
F10.0
sg8
F6.0
sg9
F4.0
sb(dp226
I00
F230.05997708200672
sI01
F60.995377664
ss(i__main__
State
p227
(dp228
g3
I2
sg4
I3
sg5
I2
sg6
F-8.0
sg7
F7.0
sg8
F8.0
sg9
F-8.0
sb(dp229
I00
F62.94562518
sI01
F0.5888600000000022
ss(i__main__
State
p230
(dp231
g3
I2
sg4
I3
sg5
I2
sg6
F6.0
sg7
F1.0
sg8
F-6.0
sg9
F-8.0
sb(dp232
I00
I33
sI01
F80.0
ss(i__main__
State
p233
(dp234
g3
I2
sg4
I3
sg5
I2
sg6
F6.0
sg7
F8.0
sg8
F-6.0
sg9
F-2.0
sb(dp235
I00
F66.1984199
sI01
F-626.9552000000001
ss(i__main__
State
p236
(dp237
g3
I2
sg4
I3
sg5
I2
sg6
F-8.0
sg7
F10.0
sg8
F8.0
sg9
F10.0
sb(dp238
I00
F75.22971750113228
sI01
F0.0
ss(i__main__
State
p239
(dp240
g3
I2
sg4
I3
sg5
I2
sg6
F-6.0
sg7
F0.0
sg8
F6.0
sg9
F7.0
sb(dp241
I00
F55.959637451642394
sI01
I-13
ss(i__main__
State
p242
(dp243
g3
I2
sg4
I3
sg5
I2
sg6
F0.0
sg7
F2.0
sg8
F0.0
sg9
F7.0
sb(dp244
I00
I-68
sI01
F-28.20247
ss(i__main__
State
p245
(dp246
g3
I2
sg4
I3
sg5
I2
sg6
F-8.0
sg7
F0.0
sg8
F8.0
sg9
F4.0
sb(dp247
I00
F4.927069992873893
sI01
F12.775145935493693
ss(i__main__
State
p248
(dp249
g3
I2
sg4
I3
sg5
I2
sg6
F2.0
sg7
F10.0
sg8
F-2.0
sg9
F-8.0
sb(dp250
I00
F0.0
sI01
F36.198004
ss(i__main__
State
p251
(dp252
g3
I2
sg4
I3
sg5
I2
sg6
F4.0
sg7
F9.0
sg8
F-4.0
sg9
F4.0
sb(dp253
I00
F38.59875210338
sI01
F12.4358722
ss(i__main__
State
p254
(dp255
g3
I2
sg4
I3
sg5
I2
sg6
F2.0
sg7
F4.0
sg8
F-2.0
sg9
F10.0
sb(dp256
I00
F-13.964629799999997
sI01
F-38.9
ss(i__main__
State
p257
(dp258
g3
I2
sg4
I3
sg5
I2
sg6
F-4.0
sg7
F3.0
sg8
F4.0
sg9
F4.0
sb(dp259
I00
F42.325290578090865
sI01
F31.813835880000003
ss(i__main__
State
p260
(dp261
g3
I2
sg4
I3
sg5
I2
sg6
F8.0
sg7
F1.0
sg8
F-8.0
sg9
F10.0
sb(dp262
I00
I-100
sI01
F-76.1
ss(i__main__
State
p263
(dp264
g3
I2
sg4
I3
sg5
I2
sg6
F-4.0
sg7
F8.0
sg8
F4.0
sg9
F4.0
sb(dp265
I00
F10.0
sI01
F60.825535946522635
ss(i__main__
State
p266
(dp267
g3
I2
sg4
I3
sg5
I2
sg6
F-6.0
sg7
F7.0
sg8
F6.0
sg9
F4.0
sb(dp268
I00
F-26.826
sI01
F74.16880583703166
ss(i__main__
State
p269
(dp270
g3
I2
sg4
I3
sg5
I2
sg6
F-8.0
sg7
F1.0
sg8
F8.0
sg9
F7.0
sb(dp271
I00
I-59
sI01
F48.89933158760681
ss(i__main__
State
p272
(dp273
g3
I2
sg4
I3
sg5
I2
sg6
F-8.0
sg7
F3.0
sg8
F8.0
sg9
F4.0
sb(dp274
I00
F49.3912894037802
sI01
F49.56763087957741
ss(i__main__
State
p275
(dp276
g3
I2
sg4
I3
sg5
I2
sg6
F-2.0
sg7
F8.0
sg8
F2.0
sg9
F-5.0
sb(dp277
I00
F0.0
sI01
F76.01275219994785
ss(i__main__
State
p278
(dp279
g3
I2
sg4
I3
sg5
I2
sg6
F4.0
sg7
F10.0
sg8
F-4.0
sg9
F1.0
sb(dp280
I00
F157.25776773407844
sI01
F6.580914178358807
ss(i__main__
State
p281
(dp282
g3
I2
sg4
I3
sg5
I2
sg6
F-2.0
sg7
F1.0
sg8
F2.0
sg9
F-5.0
sb(dp283
I00
F-15.995587869999998
sI01
F41.911691133134084
ss(i__main__
State
p284
(dp285
g3
I2
sg4
I3
sg5
I2
sg6
F-2.0
sg7
F5.0
sg8
F2.0
sg9
F4.0
sb(dp286
I00
F3.7769200000000005
sI01
F-37.8016
ss(i__main__
State
p287
(dp288
g3
I2
sg4
I3
sg5
I2
sg6
F-4.0
sg7
F0.0
sg8
F4.0
sg9
F-2.0
sb(dp289
I00
I-4
sI01
F89.3895614
ss(i__main__
State
p290
(dp291
g3
I2
sg4
I3
sg5
I2
sg6
F8.0
sg7
F6.0
sg8
F-8.0
sg9
F-8.0
sb(dp292
I00
F-5.8387160822057
sI01
F36.333999170761004
ss(i__main__
State
p293
(dp294
g3
I2
sg4
I3
sg5
I2
sg6
F-6.0
sg7
F0.0
sg8
F6.0
sg9
F4.0
sb(dp295
I00
I-98
sI01
F55.218357039355645
ss(i__main__
State
p296
(dp297
g3
I2
sg4
I3
sg5
I2
sg6
F8.0
sg7
F8.0
sg8
F-8.0
sg9
F-5.0
sb(dp298
I00
F60.76934
sI01
F10.0
ss(i__main__
State
p299
(dp300
g3
I2
sg4
I3
sg5
I2
sg6
F4.0
sg7
F0.0
sg8
F-4.0
sg9
F10.0
sb(dp301
I00
F7.748
sI01
F12.514116073433193
ss(i__main__
State
p302
(dp303
g3
I2
sg4
I3
sg5
I2
sg6
F2.0
sg7
F7.0
sg8
F-2.0
sg9
F7.0
sb(dp304
I00
F-61.898269799999994
sI01
F-175.56580000000002
ss(i__main__
State
p305
(dp306
g3
I2
sg4
I3
sg5
I2
sg6
F8.0
sg7
F5.0
sg8
F-8.0
sg9
F7.0
sb(dp307
I00
F-17.954020705184
sI01
F-81.47420449
ss(i__main__
State
p308
(dp309
g3
I2
sg4
I3
sg5
I2
sg6
F-4.0
sg7
F6.0
sg8
F4.0
sg9
F4.0
sb(dp310
I00
F44.07933743465334
sI01
F-59.58124023839999
ss(i__main__
State
p311
(dp312
g3
I2
sg4
I3
sg5
I2
sg6
F-8.0
sg7
F10.0
sg8
F8.0
sg9
F4.0
sb(dp313
I00
F72.48672122465736
sI01
F115.93575376394305
ss(i__main__
State
p314
(dp315
g3
I2
sg4
I3
sg5
I2
sg6
F2.0
sg7
F2.0
sg8
F-2.0
sg9
F1.0
sb(dp316
I00
F47.85989830038127
sI01
F-11.4
ss(i__main__
State
p317
(dp318
g3
I2
sg4
I3
sg5
I2
sg6
F-6.0
sg7
F7.0
sg8
F6.0
sg9
F7.0
sb(dp319
I00
F36.827732044810084
sI01
F-21.674299999999995
ss(i__main__
State
p320
(dp321
g3
I2
sg4
I3
sg5
I2
sg6
F6.0
sg7
F2.0
sg8
F-6.0
sg9
F7.0
sb(dp322
I00
F78.2532974313322
sI01
F53.17153
ss(i__main__
State
p323
(dp324
g3
I2
sg4
I3
sg5
I2
sg6
F6.0
sg7
F5.0
sg8
F-6.0
sg9
F-2.0
sb(dp325
I00
F18.541999999999998
sI01
F43.79370137459831
ss(i__main__
State
p326
(dp327
g3
I2
sg4
I3
sg5
I2
sg6
F-2.0
sg7
F8.0
sg8
F2.0
sg9
F-8.0
sb(dp328
I00
F10.0
sI01
F30.0
ss(i__main__
State
p329
(dp330
g3
I2
sg4
I3
sg5
I2
sg6
F2.0
sg7
F6.0
sg8
F-2.0
sg9
F10.0
sb(dp331
I00
F-6.559999999999999
sI01
I-100
ss(i__main__
State
p332
(dp333
g3
I2
sg4
I3
sg5
I2
sg6
F6.0
sg7
F6.0
sg8
F-6.0
sg9
F1.0
sb(dp334
I00
F27.058182
sI01
I-71
ss(i__main__
State
p335
(dp336
g3
I2
sg4
I3
sg5
I2
sg6
F8.0
sg7
F2.0
sg8
F-8.0
sg9
F-8.0
sb(dp337
I00
F-84.96
sI01
I-100
ss(i__main__
State
p338
(dp339
g3
I2
sg4
I3
sg5
I2
sg6
F0.0
sg7
F9.0
sg8
F0.0
sg9
F-8.0
sb(dp340
I00
F341.05804451735577
sI01
F73.12551261319683
ss(i__main__
State
p341
(dp342
g3
I2
sg4
I3
sg5
I2
sg6
F0.0
sg7
F9.0
sg8
F0.0
sg9
F4.0
sb(dp343
I00
F166.16971651195536
sI01
F51.3307059677563
ss(i__main__
State
p344
(dp345
g3
I2
sg4
I3
sg5
I2
sg6
F2.0
sg7
F7.0
sg8
F-2.0
sg9
F1.0
sb(dp346
I00
F73.1367185405833
sI01
F-738.2103408623
ss(i__main__
State
p347
(dp348
g3
I2
sg4
I3
sg5
I2
sg6
F-4.0
sg7
F9.0
sg8
F4.0
sg9
F-2.0
sb(dp349
I00
F-1117.5417610672946
sI01
F259.8352820522495
ss(i__main__
State
p350
(dp351
g3
I2
sg4
I3
sg5
I2
sg6
F-8.0
sg7
F10.0
sg8
F8.0
sg9
F1.0
sb(dp352
I00
F141.56122040394786
sI01
F39.780295973
ss(i__main__
State
p353
(dp354
g3
I2
sg4
I3
sg5
I2
sg6
F6.0
sg7
F2.0
sg8
F-6.0
sg9
F-5.0
sb(dp355
I00
F37.8357999794407
sI01
F26.029999999999998
ss(i__main__
State
p356
(dp357
g3
I2
sg4
I3
sg5
I2
sg6
F8.0
sg7
F2.0
sg8
F-8.0
sg9
F10.0
sb(dp358
I00
F-11.266499999999999
sI01
F35.0081118531333
ss(i__main__
State
p359
(dp360
g3
I2
sg4
I3
sg5
I2
sg6
F2.0
sg7
F8.0
sg8
F-2.0
sg9
F7.0
sb(dp361
I00
F-487.2923621887851
sI01
F195.67742911347307
ss(i__main__
State
p362
(dp363
g3
I2
sg4
I3
sg5
I2
sg6
F2.0
sg7
F8.0
sg8
F-2.0
sg9
F-2.0
sb(dp364
I00
F-1216.183175957
sI01
F-1904.0882597673233
ss(i__main__
State
p365
(dp366
g3
I2
sg4
I3
sg5
I2
sg6
F6.0
sg7
F5.0
sg8
F-6.0
sg9
F1.0
sb(dp367
I00
F-72.6
sI01
F-44.760172499999996
ss(i__main__
State
p368
(dp369
g3
I2
sg4
I3
sg5
I2
sg6
F2.0
sg7
F4.0
sg8
F-2.0
sg9
F4.0
sb(dp370
I00
F80.78055327283509
sI01
F51.675684078079996
ss(i__main__
State
p371
(dp372
g3
I2
sg4
I3
sg5
I2
sg6
F2.0
sg7
F2.0
sg8
F-2.0
sg9
F-2.0
sb(dp373
I00
F31.957030928000002
sI01
I7
ss(i__main__
State
p374
(dp375
g3
I2
sg4
I3
sg5
I2
sg6
F-8.0
sg7
F6.0
sg8
F8.0
sg9
F10.0
sb(dp376
I00
F32.52938524887732
sI01
F-45.71763891085
ss(i__main__
State
p377
(dp378
g3
I2
sg4
I3
sg5
I2
sg6
F2.0
sg7
F7.0
sg8
F-2.0
sg9
F-8.0
sb(dp379
I00
F-23.60145982694659
sI01
F-103.14
ss(i__main__
State
p380
(dp381
g3
I2
sg4
I3
sg5
I2
sg6
F8.0
sg7
F8.0
sg8
F-8.0
sg9
F4.0
sb(dp382
I00
F167.2198557685907
sI01
F22.6691168112028
ss(i__main__
State
p383
(dp384
g3
I2
sg4
I3
sg5
I2
sg6
F6.0
sg7
F0.0
sg8
F-6.0
sg9
F-5.0
sb(dp385
I00
F-27.840000000000003
sI01
F35.85355502131721
ss(i__main__
State
p386
(dp387
g3
I2
sg4
I3
sg5
I2
sg6
F-2.0
sg7
F2.0
sg8
F2.0
sg9
F-2.0
sb(dp388
I00
F-60.91686225054852
sI01
F18.289055915249836
ss(i__main__
State
p389
(dp390
g3
I2
sg4
I3
sg5
I2
sg6
F8.0
sg7
F6.0
sg8
F-8.0
sg9
F10.0
sb(dp391
I00
F14.100000000000001
sI01
F71.14278081537101
ss(i__main__
State
p392
(dp393
g3
I2
sg4
I3
sg5
I2
sg6
F-8.0
sg7
F2.0
sg8
F8.0
sg9
F10.0
sb(dp394
I00
F37.9
sI01
F40.11362902064032
ss(i__main__
State
p395
(dp396
g3
I2
sg4
I3
sg5
I2
sg6
F8.0
sg7
F9.0
sg8
F-8.0
sg9
F7.0
sb(dp397
I00
F10.0
sI01
F54.04354397106632
ss(i__main__
State
p398
(dp399
g3
I2
sg4
I3
sg5
I2
sg6
F6.0
sg7
F1.0
sg8
F-6.0
sg9
F-5.0
sb(dp400
I00
F71.43908005572621
sI01
F4.761986921431787
ss(i__main__
State
p401
(dp402
g3
I2
sg4
I3
sg5
I2
sg6
F0.0
sg7
F2.0
sg8
F0.0
sg9
F-5.0
sb(dp403
I00
F64.11555253857051
sI01
F39.2
ss(i__main__
State
p404
(dp405
g3
I2
sg4
I3
sg5
I2
sg6
F-8.0
sg7
F6.0
sg8
F8.0
sg9
F-2.0
sb(dp406
I00
F-34.59952837983065
sI01
F5.978342526377379
ss(i__main__
State
p407
(dp408
g3
I2
sg4
I3
sg5
I2
sg6
F-6.0
sg7
F6.0
sg8
F6.0
sg9
F-8.0
sb(dp409
I00
I-87
sI01
F41.60826418572298
ss(i__main__
State
p410
(dp411
g3
I2
sg4
I3
sg5
I2
sg6
F6.0
sg7
F1.0
sg8
F-6.0
sg9
F4.0
sb(dp412
I00
F30.8441
sI01
I1
ss(i__main__
State
p413
(dp414
g3
I2
sg4
I3
sg5
I2
sg6
F8.0
sg7
F9.0
sg8
F-8.0
sg9
F-8.0
sb(dp415
I00
F30.2761
sI01
F0.0
ss(i__main__
State
p416
(dp417
g3
I2
sg4
I3
sg5
I2
sg6
F-6.0
sg7
F8.0
sg8
F6.0
sg9
F-8.0
sb(dp418
I00
F105.62210131637136
sI01
F28.759386284324187
ss(i__main__
State
p419
(dp420
g3
I2
sg4
I3
sg5
I2
sg6
F-2.0
sg7
F2.0
sg8
F2.0
sg9
F4.0
sb(dp421
I00
F61.834719753190356
sI01
F-64.455824932
ss(i__main__
State
p422
(dp423
g3
I2
sg4
I3
sg5
I2
sg6
F-6.0
sg7
F1.0
sg8
F6.0
sg9
F-8.0
sb(dp424
I00
I-59
sI01
F8.486843542760003
ss(i__main__
State
p425
(dp426
g3
I2
sg4
I3
sg5
I2
sg6
F0.0
sg7
F4.0
sg8
F0.0
sg9
F7.0
sb(dp427
I00
F-19.774845048049727
sI01
F54.138326914060485
ss(i__main__
State
p428
(dp429
g3
I2
sg4
I3
sg5
I2
sg6
F-4.0
sg7
F0.0
sg8
F4.0
sg9
F7.0
sb(dp430
I00
F-23.43176
sI01
F25.89024225363196
ss(i__main__
State
p431
(dp432
g3
I2
sg4
I3
sg5
I2
sg6
F8.0
sg7
F4.0
sg8
F-8.0
sg9
F10.0
sb(dp433
I00
F43.137753000000004
sI01
F50.09969225453929
ss(i__main__
State
p434
(dp435
g3
I2
sg4
I3
sg5
I2
sg6
F0.0
sg7
F7.0
sg8
F0.0
sg9
F-8.0
sb(dp436
I00
F52.7
sI01
F-41.022091037966234
ss(i__main__
State
p437
(dp438
g3
I2
sg4
I3
sg5
I2
sg6
F-4.0
sg7
F10.0
sg8
F4.0
sg9
F-8.0
sb(dp439
I00
F0.0
sI01
F49.45812678505851
ss(i__main__
State
p440
(dp441
g3
I2
sg4
I3
sg5
I2
sg6
F-2.0
sg7
F9.0
sg8
F2.0
sg9
F1.0
sb(dp442
I00
F-2706.7052
sI01
F-999.0
ss(i__main__
State
p443
(dp444
g3
I2
sg4
I3
sg5
I2
sg6
F-4.0
sg7
F5.0
sg8
F4.0
sg9
F-2.0
sb(dp445
I00
F-14.649868529956283
sI01
F-54.58
ss(i__main__
State
p446
(dp447
g3
I2
sg4
I3
sg5
I2
sg6
F-8.0
sg7
F6.0
sg8
F8.0
sg9
F-8.0
sb(dp448
I00
F59.5
sI01
I-21
ss(i__main__
State
p449
(dp450
g3
I2
sg4
I3
sg5
I2
sg6
F-6.0
sg7
F1.0
sg8
F6.0
sg9
F-2.0
sb(dp451
I00
F78.48345058
sI01
I81
ss(i__main__
State
p452
(dp453
g3
I2
sg4
I3
sg5
I2
sg6
F2.0
sg7
F2.0
sg8
F-2.0
sg9
F10.0
sb(dp454
I00
F62.88762922272
sI01
I70
ss(i__main__
State
p455
(dp456
g3
I2
sg4
I3
sg5
I2
sg6
F4.0
sg7
F1.0
sg8
F-4.0
sg9
F1.0
sb(dp457
I00
F-73.6
sI01
F36.1766
ss(i__main__
State
p458
(dp459
g3
I2
sg4
I3
sg5
I2
sg6
F4.0
sg7
F6.0
sg8
F-4.0
sg9
F10.0
sb(dp460
I00
F-44.019999999999996
sI01
F4.509199999999997
ss(i__main__
State
p461
(dp462
g3
I2
sg4
I3
sg5
I2
sg6
F0.0
sg7
F7.0
sg8
F0.0
sg9
F1.0
sb(dp463
I00
F51.143984893637956
sI01
F-65.6
ss(i__main__
State
p464
(dp465
g3
I2
sg4
I3
sg5
I2
sg6
F-2.0
sg7
F3.0
sg8
F2.0
sg9
F10.0
sb(dp466
I00
F45.946929889233
sI01
F-37.97
ss(i__main__
State
p467
(dp468
g3
I2
sg4
I3
sg5
I2
sg6
F2.0
sg7
F5.0
sg8
F-2.0
sg9
F1.0
sb(dp469
I00
F46.579913142943724
sI01
F43.19142788926109
ss(i__main__
State
p470
(dp471
g3
I2
sg4
I3
sg5
I2
sg6
F0.0
sg7
F4.0
sg8
F0.0
sg9
F-2.0
sb(dp472
I00
F70.97375259692538
sI01
F-54.730000000000004
ss(i__main__
State
p473
(dp474
g3
I2
sg4
I3
sg5
I2
sg6
F2.0
sg7
F8.0
sg8
F-2.0
sg9
F1.0
sb(dp475
I00
F-890.7840589383685
sI01
F178.08667673520142
ss(i__main__
State
p476
(dp477
g3
I2
sg4
I3
sg5
I2
sg6
F6.0
sg7
F2.0
sg8
F-6.0
sg9
F4.0
sb(dp478
I00
F48.982378000000004
sI01
F75.23804347709756
ss(i__main__
State
p479
(dp480
g3
I2
sg4
I3
sg5
I2
sg6
F6.0
sg7
F9.0
sg8
F-6.0
sg9
F-2.0
sb(dp481
I00
F-252.71
sI01
F179.39223167879834
ss(i__main__
State
p482
(dp483
g3
I2
sg4
I3
sg5
I2
sg6
F-4.0
sg7
F3.0
sg8
F4.0
sg9
F1.0
sb(dp484
I00
F27.91440803005517
sI01
I-59
ss(i__main__
State
p485
(dp486
g3
I2
sg4
I3
sg5
I2
sg6
F-4.0
sg7
F4.0
sg8
F4.0
sg9
F7.0
sb(dp487
I00
F25.042595324388575
sI01
I30
ss(i__main__
State
p488
(dp489
g3
I2
sg4
I3
sg5
I2
sg6
F2.0
sg7
F0.0
sg8
F-2.0
sg9
F10.0
sb(dp490
I00
F14.782422
sI01
I-78
ss(i__main__
State
p491
(dp492
g3
I2
sg4
I3
sg5
I2
sg6
F-6.0
sg7
F7.0
sg8
F6.0
sg9
F1.0
sb(dp493
I00
F-64.3
sI01
F47.980000000000004
ss(i__main__
State
p494
(dp495
g3
I2
sg4
I3
sg5
I2
sg6
F-8.0
sg7
F5.0
sg8
F8.0
sg9
F4.0
sb(dp496
I00
F-72.69315542999999
sI01
F-6.623359665419161
ss(i__main__
State
p497
(dp498
g3
I2
sg4
I3
sg5
I2
sg6
F2.0
sg7
F8.0
sg8
F-2.0
sg9
F4.0
sb(dp499
I00
F-155.43
sI01
F50.79641436396
ss(i__main__
State
p500
(dp501
g3
I2
sg4
I3
sg5
I2
sg6
F2.0
sg7
F7.0
sg8
F-2.0
sg9
F-2.0
sb(dp502
I00
F7.504250456322412
sI01
F-684.7976341025369
ss(i__main__
State
p503
(dp504
g3
I2
sg4
I3
sg5
I2
sg6
F-2.0
sg7
F1.0
sg8
F2.0
sg9
F10.0
sb(dp505
I00
F37.694436497067535
sI01
F-37.32999999999999
ss(i__main__
State
p506
(dp507
g3
I2
sg4
I3
sg5
I2
sg6
F0.0
sg7
F5.0
sg8
F0.0
sg9
F1.0
sb(dp508
I00
F-23.8855
sI01
F39.526935744773
ss(i__main__
State
p509
(dp510
g3
I2
sg4
I3
sg5
I2
sg6
F-6.0
sg7
F4.0
sg8
F6.0
sg9
F-5.0
sb(dp511
I00
F26.77082
sI01
F56.87082871176017
ss(i__main__
State
p512
(dp513
g3
I2
sg4
I3
sg5
I2
sg6
F8.0
sg7
F2.0
sg8
F-8.0
sg9
F7.0
sb(dp514
I00
F-60.7
sI01
F43.67175984465
ss(i__main__
State
p515
(dp516
g3
I2
sg4
I3
sg5
I2
sg6
F-2.0
sg7
F8.0
sg8
F2.0
sg9
F10.0
sb(dp517
I00
F95.07142239966046
sI01
F0.0
ss(i__main__
State
p518
(dp519
g3
I2
sg4
I3
sg5
I2
sg6
F-2.0
sg7
F6.0
sg8
F2.0
sg9
F7.0
sb(dp520
I00
F-59.115534000000004
sI01
F-5.411112762248104
ss(i__main__
State
p521
(dp522
g3
I2
sg4
I3
sg5
I2
sg6
F-4.0
sg7
F8.0
sg8
F4.0
sg9
F-8.0
sb(dp523
I00
F278.4028495890611
sI01
F41.719161151723554
ss(i__main__
State
p524
(dp525
g3
I2
sg4
I3
sg5
I2
sg6
F-6.0
sg7
F9.0
sg8
F6.0
sg9
F4.0
sb(dp526
I00
F10.0
sI01
F31.500081590000004
ss(i__main__
State
p527
(dp528
g3
I2
sg4
I3
sg5
I2
sg6
F8.0
sg7
F5.0
sg8
F-8.0
sg9
F10.0
sb(dp529
I00
F90.4869883
sI01
I-45
ss(i__main__
State
p530
(dp531
g3
I2
sg4
I3
sg5
I2
sg6
F2.0
sg7
F3.0
sg8
F-2.0
sg9
F4.0
sb(dp532
I00
F-32.434460718479635
sI01
F70.82548137397039
ss(i__main__
State
p533
(dp534
g3
I2
sg4
I3
sg5
I2
sg6
F-8.0
sg7
F10.0
sg8
F8.0
sg9
F-2.0
sb(dp535
I00
F94.08669685133219
sI01
F0.0
ss(i__main__
State
p536
(dp537
g3
I2
sg4
I3
sg5
I2
sg6
F8.0
sg7
F2.0
sg8
F-8.0
sg9
F1.0
sb(dp538
I00
F79.88262354032106
sI01
F10.4737464419213
ss(i__main__
State
p539
(dp540
g3
I2
sg4
I3
sg5
I2
sg6
F-2.0
sg7
F5.0
sg8
F2.0
sg9
F7.0
sb(dp541
I00
F-59.9
sI01
F33.40673731957035
ss(i__main__
State
p542
(dp543
g3
I2
sg4
I3
sg5
I2
sg6
F-2.0
sg7
F3.0
sg8
F2.0
sg9
F-5.0
sb(dp544
I00
F49.739238197999995
sI01
F11.2
ss(i__main__
State
p545
(dp546
g3
I2
sg4
I3
sg5
I2
sg6
F6.0
sg7
F1.0
sg8
F-6.0
sg9
F1.0
sb(dp547
I00
F5.952468064339724
sI01
F2.4289087953005897
ss(i__main__
State
p548
(dp549
g3
I2
sg4
I3
sg5
I2
sg6
F8.0
sg7
F5.0
sg8
F-8.0
sg9
F-8.0
sb(dp550
I00
F-0.5672361947199
sI01
F51.236719272125995
ss(i__main__
State
p551
(dp552
g3
I2
sg4
I3
sg5
I2
sg6
F-6.0
sg7
F4.0
sg8
F6.0
sg9
F-8.0
sb(dp553
I00
I-74
sI01
F48.80071050000001
ss(i__main__
State
p554
(dp555
g3
I2
sg4
I3
sg5
I2
sg6
F8.0
sg7
F6.0
sg8
F-8.0
sg9
F7.0
sb(dp556
I00
F34.46721875180304
sI01
F-50.75
ss(i__main__
State
p557
(dp558
g3
I2
sg4
I3
sg5
I2
sg6
F6.0
sg7
F3.0
sg8
F-6.0
sg9
F-5.0
sb(dp559
I00
F50.60412
sI01
F0.8257991314294373
ss(i__main__
State
p560
(dp561
g3
I2
sg4
I3
sg5
I2
sg6
F0.0
sg7
F5.0
sg8
F0.0
sg9
F7.0
sb(dp562
I00
F-9.588876393995044
sI01
I-74
ss(i__main__
State
p563
(dp564
g3
I2
sg4
I3
sg5
I2
sg6
F-8.0
sg7
F4.0
sg8
F8.0
sg9
F4.0
sb(dp565
I00
F-43.748430969728645
sI01
F-36.421787520173
ss(i__main__
State
p566
(dp567
g3
I2
sg4
I3
sg5
I2
sg6
F0.0
sg7
F6.0
sg8
F0.0
sg9
F-8.0
sb(dp568
I00
F66.973
sI01
I-17
ss(i__main__
State
p569
(dp570
g3
I2
sg4
I3
sg5
I2
sg6
F6.0
sg7
F4.0
sg8
F-6.0
sg9
F7.0
sb(dp571
I00
F82.48603238926206
sI01
I-6
ss(i__main__
State
p572
(dp573
g3
I2
sg4
I3
sg5
I2
sg6
F-4.0
sg7
F1.0
sg8
F4.0
sg9
F4.0
sb(dp574
I00
I-93
sI01
F41.94
ss(i__main__
State
p575
(dp576
g3
I2
sg4
I3
sg5
I2
sg6
F8.0
sg7
F5.0
sg8
F-8.0
sg9
F-2.0
sb(dp577
I00
F-62.8
sI01
F-3.0609909999999987
ss(i__main__
State
p578
(dp579
g3
I2
sg4
I3
sg5
I2
sg6
F-4.0
sg7
F9.0
sg8
F4.0
sg9
F-5.0
sb(dp580
I00
F49.04892888905986
sI01
F180.91766693991673
ss(i__main__
State
p581
(dp582
g3
I2
sg4
I3
sg5
I2
sg6
F-6.0
sg7
F9.0
sg8
F6.0
sg9
F1.0
sb(dp583
I00
F-4086.92592851
sI01
F-3417.5216538676323
ss(i__main__
State
p584
(dp585
g3
I2
sg4
I3
sg5
I2
sg6
F-8.0
sg7
F4.0
sg8
F8.0
sg9
F-5.0
sb(dp586
I00
F-3.8999999999999995
sI01
F17.72802
ss(i__main__
State
p587
(dp588
g3
I2
sg4
I3
sg5
I2
sg6
F-6.0
sg7
F8.0
sg8
F6.0
sg9
F1.0
sb(dp589
I00
F12.0
sI01
F0.0
ss(i__main__
State
p590
(dp591
g3
I2
sg4
I3
sg5
I2
sg6
F-2.0
sg7
F1.0
sg8
F2.0
sg9
F-2.0
sb(dp592
I00
I-75
sI01
F48.70031027526595
ss(i__main__
State
p593
(dp594
g3
I2
sg4
I3
sg5
I2
sg6
F4.0
sg7
F9.0
sg8
F-4.0
sg9
F-5.0
sb(dp595
I00
F-276.8679897582525
sI01
F133.07308119696418
ss(i__main__
State
p596
(dp597
g3
I2
sg4
I3
sg5
I2
sg6
F2.0
sg7
F10.0
sg8
F-2.0
sg9
F7.0
sb(dp598
I00
F-81.0
sI01
F42.93853586
ss(i__main__
State
p599
(dp600
g3
I2
sg4
I3
sg5
I2
sg6
F8.0
sg7
F6.0
sg8
F-8.0
sg9
F-5.0
sb(dp601
I00
F49.528
sI01
I-94
ss(i__main__
State
p602
(dp603
g3
I2
sg4
I3
sg5
I2
sg6
F6.0
sg7
F8.0
sg8
F-6.0
sg9
F1.0
sb(dp604
I00
F164.69575912487636
sI01
F35.189875210338
ss(i__main__
State
p605
(dp606
g3
I2
sg4
I3
sg5
I2
sg6
F6.0
sg7
F1.0
sg8
F-6.0
sg9
F7.0
sb(dp607
I00
F-49.470038260785444
sI01
F21.413124027000006
ss(i__main__
State
p608
(dp609
g3
I2
sg4
I3
sg5
I2
sg6
F2.0
sg7
F9.0
sg8
F-2.0
sg9
F-2.0
sb(dp610
I00
F-1694.8283089604506
sI01
F-1810.3046838407815
ss(i__main__
State
p611
(dp612
g3
I2
sg4
I3
sg5
I2
sg6
F4.0
sg7
F4.0
sg8
F-4.0
sg9
F7.0
sb(dp613
I00
I-99
sI01
F21.40163716543803
ss(i__main__
State
p614
(dp615
g3
I2
sg4
I3
sg5
I2
sg6
F6.0
sg7
F0.0
sg8
F-6.0
sg9
F10.0
sb(dp616
I00
I-61
sI01
F-23.65094273946773
ss(i__main__
State
p617
(dp618
g3
I2
sg4
I3
sg5
I2
sg6
F2.0
sg7
F5.0
sg8
F-2.0
sg9
F-8.0
sb(dp619
I00
F23.47780126
sI01
I-62
ss(i__main__
State
p620
(dp621
g3
I2
sg4
I3
sg5
I2
sg6
F-2.0
sg7
F7.0
sg8
F2.0
sg9
F1.0
sb(dp622
I00
F10.85581398438121
sI01
F-13.090513762
ss(i__main__
State
p623
(dp624
g3
I2
sg4
I3
sg5
I2
sg6
F-2.0
sg7
F4.0
sg8
F2.0
sg9
F-2.0
sb(dp625
I00
F31.5
sI01
F36.78678785945388
ss(i__main__
State
p626
(dp627
g3
I2
sg4
I3
sg5
I2
sg6
F6.0
sg7
F7.0
sg8
F-6.0
sg9
F-2.0
sb(dp628
I00
I-75
sI01
F58.236000000000004
ss(i__main__
State
p629
(dp630
g3
I2
sg4
I3
sg5
I2
sg6
F6.0
sg7
F10.0
sg8
F-6.0
sg9
F1.0
sb(dp631
I00
F34.038952
sI01
F132.91114615026248
ss(i__main__
State
p632
(dp633
g3
I2
sg4
I3
sg5
I2
sg6
F4.0
sg7
F3.0
sg8
F-4.0
sg9
F-2.0
sb(dp634
I00
F-80.9
sI01
F1.6465600000000045
ss(i__main__
State
p635
(dp636
g3
I2
sg4
I3
sg5
I2
sg6
F-4.0
sg7
F1.0
sg8
F4.0
sg9
F1.0
sb(dp637
I00
F60.72
sI01
I98
ss(i__main__
State
p638
(dp639
g3
I2
sg4
I3
sg5
I2
sg6
F-6.0
sg7
F5.0
sg8
F6.0
sg9
F1.0
sb(dp640
I00
F-26.215073060134333
sI01
F-72.290460751684
ss(i__main__
State
p641
(dp642
g3
I2
sg4
I3
sg5
I2
sg6
F-6.0
sg7
F8.0
sg8
F6.0
sg9
F10.0
sb(dp643
I00
F31.9
sI01
F0.0
ss(i__main__
State
p644
(dp645
g3
I2
sg4
I3
sg5
I2
sg6
F-8.0
sg7
F2.0
sg8
F8.0
sg9
F4.0
sb(dp646
I00
F72.03900000000002
sI01
F9.460841269284835
ss(i__main__
State
p647
(dp648
g3
I2
sg4
I3
sg5
I2
sg6
F8.0
sg7
F3.0
sg8
F-8.0
sg9
F-5.0
sb(dp649
I00
F21.095649482672194
sI01
F-13.224519574
ss(i__main__
State
p650
(dp651
g3
I2
sg4
I3
sg5
I2
sg6
F8.0
sg7
F9.0
sg8
F-8.0
sg9
F10.0
sb(dp652
I00
F37.99421187494068
sI01
F0.0
ss(i__main__
State
p653
(dp654
g3
I2
sg4
I3
sg5
I2
sg6
F-8.0
sg7
F4.0
sg8
F8.0
sg9
F7.0
sb(dp655
I00
F58.963203456364106
sI01
F42.7
ss(i__main__
State
p656
(dp657
g3
I2
sg4
I3
sg5
I2
sg6
F-2.0
sg7
F0.0
sg8
F2.0
sg9
F7.0
sb(dp658
I00
F-79.3797585658
sI01
F66.53905909130411
ss(i__main__
State
p659
(dp660
g3
I2
sg4
I3
sg5
I2
sg6
F8.0
sg7
F7.0
sg8
F-8.0
sg9
F-2.0
sb(dp661
I00
F48.010699931647885
sI01
F91.2580663871293
ss(i__main__
State
p662
(dp663
g3
I2
sg4
I3
sg5
I2
sg6
F-3.0
sg7
F0.0
sg8
F3.0
sg9
F0.0
sb(dp664
I00
F-9.0
sI01
I-75
ss(i__main__
State
p665
(dp666
g3
I2
sg4
I3
sg5
I2
sg6
F4.0
sg7
F2.0
sg8
F-4.0
sg9
F4.0
sb(dp667
I00
F72.28041837732117
sI01
I-81
ss(i__main__
State
p668
(dp669
g3
I2
sg4
I3
sg5
I2
sg6
F8.0
sg7
F9.0
sg8
F-8.0
sg9
F-2.0
sb(dp670
I00
F-90.0
sI01
F30.856303700000005
ss(i__main__
State
p671
(dp672
g3
I2
sg4
I3
sg5
I2
sg6
F8.0
sg7
F3.0
sg8
F-8.0
sg9
F7.0
sb(dp673
I00
I-25
sI01
F24.1500323007944
ss(i__main__
State
p674
(dp675
g3
I2
sg4
I3
sg5
I2
sg6
F8.0
sg7
F7.0
sg8
F-8.0
sg9
F-8.0
sb(dp676
I00
I-2
sI01
F75.02591539664186
ss(i__main__
State
p677
(dp678
g3
I2
sg4
I3
sg5
I2
sg6
F-8.0
sg7
F8.0
sg8
F8.0
sg9
F1.0
sb(dp679
I00
F126.44557390203255
sI01
F11.0
ss(i__main__
State
p680
(dp681
g3
I2
sg4
I3
sg5
I2
sg6
F-4.0
sg7
F2.0
sg8
F4.0
sg9
F7.0
sb(dp682
I00
F-13.35630354236645
sI01
F-42.19695
ss(i__main__
State
p683
(dp684
g3
I2
sg4
I3
sg5
I2
sg6
F8.0
sg7
F4.0
sg8
F-8.0
sg9
F7.0
sb(dp685
I00
F39.9895068199088
sI01
F-73.81217889094901
ss(i__main__
State
p686
(dp687
g3
I2
sg4
I3
sg5
I2
sg6
F-4.0
sg7
F5.0
sg8
F4.0
sg9
F-5.0
sb(dp688
I00
F32.44638166747146
sI01
F35.20469023176447
ss(i__main__
State
p689
(dp690
g3
I2
sg4
I3
sg5
I2
sg6
F-6.0
sg7
F1.0
sg8
F6.0
sg9
F-5.0
sb(dp691
I00
F67.89642929963675
sI01
F-9.683901500768615
ss(i__main__
State
p692
(dp693
g3
I2
sg4
I3
sg5
I2
sg6
F-6.0
sg7
F5.0
sg8
F6.0
sg9
F4.0
sb(dp694
I00
F-59.519999999999996
sI01
F32.74946133864775
ss(i__main__
State
p695
(dp696
g3
I2
sg4
I3
sg5
I2
sg6
F-2.0
sg7
F0.0
sg8
F2.0
sg9
F4.0
sb(dp697
I00
F-26.804193700000003
sI01
F31.20653160915757
ss(i__main__
State
p698
(dp699
g3
I2
sg4
I3
sg5
I2
sg6
F-2.0
sg7
F10.0
sg8
F2.0
sg9
F-5.0
sb(dp700
I00
F157.80522332837842
sI01
F0.0
ss(i__main__
State
p701
(dp702
g3
I2
sg4
I3
sg5
I2
sg6
F6.0
sg7
F7.0
sg8
F-6.0
sg9
F7.0
sb(dp703
I00
F-15.29428469792929
sI01
F157.56359007109435
ss(i__main__
State
p704
(dp705
g3
I2
sg4
I3
sg5
I2
sg6
F2.0
sg7
F3.0
sg8
F-2.0
sg9
F-8.0
sb(dp706
I00
F2.804637130376097
sI01
F-57.083
ss(i__main__
State
p707
(dp708
g3
I2
sg4
I3
sg5
I2
sg6
F4.0
sg7
F1.0
sg8
F-4.0
sg9
F-8.0
sb(dp709
I00
F17.58140996321788
sI01
F-54.96252804827947
ss(i__main__
State
p710
(dp711
g3
I2
sg4
I3
sg5
I2
sg6
F2.0
sg7
F1.0
sg8
F-2.0
sg9
F10.0
sb(dp712
I00
I8
sI01
F57.89720368929999
ss(i__main__
State
p713
(dp714
g3
I2
sg4
I3
sg5
I2
sg6
F8.0
sg7
F10.0
sg8
F-8.0
sg9
F-5.0
sb(dp715
I00
F72.2545512990778
sI01
F0.0
ss(i__main__
State
p716
(dp717
g3
I2
sg4
I3
sg5
I2
sg6
F6.0
sg7
F6.0
sg8
F-6.0
sg9
F10.0
sb(dp718
I00
F-29.4203090451335
sI01
F46.45351123771977
ss(i__main__
State
p719
(dp720
g3
I2
sg4
I3
sg5
I2
sg6
F-4.0
sg7
F6.0
sg8
F4.0
sg9
F7.0
sb(dp721
I00
F-32.62733
sI01
F22.360797281100005
ss(i__main__
State
p722
(dp723
g3
I2
sg4
I3
sg5
I2
sg6
F6.0
sg7
F8.0
sg8
F-6.0
sg9
F-8.0
sb(dp724
I00
F19.844961601070818
sI01
F92.4909809387454
ss(i__main__
State
p725
(dp726
g3
I2
sg4
I3
sg5
I2
sg6
F-8.0
sg7
F6.0
sg8
F8.0
sg9
F1.0
sb(dp727
I00
F55.74118218133352
sI01
F-9.01365664177
ss(i__main__
State
p728
(dp729
g3
I2
sg4
I3
sg5
I2
sg6
F0.0
sg7
F10.0
sg8
F0.0
sg9
F4.0
sb(dp730
I00
F-1899.203
sI01
F-1887.306
ss(i__main__
State
p731
(dp732
g3
I2
sg4
I3
sg5
I2
sg6
F2.0
sg7
F6.0
sg8
F-2.0
sg9
F-5.0
sb(dp733
I00
F48.42392494190006
sI01
F22.38133
ss(i__main__
State
p734
(dp735
g3
I2
sg4
I3
sg5
I2
sg6
F4.0
sg7
F3.0
sg8
F-4.0
sg9
F4.0
sb(dp736
I00
F-22.4
sI01
F77.93834490018826
ss(i__main__
State
p737
(dp738
g3
I2
sg4
I3
sg5
I2
sg6
F2.0
sg7
F9.0
sg8
F-2.0
sg9
F-8.0
sb(dp739
I00
F281.09679242985635
sI01
F-155.26305000000002
ss(i__main__
State
p740
(dp741
g3
I2
sg4
I3
sg5
I2
sg6
F-6.0
sg7
F4.0
sg8
F6.0
sg9
F-2.0
sb(dp742
I00
F66.4132208256264
sI01
F-37.5
ss(i__main__
State
p743
(dp744
g3
I2
sg4
I3
sg5
I2
sg6
F-4.0
sg7
F4.0
sg8
F4.0
sg9
F-5.0
sb(dp745
I00
I-20
sI01
F16.81089510657793
ss(i__main__
State
p746
(dp747
g3
I2
sg4
I3
sg5
I2
sg6
F-9.0
sg7
F1.0
sg8
F9.0
sg9
F9.0
sb(dp748
I00
F48.1
sI01
I-54
ss(i__main__
State
p749
(dp750
g3
I2
sg4
I3
sg5
I2
sg6
F8.0
sg7
F0.0
sg8
F-8.0
sg9
F10.0
sb(dp751
I00
F65.51360973765
sI01
F-60.6
ss(i__main__
State
p752
(dp753
g3
I2
sg4
I3
sg5
I2
sg6
F8.0
sg7
F10.0
sg8
F-8.0
sg9
F10.0
sb(dp754
I00
F200.13402612742334
sI01
F14.673399000000002
ss(i__main__
State
p755
(dp756
g3
I2
sg4
I3
sg5
I2
sg6
F-8.0
sg7
F3.0
sg8
F8.0
sg9
F-5.0
sb(dp757
I00
F14.030843984924118
sI01
F58.13507770172492
ss(i__main__
State
p758
(dp759
g3
I2
sg4
I3
sg5
I2
sg6
F4.0
sg7
F2.0
sg8
F-4.0
sg9
F10.0
sb(dp760
I00
F36.513543306
sI01
F36.987450394129404
ss(i__main__
State
p761
(dp762
g3
I2
sg4
I3
sg5
I2
sg6
F2.0
sg7
F10.0
sg8
F-2.0
sg9
F4.0
sb(dp763
I00
F-317.82680000000005
sI01
F94.55214540672044
ss(i__main__
State
p764
(dp765
g3
I2
sg4
I3
sg5
I2
sg6
F-2.0
sg7
F1.0
sg8
F2.0
sg9
F4.0
sb(dp766
I00
F-61.656499584620974
sI01
F20.21296270564209
ss(i__main__
State
p767
(dp768
g3
I2
sg4
I3
sg5
I2
sg6
F0.0
sg7
F8.0
sg8
F0.0
sg9
F4.0
sb(dp769
I00
F-4072.375393982812
sI01
F-4062.1384347585167
ss(i__main__
State
p770
(dp771
g3
I2
sg4
I3
sg5
I2
sg6
F-2.0
sg7
F6.0
sg8
F2.0
sg9
F4.0
sb(dp772
I00
F42.94359334999999
sI01
F43.584517
ss(i__main__
State
p773
(dp774
g3
I2
sg4
I3
sg5
I2
sg6
F-6.0
sg7
F9.0
sg8
F6.0
sg9
F7.0
sb(dp775
I00
F12.0
sI01
F55.0664078612263
ss(i__main__
State
p776
(dp777
g3
I2
sg4
I3
sg5
I2
sg6
F-4.0
sg7
F7.0
sg8
F4.0
sg9
F-2.0
sb(dp778
I00
F-80.702
sI01
F5.4
ss(i__main__
State
p779
(dp780
g3
I2
sg4
I3
sg5
I2
sg6
F0.0
sg7
F7.0
sg8
F0.0
sg9
F4.0
sb(dp781
I00
F-46.322788659
sI01
F69.69607092713277
ss(i__main__
State
p782
(dp783
g3
I2
sg4
I3
sg5
I2
sg6
F6.0
sg7
F4.0
sg8
F-6.0
sg9
F1.0
sb(dp784
I00
F54.89190725934838
sI01
F-37.4214
ss(i__main__
State
p785
(dp786
g3
I2
sg4
I3
sg5
I2
sg6
F-4.0
sg7
F0.0
sg8
F4.0
sg9
F-5.0
sb(dp787
I00
F41.695316569
sI01
F-12.299999999999999
ss(i__main__
State
p788
(dp789
g3
I2
sg4
I3
sg5
I2
sg6
F0.0
sg7
F4.0
sg8
F0.0
sg9
F-5.0
sb(dp790
I00
I-84
sI01
F40.62222591514875
ss(i__main__
State
p791
(dp792
g3
I2
sg4
I3
sg5
I2
sg6
F-4.0
sg7
F4.0
sg8
F4.0
sg9
F1.0
sb(dp793
I00
I90
sI01
F-50.87
ss(i__main__
State
p794
(dp795
g3
I2
sg4
I3
sg5
I2
sg6
F4.0
sg7
F10.0
sg8
F-4.0
sg9
F7.0
sb(dp796
I00
F155.8805320106708
sI01
F11.200000000000001
ss(i__main__
State
p797
(dp798
g3
I2
sg4
I3
sg5
I2
sg6
F4.0
sg7
F8.0
sg8
F-4.0
sg9
F4.0
sb(dp799
I00
F190.4377257839729
sI01
F41.79562741899061
ss(i__main__
State
p800
(dp801
g3
I2
sg4
I3
sg5
I2
sg6
F8.0
sg7
F1.0
sg8
F-8.0
sg9
F4.0
sb(dp802
I00
F42.159473129
sI01
F76.43424436524
ss(i__main__
State
p803
(dp804
g3
I2
sg4
I3
sg5
I2
sg6
F2.0
sg7
F7.0
sg8
F-2.0
sg9
F-5.0
sb(dp805
I00
F66.91281699999999
sI01
F36.0
ss(i__main__
State
p806
(dp807
g3
I2
sg4
I3
sg5
I2
sg6
F0.0
sg7
F8.0
sg8
F0.0
sg9
F10.0
sb(dp808
I00
F-3434.39
sI01
F-3409.005574861586
ss(i__main__
State
p809
(dp810
g3
I2
sg4
I3
sg5
I2
sg6
F-6.0
sg7
F4.0
sg8
F6.0
sg9
F10.0
sb(dp811
I00
F-20.434784036617053
sI01
I-78
ss(i__main__
State
p812
(dp813
g3
I2
sg4
I3
sg5
I2
sg6
F-2.0
sg7
F6.0
sg8
F2.0
sg9
F10.0
sb(dp814
I00
F-60.4
sI01
I-93
ss(i__main__
State
p815
(dp816
g3
I2
sg4
I3
sg5
I2
sg6
F2.0
sg7
F3.0
sg8
F-2.0
sg9
F1.0
sb(dp817
I00
I65
sI01
F89.62
ss(i__main__
State
p818
(dp819
g3
I2
sg4
I3
sg5
I2
sg6
F-4.0
sg7
F7.0
sg8
F4.0
sg9
F-5.0
sb(dp820
I00
F-28.730989744561704
sI01
F57.37323046067234
ss(i__main__
State
p821
(dp822
g3
I2
sg4
I3
sg5
I2
sg6
F0.0
sg7
F3.0
sg8
F0.0
sg9
F4.0
sb(dp823
I00
I-92
sI01
F-73.91
ss(i__main__
State
p824
(dp825
g3
I2
sg4
I3
sg5
I2
sg6
F6.0
sg7
F1.0
sg8
F-6.0
sg9
F10.0
sb(dp826
I00
F-39.56044482443516
sI01
F43.48194774115571
ss(i__main__
State
p827
(dp828
g3
I2
sg4
I3
sg5
I2
sg6
F4.0
sg7
F7.0
sg8
F-4.0
sg9
F1.0
sb(dp829
I00
I-40
sI01
F58.48697329074
ss(i__main__
State
p830
(dp831
g3
I2
sg4
I3
sg5
I2
sg6
F-8.0
sg7
F5.0
sg8
F8.0
sg9
F1.0
sb(dp832
I00
F-80.430098
sI01
F55.951119860802
ss(i__main__
State
p833
(dp834
g3
I2
sg4
I3
sg5
I2
sg6
F-2.0
sg7
F3.0
sg8
F2.0
sg9
F1.0
sb(dp835
I00
I-48
sI01
F42.67987
ss(i__main__
State
p836
(dp837
g3
I2
sg4
I3
sg5
I2
sg6
F2.0
sg7
F1.0
sg8
F-2.0
sg9
F4.0
sb(dp838
I00
I83
sI01
F28.909999999999997
ss(i__main__
State
p839
(dp840
g3
I2
sg4
I3
sg5
I2
sg6
F-4.0
sg7
F8.0
sg8
F4.0
sg9
F10.0
sb(dp841
I00
F24.91357
sI01
F161.04041781558297
ss(i__main__
State
p842
(dp843
g3
I2
sg4
I3
sg5
I2
sg6
F0.0
sg7
F2.0
sg8
F0.0
sg9
F10.0
sb(dp844
I00
F0.8647810686005977
sI01
F-74.2
ss(i__main__
State
p845
(dp846
g3
I2
sg4
I3
sg5
I2
sg6
F0.0
sg7
F3.0
sg8
F0.0
sg9
F-5.0
sb(dp847
I00
I-98
sI01
F16.701086752917472
ss(i__main__
State
p848
(dp849
g3
I2
sg4
I3
sg5
I2
sg6
F-8.0
sg7
F6.0
sg8
F8.0
sg9
F7.0
sb(dp850
I00
F-3.927983779027839
sI01
F57.34055752812987
ss(i__main__
State
p851
(dp852
g3
I2
sg4
I3
sg5
I2
sg6
F-8.0
sg7
F3.0
sg8
F8.0
sg9
F-8.0
sb(dp853
I00
F21.0614843538894
sI01
F21.107944090443116
ss(i__main__
State
p854
(dp855
g3
I2
sg4
I3
sg5
I2
sg6
F4.0
sg7
F0.0
sg8
F-4.0
sg9
F-5.0
sb(dp856
I00
F-82.4
sI01
F17.066986620122
ss(i__main__
State
p857
(dp858
g3
I2
sg4
I3
sg5
I2
sg6
F2.0
sg7
F6.0
sg8
F-2.0
sg9
F-2.0
sb(dp859
I00
I-44
sI01
F33.77056123841841
ss(i__main__
State
p860
(dp861
g3
I2
sg4
I3
sg5
I2
sg6
F-2.0
sg7
F7.0
sg8
F2.0
sg9
F4.0
sb(dp862
I00
F-15.069508124999999
sI01
F110.17894339769819
ss(i__main__
State
p863
(dp864
g3
I2
sg4
I3
sg5
I2
sg6
F0.0
sg7
F5.0
sg8
F0.0
sg9
F10.0
sb(dp865
I00
I-97
sI01
F2.736617820000003
ss(i__main__
State
p866
(dp867
g3
I2
sg4
I3
sg5
I2
sg6
F8.0
sg7
F3.0
sg8
F-8.0
sg9
F1.0
sb(dp868
I00
F-52.481506091
sI01
F-68.6
ss(i__main__
State
p869
(dp870
g3
I2
sg4
I3
sg5
I2
sg6
F6.0
sg7
F0.0
sg8
F-6.0
sg9
F1.0
sb(dp871
I00
F53.822
sI01
F1.2999999999999998
ss(i__main__
State
p872
(dp873
g3
I2
sg4
I3
sg5
I2
sg6
F-8.0
sg7
F1.0
sg8
F8.0
sg9
F-5.0
sb(dp874
I00
F58.281971377183
sI01
I14
ss(i__main__
State
p875
(dp876
g3
I2
sg4
I3
sg5
I2
sg6
F-8.0
sg7
F9.0
sg8
F8.0
sg9
F-8.0
sb(dp877
I00
F199.75112914315056
sI01
F15.837835664679563
ss(i__main__
State
p878
(dp879
g3
I2
sg4
I3
sg5
I2
sg6
F-2.0
sg7
F5.0
sg8
F2.0
sg9
F1.0
sb(dp880
I00
F43.3214335
sI01
F77.2910759078917
ss(i__main__
State
p881
(dp882
g3
I2
sg4
I3
sg5
I2
sg6
F2.0
sg7
F8.0
sg8
F-2.0
sg9
F-5.0
sb(dp883
I00
F10.0
sI01
F110.01289034660537
ss(i__main__
State
p884
(dp885
g3
I2
sg4
I3
sg5
I2
sg6
F6.0
sg7
F6.0
sg8
F-6.0
sg9
F-5.0
sb(dp886
I00
F83.98763690434298
sI01
F55.82016128034
ss(i__main__
State
p887
(dp888
g3
I2
sg4
I3
sg5
I2
sg6
F-2.0
sg7
F6.0
sg8
F2.0
sg9
F-2.0
sb(dp889
I00
F-22.58
sI01
F48.34713437803527
ss(i__main__
State
p890
(dp891
g3
I2
sg4
I3
sg5
I2
sg6
F8.0
sg7
F4.0
sg8
F-8.0
sg9
F-2.0
sb(dp892
I00
F48.66528339143751
sI01
F-74.661705
ss(i__main__
State
p893
(dp894
g3
I2
sg4
I3
sg5
I2
sg6
F-8.0
sg7
F5.0
sg8
F8.0
sg9
F7.0
sb(dp895
I00
I5
sI01
F86.1378363759
ss(i__main__
State
p896
(dp897
g3
I2
sg4
I3
sg5
I2
sg6
F-4.0
sg7
F10.0
sg8
F4.0
sg9
F-5.0
sb(dp898
I00
F20.0
sI01
F0.0
ss(i__main__
State
p899
(dp900
g3
I2
sg4
I3
sg5
I2
sg6
F-6.0
sg7
F2.0
sg8
F6.0
sg9
F7.0
sb(dp901
I00
F65.85664992000001
sI01
I-44
ss(i__main__
State
p902
(dp903
g3
I2
sg4
I3
sg5
I2
sg6
F4.0
sg7
F1.0
sg8
F-4.0
sg9
F10.0
sb(dp904
I00
F-19.957042044903968
sI01
F-81.484706
ss(i__main__
State
p905
(dp906
g3
I2
sg4
I3
sg5
I2
sg6
F2.0
sg7
F4.0
sg8
F-2.0
sg9
F1.0
sb(dp907
I00
F86.01320960000001
sI01
F-20.97
ss(i__main__
State
p908
(dp909
g3
I2
sg4
I3
sg5
I2
sg6
F-4.0
sg7
F10.0
sg8
F4.0
sg9
F10.0
sb(dp910
I00
F50.846243511000004
sI01
F139.05457389973242
ss(i__main__
State
p911
(dp912
g3
I2
sg4
I3
sg5
I2
sg6
F2.0
sg7
F6.0
sg8
F-2.0
sg9
F-8.0
sb(dp913
I00
F36.955571379473525
sI01
F-57.07275
ss(i__main__
State
p914
(dp915
g3
I2
sg4
I3
sg5
I2
sg6
F-8.0
sg7
F7.0
sg8
F8.0
sg9
F7.0
sb(dp916
I00
I47
sI01
F83.42288358866837
ss(i__main__
State
p917
(dp918
g3
I2
sg4
I3
sg5
I2
sg6
F-6.0
sg7
F2.0
sg8
F6.0
sg9
F1.0
sb(dp919
I00
F76.41381
sI01
F12.7235625
ss(i__main__
State
p920
(dp921
g3
I2
sg4
I3
sg5
I2
sg6
F2.0
sg7
F9.0
sg8
F-2.0
sg9
F-5.0
sb(dp922
I00
F36.5625109239426
sI01
F-81.0
ss(i__main__
State
p923
(dp924
g3
I2
sg4
I3
sg5
I2
sg6
F4.0
sg7
F5.0
sg8
F-4.0
sg9
F-8.0
sb(dp925
I00
F42.849871482596576
sI01
F-57.963064389714276
ss(i__main__
State
p926
(dp927
g3
I2
sg4
I3
sg5
I2
sg6
F4.0
sg7
F4.0
sg8
F-4.0
sg9
F10.0
sb(dp928
I00
F46.75039325785583
sI01
F8.4
ss(i__main__
State
p929
(dp930
g3
I2
sg4
I3
sg5
I2
sg6
F0.0
sg7
F6.0
sg8
F0.0
sg9
F1.0
sb(dp931
I00
I85
sI01
F70.175
ss(i__main__
State
p932
(dp933
g3
I2
sg4
I3
sg5
I2
sg6
F-8.0
sg7
F8.0
sg8
F8.0
sg9
F4.0
sb(dp934
I00
F20.0
sI01
F11.399090000000001
ss(i__main__
State
p935
(dp936
g3
I2
sg4
I3
sg5
I2
sg6
F-6.0
sg7
F3.0
sg8
F6.0
sg9
F-8.0
sb(dp937
I00
F62.86381092706891
sI01
F38.7028264
ss(i__main__
State
p938
(dp939
g3
I2
sg4
I3
sg5
I2
sg6
F-8.0
sg7
F2.0
sg8
F8.0
sg9
F-5.0
sb(dp940
I00
F-3.2
sI01
F59.16255928559
ss(i__main__
State
p941
(dp942
g3
I2
sg4
I3
sg5
I2
sg6
F-6.0
sg7
F8.0
sg8
F6.0
sg9
F-2.0
sb(dp943
I00
F83.53853285249708
sI01
F-90.0
ss(i__main__
State
p944
(dp945
g3
I2
sg4
I3
sg5
I2
sg6
F-2.0
sg7
F7.0
sg8
F2.0
sg9
F10.0
sb(dp946
I00
F2.992978276419361
sI01
F193.03030271407846
ss(i__main__
State
p947
(dp948
g3
I2
sg4
I3
sg5
I2
sg6
F0.0
sg7
F0.0
sg8
F0.0
sg9
F-8.0
sb(dp949
I00
F5.97441
sI01
F35.194538570167424
ss(i__main__
State
p950
(dp951
g3
I2
sg4
I3
sg5
I2
sg6
F-2.0
sg7
F4.0
sg8
F2.0
sg9
F-5.0
sb(dp952
I00
F-29.666000000000004
sI01
F7.405823974172421
ss(i__main__
State
p953
(dp954
g3
I2
sg4
I3
sg5
I2
sg6
F0.0
sg7
F9.0
sg8
F0.0
sg9
F1.0
sb(dp955
I00
F-5654.678032898713
sI01
F-5657.872203675512
ss(i__main__
State
p956
(dp957
g3
I2
sg4
I3
sg5
I2
sg6
F8.0
sg7
F0.0
sg8
F-8.0
sg9
F-5.0
sb(dp958
I00
I-68
sI01
F-3.766365134999999
ss(i__main__
State
p959
(dp960
g3
I2
sg4
I3
sg5
I2
sg6
F8.0
sg7
F8.0
sg8
F-8.0
sg9
F-8.0
sb(dp961
I00
F138.0076226188983
sI01
F0.0
ss(i__main__
State
p962
(dp963
g3
I2
sg4
I3
sg5
I2
sg6
F0.0
sg7
F1.0
sg8
F0.0
sg9
F-5.0
sb(dp964
I00
F-43.00563484547144
sI01
F22.927024103007795
ss(i__main__
State
p965
(dp966
g3
I2
sg4
I3
sg5
I2
sg6
F-2.0
sg7
F4.0
sg8
F2.0
sg9
F10.0
sb(dp967
I00
F69.59245713181102
sI01
F-17.944097094735014
ss(i__main__
State
p968
(dp969
g3
I2
sg4
I3
sg5
I2
sg6
F-2.0
sg7
F9.0
sg8
F2.0
sg9
F4.0
sb(dp970
I00
F117.13211243623167
sI01
F44.083072762038455
ss(i__main__
State
p971
(dp972
g3
I2
sg4
I3
sg5
I2
sg6
F-8.0
sg7
F5.0
sg8
F8.0
sg9
F10.0
sb(dp973
I00
F-35.60748073999999
sI01
F-48.48079502620608
ss(i__main__
State
p974
(dp975
g3
I2
sg4
I3
sg5
I2
sg6
F-2.0
sg7
F9.0
sg8
F2.0
sg9
F-8.0
sb(dp976
I00
F219.30064208793584
sI01
F0.0
ss(i__main__
State
p977
(dp978
g3
I2
sg4
I3
sg5
I2
sg6
F-4.0
sg7
F2.0
sg8
F4.0
sg9
F-8.0
sb(dp979
I00
I-42
sI01
F83.631
ss(i__main__
State
p980
(dp981
g3
I2
sg4
I3
sg5
I2
sg6
F0.0
sg7
F2.0
sg8
F0.0
sg9
F1.0
sb(dp982
I00
F-64.75979434896105
sI01
F-23.18756719897
ss(i__main__
State
p983
(dp984
g3
I2
sg4
I3
sg5
I2
sg6
F6.0
sg7
F3.0
sg8
F-6.0
sg9
F1.0
sb(dp985
I00
I15
sI01
F73.18712054108833
ss(i__main__
State
p986
(dp987
g3
I2
sg4
I3
sg5
I2
sg6
F-4.0
sg7
F10.0
sg8
F4.0
sg9
F-2.0
sb(dp988
I00
F219.75062472051002
sI01
F0.0
ss(i__main__
State
p989
(dp990
g3
I2
sg4
I3
sg5
I2
sg6
F-2.0
sg7
F10.0
sg8
F2.0
sg9
F-8.0
sb(dp991
I00
F20.0
sI01
F25.1928541
ss(i__main__
State
p992
(dp993
g3
I2
sg4
I3
sg5
I2
sg6
F-6.0
sg7
F3.0
sg8
F6.0
sg9
F-5.0
sb(dp994
I00
I60
sI01
F81.6898
ss(i__main__
State
p995
(dp996
g3
I2
sg4
I3
sg5
I2
sg6
F-8.0
sg7
F5.0
sg8
F8.0
sg9
F-5.0
sb(dp997
I00
F44.94573
sI01
F63.68440981065352
ss(i__main__
State
p998
(dp999
g3
I2
sg4
I3
sg5
I2
sg6
F4.0
sg7
F6.0
sg8
F-4.0
sg9
F-5.0
sb(dp1000
I00
F-57.92800024908724
sI01
F4.666877087047251
ss(i__main__
State
p1001
(dp1002
g3
I2
sg4
I3
sg5
I2
sg6
F-4.0
sg7
F7.0
sg8
F4.0
sg9
F10.0
sb(dp1003
I00
F14.617197734179854
sI01
F76.86720972053958
ss(i__main__
State
p1004
(dp1005
g3
I2
sg4
I3
sg5
I2
sg6
F4.0
sg7
F5.0
sg8
F-4.0
sg9
F4.0
sb(dp1006
I00
F26.422800000000002
sI01
I-48
ss(i__main__
State
p1007
(dp1008
g3
I2
sg4
I3
sg5
I2
sg6
F-2.0
sg7
F4.0
sg8
F2.0
sg9
F-8.0
sb(dp1009
I00
F-25.814729637019635
sI01
F45.55580049461935
ss(i__main__
State
p1010
(dp1011
g3
I2
sg4
I3
sg5
I2
sg6
F-4.0
sg7
F4.0
sg8
F4.0
sg9
F-2.0
sb(dp1012
I00
F67.941621598
sI01
I43
ss(i__main__
State
p1013
(dp1014
g3
I2
sg4
I3
sg5
I2
sg6
F2.0
sg7
F1.0
sg8
F-2.0
sg9
F1.0
sb(dp1015
I00
F87.75026819173216
sI01
F42.65581146070178
ss(i__main__
State
p1016
(dp1017
g3
I2
sg4
I3
sg5
I2
sg6
F0.0
sg7
F0.0
sg8
F0.0
sg9
F-2.0
sb(dp1018
I00
F-7.730036893263966
sI01
F-31.323285858421798
ss(i__main__
State
p1019
(dp1020
g3
I2
sg4
I3
sg5
I2
sg6
F6.0
sg7
F5.0
sg8
F-6.0
sg9
F-8.0
sb(dp1021
I00
F-47.389409099999995
sI01
F26.890048584942743
ss(i__main__
State
p1022
(dp1023
g3
I2
sg4
I3
sg5
I2
sg6
F-8.0
sg7
F3.0
sg8
F8.0
sg9
F-2.0
sb(dp1024
I00
I-24
sI01
F-20.87452
ss(i__main__
State
p1025
(dp1026
g3
I2
sg4
I3
sg5
I2
sg6
F-4.0
sg7
F3.0
sg8
F4.0
sg9
F7.0
sb(dp1027
I00
F15.313041061940002
sI01
I-7
ss(i__main__
State
p1028
(dp1029
g3
I2
sg4
I3
sg5
I2
sg6
F-4.0
sg7
F3.0
sg8
F4.0
sg9
F-8.0
sb(dp1030
I00
I50
sI01
F84.14583573081973
ss(i__main__
State
p1031
(dp1032
g3
I2
sg4
I3
sg5
I2
sg6
F-7.0
sg7
F0.0
sg8
F7.0
sg9
F6.0
sb(dp1033
I00
I0
sI01
F93.4
ss(i__main__
State
p1034
(dp1035
g3
I2
sg4
I3
sg5
I2
sg6
F-2.0
sg7
F3.0
sg8
F2.0
sg9
F-8.0
sb(dp1036
I00
F25.4076559073297
sI01
I18
ss(i__main__
State
p1037
(dp1038
g3
I2
sg4
I3
sg5
I2
sg6
F-6.0
sg7
F2.0
sg8
F6.0
sg9
F-5.0
sb(dp1039
I00
F15.671079668587
sI01
F37.5
ss(i__main__
State
p1040
(dp1041
g3
I2
sg4
I3
sg5
I2
sg6
F8.0
sg7
F0.0
sg8
F-8.0
sg9
F7.0
sb(dp1042
I00
F-44.44913077665817
sI01
F28.995930881699206
ss(i__main__
State
p1043
(dp1044
g3
I2
sg4
I3
sg5
I2
sg6
F0.0
sg7
F5.0
sg8
F0.0
sg9
F4.0
sb(dp1045
I00
F44.12052714133276
sI01
F-27.09788212529851
ss(i__main__
State
p1046
(dp1047
g3
I2
sg4
I3
sg5
I2
sg6
F-2.0
sg7
F4.0
sg8
F2.0
sg9
F7.0
sb(dp1048
I00
F45.583094
sI01
I-57
ss(i__main__
State
p1049
(dp1050
g3
I2
sg4
I3
sg5
I2
sg6
F0.0
sg7
F6.0
sg8
F0.0
sg9
F-5.0
sb(dp1051
I00
F38.01331287882263
sI01
F-39.88543173599
ss(i__main__
State
p1052
(dp1053
g3
I2
sg4
I3
sg5
I2
sg6
F-6.0
sg7
F3.0
sg8
F6.0
sg9
F4.0
sb(dp1054
I00
F-47.632
sI01
F52.86858289975301
ss(i__main__
State
p1055
(dp1056
g3
I2
sg4
I3
sg5
I2
sg6
F-4.0
sg7
F9.0
sg8
F4.0
sg9
F-8.0
sb(dp1057
I00
F104.10710345760054
sI01
F20.0
ss(i__main__
State
p1058
(dp1059
g3
I2
sg4
I3
sg5
I2
sg6
F-4.0
sg7
F10.0
sg8
F4.0
sg9
F1.0
sb(dp1060
I00
F250.73582906203518
sI01
F53.19098791007406
ss(i__main__
State
p1061
(dp1062
g3
I2
sg4
I3
sg5
I2
sg6
F-4.0
sg7
F5.0
sg8
F4.0
sg9
F7.0
sb(dp1063
I00
F14.432725510004001
sI01
I-48
ss(i__main__
State
p1064
(dp1065
g3
I2
sg4
I3
sg5
I2
sg6
F0.0
sg7
F2.0
sg8
F0.0
sg9
F-2.0
sb(dp1066
I00
F41.630710705373765
sI01
F8.033830000000002
ss(i__main__
State
p1067
(dp1068
g3
I2
sg4
I3
sg5
I2
sg6
F-8.0
sg7
F7.0
sg8
F8.0
sg9
F-5.0
sb(dp1069
I00
F71.30673220451382
sI01
F51.540935958710435
ss(i__main__
State
p1070
(dp1071
g3
I2
sg4
I3
sg5
I2
sg6
F-8.0
sg7
F10.0
sg8
F8.0
sg9
F-5.0
sb(dp1072
I00
F171.05290574886513
sI01
F17.389075561378
ss(i__main__
State
p1073
(dp1074
g3
I2
sg4
I3
sg5
I2
sg6
F2.0
sg7
F1.0
sg8
F-2.0
sg9
F7.0
sb(dp1075
I00
I-30
sI01
F12.039084995543002
ss(i__main__
State
p1076
(dp1077
g3
I2
sg4
I3
sg5
I2
sg6
F-2.0
sg7
F3.0
sg8
F2.0
sg9
F-2.0
sb(dp1078
I00
F79.93264620716668
sI01
I-32
ss(i__main__
State
p1079
(dp1080
g3
I2
sg4
I3
sg5
I2
sg6
F-2.0
sg7
F3.0
sg8
F2.0
sg9
F7.0
sb(dp1081
I00
I-44
sI01
F64.197701
ss(i__main__
State
p1082
(dp1083
g3
I2
sg4
I3
sg5
I2
sg6
F6.0
sg7
F2.0
sg8
F-6.0
sg9
F-2.0
sb(dp1084
I00
F62.401729663677756
sI01
F-43.194485653040005
ss(i__main__
State
p1085
(dp1086
g3
I2
sg4
I3
sg5
I2
sg6
F0.0
sg7
F9.0
sg8
F0.0
sg9
F-2.0
sb(dp1087
I00
F-72.80000000000001
sI01
F118.08456848529764
ss(i__main__
State
p1088
(dp1089
g3
I2
sg4
I3
sg5
I2
sg6
F4.0
sg7
F2.0
sg8
F-4.0
sg9
F-8.0
sb(dp1090
I00
F54.362526382880866
sI01
F-49.5965224
ss(i__main__
State
p1091
(dp1092
g3
I2
sg4
I3
sg5
I2
sg6
F-2.0
sg7
F4.0
sg8
F2.0
sg9
F4.0
sb(dp1093
I00
F75.9
sI01
F75.00436
ss(i__main__
State
p1094
(dp1095
g3
I2
sg4
I3
sg5
I2
sg6
F0.0
sg7
F0.0
sg8
F0.0
sg9
F7.0
sb(dp1096
I00
F-70.30368498734664
sI01
F21.319449454231346
ss(i__main__
State
p1097
(dp1098
g3
I2
sg4
I3
sg5
I2
sg6
F-6.0
sg7
F0.0
sg8
F6.0
sg9
F-8.0
sb(dp1099
I00
F55.13634071918258
sI01
F4.300000000000001
ss(i__main__
State
p1100
(dp1101
g3
I2
sg4
I3
sg5
I2
sg6
F-2.0
sg7
F8.0
sg8
F2.0
sg9
F-2.0
sb(dp1102
I00
F35.73908981
sI01
F0.0
ss(i__main__
State
p1103
(dp1104
g3
I2
sg4
I3
sg5
I2
sg6
F-6.0
sg7
F3.0
sg8
F6.0
sg9
F7.0
sb(dp1105
I00
F43.59992287357663
sI01
F-17.31774685868
ss(i__main__
State
p1106
(dp1107
g3
I2
sg4
I3
sg5
I2
sg6
F-8.0
sg7
F7.0
sg8
F8.0
sg9
F1.0
sb(dp1108
I00
F26.564780376413836
sI01
F-5.164973744848197
ss(i__main__
State
p1109
(dp1110
g3
I2
sg4
I3
sg5
I2
sg6
F-8.0
sg7
F1.0
sg8
F8.0
sg9
F-8.0
sb(dp1111
I00
F61.129274204441096
sI01
F49.73085462170141
ss(i__main__
State
p1112
(dp1113
g3
I2
sg4
I3
sg5
I2
sg6
F-6.0
sg7
F2.0
sg8
F6.0
sg9
F-2.0
sb(dp1114
I00
I-21
sI01
F52.323912005299995
ss(i__main__
State
p1115
(dp1116
g3
I2
sg4
I3
sg5
I2
sg6
F4.0
sg7
F7.0
sg8
F-4.0
sg9
F10.0
sb(dp1117
I00
F29.6726431826401
sI01
F40.41338702070709
ss(i__main__
State
p1118
(dp1119
g3
I2
sg4
I3
sg5
I2
sg6
F2.0
sg7
F2.0
sg8
F-2.0
sg9
F-5.0
sb(dp1120
I00
F53.082047400557016
sI01
F56.03396123982159
ss(i__main__
State
p1121
(dp1122
g3
I2
sg4
I3
sg5
I2
sg6
F-2.0
sg7
F6.0
sg8
F2.0
sg9
F1.0
sb(dp1123
I00
F0.8469143095189544
sI01
F-61.61462765089622
ss(i__main__
State
p1124
(dp1125
g3
I2
sg4
I3
sg5
I2
sg6
F8.0
sg7
F1.0
sg8
F-8.0
sg9
F-8.0
sb(dp1126
I00
F7.248912735600001
sI01
F24.0085387787
ss(i__main__
State
p1127
(dp1128
g3
I2
sg4
I3
sg5
I2
sg6
F-2.0
sg7
F5.0
sg8
F2.0
sg9
F-2.0
sb(dp1129
I00
I-92
sI01
F65.39242463632426
ss(i__main__
State
p1130
(dp1131
g3
I2
sg4
I3
sg5
I2
sg6
F4.0
sg7
F10.0
sg8
F-4.0
sg9
F-5.0
sb(dp1132
I00
F164.56922011320796
sI01
F20.768
ss(i__main__
State
p1133
(dp1134
g3
I2
sg4
I3
sg5
I2
sg6
F8.0
sg7
F3.0
sg8
F-8.0
sg9
F10.0
sb(dp1135
I00
F-5.5
sI01
F80.819535924
ss(i__main__
State
p1136
(dp1137
g3
I2
sg4
I3
sg5
I2
sg6
F4.0
sg7
F8.0
sg8
F-4.0
sg9
F-8.0
sb(dp1138
I00
F0.0
sI01
F44.920550551349805
ss(i__main__
State
p1139
(dp1140
g3
I2
sg4
I3
sg5
I2
sg6
F-8.0
sg7
F4.0
sg8
F8.0
sg9
F-2.0
sb(dp1141
I00
F36.54338
sI01
I-53
ss(i__main__
State
p1142
(dp1143
g3
I2
sg4
I3
sg5
I2
sg6
F-2.0
sg7
F8.0
sg8
F2.0
sg9
F1.0
sb(dp1144
I00
F59.1354327956
sI01
F13.596940570836
ss(i__main__
State
p1145
(dp1146
g3
I2
sg4
I3
sg5
I2
sg6
F4.0
sg7
F6.0
sg8
F-4.0
sg9
F-2.0
sb(dp1147
I00
F72.00019379197187
sI01
F-18.348753799198
ss(i__main__
State
p1148
(dp1149
g3
I2
sg4
I3
sg5
I2
sg6
F8.0
sg7
F1.0
sg8
F-8.0
sg9
F-2.0
sb(dp1150
I00
F-63.39375356750813
sI01
F49.67262073650832
ss(i__main__
State
p1151
(dp1152
g3
I2
sg4
I3
sg5
I2
sg6
F4.0
sg7
F5.0
sg8
F-4.0
sg9
F1.0
sb(dp1153
I00
F-30.53582
sI01
F-79.00999999999999
ss(i__main__
State
p1154
(dp1155
g3
I2
sg4
I3
sg5
I2
sg6
F-8.0
sg7
F0.0
sg8
F8.0
sg9
F7.0
sb(dp1156
I00
F34.66428937129999
sI01
F-34.3
ss(i__main__
State
p1157
(dp1158
g3
I2
sg4
I3
sg5
I2
sg6
F4.0
sg7
F9.0
sg8
F-4.0
sg9
F-2.0
sb(dp1159
I00
F-90.0
sI01
F37.974939
ss(i__main__
State
p1160
(dp1161
g3
I2
sg4
I3
sg5
I2
sg6
F4.0
sg7
F9.0
sg8
F-4.0
sg9
F7.0
sb(dp1162
I00
F138.35592952137267
sI01
F37.34520855
ss(i__main__
State
p1163
(dp1164
g3
I2
sg4
I3
sg5
I2
sg6
F-4.0
sg7
F0.0
sg8
F4.0
sg9
F1.0
sb(dp1165
I00
F-26.000464430189446
sI01
F16.973152754200004
ss(i__main__
State
p1166
(dp1167
g3
I2
sg4
I3
sg5
I2
sg6
F-6.0
sg7
F10.0
sg8
F6.0
sg9
F10.0
sb(dp1168
I00
F10.0
sI01
F45.36206415503603
ss(i__main__
State
p1169
(dp1170
g3
I2
sg4
I3
sg5
I2
sg6
F6.0
sg7
F7.0
sg8
F-6.0
sg9
F10.0
sb(dp1171
I00
I-55
sI01
F-1.959999999999999
ss(i__main__
State
p1172
(dp1173
g3
I2
sg4
I3
sg5
I2
sg6
F-4.0
sg7
F5.0
sg8
F4.0
sg9
F-8.0
sb(dp1174
I00
F-10.177296670289191
sI01
F39.98995827622219
ss(i__main__
State
p1175
(dp1176
g3
I2
sg4
I3
sg5
I2
sg6
F6.0
sg7
F4.0
sg8
F-6.0
sg9
F-5.0
sb(dp1177
I00
F-61.9
sI01
F16.902297906624838
ss(i__main__
State
p1178
(dp1179
g3
I2
sg4
I3
sg5
I2
sg6
F6.0
sg7
F3.0
sg8
F-6.0
sg9
F-8.0
sb(dp1180
I00
F-2.9770000000000003
sI01
F55.76745913551
ss(i__main__
State
p1181
(dp1182
g3
I2
sg4
I3
sg5
I2
sg6
F-4.0
sg7
F9.0
sg8
F4.0
sg9
F7.0
sb(dp1183
I00
F132.8890287709542
sI01
F32.623778399
ss(i__main__
State
p1184
(dp1185
g3
I2
sg4
I3
sg5
I2
sg6
F6.0
sg7
F6.0
sg8
F-6.0
sg9
F7.0
sb(dp1186
I00
F-64.72
sI01
F23.539930844287625
ss(i__main__
State
p1187
(dp1188
g3
I2
sg4
I3
sg5
I2
sg6
F-4.0
sg7
F7.0
sg8
F4.0
sg9
F4.0
sb(dp1189
I00
F15.838862291005208
sI01
F-62.9
ss(i__main__
State
p1190
(dp1191
g3
I2
sg4
I3
sg5
I2
sg6
F8.0
sg7
F8.0
sg8
F-8.0
sg9
F-2.0
sb(dp1192
I00
F81.36636486104
sI01
F-400.607
ss(i__main__
State
p1193
(dp1194
g3
I2
sg4
I3
sg5
I2
sg6
F4.0
sg7
F4.0
sg8
F-4.0
sg9
F1.0
sb(dp1195
I00
F-80.8
sI01
F36.31193855162411
ss(i__main__
State
p1196
(dp1197
g3
I2
sg4
I3
sg5
I2
sg6
F0.0
sg7
F6.0
sg8
F0.0
sg9
F4.0
sb(dp1198
I00
F-52.348079500000004
sI01
F36.91501071256888
ss(i__main__
State
p1199
(dp1200
g3
I2
sg4
I3
sg5
I2
sg6
F8.0
sg7
F10.0
sg8
F-8.0
sg9
F7.0
sb(dp1201
I00
F73.66451543759061
sI01
F7.200916191063382
ss(i__main__
State
p1202
(dp1203
g3
I2
sg4
I3
sg5
I2
sg6
F6.0
sg7
F1.0
sg8
F-6.0
sg9
F-2.0
sb(dp1204
I00
F15.389660000000001
sI01
F64.78737050906798
ss(i__main__
State
p1205
(dp1206
g3
I2
sg4
I3
sg5
I2
sg6
F0.0
sg7
F5.0
sg8
F0.0
sg9
F-5.0
sb(dp1207
I00
F-39.45660448468999
sI01
I-97
ss(i__main__
State
p1208
(dp1209
g3
I2
sg4
I3
sg5
I2
sg6
F-6.0
sg7
F2.0
sg8
F6.0
sg9
F4.0
sb(dp1210
I00
F68.63
sI01
I-28
ss(i__main__
State
p1211
(dp1212
g3
I2
sg4
I3
sg5
I2
sg6
F6.0
sg7
F9.0
sg8
F-6.0
sg9
F-8.0
sb(dp1213
I00
F79.48753593228136
sI01
F0.0
ss(i__main__
State
p1214
(dp1215
g3
I2
sg4
I3
sg5
I2
sg6
F6.0
sg7
F5.0
sg8
F-6.0
sg9
F-5.0
sb(dp1216
I00
F32.84887394742336
sI01
F19.160343498096978
ss(i__main__
State
p1217
(dp1218
g3
I2
sg4
I3
sg5
I2
sg6
F4.0
sg7
F0.0
sg8
F-4.0
sg9
F-8.0
sb(dp1219
I00
F64.96757448
sI01
I-53
ss(i__main__
State
p1220
(dp1221
g3
I2
sg4
I3
sg5
I2
sg6
F0.0
sg7
F0.0
sg8
F0.0
sg9
F1.0
sb(dp1222
I00
F-49.626829021593416
sI01
F50.52879091318224
ss(i__main__
State
p1223
(dp1224
g3
I2
sg4
I3
sg5
I2
sg6
F6.0
sg7
F3.0
sg8
F-6.0
sg9
F7.0
sb(dp1225
I00
F-59.64025695801
sI01
F39.42049025
ss(i__main__
State
p1226
(dp1227
g3
I2
sg4
I3
sg5
I2
sg6
F0.0
sg7
F10.0
sg8
F0.0
sg9
F7.0
sb(dp1228
I00
F-1896.8982
sI01
F-2688.578
ss(i__main__
State
p1229
(dp1230
g3
I2
sg4
I3
sg5
I2
sg6
F4.0
sg7
F1.0
sg8
F-4.0
sg9
F4.0
sb(dp1231
I00
F-65.96297
sI01
F3.8162194847508486
ss(i__main__
State
p1232
(dp1233
g3
I2
sg4
I3
sg5
I2
sg6
F6.0
sg7
F2.0
sg8
F-6.0
sg9
F-8.0
sb(dp1234
I00
F-58.19
sI01
F5.6000345
ss(i__main__
State
p1235
(dp1236
g3
I2
sg4
I3
sg5
I2
sg6
F2.0
sg7
F5.0
sg8
F-2.0
sg9
F4.0
sb(dp1237
I00
I-76
sI01
F51.584754755323836
ss(i__main__
State
p1238
(dp1239
g3
I2
sg4
I3
sg5
I2
sg6
F0.0
sg7
F4.0
sg8
F0.0
sg9
F4.0
sb(dp1240
I00
F68.4676701
sI01
F63.3448460955917
ss(i__main__
State
p1241
(dp1242
g3
I2
sg4
I3
sg5
I2
sg6
F-2.0
sg7
F10.0
sg8
F2.0
sg9
F7.0
sb(dp1243
I00
F70.05687369564
sI01
F12.00843
ss(i__main__
State
p1244
(dp1245
g3
I2
sg4
I3
sg5
I2
sg6
F-4.0
sg7
F0.0
sg8
F4.0
sg9
F4.0
sb(dp1246
I00
F29.270676754987196
sI01
F-58.3
ss(i__main__
State
p1247
(dp1248
g3
I2
sg4
I3
sg5
I2
sg6
F8.0
sg7
F10.0
sg8
F-8.0
sg9
F1.0
sb(dp1249
I00
F155.7694304010073
sI01
F36.378143
ss(i__main__
State
p1250
(dp1251
g3
I2
sg4
I3
sg5
I2
sg6
F-2.0
sg7
F0.0
sg8
F2.0
sg9
F10.0
sb(dp1252
I00
F-58.2
sI01
F69.3546617975134
ss(i__main__
State
p1253
(dp1254
g3
I2
sg4
I3
sg5
I2
sg6
F0.0
sg7
F7.0
sg8
F0.0
sg9
F-5.0
sb(dp1255
I00
F24.05735762098186
sI01
F-3.5
ss(i__main__
State
p1256
(dp1257
g3
I2
sg4
I3
sg5
I2
sg6
F-6.0
sg7
F5.0
sg8
F6.0
sg9
F-8.0
sb(dp1258
I00
I-86
sI01
F-34.989999999999995
ss(i__main__
State
p1259
(dp1260
g3
I2
sg4
I3
sg5
I2
sg6
F4.0
sg7
F7.0
sg8
F-4.0
sg9
F7.0
sb(dp1261
I00
F13.7777
sI01
F198.16345385930057
ss(i__main__
State
p1262
(dp1263
g3
I2
sg4
I3
sg5
I2
sg6
F-8.0
sg7
F4.0
sg8
F8.0
sg9
F-8.0
sb(dp1264
I00
F48.08819152008224
sI01
F63.70249538568219
ss(i__main__
State
p1265
(dp1266
g3
I2
sg4
I3
sg5
I2
sg6
F4.0
sg7
F10.0
sg8
F-4.0
sg9
F-8.0
sb(dp1267
I00
F74.72876716789648
sI01
F10.600000000000001
ss(i__main__
State
p1268
(dp1269
g3
I2
sg4
I3
sg5
I2
sg6
F4.0
sg7
F3.0
sg8
F-4.0
sg9
F-8.0
sb(dp1270
I00
I-61
sI01
F22.09072593400696
ss(i__main__
State
p1271
(dp1272
g3
I2
sg4
I3
sg5
I2
sg6
F-2.0
sg7
F9.0
sg8
F2.0
sg9
F7.0
sb(dp1273
I00
F32.289
sI01
F168.32981379148666
ss(i__main__
State
p1274
(dp1275
g3
I2
sg4
I3
sg5
I2
sg6
F0.0
sg7
F8.0
sg8
F0.0
sg9
F-5.0
sb(dp1276
I00
F-1897.699
sI01
F-2692.148606678
ss(i__main__
State
p1277
(dp1278
g3
I2
sg4
I3
sg5
I2
sg6
F-2.0
sg7
F9.0
sg8
F2.0
sg9
F-5.0
sb(dp1279
I00
F305.49698260956706
sI01
F95.90274490390912
ss(i__main__
State
p1280
(dp1281
g3
I2
sg4
I3
sg5
I2
sg6
F6.0
sg7
F0.0
sg8
F-6.0
sg9
F7.0
sb(dp1282
I00
I-77
sI01
F60.96517915529999
ss(i__main__
State
p1283
(dp1284
g3
I2
sg4
I3
sg5
I2
sg6
F-8.0
sg7
F9.0
sg8
F8.0
sg9
F1.0
sb(dp1285
I00
F-1897.99
sI01
F-1890.7886678298303
ss(i__main__
State
p1286
(dp1287
g3
I2
sg4
I3
sg5
I2
sg6
F-6.0
sg7
F5.0
sg8
F6.0
sg9
F-2.0
sb(dp1288
I00
F41.98702281315357
sI01
F-47.39
ss(i__main__
State
p1289
(dp1290
g3
I2
sg4
I3
sg5
I2
sg6
F-8.0
sg7
F7.0
sg8
F8.0
sg9
F-2.0
sb(dp1291
I00
F31.277908332475626
sI01
F102.45419669241582
ss(i__main__
State
p1292
(dp1293
g3
I2
sg4
I3
sg5
I2
sg6
F4.0
sg7
F2.0
sg8
F-4.0
sg9
F1.0
sb(dp1294
I00
F-65.77
sI01
F72.27208338033928
ss(i__main__
State
p1295
(dp1296
g3
I2
sg4
I3
sg5
I2
sg6
F-4.0
sg7
F4.0
sg8
F4.0
sg9
F4.0
sb(dp1297
I00
F10.219420705111398
sI01
F-73.41799133618
ss(i__main__
State
p1298
(dp1299
g3
I2
sg4
I3
sg5
I2
sg6
F2.0
sg7
F7.0
sg8
F-2.0
sg9
F4.0
sb(dp1300
I00
F-23.967932607850162
sI01
F-211.01
ss(i__main__
State
p1301
(dp1302
g3
I2
sg4
I3
sg5
I2
sg6
F-6.0
sg7
F3.0
sg8
F6.0
sg9
F1.0
sb(dp1303
I00
F47.21800506682119
sI01
F-56.9192497433543
ss(i__main__
State
p1304
(dp1305
g3
I2
sg4
I3
sg5
I2
sg6
F-8.0
sg7
F0.0
sg8
F8.0
sg9
F1.0
sb(dp1306
I00
F35.6908079756
sI01
F-61.2794676376
ss(i__main__
State
p1307
(dp1308
g3
I2
sg4
I3
sg5
I2
sg6
F8.0
sg7
F4.0
sg8
F-8.0
sg9
F-5.0
sb(dp1309
I00
I-62
sI01
F15.773792332029316
ss(i__main__
State
p1310
(dp1311
g3
I2
sg4
I3
sg5
I2
sg6
F2.0
sg7
F7.0
sg8
F-2.0
sg9
F10.0
sb(dp1312
I00
F-33.160000000000004
sI01
F-128.4134288483147
ss(i__main__
State
p1313
(dp1314
g3
I2
sg4
I3
sg5
I2
sg6
F-8.0
sg7
F6.0
sg8
F8.0
sg9
F4.0
sb(dp1315
I00
F-9.815379570337107
sI01
I-81
ss(i__main__
State
p1316
(dp1317
g3
I2
sg4
I3
sg5
I2
sg6
F8.0
sg7
F7.0
sg8
F-8.0
sg9
F4.0
sb(dp1318
I00
F49.564368012002255
sI01
F32.89808761064893
ss(i__main__
State
p1319
(dp1320
g3
I2
sg4
I3
sg5
I2
sg6
F-4.0
sg7
F10.0
sg8
F4.0
sg9
F4.0
sb(dp1321
I00
F92.96307061220489
sI01
F53.831844127732595
ss(i__main__
State
p1322
(dp1323
g3
I2
sg4
I3
sg5
I2
sg6
F-2.0
sg7
F9.0
sg8
F2.0
sg9
F10.0
sb(dp1324
I00
F118.32698663395294
sI01
F0.0
ss(i__main__
State
p1325
(dp1326
g3
I2
sg4
I3
sg5
I2
sg6
F-6.0
sg7
F3.0
sg8
F6.0
sg9
F-2.0
sb(dp1327
I00
F-42.6277
sI01
F7.400621767920005
ss(i__main__
State
p1328
(dp1329
g3
I2
sg4
I3
sg5
I2
sg6
F4.0
sg7
F8.0
sg8
F-4.0
sg9
F-2.0
sb(dp1330
I00
F193.82984212098035
sI01
F-1080.546034
ss(i__main__
State
p1331
(dp1332
g3
I2
sg4
I3
sg5
I2
sg6
F2.0
sg7
F0.0
sg8
F-2.0
sg9
F4.0
sb(dp1333
I00
F-52.939827449347604
sI01
I-73
ss(i__main__
State
p1334
(dp1335
g3
I2
sg4
I3
sg5
I2
sg6
F-2.0
sg7
F0.0
sg8
F2.0
sg9
F-5.0
sb(dp1336
I00
F-42.4634991
sI01
F22.526571
ss(i__main__
State
p1337
(dp1338
g3
I2
sg4
I3
sg5
I2
sg6
F4.0
sg7
F4.0
sg8
F-4.0
sg9
F4.0
sb(dp1339
I00
F66.62359483997732
sI01
F-59.16
ss(i__main__
State
p1340
(dp1341
g3
I2
sg4
I3
sg5
I2
sg6
F2.0
sg7
F0.0
sg8
F-2.0
sg9
F7.0
sb(dp1342
I00
F-54.629599999999996
sI01
F65.33673990869525
ss(i__main__
State
p1343
(dp1344
g3
I2
sg4
I3
sg5
I2
sg6
F6.0
sg7
F8.0
sg8
F-6.0
sg9
F4.0
sb(dp1345
I00
F251.35072341533447
sI01
F14.989347427503994
ss(i__main__
State
p1346
(dp1347
g3
I2
sg4
I3
sg5
I2
sg6
F4.0
sg7
F5.0
sg8
F-4.0
sg9
F10.0
sb(dp1348
I00
F-51.268417
sI01
F18.344607591651783
ss(i__main__
State
p1349
(dp1350
g3
I2
sg4
I3
sg5
I2
sg6
F-8.0
sg7
F8.0
sg8
F8.0
sg9
F7.0
sb(dp1351
I00
F185.75030109310455
sI01
F12.428062011439811
ss(i__main__
State
p1352
(dp1353
g3
I2
sg4
I3
sg5
I2
sg6
F2.0
sg7
F10.0
sg8
F-2.0
sg9
F-2.0
sb(dp1354
I00
F-72.32000000000001
sI01
F148.0394373316659
ss(i__main__
State
p1355
(dp1356
g3
I2
sg4
I3
sg5
I2
sg6
F0.0
sg7
F9.0
sg8
F0.0
sg9
F10.0
sb(dp1357
I00
F220.89212742939606
sI01
F12.0
ss(i__main__
State
p1358
(dp1359
g3
I2
sg4
I3
sg5
I2
sg6
F6.0
sg7
F4.0
sg8
F-6.0
sg9
F-8.0
sb(dp1360
I00
F86.48535924000001
sI01
F-0.33114041999999966
ss(i__main__
State
p1361
(dp1362
g3
I2
sg4
I3
sg5
I2
sg6
F8.0
sg7
F9.0
sg8
F-8.0
sg9
F-5.0
sb(dp1363
I00
F183.31479510515408
sI01
F44.550450345834605
ss(i__main__
State
p1364
(dp1365
g3
I2
sg4
I3
sg5
I2
sg6
F6.0
sg7
F10.0
sg8
F-6.0
sg9
F7.0
sb(dp1366
I00
F10.0
sI01
F87.25138935155272
ss(i__main__
State
p1367
(dp1368
g3
I2
sg4
I3
sg5
I2
sg6
F-8.0
sg7
F1.0
sg8
F8.0
sg9
F1.0
sb(dp1369
I00
F62.431112672720005
sI01
F32.2
ss(i__main__
State
p1370
(dp1371
g3
I2
sg4
I3
sg5
I2
sg6
F6.0
sg7
F8.0
sg8
F-6.0
sg9
F-5.0
sb(dp1372
I00
F174.78751199474806
sI01
F19.0
ss(i__main__
State
p1373
(dp1374
g3
I2
sg4
I3
sg5
I2
sg6
F-6.0
sg7
F0.0
sg8
F6.0
sg9
F10.0
sb(dp1375
I00
F13.94573127166846
sI01
F43.18413173655265
ss(i__main__
State
p1376
(dp1377
g3
I2
sg4
I3
sg5
I2
sg6
F-2.0
sg7
F0.0
sg8
F2.0
sg9
F-8.0
sb(dp1378
I00
F9.310035222000002
sI01
I-45
ss(i__main__
State
p1379
(dp1380
g3
I2
sg4
I3
sg5
I2
sg6
F-8.0
sg7
F9.0
sg8
F8.0
sg9
F10.0
sb(dp1381
I00
F30.009999999999998
sI01
F0.0
ss(i__main__
State
p1382
(dp1383
g3
I2
sg4
I3
sg5
I2
sg6
F-2.0
sg7
F10.0
sg8
F2.0
sg9
F-2.0
sb(dp1384
I00
F83.73339421161947
sI01
F11.697315275420001
ss(i__main__
State
p1385
(dp1386
g3
I2
sg4
I3
sg5
I2
sg6
F6.0
sg7
F6.0
sg8
F-6.0
sg9
F4.0
sb(dp1387
I00
F-44.1
sI01
F80.05409626652758
ss(i__main__
State
p1388
(dp1389
g3
I2
sg4
I3
sg5
I2
sg6
F4.0
sg7
F4.0
sg8
F-4.0
sg9
F-5.0
sb(dp1390
I00
F59.495342580560006
sI01
F29.7
ss(i__main__
State
p1391
(dp1392
g3
I2
sg4
I3
sg5
I2
sg6
F0.0
sg7
F10.0
sg8
F0.0
sg9
F10.0
sb(dp1393
I00
F-2707.1
sI01
F-2711.5976889000003
ss(i__main__
State
p1394
(dp1395
g3
I2
sg4
I3
sg5
I2
sg6
F0.0
sg7
F1.0
sg8
F0.0
sg9
F4.0
sb(dp1396
I00
F76.86584345164577
sI01
F0.2569870940558765
ss(i__main__
State
p1397
(dp1398
g3
I2
sg4
I3
sg5
I2
sg6
F-8.0
sg7
F3.0
sg8
F8.0
sg9
F10.0
sb(dp1399
I00
F34.62184929008653
sI01
F10.915832919035026
ss(i__main__
State
p1400
(dp1401
g3
I2
sg4
I3
sg5
I2
sg6
F-4.0
sg7
F1.0
sg8
F4.0
sg9
F-2.0
sb(dp1402
I00
F43.435177370000005
sI01
F-27.500010000000003
ss(i__main__
State
p1403
(dp1404
g3
I2
sg4
I3
sg5
I2
sg6
F6.0
sg7
F9.0
sg8
F-6.0
sg9
F-5.0
sb(dp1405
I00
F32.56633
sI01
F0.0
ss(i__main__
State
p1406
(dp1407
g3
I2
sg4
I3
sg5
I2
sg6
F8.0
sg7
F7.0
sg8
F-8.0
sg9
F-5.0
sb(dp1408
I00
F50.699
sI01
F55.748365
ss(i__main__
State
p1409
(dp1410
g3
I2
sg4
I3
sg5
I2
sg6
F8.0
sg7
F5.0
sg8
F-8.0
sg9
F4.0
sb(dp1411
I00
F5.860595399173399
sI01
F-17.613
ss(i__main__
State
p1412
(dp1413
g3
I2
sg4
I3
sg5
I2
sg6
F8.0
sg7
F4.0
sg8
F-8.0
sg9
F4.0
sb(dp1414
I00
F-30.471999999999994
sI01
F-15.990980943315938
ss(i__main__
State
p1415
(dp1416
g3
I2
sg4
I3
sg5
I2
sg6
F0.0
sg7
F6.0
sg8
F0.0
sg9
F10.0
sb(dp1417
I00
F44.225545378199996
sI01
F-69.7
ss(i__main__
State
p1418
(dp1419
g3
I2
sg4
I3
sg5
I2
sg6
F2.0
sg7
F0.0
sg8
F-2.0
sg9
F-2.0
sb(dp1420
I00
I-96
sI01
F9.00978268356
ss(i__main__
State
p1421
(dp1422
g3
I2
sg4
I3
sg5
I2
sg6
F2.0
sg7
F5.0
sg8
F-2.0
sg9
F7.0
sb(dp1423
I00
F9.084395999999998
sI01
F18.8844171
ss(i__main__
State
p1424
(dp1425
g3
I2
sg4
I3
sg5
I2
sg6
F-2.0
sg7
F7.0
sg8
F2.0
sg9
F-2.0
sb(dp1426
I00
F-26.48633796038325
sI01
F13.787515207525725
ss(i__main__
State
p1427
(dp1428
g3
I2
sg4
I3
sg5
I2
sg6
F-4.0
sg7
F7.0
sg8
F4.0
sg9
F1.0
sb(dp1429
I00
F44.5753375984888
sI01
F-13.531834030548243
ss(i__main__
State
p1430
(dp1431
g3
I2
sg4
I3
sg5
I2
sg6
F-6.0
sg7
F9.0
sg8
F6.0
sg9
F-8.0
sb(dp1432
I00
F45.77510920371139
sI01
F162.807211436906
ss(i__main__
State
p1433
(dp1434
g3
I2
sg4
I3
sg5
I2
sg6
F-2.0
sg7
F6.0
sg8
F2.0
sg9
F-5.0
sb(dp1435
I00
F45.13
sI01
F-43.5
ss(i__main__
State
p1436
(dp1437
g3
I2
sg4
I3
sg5
I2
sg6
F-6.0
sg7
F9.0
sg8
F6.0
sg9
F10.0
sb(dp1438
I00
F216.66885603734843
sI01
F43.454103181322004
ss(i__main__
State
p1439
(dp1440
g3
I2
sg4
I3
sg5
I2
sg6
F8.0
sg7
F2.0
sg8
F-8.0
sg9
F-5.0
sb(dp1441
I00
F-29.186461877726387
sI01
F28.44329431701412
ss(i__main__
State
p1442
(dp1443
g3
I2
sg4
I3
sg5
I2
sg6
F6.0
sg7
F10.0
sg8
F-6.0
sg9
F10.0
sb(dp1444
I00
F91.7468883883584
sI01
F17.2
ss(i__main__
State
p1445
(dp1446
g3
I2
sg4
I3
sg5
I2
sg6
F-2.0
sg7
F1.0
sg8
F2.0
sg9
F1.0
sb(dp1447
I00
I-67
sI01
F67.2989909910217
ss(i__main__
State
p1448
(dp1449
g3
I2
sg4
I3
sg5
I2
sg6
F-6.0
sg7
F10.0
sg8
F6.0
sg9
F-8.0
sb(dp1450
I00
F12.0
sI01
F55.981217599000004
ss(i__main__
State
p1451
(dp1452
g3
I2
sg4
I3
sg5
I2
sg6
F8.0
sg7
F2.0
sg8
F-8.0
sg9
F4.0
sb(dp1453
I00
F-74.5
sI01
I61
ss(i__main__
State
p1454
(dp1455
g3
I2
sg4
I3
sg5
I2
sg6
F4.0
sg7
F2.0
sg8
F-4.0
sg9
F-2.0
sb(dp1456
I00
F47.555742379927445
sI01
I-75
ss(i__main__
State
p1457
(dp1458
g3
I2
sg4
I3
sg5
I2
sg6
F0.0
sg7
F10.0
sg8
F0.0
sg9
F-8.0
sb(dp1459
I00
F-4069.989226649234
sI01
F-4086.7337842
ss(i__main__
State
p1460
(dp1461
g3
I2
sg4
I3
sg5
I2
sg6
F0.0
sg7
F3.0
sg8
F0.0
sg9
F-2.0
sb(dp1462
I00
I53
sI01
F58.31075274677559
ss(i__main__
State
p1463
(dp1464
g3
I2
sg4
I3
sg5
I2
sg6
F4.0
sg7
F3.0
sg8
F-4.0
sg9
F7.0
sb(dp1465
I00
F64.31884225544601
sI01
F-8.305
ss(i__main__
State
p1466
(dp1467
g3
I2
sg4
I3
sg5
I2
sg6
F-6.0
sg7
F9.0
sg8
F6.0
sg9
F-2.0
sb(dp1468
I00
F-72.9
sI01
F58.24267649701129
ss(i__main__
State
p1469
(dp1470
g3
I2
sg4
I3
sg5
I2
sg6
F4.0
sg7
F7.0
sg8
F-4.0
sg9
F-8.0
sb(dp1471
I00
F8.559479999999999
sI01
F60.253259564049934
ss(i__main__
State
p1472
(dp1473
g3
I2
sg4
I3
sg5
I2
sg6
F-8.0
sg7
F7.0
sg8
F8.0
sg9
F10.0
sb(dp1474
I00
F-16.561172107513244
sI01
F55.381417031700856
ss(i__main__
State
p1475
(dp1476
g3
I2
sg4
I3
sg5
I2
sg6
F-6.0
sg7
F4.0
sg8
F6.0
sg9
F1.0
sb(dp1477
I00
F9.523122720703002
sI01
F-7.271601547300001
ss(i__main__
State
p1478
(dp1479
g3
I2
sg4
I3
sg5
I2
sg6
F8.0
sg7
F10.0
sg8
F-8.0
sg9
F-2.0
sb(dp1480
I00
F182.22003170161082
sI01
F15.382200000000001
ss(i__main__
State
p1481
(dp1482
g3
I2
sg4
I3
sg5
I2
sg6
F2.0
sg7
F0.0
sg8
F-2.0
sg9
F1.0
sb(dp1483
I00
I18
sI01
F51.278250571
ss(i__main__
State
p1484
(dp1485
g3
I2
sg4
I3
sg5
I2
sg6
F-4.0
sg7
F2.0
sg8
F4.0
sg9
F4.0
sb(dp1486
I00
F-12.7
sI01
F52.529197869899875
ss(i__main__
State
p1487
(dp1488
g3
I2
sg4
I3
sg5
I2
sg6
F-8.0
sg7
F10.0
sg8
F8.0
sg9
F-8.0
sb(dp1489
I00
F50.6149959681987
sI01
F0.0
ss(i__main__
State
p1490
(dp1491
g3
I2
sg4
I3
sg5
I2
sg6
F0.0
sg7
F10.0
sg8
F0.0
sg9
F-5.0
sb(dp1492
I00
F-1894.3200212239499
sI01
F-1892.6755000000003
ss(i__main__
State
p1493
(dp1494
g3
I2
sg4
I3
sg5
I2
sg6
F-4.0
sg7
F6.0
sg8
F4.0
sg9
F-8.0
sb(dp1495
I00
I20
sI01
F68.07751839096
ss(i__main__
State
p1496
(dp1497
g3
I2
sg4
I3
sg5
I2
sg6
F-6.0
sg7
F4.0
sg8
F6.0
sg9
F7.0
sb(dp1498
I00
F6.310575986913201
sI01
F-0.9255296600000023
ss(i__main__
State
p1499
(dp1500
g3
I2
sg4
I3
sg5
I2
sg6
F8.0
sg7
F5.0
sg8
F-8.0
sg9
F-5.0
sb(dp1501
I00
F34.307596771170005
sI01
F76.53737446378568
ss(i__main__
State
p1502
(dp1503
g3
I2
sg4
I3
sg5
I2
sg6
F6.0
sg7
F9.0
sg8
F-6.0
sg9
F4.0
sb(dp1504
I00
F95.36888177915499
sI01
F0.0
ss(i__main__
State
p1505
(dp1506
g3
I2
sg4
I3
sg5
I2
sg6
F8.0
sg7
F6.0
sg8
F-8.0
sg9
F4.0
sb(dp1507
I00
F-26.3826
sI01
F67.36339286673177
ss(i__main__
State
p1508
(dp1509
g3
I2
sg4
I3
sg5
I2
sg6
F-2.0
sg7
F3.0
sg8
F2.0
sg9
F4.0
sb(dp1510
I00
F6.2684461862
sI01
F-12.728336800000001
ss(i__main__
State
p1511
(dp1512
g3
I2
sg4
I3
sg5
I2
sg6
F6.0
sg7
F6.0
sg8
F-6.0
sg9
F-8.0
sb(dp1513
I00
I-15
sI01
F67.3
ss(i__main__
State
p1514
(dp1515
g3
I2
sg4
I3
sg5
I2
sg6
F-8.0
sg7
F2.0
sg8
F8.0
sg9
F-2.0
sb(dp1516
I00
F71.6242336631381
sI01
F-49.419999999999995
ss(i__main__
State
p1517
(dp1518
g3
I2
sg4
I3
sg5
I2
sg6
F-2.0
sg7
F10.0
sg8
F2.0
sg9
F4.0
sb(dp1519
I00
F116.52167991119924
sI01
F22.6792563
ss(i__main__
State
p1520
(dp1521
g3
I2
sg4
I3
sg5
I2
sg6
F-6.0
sg7
F5.0
sg8
F6.0
sg9
F-5.0
sb(dp1522
I00
I28
sI01
F51.4808336691233
ss(i__main__
State
p1523
(dp1524
g3
I2
sg4
I3
sg5
I2
sg6
F-6.0
sg7
F1.0
sg8
F6.0
sg9
F4.0
sb(dp1525
I00
F78.8615469976608
sI01
F-50.8
ss(i__main__
State
p1526
(dp1527
g3
I2
sg4
I3
sg5
I2
sg6
F-4.0
sg7
F8.0
sg8
F4.0
sg9
F7.0
sb(dp1528
I00
F10.0
sI01
F208.70964677570976
ss(i__main__
State
p1529
(dp1530
g3
I2
sg4
I3
sg5
I2
sg6
F-4.0
sg7
F5.0
sg8
F4.0
sg9
F4.0
sb(dp1531
I00
F8.399436706210762
sI01
F-43.3
ss(i__main__
State
p1532
(dp1533
g3
I2
sg4
I3
sg5
I2
sg6
F-6.0
sg7
F2.0
sg8
F6.0
sg9
F-8.0
sb(dp1534
I00
F-55.427500171441
sI01
F32.22194591689859
ss(i__main__
State
p1535
(dp1536
g3
I2
sg4
I3
sg5
I2
sg6
F6.0
sg7
F10.0
sg8
F-6.0
sg9
F-8.0
sb(dp1537
I00
F182.25374181480274
sI01
F28.340847736896002
ss(i__main__
State
p1538
(dp1539
g3
I2
sg4
I3
sg5
I2
sg6
F8.0
sg7
F9.0
sg8
F-8.0
sg9
F4.0
sb(dp1540
I00
F31.969411310268562
sI01
F0.0
ss(i__main__
State
p1541
(dp1542
g3
I2
sg4
I3
sg5
I2
sg6
F6.0
sg7
F4.0
sg8
F-6.0
sg9
F4.0
sb(dp1543
I00
F-17.969884824199177
sI01
I-57
ss(i__main__
State
p1544
(dp1545
g3
I2
sg4
I3
sg5
I2
sg6
F0.0
sg7
F5.0
sg8
F0.0
sg9
F-2.0
sb(dp1546
I00
F-35.11
sI01
F-0.6214671650133703
ss(i__main__
State
p1547
(dp1548
g3
I2
sg4
I3
sg5
I2
sg6
F8.0
sg7
F6.0
sg8
F-8.0
sg9
F1.0
sb(dp1549
I00
F-28.67585803113247
sI01
F43.312138760362444
ss(i__main__
State
p1550
(dp1551
g3
I2
sg4
I3
sg5
I2
sg6
F2.0
sg7
F9.0
sg8
F-2.0
sg9
F10.0
sb(dp1552
I00
F313.7229365162045
sI01
F-951.0138463200001
ss(i__main__
State
p1553
(dp1554
g3
I2
sg4
I3
sg5
I2
sg6
F4.0
sg7
F9.0
sg8
F-4.0
sg9
F1.0
sb(dp1555
I00
F-4078.48097108
sI01
F-2706.84
ss(i__main__
State
p1556
(dp1557
g3
I2
sg4
I3
sg5
I2
sg6
F-4.0
sg7
F4.0
sg8
F4.0
sg9
F-8.0
sb(dp1558
I00
F59.820576856989405
sI01
F-54.0853855
ss(i__main__
State
p1559
(dp1560
g3
I2
sg4
I3
sg5
I2
sg6
F4.0
sg7
F5.0
sg8
F-4.0
sg9
F-2.0
sb(dp1561
I00
F44.460641206191916
sI01
F-34.8623
ss(i__main__
State
p1562
(dp1563
g3
I2
sg4
I3
sg5
I2
sg6
F6.0
sg7
F10.0
sg8
F-6.0
sg9
F4.0
sb(dp1564
I00
F169.321122803438
sI01
F0.0
ss(i__main__
State
p1565
(dp1566
g3
I2
sg4
I3
sg5
I2
sg6
F8.0
sg7
F1.0
sg8
F-8.0
sg9
F1.0
sb(dp1567
I00
F24.526999999999997
sI01
F-11.814817042249
ss(i__main__
State
p1568
(dp1569
g3
I2
sg4
I3
sg5
I2
sg6
F2.0
sg7
F3.0
sg8
F-2.0
sg9
F10.0
sb(dp1570
I00
F49.25748832122227
sI01
F20.594720000000002
ss(i__main__
State
p1571
(dp1572
g3
I2
sg4
I3
sg5
I2
sg6
F4.0
sg7
F6.0
sg8
F-4.0
sg9
F1.0
sb(dp1573
I00
F61.43611216280167
sI01
F-26.011000000000003
ss(i__main__
State
p1574
(dp1575
g3
I2
sg4
I3
sg5
I2
sg6
F0.0
sg7
F3.0
sg8
F0.0
sg9
F10.0
sb(dp1576
I00
F-2.718344472970599
sI01
F51.15282235854626
ss(i__main__
State
p1577
(dp1578
g3
I2
sg4
I3
sg5
I2
sg6
F4.0
sg7
F8.0
sg8
F-4.0
sg9
F1.0
sb(dp1579
I00
F44.890761491999996
sI01
F49.11019900000001
ss(i__main__
State
p1580
(dp1581
g3
I2
sg4
I3
sg5
I2
sg6
F-6.0
sg7
F1.0
sg8
F6.0
sg9
F1.0
sb(dp1582
I00
F74.504786534
sI01
F29.694630000000004
ss(i__main__
State
p1583
(dp1584
g3
I2
sg4
I3
sg5
I2
sg6
F-4.0
sg7
F5.0
sg8
F4.0
sg9
F1.0
sb(dp1585
I00
F16.19301239491778
sI01
F-10.875100469
ss(i__main__
State
p1586
(dp1587
g3
I2
sg4
I3
sg5
I2
sg6
F-2.0
sg7
F9.0
sg8
F2.0
sg9
F-2.0
sb(dp1588
I00
F-680.189976691736
sI01
F269.31620198418904
ss(i__main__
State
p1589
(dp1590
g3
I2
sg4
I3
sg5
I2
sg6
F2.0
sg7
F2.0
sg8
F-2.0
sg9
F7.0
sb(dp1591
I00
F-61.449
sI01
F47.83309680868065
ss(i__main__
State
p1592
(dp1593
g3
I2
sg4
I3
sg5
I2
sg6
F0.0
sg7
F7.0
sg8
F0.0
sg9
F7.0
sb(dp1594
I00
F71.51165899690868
sI01
F-12.648610176812706
ss(i__main__
State
p1595
(dp1596
g3
I2
sg4
I3
sg5
I2
sg6
F-4.0
sg7
F0.0
sg8
F4.0
sg9
F10.0
sb(dp1597
I00
I-99
sI01
F-41.8261037578
ss(i__main__
State
p1598
(dp1599
g3
I2
sg4
I3
sg5
I2
sg6
F-4.0
sg7
F0.0
sg8
F4.0
sg9
F-8.0
sb(dp1600
I00
I-86
sI01
F14.7
ss(i__main__
State
p1601
(dp1602
g3
I2
sg4
I3
sg5
I2
sg6
F-2.0
sg7
F4.0
sg8
F2.0
sg9
F1.0
sb(dp1603
I00
F40.55126678342002
sI01
F39.86460010493758
ss(i__main__
State
p1604
(dp1605
g3
I2
sg4
I3
sg5
I2
sg6
F0.0
sg7
F4.0
sg8
F0.0
sg9
F-8.0
sb(dp1606
I00
F58.488825852000005
sI01
I65
ss(i__main__
State
p1607
(dp1608
g3
I2
sg4
I3
sg5
I2
sg6
F-8.0
sg7
F1.0
sg8
F8.0
sg9
F4.0
sb(dp1609
I00
F24.7
sI01
F72.8297695941
ss(i__main__
State
p1610
(dp1611
g3
I2
sg4
I3
sg5
I2
sg6
F-2.0
sg7
F10.0
sg8
F2.0
sg9
F10.0
sb(dp1612
I00
F41.7655853777
sI01
F0.0
ss(i__main__
State
p1613
(dp1614
g3
I2
sg4
I3
sg5
I2
sg6
F4.0
sg7
F8.0
sg8
F-4.0
sg9
F10.0
sb(dp1615
I00
F19.0
sI01
F292.7307219456829
ss(i__main__
State
p1616
(dp1617
g3
I2
sg4
I3
sg5
I2
sg6
F-8.0
sg7
F9.0
sg8
F8.0
sg9
F-5.0
sb(dp1618
I00
F0.0
sI01
F97.17242525643485
ss(i__main__
State
p1619
(dp1620
g3
I2
sg4
I3
sg5
I2
sg6
F0.0
sg7
F10.0
sg8
F0.0
sg9
F1.0
sb(dp1621
I00
F-4657.205057260292
sI01
F-4664.061381866
ss(i__main__
State
p1622
(dp1623
g3
I2
sg4
I3
sg5
I2
sg6
F2.0
sg7
F4.0
sg8
F-2.0
sg9
F-5.0
sb(dp1624
I00
F57.14493152976124
sI01
F-80.03541190127682
ss(i__main__
State
p1625
(dp1626
g3
I2
sg4
I3
sg5
I2
sg6
F6.0
sg7
F2.0
sg8
F-6.0
sg9
F1.0
sb(dp1627
I00
F-9.499863855863934
sI01
F79.80658923032546
ss(i__main__
State
p1628
(dp1629
g3
I2
sg4
I3
sg5
I2
sg6
F-6.0
sg7
F5.0
sg8
F6.0
sg9
F10.0
sb(dp1630
I00
F39.072048280112
sI01
I-72
ss(i__main__
State
p1631
(dp1632
g3
I2
sg4
I3
sg5
I2
sg6
F-8.0
sg7
F10.0
sg8
F8.0
sg9
F7.0
sb(dp1633
I00
F211.6932576248842
sI01
F48.330218832
ss(i__main__
State
p1634
(dp1635
g3
I2
sg4
I3
sg5
I2
sg6
F0.0
sg7
F0.0
sg8
F0.0
sg9
F10.0
sb(dp1636
I00
F20.524749759
sI01
F-17.002418544999998
ss(i__main__
State
p1637
(dp1638
g3
I2
sg4
I3
sg5
I2
sg6
F-4.0
sg7
F4.0
sg8
F4.0
sg9
F10.0
sb(dp1639
I00
F47.946104299999995
sI01
F9.71
ss(i__main__
State
p1640
(dp1641
g3
I2
sg4
I3
sg5
I2
sg6
F-4.0
sg7
F9.0
sg8
F4.0
sg9
F4.0
sb(dp1642
I00
F0.0
sI01
F49.4487374658716
ss(i__main__
State
p1643
(dp1644
g3
I2
sg4
I3
sg5
I2
sg6
F-4.0
sg7
F1.0
sg8
F4.0
sg9
F-5.0
sb(dp1645
I00
F19.8
sI01
I-37
ss(i__main__
State
p1646
(dp1647
g3
I2
sg4
I3
sg5
I2
sg6
F0.0
sg7
F6.0
sg8
F0.0
sg9
F7.0
sb(dp1648
I00
F-51.4
sI01
F106.51522886059314
ss(i__main__
State
p1649
(dp1650
g3
I2
sg4
I3
sg5
I2
sg6
F-4.0
sg7
F2.0
sg8
F4.0
sg9
F10.0
sb(dp1651
I00
F-11.849191464332169
sI01
F56.15660752628682
ss(i__main__
State
p1652
(dp1653
g3
I2
sg4
I3
sg5
I2
sg6
F2.0
sg7
F5.0
sg8
F-2.0
sg9
F-5.0
sb(dp1654
I00
F21.383582383965674
sI01
F12.693146205999998
ss(i__main__
State
p1655
(dp1656
g3
I2
sg4
I3
sg5
I2
sg6
F-6.0
sg7
F8.0
sg8
F6.0
sg9
F7.0
sb(dp1657
I00
F0.0
sI01
F20.0
ss(i__main__
State
p1658
(dp1659
g3
I2
sg4
I3
sg5
I2
sg6
F6.0
sg7
F9.0
sg8
F-6.0
sg9
F10.0
sb(dp1660
I00
F10.0
sI01
F0.0
ss(i__main__
State
p1661
(dp1662
g3
I2
sg4
I3
sg5
I2
sg6
F-8.0
sg7
F2.0
sg8
F8.0
sg9
F-8.0
sb(dp1663
I00
F-44.66891385744
sI01
F5.086754823839981
ss(i__main__
State
p1664
(dp1665
g3
I2
sg4
I3
sg5
I2
sg6
F0.0
sg7
F5.0
sg8
F0.0
sg9
F-8.0
sb(dp1666
I00
F82.58377237541129
sI01
I-65
ss(i__main__
State
p1667
(dp1668
g3
I2
sg4
I3
sg5
I2
sg6
F-8.0
sg7
F9.0
sg8
F8.0
sg9
F-2.0
sb(dp1669
I00
F-467.6722235000001
sI01
F105.77207606164947
ss(i__main__
State
p1670
(dp1671
g3
I2
sg4
I3
sg5
I2
sg6
F8.0
sg7
F10.0
sg8
F-8.0
sg9
F-8.0
sb(dp1672
I00
F0.0
sI01
F61.79715649660189
ss(i__main__
State
p1673
(dp1674
g3
I2
sg4
I3
sg5
I2
sg6
F8.0
sg7
F0.0
sg8
F-8.0
sg9
F-8.0
sb(dp1675
I00
F61.213401402626054
sI01
F69.70106987676647
ss(i__main__
State
p1676
(dp1677
g3
I2
sg4
I3
sg5
I2
sg6
F6.0
sg7
F0.0
sg8
F-6.0
sg9
F4.0
sb(dp1678
I00
I-86
sI01
F87.432982
ss(i__main__
State
p1679
(dp1680
g3
I2
sg4
I3
sg5
I2
sg6
F4.0
sg7
F6.0
sg8
F-4.0
sg9
F7.0
sb(dp1681
I00
F30.9
sI01
I-81
ss(i__main__
State
p1682
(dp1683
g3
I2
sg4
I3
sg5
I2
sg6
F-8.0
sg7
F4.0
sg8
F8.0
sg9
F10.0
sb(dp1684
I00
F-1.0443637635498848
sI01
F22.606880507858
ss(i__main__
State
p1685
(dp1686
g3
I2
sg4
I3
sg5
I2
sg6
F6.0
sg7
F9.0
sg8
F-6.0
sg9
F7.0
sb(dp1687
I00
F50.79525579427744
sI01
F11.0
ss(i__main__
State
p1688
(dp1689
g3
I2
sg4
I3
sg5
I2
sg6
F6.0
sg7
F3.0
sg8
F-6.0
sg9
F10.0
sb(dp1690
I00
F28.7
sI01
F58.695386189288996
ss(i__main__
State
p1691
(dp1692
g3
I2
sg4
I3
sg5
I2
sg6
F2.0
sg7
F2.0
sg8
F-2.0
sg9
F-8.0
sb(dp1693
I00
F-12.743309086142949
sI01
F-88.51238555901
ss(i__main__
State
p1694
(dp1695
g3
I2
sg4
I3
sg5
I2
sg6
F-2.0
sg7
F5.0
sg8
F2.0
sg9
F-8.0
sb(dp1696
I00
F37.318174
sI01
I-29
ss(i__main__
State
p1697
(dp1698
g3
I2
sg4
I3
sg5
I2
sg6
F2.0
sg7
F4.0
sg8
F-2.0
sg9
F7.0
sb(dp1699
I00
F68.80078991291988
sI01
F-67.28429630999999
ss(i__main__
State
p1700
(dp1701
g3
I2
sg4
I3
sg5
I2
sg6
F-6.0
sg7
F9.0
sg8
F6.0
sg9
F-5.0
sb(dp1702
I00
F83.08892151723552
sI01
F61.321019135040856
ss(i__main__
State
p1703
(dp1704
g3
I2
sg4
I3
sg5
I2
sg6
F8.0
sg7
F8.0
sg8
F-8.0
sg9
F1.0
sb(dp1705
I00
F240.0467615508314
sI01
F59.9819283176914
ss(i__main__
State
p1706
(dp1707
g3
I2
sg4
I3
sg5
I2
sg6
F-2.0
sg7
F6.0
sg8
F2.0
sg9
F-8.0
sb(dp1708
I00
I16
sI01
F69.96572640689999
ss(i__main__
State
p1709
(dp1710
g3
I2
sg4
I3
sg5
I2
sg6
F-4.0
sg7
F6.0
sg8
F4.0
sg9
F10.0
sb(dp1711
I00
F7.42
sI01
F21.351281788303982
ss(i__main__
State
p1712
(dp1713
g3
I2
sg4
I3
sg5
I2
sg6
F-4.0
sg7
F9.0
sg8
F4.0
sg9
F1.0
sb(dp1714
I00
F-2707.8
sI01
F-3409.6074035318375
ss(i__main__
State
p1715
(dp1716
g3
I2
sg4
I3
sg5
I2
sg6
F4.0
sg7
F9.0
sg8
F-4.0
sg9
F-8.0
sb(dp1717
I00
F0.0
sI01
F10.0
ss(i__main__
State
p1718
(dp1719
g3
I2
sg4
I3
sg5
I2
sg6
F-6.0
sg7
F7.0
sg8
F6.0
sg9
F-2.0
sb(dp1720
I00
I-27
sI01
F51.253620750088004
ss(i__main__
State
p1721
(dp1722
g3
I2
sg4
I3
sg5
I2
sg6
F8.0
sg7
F8.0
sg8
F-8.0
sg9
F7.0
sb(dp1723
I00
F20.0
sI01
F0.0
ss(i__main__
State
p1724
(dp1725
g3
I2
sg4
I3
sg5
I2
sg6
F8.0
sg7
F0.0
sg8
F-8.0
sg9
F4.0
sb(dp1726
I00
F-19.65
sI01
F27.095379226400006
ss(i__main__
State
p1727
(dp1728
g3
I2
sg4
I3
sg5
I2
sg6
F-4.0
sg7
F3.0
sg8
F4.0
sg9
F-2.0
sb(dp1729
I00
F-32.43984474
sI01
F28.38020079573
ss(i__main__
State
p1730
(dp1731
g3
I2
sg4
I3
sg5
I2
sg6
F-8.0
sg7
F2.0
sg8
F8.0
sg9
F7.0
sb(dp1732
I00
I-45
sI01
F26.289
ss(i__main__
State
p1733
(dp1734
g3
I2
sg4
I3
sg5
I2
sg6
F8.0
sg7
F8.0
sg8
F-8.0
sg9
F10.0
sb(dp1735
I00
F146.57316044129058
sI01
F65.2829367410591
ss(i__main__
State
p1736
(dp1737
g3
I2
sg4
I3
sg5
I2
sg6
F-2.0
sg7
F8.0
sg8
F2.0
sg9
F7.0
sb(dp1738
I00
F152.54045991628698
sI01
F24.580769285100004
ss(i__main__
State
p1739
(dp1740
g3
I2
sg4
I3
sg5
I2
sg6
F0.0
sg7
F4.0
sg8
F0.0
sg9
F1.0
sb(dp1741
I00
F-47.938599999999994
sI01
F53.14709
ss(i__main__
State
p1742
(dp1743
g3
I2
sg4
I3
sg5
I2
sg6
F-6.0
sg7
F7.0
sg8
F6.0
sg9
F-8.0
sb(dp1744
I00
F47.912247532753845
sI01
F-51.01
ss(i__main__
State
p1745
(dp1746
g3
I2
sg4
I3
sg5
I2
sg6
F4.0
sg7
F10.0
sg8
F-4.0
sg9
F4.0
sb(dp1747
I00
F46.282477140000005
sI01
F31.108715287835434
ss(i__main__
State
p1748
(dp1749
g3
I2
sg4
I3
sg5
I2
sg6
F0.0
sg7
F7.0
sg8
F0.0
sg9
F-2.0
sb(dp1750
I00
F18.178848197454055
sI01
F50.244969999999995
ss(i__main__
State
p1751
(dp1752
g3
I2
sg4
I3
sg5
I2
sg6
F8.0
sg7
F1.0
sg8
F-8.0
sg9
F7.0
sb(dp1753
I00
F-0.5109472204058196
sI01
F-34.4826
ss(i__main__
State
p1754
(dp1755
g3
I2
sg4
I3
sg5
I2
sg6
F-2.0
sg7
F5.0
sg8
F2.0
sg9
F10.0
sb(dp1756
I00
F41.68846064890388
sI01
F39.263100656819994
ss(i__main__
State
p1757
(dp1758
g3
I2
sg4
I3
sg5
I2
sg6
F-8.0
sg7
F0.0
sg8
F8.0
sg9
F-8.0
sb(dp1759
I00
F37.44189697499999
sI01
F66.28463132558535
ss(i__main__
State
p1760
(dp1761
g3
I2
sg4
I3
sg5
I2
sg6
F-4.0
sg7
F10.0
sg8
F4.0
sg9
F7.0
sb(dp1762
I00
F10.0
sI01
F103.15874039082162
ss(i__main__
State
p1763
(dp1764
g3
I2
sg4
I3
sg5
I2
sg6
F-8.0
sg7
F6.0
sg8
F8.0
sg9
F-5.0
sb(dp1765
I00
F-25.049999999999997
sI01
F26.013
ss(i__main__
State
p1766
(dp1767
g3
I2
sg4
I3
sg5
I2
sg6
F-6.0
sg7
F0.0
sg8
F6.0
sg9
F-5.0
sb(dp1768
I00
I-95
sI01
F51.0418253364115
ss(i__main__
State
p1769
(dp1770
g3
I2
sg4
I3
sg5
I2
sg6
F0.0
sg7
F6.0
sg8
F0.0
sg9
F-2.0
sb(dp1771
I00
F-49.95631150841402
sI01
F40.6171380441896
ss(i__main__
State
p1772
(dp1773
g3
I2
sg4
I3
sg5
I2
sg6
F2.0
sg7
F2.0
sg8
F-2.0
sg9
F4.0
sb(dp1774
I00
F18.133
sI01
F-57.7326443
ss(i__main__
State
p1775
(dp1776
g3
I2
sg4
I3
sg5
I2
sg6
F-8.0
sg7
F9.0
sg8
F8.0
sg9
F4.0
sb(dp1777
I00
F41.56018117
sI01
F15.089081
ss(i__main__
State
p1778
(dp1779
g3
I2
sg4
I3
sg5
I2
sg6
F-6.0
sg7
F1.0
sg8
F6.0
sg9
F7.0
sb(dp1780
I00
I-84
sI01
F-41.5
ss(i__main__
State
p1781
(dp1782
g3
I2
sg4
I3
sg5
I2
sg6
F-2.0
sg7
F8.0
sg8
F2.0
sg9
F4.0
sb(dp1783
I00
F74.79262008812407
sI01
F39.3472383829786
ss(i__main__
State
p1784
(dp1785
g3
I2
sg4
I3
sg5
I2
sg6
F-2.0
sg7
F2.0
sg8
F2.0
sg9
F-5.0
sb(dp1786
I00
F-55.95064789098989
sI01
F56.11330574949999
ss(i__main__
State
p1787
(dp1788
g3
I2
sg4
I3
sg5
I2
sg6
F-2.0
sg7
F2.0
sg8
F2.0
sg9
F1.0
sb(dp1789
I00
F-4.302906778499998
sI01
F39.327555150863176
ss(i__main__
State
p1790
(dp1791
g3
I2
sg4
I3
sg5
I2
sg6
F-6.0
sg7
F7.0
sg8
F6.0
sg9
F-5.0
sb(dp1792
I00
F96.31427799821999
sI01
F-6.150999999999998
ss(i__main__
State
p1793
(dp1794
g3
I2
sg4
I3
sg5
I2
sg6
F-4.0
sg7
F8.0
sg8
F4.0
sg9
F-5.0
sb(dp1795
I00
F25.400518000000005
sI01
F10.0
ss(i__main__
State
p1796
(dp1797
g3
I2
sg4
I3
sg5
I2
sg6
F-4.0
sg7
F3.0
sg8
F4.0
sg9
F-5.0
sb(dp1798
I00
F8.829391920976343
sI01
F-25.630000000000003
ss(i__main__
State
p1799
(dp1800
g3
I2
sg4
I3
sg5
I2
sg6
F2.0
sg7
F6.0
sg8
F-2.0
sg9
F1.0
sb(dp1801
I00
F-13.0134435
sI01
F57.043250002111705
ss(i__main__
State
p1802
(dp1803
g3
I2
sg4
I3
sg5
I2
sg6
F4.0
sg7
F2.0
sg8
F-4.0
sg9
F7.0
sb(dp1804
I00
F-15.299999999999999
sI01
F76.970604708829
ss(i__main__
State
p1805
(dp1806
g3
I2
sg4
I3
sg5
I2
sg6
F4.0
sg7
F0.0
sg8
F-4.0
sg9
F4.0
sb(dp1807
I00
F59.29272873179374
sI01
F6.299563778360001
ss(i__main__
State
p1808
(dp1809
g3
I2
sg4
I3
sg5
I2
sg6
F-6.0
sg7
F6.0
sg8
F6.0
sg9
F7.0
sb(dp1810
I00
F58.623332208603316
sI01
F-33.055844072194915
ss(i__main__
State
p1811
(dp1812
g3
I2
sg4
I3
sg5
I2
sg6
F6.0
sg7
F0.0
sg8
F-6.0
sg9
F-8.0
sb(dp1813
I00
F35.2049744781
sI01
I23
ss(i__main__
State
p1814
(dp1815
g3
I2
sg4
I3
sg5
I2
sg6
F0.0
sg7
F2.0
sg8
F0.0
sg9
F4.0
sb(dp1816
I00
F56.079225268661446
sI01
F7.198711999999998
ss(i__main__
State
p1817
(dp1818
g3
I2
sg4
I3
sg5
I2
sg6
F4.0
sg7
F2.0
sg8
F-4.0
sg9
F-5.0
sb(dp1819
I00
F87.717857
sI01
I-62
ss(i__main__
State
p1820
(dp1821
g3
I2
sg4
I3
sg5
I2
sg6
F2.0
sg7
F1.0
sg8
F-2.0
sg9
F-8.0
sb(dp1822
I00
F17.508737603580585
sI01
F-22.07963915359
ss(i__main__
State
p1823
(dp1824
g3
I2
sg4
I3
sg5
I2
sg6
F-4.0
sg7
F9.0
sg8
F4.0
sg9
F10.0
sb(dp1825
I00
F61.334266310499295
sI01
F0.0
ss(i__main__
State
p1826
(dp1827
g3
I2
sg4
I3
sg5
I2
sg6
F0.0
sg7
F7.0
sg8
F0.0
sg9
F10.0
sb(dp1828
I00
F31.935888419999998
sI01
I-74
ss(i__main__
State
p1829
(dp1830
g3
I2
sg4
I3
sg5
I2
sg6
F2.0
sg7
F8.0
sg8
F-2.0
sg9
F10.0
sb(dp1831
I00
F-249.84972429205152
sI01
F314.51335004624207
ss(i__main__
State
p1832
(dp1833
g3
I2
sg4
I3
sg5
I2
sg6
F-6.0
sg7
F6.0
sg8
F6.0
sg9
F1.0
sb(dp1834
I00
F-15.159609080000001
sI01
I-15
ss(i__main__
State
p1835
(dp1836
g3
I2
sg4
I3
sg5
I2
sg6
F-6.0
sg7
F1.0
sg8
F6.0
sg9
F10.0
sb(dp1837
I00
F62.26506829057338
sI01
F-72.91387420413541
ss(i__main__
State
p1838
(dp1839
g3
I2
sg4
I3
sg5
I2
sg6
F2.0
sg7
F8.0
sg8
F-2.0
sg9
F-8.0
sb(dp1840
I00
F-252.027493084
sI01
F85.26439917264187
ss(i__main__
State
p1841
(dp1842
g3
I2
sg4
I3
sg5
I2
sg6
F-4.0
sg7
F3.0
sg8
F4.0
sg9
F10.0
sb(dp1843
I00
F34.695072356041564
sI01
F-19.47
ss(i__main__
State
p1844
(dp1845
g3
I2
sg4
I3
sg5
I2
sg6
F-8.0
sg7
F1.0
sg8
F8.0
sg9
F-2.0
sb(dp1846
I00
F18.391879999999997
sI01
F78.42266215051673
ss(i__main__
State
p1847
(dp1848
g3
I2
sg4
I3
sg5
I2
sg6
F6.0
sg7
F5.0
sg8
F-6.0
sg9
F10.0
sb(dp1849
I00
F-55.4
sI01
F11.369141314654792
ss(i__main__
State
p1850
(dp1851
g3
I2
sg4
I3
sg5
I2
sg6
F0.0
sg7
F0.0
sg8
F0.0
sg9
F4.0
sb(dp1852
I00
F-2.175252764220148
sI01
I-61
ss(i__main__
State
p1853
(dp1854
g3
I2
sg4
I3
sg5
I2
sg6
F-6.0
sg7
F5.0
sg8
F6.0
sg9
F7.0
sb(dp1855
I00
F-72.425270636
sI01
F38.18369265506488
ss(i__main__
State
p1856
(dp1857
g3
I2
sg4
I3
sg5
I2
sg6
F6.0
sg7
F5.0
sg8
F-6.0
sg9
F7.0
sb(dp1858
I00
F8.231429255099641
sI01
F0.08514999999999939
ss(i__main__
State
p1859
(dp1860
g3
I2
sg4
I3
sg5
I2
sg6
F-8.0
sg7
F8.0
sg8
F8.0
sg9
F-8.0
sb(dp1861
I00
F39.8
sI01
F0.0
ss(i__main__
State
p1862
(dp1863
g3
I2
sg4
I3
sg5
I2
sg6
F4.0
sg7
F8.0
sg8
F-4.0
sg9
F-5.0
sb(dp1864
I00
F-435.8977262177443
sI01
F-426.68657506775656
ss(i__main__
State
p1865
(dp1866
g3
I2
sg4
I3
sg5
I2
sg6
F4.0
sg7
F5.0
sg8
F-4.0
sg9
F-5.0
sb(dp1867
I00
F-30.325250970699994
sI01
F-84.9
ss(i__main__
State
p1868
(dp1869
g3
I2
sg4
I3
sg5
I2
sg6
F-6.0
sg7
F2.0
sg8
F6.0
sg9
F10.0
sb(dp1870
I00
F-12.794804155322742
sI01
F-83.0933660086
ss(i__main__
State
p1871
(dp1872
g3
I2
sg4
I3
sg5
I2
sg6
F8.0
sg7
F0.0
sg8
F-8.0
sg9
F-2.0
sb(dp1873
I00
F-67.5
sI01
F2.405926747043018
ss(i__main__
State
p1874
(dp1875
g3
I2
sg4
I3
sg5
I2
sg6
F4.0
sg7
F6.0
sg8
F-4.0
sg9
F4.0
sb(dp1876
I00
F3.67896836049
sI01
F4.898274999999996
ss(i__main__
State
p1877
(dp1878
g3
I2
sg4
I3
sg5
I2
sg6
F4.0
sg7
F7.0
sg8
F-4.0
sg9
F-2.0
sb(dp1879
I00
F86.45240649195907
sI01
F-3.2281549599999986
ss(i__main__
State
p1880
(dp1881
g3
I2
sg4
I3
sg5
I2
sg6
F-2.0
sg7
F7.0
sg8
F2.0
sg9
F7.0
sb(dp1882
I00
F60.0326299425946
sI01
F40.281800000000004
ss(i__main__
State
p1883
(dp1884
g3
I2
sg4
I3
sg5
I2
sg6
F6.0
sg7
F3.0
sg8
F-6.0
sg9
F-2.0
sb(dp1885
I00
F-0.9023217961006988
sI01
F31.574717353480786
ss(i__main__
State
p1886
(dp1887
g3
I2
sg4
I3
sg5
I2
sg6
F-6.0
sg7
F6.0
sg8
F6.0
sg9
F10.0
sb(dp1888
I00
F-74.0
sI01
F91.3267
ss(i__main__
State
p1889
(dp1890
g3
I2
sg4
I3
sg5
I2
sg6
F-8.0
sg7
F8.0
sg8
F8.0
sg9
F10.0
sb(dp1891
I00
F49.13790868430431
sI01
F0.0
ss(i__main__
State
p1892
(dp1893
g3
I2
sg4
I3
sg5
I2
sg6
F6.0
sg7
F5.0
sg8
F-6.0
sg9
F4.0
sb(dp1894
I00
F28.9
sI01
I3
ss(i__main__
State
p1895
(dp1896
g3
I2
sg4
I3
sg5
I2
sg6
F2.0
sg7
F10.0
sg8
F-2.0
sg9
F10.0
sb(dp1897
I00
F-558.3010502761879
sI01
F113.28083556868104
ss(i__main__
State
p1898
(dp1899
g3
I2
sg4
I3
sg5
I2
sg6
F0.0
sg7
F9.0
sg8
F0.0
sg9
F-5.0
sb(dp1900
I00
F276.71380070737644
sI01
F48.28815142116195
ss(i__main__
State
p1901
(dp1902
g3
I2
sg4
I3
sg5
I2
sg6
F0.0
sg7
F9.0
sg8
F0.0
sg9
F7.0
sb(dp1903
I00
F112.17998739730123
sI01
F21.939
ss(i__main__
State
p1904
(dp1905
g3
I2
sg4
I3
sg5
I2
sg6
F-6.0
sg7
F3.0
sg8
F6.0
sg9
F10.0
sb(dp1906
I00
F26.876600000666603
sI01
F-5.177200000000001
ss(i__main__
State
p1907
(dp1908
g3
I2
sg4
I3
sg5
I2
sg6
F-6.0
sg7
F8.0
sg8
F6.0
sg9
F4.0
sb(dp1909
I00
F137.24674935169747
sI01
F11.0
ss(i__main__
State
p1910
(dp1911
g3
I2
sg4
I3
sg5
I2
sg6
F-8.0
sg7
F8.0
sg8
F8.0
sg9
F-2.0
sb(dp1912
I00
F242.81742214449753
sI01
F-494.3329566120861
ss(i__main__
State
p1913
(dp1914
g3
I2
sg4
I3
sg5
I2
sg6
F6.0
sg7
F7.0
sg8
F-6.0
sg9
F4.0
sb(dp1915
I00
F102.41920915291655
sI01
F2.524421834109866
ss(i__main__
State
p1916
(dp1917
g3
I2
sg4
I3
sg5
I2
sg6
F4.0
sg7
F6.0
sg8
F-4.0
sg9
F-8.0
sb(dp1918
I00
F35.33789656959424
sI01
F-7.859670000000001
ss(i__main__
State
p1919
(dp1920
g3
I2
sg4
I3
sg5
I2
sg6
F4.0
sg7
F5.0
sg8
F-4.0
sg9
F7.0
sb(dp1921
I00
F50.147
sI01
I-56
ss(i__main__
State
p1922
(dp1923
g3
I2
sg4
I3
sg5
I2
sg6
F2.0
sg7
F9.0
sg8
F-2.0
sg9
F4.0
sb(dp1924
I00
F85.43772690200001
sI01
F0.0
ss(i__main__
State
p1925
(dp1926
g3
I2
sg4
I3
sg5
I2
sg6
F2.0
sg7
F6.0
sg8
F-2.0
sg9
F7.0
sb(dp1927
I00
F-70.6703163951
sI01
F-77.47571262
ss(i__main__
State
p1928
(dp1929
g3
I2
sg4
I3
sg5
I2
sg6
F0.0
sg7
F3.0
sg8
F0.0
sg9
F7.0
sb(dp1930
I00
I-11
sI01
F64.58517476671081
ss(i__main__
State
p1931
(dp1932
g3
I2
sg4
I3
sg5
I2
sg6
F4.0
sg7
F3.0
sg8
F-4.0
sg9
F-5.0
sb(dp1933
I00
F57.46166599999999
sI01
F19.650653
ss(i__main__
State
p1934
(dp1935
g3
I2
sg4
I3
sg5
I2
sg6
F2.0
sg7
F4.0
sg8
F-2.0
sg9
F-2.0
sb(dp1936
I00
F29.18
sI01
F43.271686395947
ss(i__main__
State
p1937
(dp1938
g3
I2
sg4
I3
sg5
I2
sg6
F6.0
sg7
F8.0
sg8
F-6.0
sg9
F7.0
sb(dp1939
I00
F230.51351914407712
sI01
F34.0605540018604
ss(i__main__
State
p1940
(dp1941
g3
I2
sg4
I3
sg5
I2
sg6
F-2.0
sg7
F5.0
sg8
F2.0
sg9
F-5.0
sb(dp1942
I00
F50.68978797357488
sI01
F21.5
ss(i__main__
State
p1943
(dp1944
g3
I2
sg4
I3
sg5
I2
sg6
F2.0
sg7
F1.0
sg8
F-2.0
sg9
F-2.0
sb(dp1945
I00
F-63.463798587599996
sI01
F4.885667135012
ss(i__main__
State
p1946
(dp1947
g3
I2
sg4
I3
sg5
I2
sg6
F-4.0
sg7
F7.0
sg8
F4.0
sg9
F7.0
sb(dp1948
I00
F13.579997952000003
sI01
F-35.06999999999999
ss(i__main__
State
p1949
(dp1950
g3
I2
sg4
I3
sg5
I2
sg6
F6.0
sg7
F8.0
sg8
F-6.0
sg9
F10.0
sb(dp1951
I00
F31.700000000000003
sI01
F0.0
ss(i__main__
State
p1952
(dp1953
g3
I2
sg4
I3
sg5
I2
sg6
F-8.0
sg7
F4.0
sg8
F8.0
sg9
F1.0
sb(dp1954
I00
F-4.784484458319514
sI01
F-9.2237114594194
ss(i__main__
State
p1955
(dp1956
g3
I2
sg4
I3
sg5
I2
sg6
F2.0
sg7
F3.0
sg8
F-2.0
sg9
F7.0
sb(dp1957
I00
I-55
sI01
F1.4779522526358004
ss(i__main__
State
p1958
(dp1959
g3
I2
sg4
I3
sg5
I2
sg6
F-8.0
sg7
F8.0
sg8
F8.0
sg9
F-5.0
sb(dp1960
I00
F85.92330522692089
sI01
F28.622651
ss(i__main__
State
p1961
(dp1962
g3
I2
sg4
I3
sg5
I2
sg6
F6.0
sg7
F7.0
sg8
F-6.0
sg9
F-8.0
sb(dp1963
I00
F-0.8948748999999999
sI01
F0.23566803714489737
ss(i__main__
State
p1964
(dp1965
g3
I2
sg4
I3
sg5
I2
sg6
F2.0
sg7
F0.0
sg8
F-2.0
sg9
F-5.0
sb(dp1966
I00
F-1.5531471800000007
sI01
I-68
ss(i__main__
State
p1967
(dp1968
g3
I2
sg4
I3
sg5
I2
sg6
F8.0
sg7
F3.0
sg8
F-8.0
sg9
F-2.0
sb(dp1969
I00
F-18.084000000000003
sI01
F58.64809627120681
ss(i__main__
State
p1970
(dp1971
g3
I2
sg4
I3
sg5
I2
sg6
F2.0
sg7
F5.0
sg8
F-2.0
sg9
F10.0
sb(dp1972
I00
F34.442706869004724
sI01
F-71.1
ss(i__main__
State
p1973
(dp1974
g3
I2
sg4
I3
sg5
I2
sg6
F-4.0
sg7
F5.0
sg8
F4.0
sg9
F10.0
sb(dp1975
I00
I-48
sI01
F-33.5
ss(i__main__
State
p1976
(dp1977
g3
I2
sg4
I3
sg5
I2
sg6
F-8.0
sg7
F0.0
sg8
F8.0
sg9
F10.0
sb(dp1978
I00
F58.91135980364504
sI01
F3.25841171674
ss(i__main__
State
p1979
(dp1980
g3
I2
sg4
I3
sg5
I2
sg6
F-4.0
sg7
F2.0
sg8
F4.0
sg9
F-5.0
sb(dp1981
I00
F-6.2391208883000004
sI01
F38.72120271375284
ss(i__main__
State
p1982
(dp1983
g3
I2
sg4
I3
sg5
I2
sg6
F-6.0
sg7
F10.0
sg8
F6.0
sg9
F7.0
sb(dp1984
I00
F37.9658984304
sI01
F93.44831191299872
ss(i__main__
State
p1985
(dp1986
g3
I2
sg4
I3
sg5
I2
sg6
F8.0
sg7
F4.0
sg8
F-8.0
sg9
F-8.0
sb(dp1987
I00
I-79
sI01
F0.3326424792650866
ss(i__main__
State
p1988
(dp1989
g3
I2
sg4
I3
sg5
I2
sg6
F2.0
sg7
F4.0
sg8
F-2.0
sg9
F-8.0
sb(dp1990
I00
F12.988072624957143
sI01
I-43
ss(i__main__
State
p1991
(dp1992
g3
I2
sg4
I3
sg5
I2
sg6
F0.0
sg7
F2.0
sg8
F0.0
sg9
F-8.0
sb(dp1993
I00
F30.821122027979996
sI01
F-52.8
ss(i__main__
State
p1994
(dp1995
g3
I2
sg4
I3
sg5
I2
sg6
F4.0
sg7
F0.0
sg8
F-4.0
sg9
F-2.0
sb(dp1996
I00
F70.8580813
sI01
I25
ss(i__main__
State
p1997
(dp1998
g3
I2
sg4
I3
sg5
I2
sg6
F8.0
sg7
F7.0
sg8
F-8.0
sg9
F7.0
sb(dp1999
I00
I15
sI01
F30.9
ss(i__main__
State
p2000
(dp2001
g3
I2
sg4
I3
sg5
I2
sg6
F-4.0
sg7
F6.0
sg8
F4.0
sg9
F-2.0
sb(dp2002
I00
I-44
sI01
F38.79
ss(i__main__
State
p2003
(dp2004
g3
I2
sg4
I3
sg5
I2
sg6
F8.0
sg7
F3.0
sg8
F-8.0
sg9
F-8.0
sb(dp2005
I00
F-17.727804
sI01
F14.328709093564582
ss(i__main__
State
p2006
(dp2007
g3
I2
sg4
I3
sg5
I2
sg6
F-6.0
sg7
F10.0
sg8
F6.0
sg9
F1.0
sb(dp2008
I00
F200.7668167614381
sI01
F67.52600474070857
ss(i__main__
State
p2009
(dp2010
g3
I2
sg4
I3
sg5
I2
sg6
F2.0
sg7
F1.0
sg8
F-2.0
sg9
F-5.0
sb(dp2011
I00
F-31.21
sI01
F37.65402304234107
ss(i__main__
State
p2012
(dp2013
g3
I2
sg4
I3
sg5
I2
sg6
F-6.0
sg7
F10.0
sg8
F6.0
sg9
F-5.0
sb(dp2014
I00
F21.237711150000003
sI01
F0.0
ss(i__main__
State
p2015
(dp2016
g3
I2
sg4
I3
sg5
I2
sg6
F2.0
sg7
F10.0
sg8
F-2.0
sg9
F1.0
sb(dp2017
I00
F0.0
sI01
F26.574602000000002
ss(i__main__
State
p2018
(dp2019
g3
I2
sg4
I3
sg5
I2
sg6
F-6.0
sg7
F0.0
sg8
F6.0
sg9
F-2.0
sb(dp2020
I00
F-28.9
sI01
F58.994039828240005
ss(i__main__
State
p2021
(dp2022
g3
I2
sg4
I3
sg5
I2
sg6
F2.0
sg7
F3.0
sg8
F-2.0
sg9
F-2.0
sb(dp2023
I00
I-95
sI01
F-4.932350500000003
ss(i__main__
State
p2024
(dp2025
g3
I2
sg4
I3
sg5
I2
sg6
F0.0
sg7
F8.0
sg8
F0.0
sg9
F-8.0
sb(dp2026
I00
F-1898.0775390068889
sI01
F-2657.109701177885
ss(i__main__
State
p2027
(dp2028
g3
I2
sg4
I3
sg5
I2
sg6
F-2.0
sg7
F10.0
sg8
F2.0
sg9
F1.0
sb(dp2029
I00
F117.48418094638097
sI01
F9.32848
ss(i__main__
State
p2030
(dp2031
g3
I2
sg4
I3
sg5
I2
sg6
F0.0
sg7
F1.0
sg8
F0.0
sg9
F1.0
sb(dp2032
I00
I-54
sI01
F19.39745791714717
ss(i__main__
State
p2033
(dp2034
g3
I2
sg4
I3
sg5
I2
sg6
F-4.0
sg7
F2.0
sg8
F4.0
sg9
F1.0
sb(dp2035
I00
F-74.5
sI01
F26.820257686288258
ss(i__main__
State
p2036
(dp2037
g3
I2
sg4
I3
sg5
I2
sg6
F-8.0
sg7
F3.0
sg8
F8.0
sg9
F7.0
sb(dp2038
I00
F8.631
sI01
I-14
ss(i__main__
State
p2039
(dp2040
g3
I2
sg4
I3
sg5
I2
sg6
F4.0
sg7
F4.0
sg8
F-4.0
sg9
F-2.0
sb(dp2041
I00
F-28.132315999999996
sI01
F-9.742008685705628
ss.