(dp0
(i__main__
State
p1
(dp2
S'y1'
p3
F-2.0
sS'x'
p4
F5.0
sS'y3'
p5
F2.0
sS'y2'
p6
F4.0
sb(dp7
I00
F-21.6
sI01
I-34
ss(i__main__
State
p8
(dp9
g3
F-7.0
sg4
F0.0
sg5
F7.0
sg6
F-8.0
sb(dp10
I00
F-2.2
sI01
I-16
ss(i__main__
State
p11
(dp12
g3
F6.0
sg4
F10.0
sg5
F-6.0
sg6
F2.0
sb(dp13
I00
F0.0
sI01
F32.870000000000005
ss(i__main__
State
p14
(dp15
g3
F-6.0
sg4
F10.0
sg5
F6.0
sg6
F-2.0
sb(dp16
I00
F10.0
sI01
F0.0
ss(i__main__
State
p17
(dp18
g3
F4.0
sg4
F1.0
sg5
F-4.0
sg6
F-6.0
sb(dp19
I00
I-13
sI01
F64.6
ss(i__main__
State
p20
(dp21
g3
F-8.0
sg4
F7.0
sg5
F8.0
sg6
F-6.0
sb(dp22
I00
I-48
sI01
F-4.5
ss(i__main__
State
p23
(dp24
g3
F7.0
sg4
F7.0
sg5
F-7.0
sg6
F-6.0
sb(dp25
I00
I11
sI01
F43.41
ss(i__main__
State
p26
(dp27
g3
F1.0
sg4
F9.0
sg5
F-1.0
sg6
F-8.0
sb(dp28
I00
F10.0
sI01
F0.0
ss(i__main__
State
p29
(dp30
g3
F4.0
sg4
F5.0
sg5
F-4.0
sg6
F2.0
sb(dp31
I00
I-79
sI01
F-64.6
ss(i__main__
State
p32
(dp33
g3
F7.0
sg4
F5.0
sg5
F-7.0
sg6
F-2.0
sb(dp34
I00
F76.5
sI01
I65
ss(i__main__
State
p35
(dp36
g3
F5.0
sg4
F7.0
sg5
F-5.0
sg6
F6.0
sb(dp37
I00
I13
sI01
F60.3
ss(i__main__
State
p38
(dp39
g3
F4.0
sg4
F10.0
sg5
F-4.0
sg6
F-2.0
sb(dp40
I00
F10.0
sI01
F0.0
ss(i__main__
State
p41
(dp42
g3
F-1.0
sg4
F10.0
sg5
F1.0
sg6
F-8.0
sb(dp43
I00
F10.0
sI01
F0.0
ss(i__main__
State
p44
(dp45
g3
F-6.0
sg4
F8.0
sg5
F6.0
sg6
F-8.0
sb(dp46
I00
F10.0
sI01
F0.0
ss(i__main__
State
p47
(dp48
g3
F0.0
sg4
F8.0
sg5
F0.0
sg6
F2.0
sb(dp49
I00
F-1000.0
sI01
F-1000.0
ss(i__main__
State
p50
(dp51
g3
F-5.0
sg4
F7.0
sg5
F5.0
sg6
F2.0
sb(dp52
I00
F51.755
sI01
I44
ss(i__main__
State
p53
(dp54
g3
F2.0
sg4
F3.0
sg5
F-2.0
sg6
F6.0
sb(dp55
I00
F36.357
sI01
I-32
ss(i__main__
State
p56
(dp57
g3
F-7.0
sg4
F10.0
sg5
F7.0
sg6
F-6.0
sb(dp58
I00
F30.0
sI01
F0.0
ss(i__main__
State
p59
(dp60
g3
F-6.0
sg4
F0.0
sg5
F6.0
sg6
F8.0
sb(dp61
I00
F78.6
sI01
I20
ss(i__main__
State
p62
(dp63
g3
F-8.0
sg4
F0.0
sg5
F8.0
sg6
F2.0
sb(dp64
I00
F54.6
sI01
I9
ss(i__main__
State
p65
(dp66
g3
F-4.0
sg4
F8.0
sg5
F4.0
sg6
F-8.0
sb(dp67
I00
F0.0
sI01
F10.0
ss(i__main__
State
p68
(dp69
g3
F1.0
sg4
F2.0
sg5
F-1.0
sg6
F2.0
sb(dp70
I00
I13
sI01
F80.6
ss(i__main__
State
p71
(dp72
g3
F6.0
sg4
F5.0
sg5
F-6.0
sg6
F0.0
sb(dp73
I00
F96.0
sI01
I61
ss(i__main__
State
p74
(dp75
g3
F-8.0
sg4
F4.0
sg5
F8.0
sg6
F6.0
sb(dp76
I00
F27.88
sI01
I12
ss(i__main__
State
p77
(dp78
g3
F-2.0
sg4
F1.0
sg5
F2.0
sg6
F-6.0
sb(dp79
I00
I-15
sI01
F83.1
ss(i__main__
State
p80
(dp81
g3
F5.0
sg4
F3.0
sg5
F-5.0
sg6
F0.0
sb(dp82
I00
I-92
sI01
F-4.6
ss(i__main__
State
p83
(dp84
g3
F-2.0
sg4
F7.0
sg5
F2.0
sg6
F-8.0
sb(dp85
I00
I-50
sI01
F-3.5
ss(i__main__
State
p86
(dp87
g3
F-2.0
sg4
F8.0
sg5
F2.0
sg6
F2.0
sb(dp88
I00
F10.0
sI01
F0.0
ss(i__main__
State
p89
(dp90
g3
F4.0
sg4
F8.0
sg5
F-4.0
sg6
F0.0
sb(dp91
I00
F10.0
sI01
F0.0
ss(i__main__
State
p92
(dp93
g3
F2.0
sg4
F10.0
sg5
F-2.0
sg6
F-4.0
sb(dp94
I00
F20.0
sI01
F0.0
ss(i__main__
State
p95
(dp96
g3
F-2.0
sg4
F9.0
sg5
F2.0
sg6
F6.0
sb(dp97
I00
F10.0
sI01
F0.0
ss(i__main__
State
p98
(dp99
g3
F-5.0
sg4
F9.0
sg5
F5.0
sg6
F2.0
sb(dp100
I00
F10.0
sI01
F0.0
ss(i__main__
State
p101
(dp102
g3
F3.0
sg4
F0.0
sg5
F-3.0
sg6
F8.0
sb(dp103
I00
I-59
sI01
F58.730999999999995
ss(i__main__
State
p104
(dp105
g3
F-1.0
sg4
F2.0
sg5
F1.0
sg6
F-2.0
sb(dp106
I00
F58.0
sI01
I2
ss(i__main__
State
p107
(dp108
g3
F-3.0
sg4
F10.0
sg5
F3.0
sg6
F0.0
sb(dp109
I00
F10.0
sI01
F0.0
ss(i__main__
State
p110
(dp111
g3
F1.0
sg4
F1.0
sg5
F-1.0
sg6
F-2.0
sb(dp112
I00
F-8.2
sI01
I-35
ss(i__main__
State
p113
(dp114
g3
F-5.0
sg4
F10.0
sg5
F5.0
sg6
F-2.0
sb(dp115
I00
F10.0
sI01
F0.0
ss(i__main__
State
p116
(dp117
g3
F-4.0
sg4
F8.0
sg5
F4.0
sg6
F2.0
sb(dp118
I00
F0.0
sI01
F21.0
ss(i__main__
State
p119
(dp120
g3
F-1.0
sg4
F6.0
sg5
F1.0
sg6
F0.0
sb(dp121
I00
F35.2
sI01
I-28
ss(i__main__
State
p122
(dp123
g3
F-7.0
sg4
F8.0
sg5
F7.0
sg6
F-2.0
sb(dp124
I00
F10.0
sI01
F0.0
ss(i__main__
State
p125
(dp126
g3
F-3.0
sg4
F0.0
sg5
F3.0
sg6
F0.0
sb(dp127
I00
I77
sI01
F83.2
ss(i__main__
State
p128
(dp129
g3
F3.0
sg4
F7.0
sg5
F-3.0
sg6
F6.0
sb(dp130
I00
F-36.9
sI01
I-94
ss(i__main__
State
p131
(dp132
g3
F-5.0
sg4
F10.0
sg5
F5.0
sg6
F-4.0
sb(dp133
I00
F10.0
sI01
F0.0
ss(i__main__
State
p134
(dp135
g3
F6.0
sg4
F9.0
sg5
F-6.0
sg6
F6.0
sb(dp136
I00
F10.0
sI01
F10.0
ss(i__main__
State
p137
(dp138
g3
F7.0
sg4
F10.0
sg5
F-7.0
sg6
F4.0
sb(dp139
I00
F10.0
sI01
F0.0
ss(i__main__
State
p140
(dp141
g3
F-3.0
sg4
F10.0
sg5
F3.0
sg6
F2.0
sb(dp142
I00
F10.0
sI01
F0.0
ss(i__main__
State
p143
(dp144
g3
F5.0
sg4
F9.0
sg5
F-5.0
sg6
F4.0
sb(dp145
I00
F10.0
sI01
F0.0
ss(i__main__
State
p146
(dp147
g3
F7.0
sg4
F2.0
sg5
F-7.0
sg6
F-4.0
sb(dp148
I00
F99.6
sI01
I92
ss(i__main__
State
p149
(dp150
g3
F2.0
sg4
F5.0
sg5
F-2.0
sg6
F-6.0
sb(dp151
I00
I71
sI01
F-50.4
ss(i__main__
State
p152
(dp153
g3
F7.0
sg4
F4.0
sg5
F-7.0
sg6
F2.0
sb(dp154
I00
F-21.0
sI01
I-67
ss(i__main__
State
p155
(dp156
g3
F1.0
sg4
F10.0
sg5
F-1.0
sg6
F-2.0
sb(dp157
I00
F19.0
sI01
F0.0
ss(i__main__
State
p158
(dp159
g3
F-8.0
sg4
F10.0
sg5
F8.0
sg6
F-4.0
sb(dp160
I00
F30.0
sI01
F0.0
ss(i__main__
State
p161
(dp162
g3
F-7.0
sg4
F10.0
sg5
F7.0
sg6
F2.0
sb(dp163
I00
F22.0
sI01
F0.0
ss(i__main__
State
p164
(dp165
g3
F5.0
sg4
F1.0
sg5
F-5.0
sg6
F-8.0
sb(dp166
I00
F-5.6
sI01
I-99
ss(i__main__
State
p167
(dp168
g3
F4.0
sg4
F9.0
sg5
F-4.0
sg6
F-8.0
sb(dp169
I00
F0.0
sI01
F20.0
ss(i__main__
State
p170
(dp171
g3
F-8.0
sg4
F6.0
sg5
F8.0
sg6
F0.0
sb(dp172
I00
I-3
sI01
F-65.4
ss(i__main__
State
p173
(dp174
g3
F3.0
sg4
F1.0
sg5
F-3.0
sg6
F-2.0
sb(dp175
I00
F0.7000000000000002
sI01
I-9
ss(i__main__
State
p176
(dp177
g3
F4.0
sg4
F9.0
sg5
F-4.0
sg6
F6.0
sb(dp178
I00
F10.0
sI01
F0.0
ss(i__main__
State
p179
(dp180
g3
F3.0
sg4
F6.0
sg5
F-3.0
sg6
F4.0
sb(dp181
I00
I-81
sI01
F52.3
ss(i__main__
State
p182
(dp183
g3
F5.0
sg4
F7.0
sg5
F-5.0
sg6
F-8.0
sb(dp184
I00
F73.9
sI01
I-43
ss(i__main__
State
p185
(dp186
g3
F6.0
sg4
F10.0
sg5
F-6.0
sg6
F6.0
sb(dp187
I00
F0.0
sI01
F7.800000000000001
ss(i__main__
State
p188
(dp189
g3
F-5.0
sg4
F8.0
sg5
F5.0
sg6
F-6.0
sb(dp190
I00
F10.0
sI01
F0.0
ss(i__main__
State
p191
(dp192
g3
F2.0
sg4
F9.0
sg5
F-2.0
sg6
F8.0
sb(dp193
I00
F10.0
sI01
F0.0
ss(i__main__
State
p194
(dp195
g3
F-4.0
sg4
F4.0
sg5
F4.0
sg6
F-6.0
sb(dp196
I00
I-68
sI01
F49.4
ss(i__main__
State
p197
(dp198
g3
F8.0
sg4
F10.0
sg5
F-8.0
sg6
F-2.0
sb(dp199
I00
F30.074
sI01
F0.0
ss(i__main__
State
p200
(dp201
g3
F0.0
sg4
F6.0
sg5
F0.0
sg6
F-2.0
sb(dp202
I00
F45.3
sI01
I1
ss(i__main__
State
p203
(dp204
g3
F-7.0
sg4
F10.0
sg5
F7.0
sg6
F0.0
sb(dp205
I00
F0.0
sI01
F15.200000000000001
ss(i__main__
State
p206
(dp207
g3
F-1.0
sg4
F8.0
sg5
F1.0
sg6
F0.0
sb(dp208
I00
F10.0
sI01
F0.0
ss(i__main__
State
p209
(dp210
g3
F8.0
sg4
F8.0
sg5
F-8.0
sg6
F-4.0
sb(dp211
I00
F10.0
sI01
F0.0
ss(i__main__
State
p212
(dp213
g3
F-8.0
sg4
F9.0
sg5
F8.0
sg6
F-8.0
sb(dp214
I00
F30.053
sI01
F0.0
ss(i__main__
State
p215
(dp216
g3
F-8.0
sg4
F4.0
sg5
F8.0
sg6
F-2.0
sb(dp217
I00
I78
sI01
F84.8
ss(i__main__
State
p218
(dp219
g3
F2.0
sg4
F8.0
sg5
F-2.0
sg6
F4.0
sb(dp220
I00
F10.0
sI01
F0.0
ss(i__main__
State
p221
(dp222
g3
F-2.0
sg4
F5.0
sg5
F2.0
sg6
F-4.0
sb(dp223
I00
F-9.1
sI01
F8.4
ss(i__main__
State
p224
(dp225
g3
F-8.0
sg4
F7.0
sg5
F8.0
sg6
F6.0
sb(dp226
I00
I23
sI01
F64.8
ss(i__main__
State
p227
(dp228
g3
F-1.0
sg4
F4.0
sg5
F1.0
sg6
F4.0
sb(dp229
I00
I-23
sI01
F28.7
ss(i__main__
State
p230
(dp231
g3
F0.0
sg4
F9.0
sg5
F0.0
sg6
F-6.0
sb(dp232
I00
F0.0
sI01
F10.0
ss(i__main__
State
p233
(dp234
g3
F-7.0
sg4
F7.0
sg5
F7.0
sg6
F0.0
sb(dp235
I00
F64.3
sI01
I46
ss(i__main__
State
p236
(dp237
g3
F-2.0
sg4
F6.0
sg5
F2.0
sg6
F-4.0
sb(dp238
I00
F29.8
sI01
I-82
ss(i__main__
State
p239
(dp240
g3
F-7.0
sg4
F10.0
sg5
F7.0
sg6
F4.0
sb(dp241
I00
F10.0
sI01
F0.0
ss(i__main__
State
p242
(dp243
g3
F-1.0
sg4
F8.0
sg5
F1.0
sg6
F8.0
sb(dp244
I00
F10.0
sI01
F0.0
ss(i__main__
State
p245
(dp246
g3
F-3.0
sg4
F5.0
sg5
F3.0
sg6
F-4.0
sb(dp247
I00
F43.9
sI01
I-90
ss(i__main__
State
p248
(dp249
g3
F-2.0
sg4
F9.0
sg5
F2.0
sg6
F-8.0
sb(dp250
I00
F10.0
sI01
F0.0
ss(i__main__
State
p251
(dp252
g3
F-1.0
sg4
F4.0
sg5
F1.0
sg6
F-6.0
sb(dp253
I00
F89.7
sI01
F77.57
ss(i__main__
State
p254
(dp255
g3
F1.0
sg4
F3.0
sg5
F-1.0
sg6
F8.0
sb(dp256
I00
I-90
sI01
F-33.083
ss(i__main__
State
p257
(dp258
g3
F2.0
sg4
F8.0
sg5
F-2.0
sg6
F-2.0
sb(dp259
I00
F20.0
sI01
F0.0
ss(i__main__
State
p260
(dp261
g3
F5.0
sg4
F10.0
sg5
F-5.0
sg6
F-6.0
sb(dp262
I00
F30.0
sI01
F9.0
ss(i__main__
State
p263
(dp264
g3
F-1.0
sg4
F9.0
sg5
F1.0
sg6
F-4.0
sb(dp265
I00
F10.0
sI01
F0.0
ss(i__main__
State
p266
(dp267
g3
F2.0
sg4
F1.0
sg5
F-2.0
sg6
F-8.0
sb(dp268
I00
F67.955
sI01
I12
ss(i__main__
State
p269
(dp270
g3
F-2.0
sg4
F1.0
sg5
F2.0
sg6
F4.0
sb(dp271
I00
I8
sI01
F33.0
ss(i__main__
State
p272
(dp273
g3
F-3.0
sg4
F0.0
sg5
F3.0
sg6
F6.0
sb(dp274
I00
F61.5
sI01
I-41
ss(i__main__
State
p275
(dp276
g3
F6.0
sg4
F1.0
sg5
F-6.0
sg6
F8.0
sb(dp277
I00
F28.3
sI01
I-94
ss(i__main__
State
p278
(dp279
g3
F4.0
sg4
F9.0
sg5
F-4.0
sg6
F-2.0
sb(dp280
I00
F10.0
sI01
F0.0
ss(i__main__
State
p281
(dp282
g3
F-8.0
sg4
F2.0
sg5
F8.0
sg6
F-2.0
sb(dp283
I00
I0
sI01
F20.6
ss(i__main__
State
p284
(dp285
g3
F5.0
sg4
F3.0
sg5
F-5.0
sg6
F-8.0
sb(dp286
I00
F35.9
sI01
I-91
ss(i__main__
State
p287
(dp288
g3
F0.0
sg4
F8.0
sg5
F0.0
sg6
F-2.0
sb(dp289
I00
F-1000.0
sI01
F-1000.0
ss(i__main__
State
p290
(dp291
g3
F-5.0
sg4
F6.0
sg5
F5.0
sg6
F-6.0
sb(dp292
I00
F-17.4
sI01
I-98
ss(i__main__
State
p293
(dp294
g3
F-6.0
sg4
F8.0
sg5
F6.0
sg6
F-4.0
sb(dp295
I00
F10.0
sI01
F0.0
ss(i__main__
State
p296
(dp297
g3
F-6.0
sg4
F7.0
sg5
F6.0
sg6
F4.0
sb(dp298
I00
F-2.9590000000000005
sI01
I-38
ss(i__main__
State
p299
(dp300
g3
F5.0
sg4
F9.0
sg5
F-5.0
sg6
F-2.0
sb(dp301
I00
F0.0
sI01
F30.81
ss(i__main__
State
p302
(dp303
g3
F-4.0
sg4
F2.0
sg5
F4.0
sg6
F8.0
sb(dp304
I00
F68.7
sI01
I-81
ss(i__main__
State
p305
(dp306
g3
F-2.0
sg4
F10.0
sg5
F2.0
sg6
F-8.0
sb(dp307
I00
F10.0
sI01
F0.0
ss(i__main__
State
p308
(dp309
g3
F-5.0
sg4
F8.0
sg5
F5.0
sg6
F2.0
sb(dp310
I00
F10.0
sI01
F0.0
ss(i__main__
State
p311
(dp312
g3
F-5.0
sg4
F5.0
sg5
F5.0
sg6
F-8.0
sb(dp313
I00
F51.2
sI01
I16
ss(i__main__
State
p314
(dp315
g3
F6.0
sg4
F10.0
sg5
F-6.0
sg6
F-8.0
sb(dp316
I00
F38.1
sI01
F0.0
ss(i__main__
State
p317
(dp318
g3
F-5.0
sg4
F0.0
sg5
F5.0
sg6
F6.0
sb(dp319
I00
F10.5
sI01
I-93
ss(i__main__
State
p320
(dp321
g3
F-5.0
sg4
F5.0
sg5
F5.0
sg6
F-4.0
sb(dp322
I00
I-71
sI01
F60.9
ss(i__main__
State
p323
(dp324
g3
F-8.0
sg4
F8.0
sg5
F8.0
sg6
F0.0
sb(dp325
I00
F10.0
sI01
F0.0
ss(i__main__
State
p326
(dp327
g3
F3.0
sg4
F3.0
sg5
F-3.0
sg6
F4.0
sb(dp328
I00
F8.100000000000001
sI01
I-20
ss(i__main__
State
p329
(dp330
g3
F-6.0
sg4
F8.0
sg5
F6.0
sg6
F4.0
sb(dp331
I00
F10.0
sI01
F0.0
ss(i__main__
State
p332
(dp333
g3
F-6.0
sg4
F9.0
sg5
F6.0
sg6
F4.0
sb(dp334
I00
F10.0
sI01
F0.0
ss(i__main__
State
p335
(dp336
g3
F-7.0
sg4
F8.0
sg5
F7.0
sg6
F6.0
sb(dp337
I00
F10.0
sI01
F0.0
ss(i__main__
State
p338
(dp339
g3
F8.0
sg4
F2.0
sg5
F-8.0
sg6
F4.0
sb(dp340
I00
I-68
sI01
F-37.3
ss(i__main__
State
p341
(dp342
g3
F-8.0
sg4
F7.0
sg5
F8.0
sg6
F8.0
sb(dp343
I00
F8.91
sI01
F-71.1
ss(i__main__
State
p344
(dp345
g3
F-4.0
sg4
F1.0
sg5
F4.0
sg6
F2.0
sb(dp346
I00
F4.9
sI01
I-9
ss(i__main__
State
p347
(dp348
g3
F8.0
sg4
F8.0
sg5
F-8.0
sg6
F8.0
sb(dp349
I00
F0.0
sI01
F10.0
ss(i__main__
State
p350
(dp351
g3
F2.0
sg4
F9.0
sg5
F-2.0
sg6
F2.0
sb(dp352
I00
F10.0
sI01
F0.0
ss(i__main__
State
p353
(dp354
g3
F1.0
sg4
F4.0
sg5
F-1.0
sg6
F0.0
sb(dp355
I00
F18.8
sI01
I-20
ss(i__main__
State
p356
(dp357
g3
F-3.0
sg4
F0.0
sg5
F3.0
sg6
F-4.0
sb(dp358
I00
F-19.2
sI01
I-88
ss(i__main__
State
p359
(dp360
g3
F8.0
sg4
F3.0
sg5
F-8.0
sg6
F0.0
sb(dp361
I00
I-96
sI01
F4.8
ss(i__main__
State
p362
(dp363
g3
F7.0
sg4
F9.0
sg5
F-7.0
sg6
F4.0
sb(dp364
I00
F20.0
sI01
F0.0
ss(i__main__
State
p365
(dp366
g3
F6.0
sg4
F8.0
sg5
F-6.0
sg6
F-4.0
sb(dp367
I00
F10.0
sI01
F30.180000000000003
ss(i__main__
State
p368
(dp369
g3
F8.0
sg4
F7.0
sg5
F-8.0
sg6
F-8.0
sb(dp370
I00
F61.3
sI01
F58.5
ss(i__main__
State
p371
(dp372
g3
F0.0
sg4
F8.0
sg5
F0.0
sg6
F-6.0
sb(dp373
I00
F-1899.0
sI01
F-1000.0
ss(i__main__
State
p374
(dp375
g3
F5.0
sg4
F5.0
sg5
F-5.0
sg6
F2.0
sb(dp376
I00
I-77
sI01
F70.1
ss(i__main__
State
p377
(dp378
g3
F2.0
sg4
F0.0
sg5
F-2.0
sg6
F-4.0
sb(dp379
I00
I22
sI01
F57.3
ss(i__main__
State
p380
(dp381
g3
F-5.0
sg4
F2.0
sg5
F5.0
sg6
F-8.0
sb(dp382
I00
I-90
sI01
F75.1
ss(i__main__
State
p383
(dp384
g3
F-6.0
sg4
F3.0
sg5
F6.0
sg6
F2.0
sb(dp385
I00
I-3
sI01
F47.4
ss(i__main__
State
p386
(dp387
g3
F-6.0
sg4
F2.0
sg5
F6.0
sg6
F2.0
sb(dp388
I00
F61.9
sI01
I-20
ss(i__main__
State
p389
(dp390
g3
F8.0
sg4
F10.0
sg5
F-8.0
sg6
F2.0
sb(dp391
I00
F10.0
sI01
F0.0
ss(i__main__
State
p392
(dp393
g3
F-2.0
sg4
F9.0
sg5
F2.0
sg6
F-2.0
sb(dp394
I00
F10.0
sI01
F0.0
ss(i__main__
State
p395
(dp396
g3
F4.0
sg4
F3.0
sg5
F-4.0
sg6
F-6.0
sb(dp397
I00
F-6.800000000000001
sI01
I-30
ss(i__main__
State
p398
(dp399
g3
F1.0
sg4
F9.0
sg5
F-1.0
sg6
F-6.0
sb(dp400
I00
F0.0
sI01
F10.0
ss(i__main__
State
p401
(dp402
g3
F-7.0
sg4
F8.0
sg5
F7.0
sg6
F-6.0
sb(dp403
I00
F10.0
sI01
F0.0
ss(i__main__
State
p404
(dp405
g3
F-2.0
sg4
F10.0
sg5
F2.0
sg6
F-2.0
sb(dp406
I00
F10.0
sI01
F0.0
ss(i__main__
State
p407
(dp408
g3
F-7.0
sg4
F1.0
sg5
F7.0
sg6
F-4.0
sb(dp409
I00
I5
sI01
F25.6
ss(i__main__
State
p410
(dp411
g3
F1.0
sg4
F8.0
sg5
F-1.0
sg6
F-8.0
sb(dp412
I00
F10.0
sI01
F0.0
ss(i__main__
State
p413
(dp414
g3
F-8.0
sg4
F3.0
sg5
F8.0
sg6
F2.0
sb(dp415
I00
I-23
sI01
F-26.2
ss(i__main__
State
p416
(dp417
g3
F8.0
sg4
F9.0
sg5
F-8.0
sg6
F-6.0
sb(dp418
I00
F0.0
sI01
F31.394000000000005
ss(i__main__
State
p419
(dp420
g3
F2.0
sg4
F6.0
sg5
F-2.0
sg6
F2.0
sb(dp421
I00
I-63
sI01
F51.1
ss(i__main__
State
p422
(dp423
g3
F6.0
sg4
F9.0
sg5
F-6.0
sg6
F2.0
sb(dp424
I00
F10.0
sI01
F0.0
ss(i__main__
State
p425
(dp426
g3
F6.0
sg4
F4.0
sg5
F-6.0
sg6
F4.0
sb(dp427
I00
F13.4
sI01
I-64
ss(i__main__
State
p428
(dp429
g3
F-6.0
sg4
F9.0
sg5
F6.0
sg6
F-4.0
sb(dp430
I00
F20.0
sI01
F0.0
ss(i__main__
State
p431
(dp432
g3
F8.0
sg4
F7.0
sg5
F-8.0
sg6
F4.0
sb(dp433
I00
F70.9
sI01
I39
ss(i__main__
State
p434
(dp435
g3
F3.0
sg4
F9.0
sg5
F-3.0
sg6
F6.0
sb(dp436
I00
F10.0
sI01
F0.0
ss(i__main__
State
p437
(dp438
g3
F-4.0
sg4
F10.0
sg5
F4.0
sg6
F2.0
sb(dp439
I00
F0.0
sI01
F13.9
ss(i__main__
State
p440
(dp441
g3
F-3.0
sg4
F6.0
sg5
F3.0
sg6
F-2.0
sb(dp442
I00
F88.337
sI01
F90.1
ss(i__main__
State
p443
(dp444
g3
F8.0
sg4
F8.0
sg5
F-8.0
sg6
F-8.0
sb(dp445
I00
F21.9
sI01
F0.0
ss(i__main__
State
p446
(dp447
g3
F4.0
sg4
F2.0
sg5
F-4.0
sg6
F2.0
sb(dp448
I00
I-8
sI01
F87.7
ss(i__main__
State
p449
(dp450
g3
F-1.0
sg4
F10.0
sg5
F1.0
sg6
F6.0
sb(dp451
I00
F20.0
sI01
F15.9
ss(i__main__
State
p452
(dp453
g3
F4.0
sg4
F9.0
sg5
F-4.0
sg6
F4.0
sb(dp454
I00
F10.0
sI01
F0.0
ss(i__main__
State
p455
(dp456
g3
F3.0
sg4
F10.0
sg5
F-3.0
sg6
F0.0
sb(dp457
I00
F10.0
sI01
F0.0
ss(i__main__
State
p458
(dp459
g3
F-3.0
sg4
F9.0
sg5
F3.0
sg6
F0.0
sb(dp460
I00
F-1000.0
sI01
F0.0
ss(i__main__
State
p461
(dp462
g3
F-2.0
sg4
F0.0
sg5
F2.0
sg6
F8.0
sb(dp463
I00
I1
sI01
F53.2
ss(i__main__
State
p464
(dp465
g3
F-2.0
sg4
F10.0
sg5
F2.0
sg6
F2.0
sb(dp466
I00
F11.0
sI01
F0.0
ss(i__main__
State
p467
(dp468
g3
F2.0
sg4
F1.0
sg5
F-2.0
sg6
F4.0
sb(dp469
I00
I-34
sI01
F24.2
ss(i__main__
State
p470
(dp471
g3
F6.0
sg4
F0.0
sg5
F-6.0
sg6
F2.0
sb(dp472
I00
F-67.666
sI01
I52
ss(i__main__
State
p473
(dp474
g3
F-4.0
sg4
F10.0
sg5
F4.0
sg6
F-6.0
sb(dp475
I00
F10.0
sI01
F0.0
ss(i__main__
State
p476
(dp477
g3
F-6.0
sg4
F2.0
sg5
F6.0
sg6
F-2.0
sb(dp478
I00
F20.2
sI01
I11
ss(i__main__
State
p479
(dp480
g3
F1.0
sg4
F8.0
sg5
F-1.0
sg6
F4.0
sb(dp481
I00
F10.0
sI01
F0.0
ss(i__main__
State
p482
(dp483
g3
F-3.0
sg4
F1.0
sg5
F3.0
sg6
F2.0
sb(dp484
I00
I14
sI01
F29.82
ss(i__main__
State
p485
(dp486
g3
F3.0
sg4
F10.0
sg5
F-3.0
sg6
F-6.0
sb(dp487
I00
F20.0
sI01
F16.400000000000002
ss(i__main__
State
p488
(dp489
g3
F-8.0
sg4
F5.0
sg5
F8.0
sg6
F-2.0
sb(dp490
I00
I-73
sI01
F52.5
ss(i__main__
State
p491
(dp492
g3
F4.0
sg4
F8.0
sg5
F-4.0
sg6
F4.0
sb(dp493
I00
F10.0
sI01
F0.0
ss(i__main__
State
p494
(dp495
g3
F-2.0
sg4
F4.0
sg5
F2.0
sg6
F-6.0
sb(dp496
I00
I6
sI01
F18.3
ss(i__main__
State
p497
(dp498
g3
F-6.0
sg4
F1.0
sg5
F6.0
sg6
F-6.0
sb(dp499
I00
F59.3
sI01
I-96
ss(i__main__
State
p500
(dp501
g3
F1.0
sg4
F6.0
sg5
F-1.0
sg6
F-4.0
sb(dp502
I00
F93.7
sI01
I97
ss(i__main__
State
p503
(dp504
g3
F3.0
sg4
F9.0
sg5
F-3.0
sg6
F0.0
sb(dp505
I00
F-1000.0
sI01
F0.0
ss(i__main__
State
p506
(dp507
g3
F5.0
sg4
F10.0
sg5
F-5.0
sg6
F-2.0
sb(dp508
I00
F10.0
sI01
F0.0
ss(i__main__
State
p509
(dp510
g3
F-5.0
sg4
F9.0
sg5
F5.0
sg6
F-6.0
sb(dp511
I00
F20.0
sI01
F0.0
ss(i__main__
State
p512
(dp513
g3
F-7.0
sg4
F2.0
sg5
F7.0
sg6
F8.0
sb(dp514
I00
F72.1
sI01
I53
ss(i__main__
State
p515
(dp516
g3
F-2.0
sg4
F8.0
sg5
F2.0
sg6
F-2.0
sb(dp517
I00
F20.0
sI01
F0.0
ss(i__main__
State
p518
(dp519
g3
F1.0
sg4
F9.0
sg5
F-1.0
sg6
F4.0
sb(dp520
I00
F10.0
sI01
F0.0
ss(i__main__
State
p521
(dp522
g3
F0.0
sg4
F10.0
sg5
F0.0
sg6
F8.0
sb(dp523
I00
F-1000.0
sI01
F-993.1
ss(i__main__
State
p524
(dp525
g3
F3.0
sg4
F9.0
sg5
F-3.0
sg6
F8.0
sb(dp526
I00
F10.0
sI01
F0.0
ss(i__main__
State
p527
(dp528
g3
F-4.0
sg4
F2.0
sg5
F4.0
sg6
F4.0
sb(dp529
I00
F85.5
sI01
F65.5
ss(i__main__
State
p530
(dp531
g3
F3.0
sg4
F5.0
sg5
F-3.0
sg6
F-8.0
sb(dp532
I00
F44.9
sI01
I-18
ss(i__main__
State
p533
(dp534
g3
F-7.0
sg4
F2.0
sg5
F7.0
sg6
F0.0
sb(dp535
I00
F-18.2
sI01
I-65
ss(i__main__
State
p536
(dp537
g3
F-7.0
sg4
F9.0
sg5
F7.0
sg6
F-2.0
sb(dp538
I00
F19.0
sI01
F0.0
ss(i__main__
State
p539
(dp540
g3
F1.0
sg4
F10.0
sg5
F-1.0
sg6
F2.0
sb(dp541
I00
F27.1
sI01
F0.0
ss(i__main__
State
p542
(dp543
g3
F8.0
sg4
F9.0
sg5
F-8.0
sg6
F2.0
sb(dp544
I00
F10.0
sI01
F0.0
ss(i__main__
State
p545
(dp546
g3
F2.0
sg4
F7.0
sg5
F-2.0
sg6
F2.0
sb(dp547
I00
I80
sI01
F41.4
ss(i__main__
State
p548
(dp549
g3
F0.0
sg4
F10.0
sg5
F0.0
sg6
F0.0
sb(dp550
I00
F-1000.0
sI01
F-993.6
ss(i__main__
State
p551
(dp552
g3
F7.0
sg4
F1.0
sg5
F-7.0
sg6
F-2.0
sb(dp553
I00
I-1
sI01
F85.0
ss(i__main__
State
p554
(dp555
g3
F-7.0
sg4
F9.0
sg5
F7.0
sg6
F2.0
sb(dp556
I00
F0.0
sI01
F21.9
ss(i__main__
State
p557
(dp558
g3
F6.0
sg4
F8.0
sg5
F-6.0
sg6
F0.0
sb(dp559
I00
F10.0
sI01
F0.0
ss(i__main__
State
p560
(dp561
g3
F3.0
sg4
F3.0
sg5
F-3.0
sg6
F-4.0
sb(dp562
I00
I-63
sI01
F-47.9
ss(i__main__
State
p563
(dp564
g3
F2.0
sg4
F2.0
sg5
F-2.0
sg6
F-4.0
sb(dp565
I00
I-31
sI01
F71.0
ss(i__main__
State
p566
(dp567
g3
F-6.0
sg4
F9.0
sg5
F6.0
sg6
F0.0
sb(dp568
I00
F-1898.9
sI01
F-1000.0
ss(i__main__
State
p569
(dp570
g3
F7.0
sg4
F8.0
sg5
F-7.0
sg6
F2.0
sb(dp571
I00
F10.0
sI01
F0.0
ss(i__main__
State
p572
(dp573
g3
F6.0
sg4
F4.0
sg5
F-6.0
sg6
F-2.0
sb(dp574
I00
F66.5
sI01
I32
ss(i__main__
State
p575
(dp576
g3
F-3.0
sg4
F7.0
sg5
F3.0
sg6
F4.0
sb(dp577
I00
F18.0
sI01
I9
ss(i__main__
State
p578
(dp579
g3
F0.0
sg4
F7.0
sg5
F0.0
sg6
F6.0
sb(dp580
I00
F-51.1
sI01
I-100
ss(i__main__
State
p581
(dp582
g3
F8.0
sg4
F10.0
sg5
F-8.0
sg6
F6.0
sb(dp583
I00
F40.0
sI01
F0.0
ss(i__main__
State
p584
(dp585
g3
F7.0
sg4
F5.0
sg5
F-7.0
sg6
F6.0
sb(dp586
I00
F83.2
sI01
I-76
ss(i__main__
State
p587
(dp588
g3
F-2.0
sg4
F4.0
sg5
F2.0
sg6
F-4.0
sb(dp589
I00
I-87
sI01
F68.12
ss(i__main__
State
p590
(dp591
g3
F3.0
sg4
F8.0
sg5
F-3.0
sg6
F-8.0
sb(dp592
I00
F20.0
sI01
F10.0
ss(i__main__
State
p593
(dp594
g3
F-1.0
sg4
F7.0
sg5
F1.0
sg6
F8.0
sb(dp595
I00
F-23.0
sI01
I-49
ss(i__main__
State
p596
(dp597
g3
F-3.0
sg4
F8.0
sg5
F3.0
sg6
F0.0
sb(dp598
I00
F20.0
sI01
F0.0
ss(i__main__
State
p599
(dp600
g3
F-1.0
sg4
F4.0
sg5
F1.0
sg6
F-8.0
sb(dp601
I00
F13.1
sI01
I7
ss(i__main__
State
p602
(dp603
g3
F-2.0
sg4
F2.0
sg5
F2.0
sg6
F0.0
sb(dp604
I00
I-72
sI01
F-33.0
ss(i__main__
State
p605
(dp606
g3
F-5.0
sg4
F2.0
sg5
F5.0
sg6
F-4.0
sb(dp607
I00
I4
sI01
F47.9
ss(i__main__
State
p608
(dp609
g3
F-6.0
sg4
F3.0
sg5
F6.0
sg6
F-2.0
sb(dp610
I00
F37.7
sI01
I-84
ss(i__main__
State
p611
(dp612
g3
F-2.0
sg4
F8.0
sg5
F2.0
sg6
F-8.0
sb(dp613
I00
F10.0
sI01
F0.0
ss(i__main__
State
p614
(dp615
g3
F-6.0
sg4
F6.0
sg5
F6.0
sg6
F-4.0
sb(dp616
I00
F-11.0
sI01
I96
ss(i__main__
State
p617
(dp618
g3
F-3.0
sg4
F9.0
sg5
F3.0
sg6
F8.0
sb(dp619
I00
F10.0
sI01
F0.0
ss(i__main__
State
p620
(dp621
g3
F-5.0
sg4
F1.0
sg5
F5.0
sg6
F-8.0
sb(dp622
I00
F75.6
sI01
I-23
ss(i__main__
State
p623
(dp624
g3
F-1.0
sg4
F4.0
sg5
F1.0
sg6
F2.0
sb(dp625
I00
I-44
sI01
F33.0
ss(i__main__
State
p626
(dp627
g3
F3.0
sg4
F4.0
sg5
F-3.0
sg6
F4.0
sb(dp628
I00
I9
sI01
F69.4
ss(i__main__
State
p629
(dp630
g3
F-1.0
sg4
F8.0
sg5
F1.0
sg6
F-4.0
sb(dp631
I00
F20.0
sI01
F0.0
ss(i__main__
State
p632
(dp633
g3
F-3.0
sg4
F8.0
sg5
F3.0
sg6
F8.0
sb(dp634
I00
F10.0
sI01
F0.0
ss(i__main__
State
p635
(dp636
g3
F4.0
sg4
F1.0
sg5
F-4.0
sg6
F-8.0
sb(dp637
I00
I-14
sI01
F14.600000000000001
ss(i__main__
State
p638
(dp639
g3
F-4.0
sg4
F10.0
sg5
F4.0
sg6
F6.0
sb(dp640
I00
F20.0
sI01
F0.0
ss(i__main__
State
p641
(dp642
g3
F-8.0
sg4
F3.0
sg5
F8.0
sg6
F6.0
sb(dp643
I00
I-2
sI01
F60.1
ss(i__main__
State
p644
(dp645
g3
F-1.0
sg4
F0.0
sg5
F1.0
sg6
F-8.0
sb(dp646
I00
I-74
sI01
F71.0
ss(i__main__
State
p647
(dp648
g3
F-2.0
sg4
F3.0
sg5
F2.0
sg6
F8.0
sb(dp649
I00
I-2
sI01
F11.6
ss(i__main__
State
p650
(dp651
g3
F4.0
sg4
F0.0
sg5
F-4.0
sg6
F6.0
sb(dp652
I00
F54.708
sI01
I-35
ss(i__main__
State
p653
(dp654
g3
F7.0
sg4
F6.0
sg5
F-7.0
sg6
F2.0
sb(dp655
I00
F84.3
sI01
I-4
ss(i__main__
State
p656
(dp657
g3
F-6.0
sg4
F9.0
sg5
F6.0
sg6
F-8.0
sb(dp658
I00
F0.0
sI01
F11.0
ss(i__main__
State
p659
(dp660
g3
F8.0
sg4
F7.0
sg5
F-8.0
sg6
F0.0
sb(dp661
I00
I-94
sI01
F27.0
ss(i__main__
State
p662
(dp663
g3
F4.0
sg4
F10.0
sg5
F-4.0
sg6
F-4.0
sb(dp664
I00
F30.0
sI01
F0.0
ss(i__main__
State
p665
(dp666
g3
F-4.0
sg4
F9.0
sg5
F4.0
sg6
F-2.0
sb(dp667
I00
F10.0
sI01
F0.0
ss(i__main__
State
p668
(dp669
g3
F5.0
sg4
F0.0
sg5
F-5.0
sg6
F4.0
sb(dp670
I00
F68.752
sI01
I32
ss(i__main__
State
p671
(dp672
g3
F0.0
sg4
F8.0
sg5
F0.0
sg6
F-8.0
sb(dp673
I00
F-1000.0
sI01
F0.0
ss(i__main__
State
p674
(dp675
g3
F6.0
sg4
F6.0
sg5
F-6.0
sg6
F4.0
sb(dp676
I00
I-64
sI01
F44.5
ss(i__main__
State
p677
(dp678
g3
F-4.0
sg4
F7.0
sg5
F4.0
sg6
F0.0
sb(dp679
I00
I-45
sI01
F57.6
ss(i__main__
State
p680
(dp681
g3
F-3.0
sg4
F2.0
sg5
F3.0
sg6
F-4.0
sb(dp682
I00
F-8.4
sI01
I30
ss(i__main__
State
p683
(dp684
g3
F0.0
sg4
F3.0
sg5
F0.0
sg6
F8.0
sb(dp685
I00
I-81
sI01
F12.1
ss(i__main__
State
p686
(dp687
g3
F-4.0
sg4
F0.0
sg5
F4.0
sg6
F-2.0
sb(dp688
I00
I25
sI01
F68.0
ss(i__main__
State
p689
(dp690
g3
F1.0
sg4
F7.0
sg5
F-1.0
sg6
F-8.0
sb(dp691
I00
I-32
sI01
F-33.58
ss(i__main__
State
p692
(dp693
g3
F8.0
sg4
F1.0
sg5
F-8.0
sg6
F-4.0
sb(dp694
I00
F-29.4
sI01
I-99
ss(i__main__
State
p695
(dp696
g3
F4.0
sg4
F4.0
sg5
F-4.0
sg6
F8.0
sb(dp697
I00
I-89
sI01
F-64.2
ss(i__main__
State
p698
(dp699
g3
F-6.0
sg4
F1.0
sg5
F6.0
sg6
F6.0
sb(dp700
I00
I-98
sI01
F62.1
ss(i__main__
State
p701
(dp702
g3
F-7.0
sg4
F0.0
sg5
F7.0
sg6
F8.0
sb(dp703
I00
F-13.8
sI01
I-96
ss(i__main__
State
p704
(dp705
g3
F2.0
sg4
F10.0
sg5
F-2.0
sg6
F4.0
sb(dp706
I00
F20.0
sI01
F0.0
ss(i__main__
State
p707
(dp708
g3
F-1.0
sg4
F9.0
sg5
F1.0
sg6
F0.0
sb(dp709
I00
F-1000.0
sI01
F-1000.0
ss(i__main__
State
p710
(dp711
g3
F1.0
sg4
F7.0
sg5
F-1.0
sg6
F4.0
sb(dp712
I00
F-7.2
sI01
I-8
ss(i__main__
State
p713
(dp714
g3
F0.0
sg4
F3.0
sg5
F0.0
sg6
F0.0
sb(dp715
I00
I-12
sI01
F-2.3999999999999995
ss(i__main__
State
p716
(dp717
g3
F-1.0
sg4
F1.0
sg5
F1.0
sg6
F2.0
sb(dp718
I00
F5.2
sI01
I88
ss(i__main__
State
p719
(dp720
g3
F5.0
sg4
F4.0
sg5
F-5.0
sg6
F-4.0
sb(dp721
I00
I54
sI01
F72.9
ss(i__main__
State
p722
(dp723
g3
F-5.0
sg4
F10.0
sg5
F5.0
sg6
F8.0
sb(dp724
I00
F20.0
sI01
F0.0
ss(i__main__
State
p725
(dp726
g3
F7.0
sg4
F9.0
sg5
F-7.0
sg6
F-8.0
sb(dp727
I00
F10.0
sI01
F0.0
ss(i__main__
State
p728
(dp729
g3
F8.0
sg4
F0.0
sg5
F-8.0
sg6
F4.0
sb(dp730
I00
F78.6
sI01
I-32
ss(i__main__
State
p731
(dp732
g3
F-5.0
sg4
F3.0
sg5
F5.0
sg6
F-8.0
sb(dp733
I00
F45.89
sI01
I-53
ss(i__main__
State
p734
(dp735
g3
F-3.0
sg4
F8.0
sg5
F3.0
sg6
F-2.0
sb(dp736
I00
F10.0
sI01
F0.0
ss(i__main__
State
p737
(dp738
g3
F2.0
sg4
F6.0
sg5
F-2.0
sg6
F8.0
sb(dp739
I00
I11
sI01
F-7.1
ss(i__main__
State
p740
(dp741
g3
F-3.0
sg4
F1.0
sg5
F3.0
sg6
F-8.0
sb(dp742
I00
F-52.4
sI01
I1
ss(i__main__
State
p743
(dp744
g3
F3.0
sg4
F8.0
sg5
F-3.0
sg6
F6.0
sb(dp745
I00
F10.0
sI01
F0.0
ss(i__main__
State
p746
(dp747
g3
F-1.0
sg4
F5.0
sg5
F1.0
sg6
F4.0
sb(dp748
I00
F-59.15
sI01
I-71
ss(i__main__
State
p749
(dp750
g3
F-5.0
sg4
F9.0
sg5
F5.0
sg6
F-2.0
sb(dp751
I00
F-81.0
sI01
F0.0
ss(i__main__
State
p752
(dp753
g3
F-8.0
sg4
F5.0
sg5
F8.0
sg6
F-6.0
sb(dp754
I00
F-11.399999999999999
sI01
F-62.099999999999994
ss(i__main__
State
p755
(dp756
g3
F-1.0
sg4
F9.0
sg5
F1.0
sg6
F8.0
sb(dp757
I00
F10.0
sI01
F0.0
ss(i__main__
State
p758
(dp759
g3
F-8.0
sg4
F8.0
sg5
F8.0
sg6
F-4.0
sb(dp760
I00
F10.0
sI01
F0.0
ss(i__main__
State
p761
(dp762
g3
F-4.0
sg4
F0.0
sg5
F4.0
sg6
F8.0
sb(dp763
I00
I43
sI01
F91.4
ss(i__main__
State
p764
(dp765
g3
F-5.0
sg4
F1.0
sg5
F5.0
sg6
F0.0
sb(dp766
I00
I-8
sI01
F58.9
ss(i__main__
State
p767
(dp768
g3
F3.0
sg4
F10.0
sg5
F-3.0
sg6
F2.0
sb(dp769
I00
F30.0
sI01
F0.0
ss(i__main__
State
p770
(dp771
g3
F0.0
sg4
F4.0
sg5
F0.0
sg6
F2.0
sb(dp772
I00
F67.9
sI01
I7
ss(i__main__
State
p773
(dp774
g3
F-1.0
sg4
F10.0
sg5
F1.0
sg6
F-4.0
sb(dp775
I00
F10.0
sI01
F0.0
ss(i__main__
State
p776
(dp777
g3
F1.0
sg4
F9.0
sg5
F-1.0
sg6
F-4.0
sb(dp778
I00
F10.0
sI01
F0.0
ss(i__main__
State
p779
(dp780
g3
F5.0
sg4
F8.0
sg5
F-5.0
sg6
F6.0
sb(dp781
I00
F21.9
sI01
F0.0
ss(i__main__
State
p782
(dp783
g3
F-4.0
sg4
F9.0
sg5
F4.0
sg6
F-8.0
sb(dp784
I00
F11.0
sI01
F0.0
ss(i__main__
State
p785
(dp786
g3
F-7.0
sg4
F9.0
sg5
F7.0
sg6
F6.0
sb(dp787
I00
F10.0
sI01
F0.0
ss(i__main__
State
p788
(dp789
g3
F6.0
sg4
F8.0
sg5
F-6.0
sg6
F4.0
sb(dp790
I00
F11.100000000000001
sI01
F0.0
ss(i__main__
State
p791
(dp792
g3
F0.0
sg4
F8.0
sg5
F0.0
sg6
F6.0
sb(dp793
I00
F-1000.0
sI01
F0.0
ss(i__main__
State
p794
(dp795
g3
F3.0
sg4
F1.0
sg5
F-3.0
sg6
F4.0
sb(dp796
I00
I-38
sI01
F45.85
ss(i__main__
State
p797
(dp798
g3
F-4.0
sg4
F7.0
sg5
F4.0
sg6
F6.0
sb(dp799
I00
I-92
sI01
F-32.4
ss(i__main__
State
p800
(dp801
g3
F-4.0
sg4
F9.0
sg5
F4.0
sg6
F2.0
sb(dp802
I00
F11.0
sI01
F0.0
ss(i__main__
State
p803
(dp804
g3
F4.0
sg4
F7.0
sg5
F-4.0
sg6
F-6.0
sb(dp805
I00
I-24
sI01
F60.13
ss(i__main__
State
p806
(dp807
g3
F6.0
sg4
F4.0
sg5
F-6.0
sg6
F-6.0
sb(dp808
I00
F64.62
sI01
I-77
ss(i__main__
State
p809
(dp810
g3
F-7.0
sg4
F2.0
sg5
F7.0
sg6
F4.0
sb(dp811
I00
I-95
sI01
F94.3
ss(i__main__
State
p812
(dp813
g3
F0.0
sg4
F2.0
sg5
F0.0
sg6
F-4.0
sb(dp814
I00
F14.100000000000001
sI01
I-59
ss(i__main__
State
p815
(dp816
g3
F-8.0
sg4
F9.0
sg5
F8.0
sg6
F8.0
sb(dp817
I00
F10.0
sI01
F0.0
ss(i__main__
State
p818
(dp819
g3
F1.0
sg4
F2.0
sg5
F-1.0
sg6
F6.0
sb(dp820
I00
I-78
sI01
F-15.9
ss(i__main__
State
p821
(dp822
g3
F6.0
sg4
F5.0
sg5
F-6.0
sg6
F8.0
sb(dp823
I00
I18
sI01
F81.8
ss(i__main__
State
p824
(dp825
g3
F7.0
sg4
F8.0
sg5
F-7.0
sg6
F-2.0
sb(dp826
I00
F10.0
sI01
F0.0
ss(i__main__
State
p827
(dp828
g3
F-2.0
sg4
F9.0
sg5
F2.0
sg6
F2.0
sb(dp829
I00
F0.0
sI01
F10.0
ss(i__main__
State
p830
(dp831
g3
F-8.0
sg4
F2.0
sg5
F8.0
sg6
F2.0
sb(dp832
I00
F-55.1
sI01
I-98
ss(i__main__
State
p833
(dp834
g3
F8.0
sg4
F8.0
sg5
F-8.0
sg6
F-2.0
sb(dp835
I00
F10.0
sI01
F0.0
ss(i__main__
State
p836
(dp837
g3
F8.0
sg4
F6.0
sg5
F-8.0
sg6
F0.0
sb(dp838
I00
I-71
sI01
F-26.2
ss(i__main__
State
p839
(dp840
g3
F-5.0
sg4
F1.0
sg5
F5.0
sg6
F-4.0
sb(dp841
I00
I-92
sI01
F-44.4
ss(i__main__
State
p842
(dp843
g3
F1.0
sg4
F5.0
sg5
F-1.0
sg6
F0.0
sb(dp844
I00
F6.9
sI01
I-83
ss(i__main__
State
p845
(dp846
g3
F1.0
sg4
F1.0
sg5
F-1.0
sg6
F-6.0
sb(dp847
I00
F5.680000000000001
sI01
F4.4
ss(i__main__
State
p848
(dp849
g3
F-8.0
sg4
F0.0
sg5
F8.0
sg6
F-6.0
sb(dp850
I00
I-53
sI01
F-48.4
ss(i__main__
State
p851
(dp852
g3
F-2.0
sg4
F5.0
sg5
F2.0
sg6
F6.0
sb(dp853
I00
F-60.5
sI01
F-60.2
ss(i__main__
State
p854
(dp855
g3
F7.0
sg4
F8.0
sg5
F-7.0
sg6
F-6.0
sb(dp856
I00
F30.009999999999998
sI01
F0.0
ss(i__main__
State
p857
(dp858
g3
F5.0
sg4
F10.0
sg5
F-5.0
sg6
F8.0
sb(dp859
I00
F10.0
sI01
F0.0
ss(i__main__
State
p860
(dp861
g3
F0.0
sg4
F1.0
sg5
F0.0
sg6
F-4.0
sb(dp862
I00
F3.5100000000000002
sI01
I-45
ss(i__main__
State
p863
(dp864
g3
F-6.0
sg4
F10.0
sg5
F6.0
sg6
F-8.0
sb(dp865
I00
F21.0
sI01
F0.0
ss(i__main__
State
p866
(dp867
g3
F-3.0
sg4
F10.0
sg5
F3.0
sg6
F4.0
sb(dp868
I00
F20.0
sI01
F0.0
ss(i__main__
State
p869
(dp870
g3
F-1.0
sg4
F0.0
sg5
F1.0
sg6
F2.0
sb(dp871
I00
F61.6
sI01
I-17
ss(i__main__
State
p872
(dp873
g3
F-1.0
sg4
F10.0
sg5
F1.0
sg6
F8.0
sb(dp874
I00
F10.0
sI01
F0.0
ss(i__main__
State
p875
(dp876
g3
F-7.0
sg4
F7.0
sg5
F7.0
sg6
F6.0
sb(dp877
I00
F26.471
sI01
I-83
ss(i__main__
State
p878
(dp879
g3
F-6.0
sg4
F3.0
sg5
F6.0
sg6
F-6.0
sb(dp880
I00
F71.9
sI01
F13.2
ss(i__main__
State
p881
(dp882
g3
F5.0
sg4
F4.0
sg5
F-5.0
sg6
F6.0
sb(dp883
I00
F11.299999999999999
sI01
I80
ss(i__main__
State
p884
(dp885
g3
F-3.0
sg4
F5.0
sg5
F3.0
sg6
F-2.0
sb(dp886
I00
I-56
sI01
F-21.3
ss(i__main__
State
p887
(dp888
g3
F1.0
sg4
F5.0
sg5
F-1.0
sg6
F8.0
sb(dp889
I00
F34.9
sI01
I-36
ss(i__main__
State
p890
(dp891
g3
F3.0
sg4
F5.0
sg5
F-3.0
sg6
F0.0
sb(dp892
I00
I63
sI01
F-77.1
ss(i__main__
State
p893
(dp894
g3
F-3.0
sg4
F6.0
sg5
F3.0
sg6
F8.0
sb(dp895
I00
I-59
sI01
F79.7
ss(i__main__
State
p896
(dp897
g3
F-8.0
sg4
F2.0
sg5
F8.0
sg6
F-8.0
sb(dp898
I00
I-50
sI01
F1.700000000000001
ss(i__main__
State
p899
(dp900
g3
F-4.0
sg4
F1.0
sg5
F4.0
sg6
F-6.0
sb(dp901
I00
I15
sI01
F67.9
ss(i__main__
State
p902
(dp903
g3
F-3.0
sg4
F9.0
sg5
F3.0
sg6
F-6.0
sb(dp904
I00
F10.0
sI01
F0.0
ss(i__main__
State
p905
(dp906
g3
F5.0
sg4
F0.0
sg5
F-5.0
sg6
F8.0
sb(dp907
I00
I-75
sI01
F-19.0
ss(i__main__
State
p908
(dp909
g3
F2.0
sg4
F9.0
sg5
F-2.0
sg6
F-6.0
sb(dp910
I00
F10.0
sI01
F0.0
ss(i__main__
State
p911
(dp912
g3
F3.0
sg4
F6.0
sg5
F-3.0
sg6
F0.0
sb(dp913
I00
I-66
sI01
F12.5
ss(i__main__
State
p914
(dp915
g3
F-4.0
sg4
F0.0
sg5
F4.0
sg6
F-6.0
sb(dp916
I00
I-31
sI01
F-10.600000000000001
ss(i__main__
State
p917
(dp918
g3
F1.0
sg4
F10.0
sg5
F-1.0
sg6
F4.0
sb(dp919
I00
F10.0
sI01
F0.0
ss(i__main__
State
p920
(dp921
g3
F7.0
sg4
F10.0
sg5
F-7.0
sg6
F-8.0
sb(dp922
I00
F10.0
sI01
F0.0
ss(i__main__
State
p923
(dp924
g3
F7.0
sg4
F4.0
sg5
F-7.0
sg6
F-8.0
sb(dp925
I00
F3.1399999999999997
sI01
I-80
ss(i__main__
State
p926
(dp927
g3
F5.0
sg4
F0.0
sg5
F-5.0
sg6
F0.0
sb(dp928
I00
F42.73
sI01
I-65
ss(i__main__
State
p929
(dp930
g3
F-7.0
sg4
F6.0
sg5
F7.0
sg6
F-8.0
sb(dp931
I00
I-51
sI01
F-44.6
ss(i__main__
State
p932
(dp933
g3
F-4.0
sg4
F5.0
sg5
F4.0
sg6
F-2.0
sb(dp934
I00
F-57.3
sI01
I-85
ss(i__main__
State
p935
(dp936
g3
F-3.0
sg4
F3.0
sg5
F3.0
sg6
F2.0
sb(dp937
I00
I-56
sI01
F42.8
ss(i__main__
State
p938
(dp939
g3
F-8.0
sg4
F10.0
sg5
F8.0
sg6
F4.0
sb(dp940
I00
F40.0
sI01
F0.0
ss(i__main__
State
p941
(dp942
g3
F3.0
sg4
F2.0
sg5
F-3.0
sg6
F-6.0
sb(dp943
I00
F74.4
sI01
I45
ss(i__main__
State
p944
(dp945
g3
F5.0
sg4
F1.0
sg5
F-5.0
sg6
F0.0
sb(dp946
I00
I-19
sI01
F98.8
ss(i__main__
State
p947
(dp948
g3
F-6.0
sg4
F0.0
sg5
F6.0
sg6
F6.0
sb(dp949
I00
F30.7
sI01
I27
ss(i__main__
State
p950
(dp951
g3
F0.0
sg4
F10.0
sg5
F0.0
sg6
F6.0
sb(dp952
I00
F-1000.0
sI01
F0.0
ss(i__main__
State
p953
(dp954
g3
F7.0
sg4
F8.0
sg5
F-7.0
sg6
F4.0
sb(dp955
I00
F10.0
sI01
F0.0
ss(i__main__
State
p956
(dp957
g3
F2.0
sg4
F4.0
sg5
F-2.0
sg6
F-2.0
sb(dp958
I00
I-23
sI01
F47.1
ss(i__main__
State
p959
(dp960
g3
F0.0
sg4
F9.0
sg5
F0.0
sg6
F-2.0
sb(dp961
I00
F10.0
sI01
F0.0
ss(i__main__
State
p962
(dp963
g3
F-8.0
sg4
F0.0
sg5
F8.0
sg6
F-8.0
sb(dp964
I00
I-27
sI01
F15.4
ss(i__main__
State
p965
(dp966
g3
F-1.0
sg4
F8.0
sg5
F1.0
sg6
F4.0
sb(dp967
I00
F10.0
sI01
F0.0
ss(i__main__
State
p968
(dp969
g3
F-3.0
sg4
F5.0
sg5
F3.0
sg6
F6.0
sb(dp970
I00
F-20.3
sI01
I-94
ss(i__main__
State
p971
(dp972
g3
F8.0
sg4
F10.0
sg5
F-8.0
sg6
F8.0
sb(dp973
I00
F10.0
sI01
F0.0
ss(i__main__
State
p974
(dp975
g3
F-5.0
sg4
F2.0
sg5
F5.0
sg6
F6.0
sb(dp976
I00
I-49
sI01
F16.03
ss(i__main__
State
p977
(dp978
g3
F7.0
sg4
F3.0
sg5
F-7.0
sg6
F6.0
sb(dp979
I00
F48.9
sI01
I-75
ss(i__main__
State
p980
(dp981
g3
F2.0
sg4
F8.0
sg5
F-2.0
sg6
F8.0
sb(dp982
I00
F10.0
sI01
F0.0
ss(i__main__
State
p983
(dp984
g3
F-5.0
sg4
F1.0
sg5
F5.0
sg6
F4.0
sb(dp985
I00
F90.6
sI01
I34
ss(i__main__
State
p986
(dp987
g3
F1.0
sg4
F3.0
sg5
F-1.0
sg6
F-2.0
sb(dp988
I00
F6.5
sI01
I-6
ss(i__main__
State
p989
(dp990
g3
F5.0
sg4
F4.0
sg5
F-5.0
sg6
F0.0
sb(dp991
I00
I13
sI01
F15.6
ss(i__main__
State
p992
(dp993
g3
F-1.0
sg4
F9.0
sg5
F1.0
sg6
F-8.0
sb(dp994
I00
F10.0
sI01
F0.0
ss(i__main__
State
p995
(dp996
g3
F8.0
sg4
F6.0
sg5
F-8.0
sg6
F-4.0
sb(dp997
I00
F21.0
sI01
I90
ss(i__main__
State
p998
(dp999
g3
F-2.0
sg4
F1.0
sg5
F2.0
sg6
F0.0
sb(dp1000
I00
F76.53
sI01
I1
ss(i__main__
State
p1001
(dp1002
g3
F8.0
sg4
F8.0
sg5
F-8.0
sg6
F2.0
sb(dp1003
I00
F0.0
sI01
F11.0
ss(i__main__
State
p1004
(dp1005
g3
F3.0
sg4
F0.0
sg5
F-3.0
sg6
F2.0
sb(dp1006
I00
I-52
sI01
F1.1
ss(i__main__
State
p1007
(dp1008
g3
F-4.0
sg4
F6.0
sg5
F4.0
sg6
F-8.0
sb(dp1009
I00
F62.7
sI01
I9
ss(i__main__
State
p1010
(dp1011
g3
F-1.0
sg4
F8.0
sg5
F1.0
sg6
F-6.0
sb(dp1012
I00
F10.0
sI01
F0.0
ss(i__main__
State
p1013
(dp1014
g3
F8.0
sg4
F5.0
sg5
F-8.0
sg6
F-4.0
sb(dp1015
I00
F58.7
sI01
I0
ss(i__main__
State
p1016
(dp1017
g3
F-4.0
sg4
F10.0
sg5
F4.0
sg6
F4.0
sb(dp1018
I00
F0.0
sI01
F10.200000000000001
ss(i__main__
State
p1019
(dp1020
g3
F-6.0
sg4
F5.0
sg5
F6.0
sg6
F2.0
sb(dp1021
I00
I-96
sI01
F1.0
ss(i__main__
State
p1022
(dp1023
g3
F7.0
sg4
F10.0
sg5
F-7.0
sg6
F0.0
sb(dp1024
I00
F20.740000000000002
sI01
F15.200000000000001
ss(i__main__
State
p1025
(dp1026
g3
F-3.0
sg4
F2.0
sg5
F3.0
sg6
F6.0
sb(dp1027
I00
I-43
sI01
F24.6
ss(i__main__
State
p1028
(dp1029
g3
F-3.0
sg4
F9.0
sg5
F3.0
sg6
F-4.0
sb(dp1030
I00
F10.0
sI01
F0.0
ss(i__main__
State
p1031
(dp1032
g3
F0.0
sg4
F8.0
sg5
F0.0
sg6
F8.0
sb(dp1033
I00
F0.0
sI01
F-1000.0
ss(i__main__
State
p1034
(dp1035
g3
F8.0
sg4
F9.0
sg5
F-8.0
sg6
F-8.0
sb(dp1036
I00
F10.0
sI01
F0.0
ss(i__main__
State
p1037
(dp1038
g3
F2.0
sg4
F7.0
sg5
F-2.0
sg6
F8.0
sb(dp1039
I00
F80.28
sI01
I69
ss(i__main__
State
p1040
(dp1041
g3
F5.0
sg4
F8.0
sg5
F-5.0
sg6
F2.0
sb(dp1042
I00
F10.0
sI01
F10.0
ss(i__main__
State
p1043
(dp1044
g3
F-4.0
sg4
F9.0
sg5
F4.0
sg6
F-4.0
sb(dp1045
I00
F20.0
sI01
F0.0
ss(i__main__
State
p1046
(dp1047
g3
F-4.0
sg4
F7.0
sg5
F4.0
sg6
F-8.0
sb(dp1048
I00
I7
sI01
F53.1
ss(i__main__
State
p1049
(dp1050
g3
F7.0
sg4
F6.0
sg5
F-7.0
sg6
F-2.0
sb(dp1051
I00
I38
sI01
F63.3
ss(i__main__
State
p1052
(dp1053
g3
F-7.0
sg4
F4.0
sg5
F7.0
sg6
F4.0
sb(dp1054
I00
F25.0
sI01
I-56
ss(i__main__
State
p1055
(dp1056
g3
F3.0
sg4
F2.0
sg5
F-3.0
sg6
F-4.0
sb(dp1057
I00
I-17
sI01
F19.6
ss(i__main__
State
p1058
(dp1059
g3
F7.0
sg4
F10.0
sg5
F-7.0
sg6
F8.0
sb(dp1060
I00
F39.9
sI01
F0.0
ss(i__main__
State
p1061
(dp1062
g3
F1.0
sg4
F8.0
sg5
F-1.0
sg6
F0.0
sb(dp1063
I00
F19.0
sI01
F0.0
ss(i__main__
State
p1064
(dp1065
g3
F-4.0
sg4
F10.0
sg5
F4.0
sg6
F-4.0
sb(dp1066
I00
F10.0
sI01
F0.0
ss(i__main__
State
p1067
(dp1068
g3
F6.0
sg4
F7.0
sg5
F-6.0
sg6
F8.0
sb(dp1069
I00
F83.9
sI01
I74
ss(i__main__
State
p1070
(dp1071
g3
F6.0
sg4
F3.0
sg5
F-6.0
sg6
F8.0
sb(dp1072
I00
F39.1
sI01
I-47
ss(i__main__
State
p1073
(dp1074
g3
F-8.0
sg4
F10.0
sg5
F8.0
sg6
F6.0
sb(dp1075
I00
F10.0
sI01
F0.0
ss(i__main__
State
p1076
(dp1077
g3
F7.0
sg4
F7.0
sg5
F-7.0
sg6
F6.0
sb(dp1078
I00
F87.7
sI01
I28
ss(i__main__
State
p1079
(dp1080
g3
F8.0
sg4
F4.0
sg5
F-8.0
sg6
F4.0
sb(dp1081
I00
I-22
sI01
F23.5
ss(i__main__
State
p1082
(dp1083
g3
F-4.0
sg4
F6.0
sg5
F4.0
sg6
F0.0
sb(dp1084
I00
I-51
sI01
F-9.143999999999995
ss(i__main__
State
p1085
(dp1086
g3
F6.0
sg4
F10.0
sg5
F-6.0
sg6
F-6.0
sb(dp1087
I00
F10.0
sI01
F0.0
ss(i__main__
State
p1088
(dp1089
g3
F-2.0
sg4
F8.0
sg5
F2.0
sg6
F6.0
sb(dp1090
I00
F10.0
sI01
F0.0
ss(i__main__
State
p1091
(dp1092
g3
F-1.0
sg4
F6.0
sg5
F1.0
sg6
F-6.0
sb(dp1093
I00
F53.5
sI01
I-100
ss(i__main__
State
p1094
(dp1095
g3
F6.0
sg4
F7.0
sg5
F-6.0
sg6
F0.0
sb(dp1096
I00
I39
sI01
F22.6
ss(i__main__
State
p1097
(dp1098
g3
F-2.0
sg4
F10.0
sg5
F2.0
sg6
F0.0
sb(dp1099
I00
F10.0
sI01
F0.0
ss(i__main__
State
p1100
(dp1101
g3
F4.0
sg4
F4.0
sg5
F-4.0
sg6
F4.0
sb(dp1102
I00
I-12
sI01
F69.3
ss(i__main__
State
p1103
(dp1104
g3
F-1.0
sg4
F1.0
sg5
F1.0
sg6
F-2.0
sb(dp1105
I00
F9.870000000000001
sI01
I-100
ss(i__main__
State
p1106
(dp1107
g3
F-2.0
sg4
F9.0
sg5
F2.0
sg6
F-6.0
sb(dp1108
I00
F10.0
sI01
F0.0
ss(i__main__
State
p1109
(dp1110
g3
F2.0
sg4
F10.0
sg5
F-2.0
sg6
F2.0
sb(dp1111
I00
F10.0
sI01
F0.0
ss(i__main__
State
p1112
(dp1113
g3
F6.0
sg4
F0.0
sg5
F-6.0
sg6
F-2.0
sb(dp1114
I00
F53.78
sI01
F-8.1
ss(i__main__
State
p1115
(dp1116
g3
F-2.0
sg4
F10.0
sg5
F2.0
sg6
F8.0
sb(dp1117
I00
F20.0
sI01
F0.0
ss(i__main__
State
p1118
(dp1119
g3
F-5.0
sg4
F0.0
sg5
F5.0
sg6
F4.0
sb(dp1120
I00
F38.7
sI01
I-40
ss(i__main__
State
p1121
(dp1122
g3
F-3.0
sg4
F5.0
sg5
F3.0
sg6
F8.0
sb(dp1123
I00
I-62
sI01
F54.1
ss(i__main__
State
p1124
(dp1125
g3
F-7.0
sg4
F4.0
sg5
F7.0
sg6
F-8.0
sb(dp1126
I00
I13
sI01
F26.36
ss(i__main__
State
p1127
(dp1128
g3
F-1.0
sg4
F10.0
sg5
F1.0
sg6
F-2.0
sb(dp1129
I00
F10.0
sI01
F0.0
ss(i__main__
State
p1130
(dp1131
g3
F-2.0
sg4
F10.0
sg5
F2.0
sg6
F-6.0
sb(dp1132
I00
F0.0
sI01
F7.1000000000000005
ss(i__main__
State
p1133
(dp1134
g3
F1.0
sg4
F8.0
sg5
F-1.0
sg6
F-4.0
sb(dp1135
I00
F19.0
sI01
F0.0
ss(i__main__
State
p1136
(dp1137
g3
F6.0
sg4
F8.0
sg5
F-6.0
sg6
F6.0
sb(dp1138
I00
F10.0
sI01
F0.0
ss(i__main__
State
p1139
(dp1140
g3
F-4.0
sg4
F2.0
sg5
F4.0
sg6
F-2.0
sb(dp1141
I00
I-85
sI01
F-35.1
ss(i__main__
State
p1142
(dp1143
g3
F-7.0
sg4
F4.0
sg5
F7.0
sg6
F-4.0
sb(dp1144
I00
I-21
sI01
F11.600000000000001
ss(i__main__
State
p1145
(dp1146
g3
F5.0
sg4
F8.0
sg5
F-5.0
sg6
F-2.0
sb(dp1147
I00
F10.0
sI01
F0.0
ss(i__main__
State
p1148
(dp1149
g3
F3.0
sg4
F5.0
sg5
F-3.0
sg6
F6.0
sb(dp1150
I00
I-91
sI01
F-79.9
ss(i__main__
State
p1151
(dp1152
g3
F4.0
sg4
F10.0
sg5
F-4.0
sg6
F0.0
sb(dp1153
I00
F30.0
sI01
F9.8
ss(i__main__
State
p1154
(dp1155
g3
F-5.0
sg4
F8.0
sg5
F5.0
sg6
F8.0
sb(dp1156
I00
F10.0
sI01
F10.0
ss(i__main__
State
p1157
(dp1158
g3
F7.0
sg4
F10.0
sg5
F-7.0
sg6
F-4.0
sb(dp1159
I00
F0.0
sI01
F41.631
ss(i__main__
State
p1160
(dp1161
g3
F-6.0
sg4
F9.0
sg5
F6.0
sg6
F6.0
sb(dp1162
I00
F30.0
sI01
F0.0
ss(i__main__
State
p1163
(dp1164
g3
F7.0
sg4
F4.0
sg5
F-7.0
sg6
F-4.0
sb(dp1165
I00
F96.2
sI01
I-85
ss(i__main__
State
p1166
(dp1167
g3
F2.0
sg4
F1.0
sg5
F-2.0
sg6
F0.0
sb(dp1168
I00
I-97
sI01
F55.3
ss(i__main__
State
p1169
(dp1170
g3
F4.0
sg4
F5.0
sg5
F-4.0
sg6
F-2.0
sb(dp1171
I00
F79.2
sI01
F52.7
ss(i__main__
State
p1172
(dp1173
g3
F-7.0
sg4
F3.0
sg5
F7.0
sg6
F0.0
sb(dp1174
I00
F-86.0
sI01
I35
ss(i__main__
State
p1175
(dp1176
g3
F-1.0
sg4
F10.0
sg5
F1.0
sg6
F2.0
sb(dp1177
I00
F0.0
sI01
F14.0
ss(i__main__
State
p1178
(dp1179
g3
F6.0
sg4
F10.0
sg5
F-6.0
sg6
F-4.0
sb(dp1180
I00
F10.0
sI01
F0.0
ss(i__main__
State
p1181
(dp1182
g3
F3.0
sg4
F10.0
sg5
F-3.0
sg6
F-2.0
sb(dp1183
I00
F30.0
sI01
F0.0
ss(i__main__
State
p1184
(dp1185
g3
F5.0
sg4
F3.0
sg5
F-5.0
sg6
F2.0
sb(dp1186
I00
I-40
sI01
F-57.9
ss(i__main__
State
p1187
(dp1188
g3
F0.0
sg4
F5.0
sg5
F0.0
sg6
F2.0
sb(dp1189
I00
F-93.2
sI01
I42
ss(i__main__
State
p1190
(dp1191
g3
F4.0
sg4
F4.0
sg5
F-4.0
sg6
F2.0
sb(dp1192
I00
F-1.6999999999999993
sI01
I-22
ss(i__main__
State
p1193
(dp1194
g3
F-5.0
sg4
F9.0
sg5
F5.0
sg6
F0.0
sb(dp1195
I00
F-1000.0
sI01
F0.0
ss(i__main__
State
p1196
(dp1197
g3
F-2.0
sg4
F6.0
sg5
F2.0
sg6
F2.0
sb(dp1198
I00
I-57
sI01
F3.3000000000000003
ss(i__main__
State
p1199
(dp1200
g3
F-3.0
sg4
F1.0
sg5
F3.0
sg6
F6.0
sb(dp1201
I00
I25
sI01
F64.4
ss(i__main__
State
p1202
(dp1203
g3
F0.0
sg4
F9.0
sg5
F0.0
sg6
F6.0
sb(dp1204
I00
F10.0
sI01
F0.0
ss(i__main__
State
p1205
(dp1206
g3
F-2.0
sg4
F0.0
sg5
F2.0
sg6
F4.0
sb(dp1207
I00
F33.7
sI01
F42.4
ss(i__main__
State
p1208
(dp1209
g3
F8.0
sg4
F3.0
sg5
F-8.0
sg6
F-6.0
sb(dp1210
I00
I9
sI01
F90.0
ss(i__main__
State
p1211
(dp1212
g3
F-5.0
sg4
F3.0
sg5
F5.0
sg6
F6.0
sb(dp1213
I00
F62.4
sI01
I-46
ss(i__main__
State
p1214
(dp1215
g3
F-8.0
sg4
F7.0
sg5
F8.0
sg6
F-2.0
sb(dp1216
I00
F88.5
sI01
I42
ss(i__main__
State
p1217
(dp1218
g3
F-6.0
sg4
F3.0
sg5
F6.0
sg6
F8.0
sb(dp1219
I00
I-50
sI01
F1.6100000000000003
ss(i__main__
State
p1220
(dp1221
g3
F-4.0
sg4
F8.0
sg5
F4.0
sg6
F0.0
sb(dp1222
I00
F0.0
sI01
F10.0
ss(i__main__
State
p1223
(dp1224
g3
F-8.0
sg4
F9.0
sg5
F8.0
sg6
F0.0
sb(dp1225
I00
F-1000.0
sI01
F-1000.0
ss(i__main__
State
p1226
(dp1227
g3
F-7.0
sg4
F6.0
sg5
F7.0
sg6
F4.0
sb(dp1228
I00
I28
sI01
F12.600000000000001
ss(i__main__
State
p1229
(dp1230
g3
F-7.0
sg4
F6.0
sg5
F7.0
sg6
F-4.0
sb(dp1231
I00
I-65
sI01
F41.9
ss(i__main__
State
p1232
(dp1233
g3
F-1.0
sg4
F3.0
sg5
F1.0
sg6
F6.0
sb(dp1234
I00
F-2.3
sI01
I-25
ss(i__main__
State
p1235
(dp1236
g3
F-4.0
sg4
F4.0
sg5
F4.0
sg6
F4.0
sb(dp1237
I00
I77
sI01
F4.8
ss(i__main__
State
p1238
(dp1239
g3
F2.0
sg4
F9.0
sg5
F-2.0
sg6
F-8.0
sb(dp1240
I00
F10.0
sI01
F0.0
ss(i__main__
State
p1241
(dp1242
g3
F0.0
sg4
F10.0
sg5
F0.0
sg6
F-4.0
sb(dp1243
I00
F-1000.0
sI01
F0.0
ss(i__main__
State
p1244
(dp1245
g3
F4.0
sg4
F8.0
sg5
F-4.0
sg6
F8.0
sb(dp1246
I00
F29.0
sI01
F0.0
ss(i__main__
State
p1247
(dp1248
g3
F4.0
sg4
F0.0
sg5
F-4.0
sg6
F-4.0
sb(dp1249
I00
I-32
sI01
F-9.5
ss(i__main__
State
p1250
(dp1251
g3
F1.0
sg4
F10.0
sg5
F-1.0
sg6
F6.0
sb(dp1252
I00
F19.0
sI01
F0.0
ss(i__main__
State
p1253
(dp1254
g3
F7.0
sg4
F7.0
sg5
F-7.0
sg6
F2.0
sb(dp1255
I00
F-27.4
sI01
I35
ss(i__main__
State
p1256
(dp1257
g3
F2.0
sg4
F7.0
sg5
F-2.0
sg6
F6.0
sb(dp1258
I00
F24.9
sI01
I-44
ss(i__main__
State
p1259
(dp1260
g3
F-5.0
sg4
F5.0
sg5
F5.0
sg6
F0.0
sb(dp1261
I00
F83.5
sI01
I-83
ss(i__main__
State
p1262
(dp1263
g3
F8.0
sg4
F7.0
sg5
F-8.0
sg6
F2.0
sb(dp1264
I00
I27
sI01
F75.6
ss(i__main__
State
p1265
(dp1266
g3
F-7.0
sg4
F9.0
sg5
F7.0
sg6
F8.0
sb(dp1267
I00
F30.0
sI01
F0.0
ss(i__main__
State
p1268
(dp1269
g3
F8.0
sg4
F1.0
sg5
F-8.0
sg6
F-6.0
sb(dp1270
I00
I17
sI01
F27.1
ss(i__main__
State
p1271
(dp1272
g3
F6.0
sg4
F2.0
sg5
F-6.0
sg6
F-2.0
sb(dp1273
I00
I-97
sI01
F86.0
ss(i__main__
State
p1274
(dp1275
g3
F2.0
sg4
F5.0
sg5
F-2.0
sg6
F6.0
sb(dp1276
I00
F36.1
sI01
I-96
ss(i__main__
State
p1277
(dp1278
g3
F-7.0
sg4
F6.0
sg5
F7.0
sg6
F-2.0
sb(dp1279
I00
F-10.2
sI01
I-13
ss(i__main__
State
p1280
(dp1281
g3
F0.0
sg4
F10.0
sg5
F0.0
sg6
F4.0
sb(dp1282
I00
F-2707.1
sI01
F0.0
ss(i__main__
State
p1283
(dp1284
g3
F6.0
sg4
F9.0
sg5
F-6.0
sg6
F-6.0
sb(dp1285
I00
F10.0
sI01
F0.0
ss(i__main__
State
p1286
(dp1287
g3
F5.0
sg4
F10.0
sg5
F-5.0
sg6
F-4.0
sb(dp1288
I00
F10.0
sI01
F0.0
ss(i__main__
State
p1289
(dp1290
g3
F-3.0
sg4
F10.0
sg5
F3.0
sg6
F-8.0
sb(dp1291
I00
F10.0
sI01
F9.4
ss(i__main__
State
p1292
(dp1293
g3
F6.0
sg4
F7.0
sg5
F-6.0
sg6
F4.0
sb(dp1294
I00
I-38
sI01
F20.7
ss(i__main__
State
p1295
(dp1296
g3
F-3.0
sg4
F4.0
sg5
F3.0
sg6
F-8.0
sb(dp1297
I00
F3.8000000000000007
sI01
I-89
ss(i__main__
State
p1298
(dp1299
g3
F7.0
sg4
F0.0
sg5
F-7.0
sg6
F6.0
sb(dp1300
I00
I76
sI01
F78.9
ss(i__main__
State
p1301
(dp1302
g3
F0.0
sg4
F1.0
sg5
F0.0
sg6
F0.0
sb(dp1303
I00
F-40.7
sI01
I-86
ss(i__main__
State
p1304
(dp1305
g3
F-4.0
sg4
F8.0
sg5
F4.0
sg6
F-4.0
sb(dp1306
I00
F10.0
sI01
F0.0
ss(i__main__
State
p1307
(dp1308
g3
F0.0
sg4
F5.0
sg5
F0.0
sg6
F-8.0
sb(dp1309
I00
I-27
sI01
F93.0
ss(i__main__
State
p1310
(dp1311
g3
F7.0
sg4
F9.0
sg5
F-7.0
sg6
F-6.0
sb(dp1312
I00
F0.0
sI01
F10.0
ss(i__main__
State
p1313
(dp1314
g3
F3.0
sg4
F8.0
sg5
F-3.0
sg6
F-4.0
sb(dp1315
I00
F20.0
sI01
F0.0
ss(i__main__
State
p1316
(dp1317
g3
F2.0
sg4
F2.0
sg5
F-2.0
sg6
F6.0
sb(dp1318
I00
I-55
sI01
F9.12
ss(i__main__
State
p1319
(dp1320
g3
F-3.0
sg4
F8.0
sg5
F3.0
sg6
F4.0
sb(dp1321
I00
F10.0
sI01
F0.0
ss(i__main__
State
p1322
(dp1323
g3
F7.0
sg4
F8.0
sg5
F-7.0
sg6
F0.0
sb(dp1324
I00
F0.0
sI01
F10.0
ss(i__main__
State
p1325
(dp1326
g3
F-2.0
sg4
F8.0
sg5
F2.0
sg6
F-4.0
sb(dp1327
I00
F10.0
sI01
F0.0
ss(i__main__
State
p1328
(dp1329
g3
F6.0
sg4
F2.0
sg5
F-6.0
sg6
F0.0
sb(dp1330
I00
I-26
sI01
F7.699999999999999
ss(i__main__
State
p1331
(dp1332
g3
F-5.0
sg4
F3.0
sg5
F5.0
sg6
F0.0
sb(dp1333
I00
F-44.5
sI01
I0
ss(i__main__
State
p1334
(dp1335
g3
F-4.0
sg4
F8.0
sg5
F4.0
sg6
F6.0
sb(dp1336
I00
F11.0
sI01
F0.0
ss(i__main__
State
p1337
(dp1338
g3
F5.0
sg4
F6.0
sg5
F-5.0
sg6
F-8.0
sb(dp1339
I00
I-28
sI01
F-56.43
ss(i__main__
State
p1340
(dp1341
g3
F4.0
sg4
F10.0
sg5
F-4.0
sg6
F-8.0
sb(dp1342
I00
F12.0
sI01
F0.0
ss(i__main__
State
p1343
(dp1344
g3
F-8.0
sg4
F8.0
sg5
F8.0
sg6
F8.0
sb(dp1345
I00
F11.100000000000001
sI01
F0.0
ss(i__main__
State
p1346
(dp1347
g3
F5.0
sg4
F9.0
sg5
F-5.0
sg6
F-4.0
sb(dp1348
I00
F10.0
sI01
F0.0
ss(i__main__
State
p1349
(dp1350
g3
F2.0
sg4
F3.0
sg5
F-2.0
sg6
F-2.0
sb(dp1351
I00
I-66
sI01
F48.1
ss(i__main__
State
p1352
(dp1353
g3
F4.0
sg4
F6.0
sg5
F-4.0
sg6
F4.0
sb(dp1354
I00
I60
sI01
F67.0
ss(i__main__
State
p1355
(dp1356
g3
F-7.0
sg4
F3.0
sg5
F7.0
sg6
F-4.0
sb(dp1357
I00
I-64
sI01
F40.8
ss(i__main__
State
p1358
(dp1359
g3
F4.0
sg4
F0.0
sg5
F-4.0
sg6
F2.0
sb(dp1360
I00
I-96
sI01
F-30.089999999999996
ss(i__main__
State
p1361
(dp1362
g3
F-6.0
sg4
F10.0
sg5
F6.0
sg6
F0.0
sb(dp1363
I00
F11.0
sI01
F0.0
ss(i__main__
State
p1364
(dp1365
g3
F-3.0
sg4
F10.0
sg5
F3.0
sg6
F-6.0
sb(dp1366
I00
F10.0
sI01
F0.0
ss(i__main__
State
p1367
(dp1368
g3
F-6.0
sg4
F5.0
sg5
F6.0
sg6
F-6.0
sb(dp1369
I00
I-30
sI01
F-5.3999999999999995
ss(i__main__
State
p1370
(dp1371
g3
F-5.0
sg4
F8.0
sg5
F5.0
sg6
F-2.0
sb(dp1372
I00
F0.0
sI01
F10.0
ss(i__main__
State
p1373
(dp1374
g3
F5.0
sg4
F8.0
sg5
F-5.0
sg6
F8.0
sb(dp1375
I00
F0.0
sI01
F10.0
ss(i__main__
State
p1376
(dp1377
g3
F-6.0
sg4
F9.0
sg5
F6.0
sg6
F2.0
sb(dp1378
I00
F0.0
sI01
F10.0
ss(i__main__
State
p1379
(dp1380
g3
F-5.0
sg4
F5.0
sg5
F5.0
sg6
F6.0
sb(dp1381
I00
I-24
sI01
F26.5
ss(i__main__
State
p1382
(dp1383
g3
F0.0
sg4
F4.0
sg5
F0.0
sg6
F-8.0
sb(dp1384
I00
F46.806
sI01
I-75
ss(i__main__
State
p1385
(dp1386
g3
F-8.0
sg4
F7.0
sg5
F8.0
sg6
F2.0
sb(dp1387
I00
F75.3
sI01
I45
ss(i__main__
State
p1388
(dp1389
g3
F1.0
sg4
F8.0
sg5
F-1.0
sg6
F6.0
sb(dp1390
I00
F10.0
sI01
F0.0
ss(i__main__
State
p1391
(dp1392
g3
F1.0
sg4
F7.0
sg5
F-1.0
sg6
F8.0
sb(dp1393
I00
I-50
sI01
F70.2
ss(i__main__
State
p1394
(dp1395
g3
F0.0
sg4
F3.0
sg5
F0.0
sg6
F4.0
sb(dp1396
I00
F36.5
sI01
I-74
ss(i__main__
State
p1397
(dp1398
g3
F5.0
sg4
F9.0
sg5
F-5.0
sg6
F8.0
sb(dp1399
I00
F11.0
sI01
F0.0
ss(i__main__
State
p1400
(dp1401
g3
F-5.0
sg4
F9.0
sg5
F5.0
sg6
F4.0
sb(dp1402
I00
F30.0
sI01
F0.0
ss(i__main__
State
p1403
(dp1404
g3
F-6.0
sg4
F6.0
sg5
F6.0
sg6
F8.0
sb(dp1405
I00
F63.5
sI01
I17
ss(i__main__
State
p1406
(dp1407
g3
F-4.0
sg4
F3.0
sg5
F4.0
sg6
F8.0
sb(dp1408
I00
F31.3
sI01
I-18
ss(i__main__
State
p1409
(dp1410
g3
F-3.0
sg4
F8.0
sg5
F3.0
sg6
F-6.0
sb(dp1411
I00
F10.0
sI01
F11.0
ss(i__main__
State
p1412
(dp1413
g3
F8.0
sg4
F5.0
sg5
F-8.0
sg6
F0.0
sb(dp1414
I00
I-68
sI01
F18.8
ss(i__main__
State
p1415
(dp1416
g3
F3.0
sg4
F8.0
sg5
F-3.0
sg6
F2.0
sb(dp1417
I00
F10.0
sI01
F0.0
ss(i__main__
State
p1418
(dp1419
g3
F8.0
sg4
F4.0
sg5
F-8.0
sg6
F8.0
sb(dp1420
I00
F-24.84
sI01
I-67
ss(i__main__
State
p1421
(dp1422
g3
F-4.0
sg4
F5.0
sg5
F4.0
sg6
F8.0
sb(dp1423
I00
F41.8
sI01
I-40
ss(i__main__
State
p1424
(dp1425
g3
F2.0
sg4
F10.0
sg5
F-2.0
sg6
F0.0
sb(dp1426
I00
F29.9
sI01
F0.0
ss(i__main__
State
p1427
(dp1428
g3
F-1.0
sg4
F9.0
sg5
F1.0
sg6
F4.0
sb(dp1429
I00
F10.0
sI01
F0.0
ss(i__main__
State
p1430
(dp1431
g3
F-6.0
sg4
F6.0
sg5
F6.0
sg6
F-2.0
sb(dp1432
I00
I-34
sI01
F-20.7
ss(i__main__
State
p1433
(dp1434
g3
F2.0
sg4
F8.0
sg5
F-2.0
sg6
F-6.0
sb(dp1435
I00
F20.0
sI01
F0.0
ss.