(dp0
(i__main__
State
p1
(dp2
S'y1'
p3
F8.0
sS'x'
p4
F3.0
sS'y3'
p5
F-3.0
sS'y2'
p6
F-6.0
sb(dp7
I00
F9275.938249420808
sI01
F1961.759409446872
ss(i__main__
State
p8
(dp9
g3
F4.0
sg4
F7.0
sg5
F-7.0
sg6
F7.0
sb(dp10
I00
F8731.434788287606
sI01
F10135.568762164214
ss(i__main__
State
p11
(dp12
g3
F-7.0
sg4
F5.0
sg5
F-1.0
sg6
F-4.0
sb(dp13
I00
F1061.7660614525173
sI01
F4525.94623571898
ss(i__main__
State
p14
(dp15
g3
F-5.0
sg4
F2.0
sg5
F1.0
sg6
F-2.0
sb(dp16
I00
F9893.55046026046
sI01
F6756.446210472868
ss(i__main__
State
p17
(dp18
g3
F7.0
sg4
F6.0
sg5
F-4.0
sg6
F-7.0
sb(dp19
I00
F9436.77907023287
sI01
F4395.576370361078
ss(i__main__
State
p20
(dp21
g3
F0.0
sg4
F7.0
sg5
F6.0
sg6
F3.0
sb(dp22
I00
F9967.831561445051
sI01
F10449.049467935247
ss(i__main__
State
p23
(dp24
g3
F-1.0
sg4
F3.0
sg5
F5.0
sg6
F2.0
sb(dp25
I00
F4507.619593071877
sI01
F8552.08634343506
ss(i__main__
State
p26
(dp27
g3
F1.0
sg4
F4.0
sg5
F7.0
sg6
F4.0
sb(dp28
I00
F6718.197956296413
sI01
F9420.725892090459
ss(i__main__
State
p29
(dp30
g3
F-1.0
sg4
F7.0
sg5
F5.0
sg6
F2.0
sb(dp31
I00
F10068.189947542283
sI01
F-2383.274818886868
ss(i__main__
State
p32
(dp33
g3
F-1.0
sg4
F5.0
sg5
F5.0
sg6
F2.0
sb(dp34
I00
F10251.228060293222
sI01
F9611.147000695699
ss(i__main__
State
p35
(dp36
g3
F-6.0
sg4
F5.0
sg5
F0.0
sg6
F-3.0
sb(dp37
I00
F1687.7028337142135
sI01
F1948.7839861082612
ss(i__main__
State
p38
(dp39
g3
F-2.0
sg4
F8.0
sg5
F4.0
sg6
F1.0
sb(dp40
I00
F3512.878733950418
sI01
F7549.339904718893
ss(i__main__
State
p41
(dp42
g3
F6.0
sg4
F0.0
sg5
F-5.0
sg6
F-8.0
sb(dp43
I00
F9609.074875037571
sI01
F8399.456395393405
ss(i__main__
State
p44
(dp45
g3
F6.0
sg4
F4.0
sg5
F-5.0
sg6
F-8.0
sb(dp46
I00
F2594.5418347289733
sI01
F9333.468600312202
ss(i__main__
State
p47
(dp48
g3
F-4.0
sg4
F7.0
sg5
F2.0
sg6
F-1.0
sb(dp49
I00
F3574.720584427638
sI01
F-5272.599812990535
ss(i__main__
State
p50
(dp51
g3
F-3.0
sg4
F2.0
sg5
F3.0
sg6
F0.0
sb(dp52
I00
F7557.198915716797
sI01
F10080.119888744617
ss(i__main__
State
p53
(dp54
g3
F5.0
sg4
F0.0
sg5
F-6.0
sg6
F8.0
sb(dp55
I00
F9375.163226512916
sI01
F7672.649814910718
ss(i__main__
State
p56
(dp57
g3
F3.0
sg4
F2.0
sg5
F-8.0
sg6
F6.0
sb(dp58
I00
F2925.696462409313
sI01
F7984.776082371792
ss(i__main__
State
p59
(dp60
g3
F3.0
sg4
F3.0
sg5
F-8.0
sg6
F6.0
sb(dp61
I00
F8492.302578424584
sI01
F9443.155166726296
ss(i__main__
State
p62
(dp63
g3
F2.0
sg4
F0.0
sg5
F8.0
sg6
F5.0
sb(dp64
I00
F8452.968708001192
sI01
F2216.35243706587
ss(i__main__
State
p65
(dp66
g3
F4.0
sg4
F4.0
sg5
F-7.0
sg6
F7.0
sb(dp67
I00
F9542.825985930174
sI01
F8727.228604916645
ss(i__main__
State
p68
(dp69
g3
F-2.0
sg4
F2.0
sg5
F4.0
sg6
F1.0
sb(dp70
I00
F8127.822974908555
sI01
F4997.671016295001
ss(i__main__
State
p71
(dp72
g3
F-4.0
sg4
F2.0
sg5
F2.0
sg6
F-1.0
sb(dp73
I00
F9860.599781116643
sI01
F10096.96440964063
ss(i__main__
State
p74
(dp75
g3
F-6.0
sg4
F3.0
sg5
F0.0
sg6
F-3.0
sb(dp76
I00
F9105.743974928388
sI01
F10094.17189858876
ss(i__main__
State
p77
(dp78
g3
F2.0
sg4
F8.0
sg5
F8.0
sg6
F5.0
sb(dp79
I00
F10482.385494284381
sI01
F8589.452191788692
ss(i__main__
State
p80
(dp81
g3
F6.0
sg4
F1.0
sg5
F-5.0
sg6
F-8.0
sb(dp82
I00
F6572.7027917409305
sI01
F8889.555776904812
ss(i__main__
State
p83
(dp84
g3
F5.0
sg4
F6.0
sg5
F-6.0
sg6
F8.0
sb(dp85
I00
F7764.627253005382
sI01
F5173.370365165427
ss(i__main__
State
p86
(dp87
g3
F8.0
sg4
F1.0
sg5
F-3.0
sg6
F-6.0
sb(dp88
I00
F8690.517005676102
sI01
F9837.269880847982
ss(i__main__
State
p89
(dp90
g3
F-5.0
sg4
F5.0
sg5
F1.0
sg6
F-2.0
sb(dp91
I00
F8069.808975778994
sI01
F786.3858104845174
ss(i__main__
State
p92
(dp93
g3
F-5.0
sg4
F8.0
sg5
F1.0
sg6
F-2.0
sb(dp94
I00
F8419.243397077153
sI01
F7145.464449045828
ss(i__main__
State
p95
(dp96
g3
F0.0
sg4
F1.0
sg5
F6.0
sg6
F3.0
sb(dp97
I00
F6052.209521997255
sI01
F8702.161973564273
ss(i__main__
State
p98
(dp99
g3
F5.0
sg4
F8.0
sg5
F-6.0
sg6
F8.0
sb(dp100
I00
F10329.914111979648
sI01
F9424.962424569225
ss(i__main__
State
p101
(dp102
g3
F3.0
sg4
F6.0
sg5
F-8.0
sg6
F6.0
sb(dp103
I00
F9287.210978055766
sI01
F6084.348217601821
ss(i__main__
State
p104
(dp105
g3
F3.0
sg4
F1.0
sg5
F-8.0
sg6
F6.0
sb(dp106
I00
F2165.782747362731
sI01
F3312.9371715190496
ss(i__main__
State
p107
(dp108
g3
F8.0
sg4
F4.0
sg5
F-3.0
sg6
F-6.0
sb(dp109
I00
F808.9731430263895
sI01
F4870.724206873697
ss(i__main__
State
p110
(dp111
g3
F6.0
sg4
F3.0
sg5
F-5.0
sg6
F-8.0
sb(dp112
I00
F1058.0607133523517
sI01
F1890.0906024149494
ss(i__main__
State
p113
(dp114
g3
F8.0
sg4
F8.0
sg5
F-3.0
sg6
F-6.0
sb(dp115
I00
F10181.227798334228
sI01
F9609.602976366654
ss(i__main__
State
p116
(dp117
g3
F7.0
sg4
F8.0
sg5
F-4.0
sg6
F-7.0
sb(dp118
I00
F10229.40872511984
sI01
F9488.06509802491
ss(i__main__
State
p119
(dp120
g3
F-7.0
sg4
F8.0
sg5
F-1.0
sg6
F-4.0
sb(dp121
I00
F-2046.2879397599743
sI01
F10090.929363084228
ss(i__main__
State
p122
(dp123
g3
F-6.0
sg4
F8.0
sg5
F0.0
sg6
F-3.0
sb(dp124
I00
F-1840.342494713683
sI01
F-2388.451714460279
ss(i__main__
State
p125
(dp126
g3
F4.0
sg4
F1.0
sg5
F-7.0
sg6
F7.0
sb(dp127
I00
F3571.022608678485
sI01
F6733.038833397125
ss(i__main__
State
p128
(dp129
g3
F-5.0
sg4
F3.0
sg5
F1.0
sg6
F-2.0
sb(dp130
I00
F5474.688629137947
sI01
F9518.498233603998
ss(i__main__
State
p131
(dp132
g3
F6.0
sg4
F6.0
sg5
F-5.0
sg6
F-8.0
sb(dp133
I00
F6861.260626228082
sI01
F8663.153983720222
ss(i__main__
State
p134
(dp135
g3
F-8.0
sg4
F6.0
sg5
F-2.0
sg6
F-5.0
sb(dp136
I00
F4849.119233751922
sI01
F7562.137312240537
ss(i__main__
State
p137
(dp138
g3
F6.0
sg4
F7.0
sg5
F-5.0
sg6
F-8.0
sb(dp139
I00
F3217.5463693210163
sI01
F9348.125385282958
ss(i__main__
State
p140
(dp141
g3
F1.0
sg4
F3.0
sg5
F7.0
sg6
F4.0
sb(dp142
I00
F7323.723055036929
sI01
F7853.817236571418
ss(i__main__
State
p143
(dp144
g3
F1.0
sg4
F1.0
sg5
F7.0
sg6
F4.0
sb(dp145
I00
F3374.673668404738
sI01
F8284.73069167209
ss(i__main__
State
p146
(dp147
g3
F2.0
sg4
F5.0
sg5
F8.0
sg6
F5.0
sb(dp148
I00
F9668.983734554615
sI01
F8429.382164039276
ss(i__main__
State
p149
(dp150
g3
F0.0
sg4
F2.0
sg5
F6.0
sg6
F3.0
sb(dp151
I00
F9055.024647774819
sI01
F7232.686612406846
ss(i__main__
State
p152
(dp153
g3
F1.0
sg4
F5.0
sg5
F7.0
sg6
F4.0
sb(dp154
I00
F9436.146268028184
sI01
F8148.633874580162
ss(i__main__
State
p155
(dp156
g3
F2.0
sg4
F6.0
sg5
F8.0
sg6
F5.0
sb(dp157
I00
F7265.032923841439
sI01
F9713.15036039704
ss(i__main__
State
p158
(dp159
g3
F-1.0
sg4
F1.0
sg5
F5.0
sg6
F2.0
sb(dp160
I00
F7852.893969606227
sI01
F8909.120955928785
ss(i__main__
State
p161
(dp162
g3
F2.0
sg4
F7.0
sg5
F8.0
sg6
F5.0
sb(dp163
I00
F9626.139403534116
sI01
F10410.509164943478
ss(i__main__
State
p164
(dp165
g3
F-7.0
sg4
F1.0
sg5
F-1.0
sg6
F-4.0
sb(dp166
I00
F8775.023046722024
sI01
F5293.58167464809
ss(i__main__
State
p167
(dp168
g3
F-5.0
sg4
F6.0
sg5
F1.0
sg6
F-2.0
sb(dp169
I00
F2738.9522133710057
sI01
F1000.5054531435846
ss(i__main__
State
p170
(dp171
g3
F-6.0
sg4
F7.0
sg5
F0.0
sg6
F-3.0
sb(dp172
I00
F6051.592394619464
sI01
F8193.774254427395
ss(i__main__
State
p173
(dp174
g3
F3.0
sg4
F4.0
sg5
F-8.0
sg6
F6.0
sb(dp175
I00
F9108.317589804656
sI01
F6503.595421033091
ss(i__main__
State
p176
(dp177
g3
F7.0
sg4
F4.0
sg5
F-4.0
sg6
F-7.0
sb(dp178
I00
F3460.6263242797286
sI01
F2568.5943810100225
ss(i__main__
State
p179
(dp180
g3
F8.0
sg4
F2.0
sg5
F-3.0
sg6
F-6.0
sb(dp181
I00
F9360.496845071035
sI01
F9712.644111538542
ss(i__main__
State
p182
(dp183
g3
F1.0
sg4
F7.0
sg5
F7.0
sg6
F4.0
sb(dp184
I00
F9181.476375574297
sI01
F10344.097365638017
ss(i__main__
State
p185
(dp186
g3
F-1.0
sg4
F4.0
sg5
F5.0
sg6
F2.0
sb(dp187
I00
F8770.489905474466
sI01
F10258.429326235148
ss(i__main__
State
p188
(dp189
g3
F-3.0
sg4
F0.0
sg5
F3.0
sg6
F0.0
sb(dp190
I00
F6216.387335618063
sI01
F8538.806485969119
ss(i__main__
State
p191
(dp192
g3
F-8.0
sg4
F4.0
sg5
F-2.0
sg6
F-5.0
sb(dp193
I00
F1831.9485392980444
sI01
F3083.5802862483165
ss(i__main__
State
p194
(dp195
g3
F1.0
sg4
F2.0
sg5
F7.0
sg6
F4.0
sb(dp196
I00
F8369.41061135196
sI01
F9191.838970600544
ss(i__main__
State
p197
(dp198
g3
F5.0
sg4
F4.0
sg5
F-6.0
sg6
F8.0
sb(dp199
I00
F8634.806661628543
sI01
F9632.857439934154
ss(i__main__
State
p200
(dp201
g3
F-2.0
sg4
F5.0
sg5
F4.0
sg6
F1.0
sb(dp202
I00
F8691.354814126726
sI01
F10070.328853757763
ss(i__main__
State
p203
(dp204
g3
F-8.0
sg4
F2.0
sg5
F-2.0
sg6
F-5.0
sb(dp205
I00
F9237.897785683326
sI01
F9943.342392351478
ss(i__main__
State
p206
(dp207
g3
F-5.0
sg4
F0.0
sg5
F1.0
sg6
F-2.0
sb(dp208
I00
F6218.48109478174
sI01
F9797.158289028712
ss(i__main__
State
p209
(dp210
g3
F1.0
sg4
F8.0
sg5
F7.0
sg6
F4.0
sb(dp211
I00
F10513.260447760731
sI01
F8125.187844435923
ss(i__main__
State
p212
(dp213
g3
F0.0
sg4
F5.0
sg5
F6.0
sg6
F3.0
sb(dp214
I00
F9212.750740695867
sI01
F10327.713852015646
ss(i__main__
State
p215
(dp216
g3
F-4.0
sg4
F3.0
sg5
F2.0
sg6
F-1.0
sb(dp217
I00
F8776.803048687365
sI01
F4057.985344160955
ss(i__main__
State
p218
(dp219
g3
F-8.0
sg4
F5.0
sg5
F-2.0
sg6
F-5.0
sb(dp220
I00
F1590.465116992745
sI01
F6042.540071588278
ss(i__main__
State
p221
(dp222
g3
F-3.0
sg4
F6.0
sg5
F3.0
sg6
F0.0
sb(dp223
I00
F8110.302110937015
sI01
F9067.089411264998
ss(i__main__
State
p224
(dp225
g3
F7.0
sg4
F3.0
sg5
F-4.0
sg6
F-7.0
sb(dp226
I00
F8354.915400309324
sI01
F2863.487251573711
ss(i__main__
State
p227
(dp228
g3
F5.0
sg4
F5.0
sg5
F-6.0
sg6
F8.0
sb(dp229
I00
F9362.118802681165
sI01
F6527.549422858185
ss(i__main__
State
p230
(dp231
g3
F-5.0
sg4
F7.0
sg5
F1.0
sg6
F-2.0
sb(dp232
I00
F2324.177951183344
sI01
F7279.927858793052
ss(i__main__
State
p233
(dp234
g3
F-4.0
sg4
F4.0
sg5
F2.0
sg6
F-1.0
sb(dp235
I00
F7657.73852689128
sI01
F10035.295607173677
ss(i__main__
State
p236
(dp237
g3
F3.0
sg4
F7.0
sg5
F-8.0
sg6
F6.0
sb(dp238
I00
F9976.733608868117
sI01
F9320.695743546945
ss(i__main__
State
p239
(dp240
g3
F7.0
sg4
F0.0
sg5
F-4.0
sg6
F-7.0
sb(dp241
I00
F9089.519200631777
sI01
F9737.445115267592
ss(i__main__
State
p242
(dp243
g3
F-6.0
sg4
F6.0
sg5
F0.0
sg6
F-3.0
sb(dp244
I00
F1348.2953264152277
sI01
F5880.544748466764
ss(i__main__
State
p245
(dp246
g3
F-6.0
sg4
F0.0
sg5
F0.0
sg6
F-3.0
sb(dp247
I00
F9625.31070982266
sI01
F10022.16168113014
ss(i__main__
State
p248
(dp249
g3
F-8.0
sg4
F0.0
sg5
F-2.0
sg6
F-5.0
sb(dp250
I00
F9812.92127941344
sI01
F7958.885265893274
ss(i__main__
State
p251
(dp252
g3
F6.0
sg4
F8.0
sg5
F-5.0
sg6
F-8.0
sb(dp253
I00
F10281.275756675128
sI01
F9536.562837934689
ss(i__main__
State
p254
(dp255
g3
F-3.0
sg4
F3.0
sg5
F3.0
sg6
F0.0
sb(dp256
I00
F9915.11465620844
sI01
F10132.778405314197
ss(i__main__
State
p257
(dp258
g3
F0.0
sg4
F0.0
sg5
F6.0
sg6
F3.0
sb(dp259
I00
F1471.9859431537946
sI01
F7384.766807806795
ss(i__main__
State
p260
(dp261
g3
F5.0
sg4
F2.0
sg5
F-6.0
sg6
F8.0
sb(dp262
I00
F8268.140422875329
sI01
F1121.85143400912
ss(i__main__
State
p263
(dp264
g3
F-8.0
sg4
F3.0
sg5
F-2.0
sg6
F-5.0
sb(dp265
I00
F9856.133860436505
sI01
F7549.92153307323
ss(i__main__
State
p266
(dp267
g3
F-2.0
sg4
F7.0
sg5
F4.0
sg6
F1.0
sb(dp268
I00
F9461.647504444893
sI01
F4154.224276791001
ss(i__main__
State
p269
(dp270
g3
F0.0
sg4
F6.0
sg5
F6.0
sg6
F3.0
sb(dp271
I00
F8667.68600771081
sI01
F10108.303955560395
ss(i__main__
State
p272
(dp273
g3
F-2.0
sg4
F1.0
sg5
F4.0
sg6
F1.0
sb(dp274
I00
F8749.390858639936
sI01
F7473.65025288794
ss(i__main__
State
p275
(dp276
g3
F-4.0
sg4
F8.0
sg5
F2.0
sg6
F-1.0
sb(dp277
I00
F-3600.180399492544
sI01
F8479.92935057262
ss(i__main__
State
p278
(dp279
g3
F-8.0
sg4
F1.0
sg5
F-2.0
sg6
F-5.0
sb(dp280
I00
F6302.345010442465
sI01
F9263.479009226545
ss(i__main__
State
p281
(dp282
g3
F-3.0
sg4
F1.0
sg5
F3.0
sg6
F0.0
sb(dp283
I00
F8220.981785150914
sI01
F6585.4014502773425
ss(i__main__
State
p284
(dp285
g3
F7.0
sg4
F7.0
sg5
F-4.0
sg6
F-7.0
sb(dp286
I00
F3775.2326844300633
sI01
F9389.9496908385
ss(i__main__
State
p287
(dp288
g3
F-3.0
sg4
F7.0
sg5
F3.0
sg6
F0.0
sb(dp289
I00
F4127.594489167037
sI01
F5578.328022293207
ss(i__main__
State
p290
(dp291
g3
F4.0
sg4
F5.0
sg5
F-7.0
sg6
F7.0
sb(dp292
I00
F8403.885359830661
sI01
F4241.276142750621
ss(i__main__
State
p293
(dp294
g3
F4.0
sg4
F0.0
sg5
F-7.0
sg6
F7.0
sb(dp295
I00
F8631.747829228443
sI01
F9209.731588873448
ss(i__main__
State
p296
(dp297
g3
F6.0
sg4
F5.0
sg5
F-5.0
sg6
F-8.0
sb(dp298
I00
F9741.573684076042
sI01
F8857.057216672441
ss(i__main__
State
p299
(dp300
g3
F-5.0
sg4
F4.0
sg5
F1.0
sg6
F-2.0
sb(dp301
I00
F9615.015146431344
sI01
F10158.838036260793
ss(i__main__
State
p302
(dp303
g3
F-3.0
sg4
F8.0
sg5
F3.0
sg6
F0.0
sb(dp304
I00
F-3084.7737544111533
sI01
F-6490.281968447018
ss(i__main__
State
p305
(dp306
g3
F-1.0
sg4
F0.0
sg5
F5.0
sg6
F2.0
sb(dp307
I00
F5192.0367930988705
sI01
F8089.921240244754
ss(i__main__
State
p308
(dp309
g3
F-8.0
sg4
F7.0
sg5
F-2.0
sg6
F-5.0
sb(dp310
I00
F7350.6862333352865
sI01
F10025.270221608474
ss(i__main__
State
p311
(dp312
g3
F-1.0
sg4
F2.0
sg5
F5.0
sg6
F2.0
sb(dp313
I00
F8584.633762371199
sI01
F5325.6831582023915
ss(i__main__
State
p314
(dp315
g3
F5.0
sg4
F3.0
sg5
F-6.0
sg6
F8.0
sb(dp316
I00
F861.3203665192236
sI01
F7139.350660971086
ss(i__main__
State
p317
(dp318
g3
F-1.0
sg4
F6.0
sg5
F5.0
sg6
F2.0
sb(dp319
I00
F9691.084932860664
sI01
F10379.419060920323
ss(i__main__
State
p320
(dp321
g3
F-7.0
sg4
F4.0
sg5
F-1.0
sg6
F-4.0
sb(dp322
I00
F8523.832347423418
sI01
F1349.4166654065477
ss(i__main__
State
p323
(dp324
g3
F-4.0
sg4
F1.0
sg5
F2.0
sg6
F-1.0
sb(dp325
I00
F7252.972437382054
sI01
F9940.99867497412
ss(i__main__
State
p326
(dp327
g3
F1.0
sg4
F0.0
sg5
F7.0
sg6
F4.0
sb(dp328
I00
F564.9943929663557
sI01
F3537.032190099794
ss(i__main__
State
p329
(dp330
g3
F8.0
sg4
F5.0
sg5
F-3.0
sg6
F-6.0
sb(dp331
I00
F4036.652331055345
sI01
F6919.013342490263
ss(i__main__
State
p332
(dp333
g3
F3.0
sg4
F0.0
sg5
F-8.0
sg6
F6.0
sb(dp334
I00
F8920.134726834931
sI01
F5457.517923031088
ss(i__main__
State
p335
(dp336
g3
F7.0
sg4
F1.0
sg5
F-4.0
sg6
F-7.0
sb(dp337
I00
F6837.646608689893
sI01
F9056.490183706077
ss(i__main__
State
p338
(dp339
g3
F4.0
sg4
F2.0
sg5
F-7.0
sg6
F7.0
sb(dp340
I00
F5368.9080724530395
sI01
F3134.8268522190174
ss(i__main__
State
p341
(dp342
g3
F-6.0
sg4
F4.0
sg5
F0.0
sg6
F-3.0
sb(dp343
I00
F9765.253577334104
sI01
F5747.161703783692
ss(i__main__
State
p344
(dp345
g3
F-4.0
sg4
F5.0
sg5
F2.0
sg6
F-1.0
sb(dp346
I00
F10210.208846656331
sI01
F8726.67995522533
ss(i__main__
State
p347
(dp348
g3
F-3.0
sg4
F4.0
sg5
F3.0
sg6
F0.0
sb(dp349
I00
F3488.002521493074
sI01
F8930.925672476193
ss(i__main__
State
p350
(dp351
g3
F0.0
sg4
F3.0
sg5
F6.0
sg6
F3.0
sb(dp352
I00
F6718.480175565577
sI01
F4215.5733955588
ss(i__main__
State
p353
(dp354
g3
F4.0
sg4
F3.0
sg5
F-7.0
sg6
F7.0
sb(dp355
I00
F4831.212377812144
sI01
F9135.299902845993
ss(i__main__
State
p356
(dp357
g3
F-4.0
sg4
F6.0
sg5
F2.0
sg6
F-1.0
sb(dp358
I00
F1656.3353466028611
sI01
F3845.1060181068597
ss(i__main__
State
p359
(dp360
g3
F-6.0
sg4
F2.0
sg5
F0.0
sg6
F-3.0
sb(dp361
I00
F8601.550279328914
sI01
F3804.845584704888
ss(i__main__
State
p362
(dp363
g3
F-7.0
sg4
F6.0
sg5
F-1.0
sg6
F-4.0
sb(dp364
I00
F2865.6984920566993
sI01
F7146.202755290722
ss(i__main__
State
p365
(dp366
g3
F6.0
sg4
F2.0
sg5
F-5.0
sg6
F-8.0
sb(dp367
I00
F9433.03021284632
sI01
F7636.92057171099
ss(i__main__
State
p368
(dp369
g3
F3.0
sg4
F5.0
sg5
F-8.0
sg6
F6.0
sb(dp370
I00
F7463.336849406599
sI01
F9804.849029652856
ss(i__main__
State
p371
(dp372
g3
F-8.0
sg4
F8.0
sg5
F-2.0
sg6
F-5.0
sb(dp373
I00
F10132.879915691645
sI01
F9865.119078158727
ss(i__main__
State
p374
(dp375
g3
F-2.0
sg4
F0.0
sg5
F4.0
sg6
F1.0
sb(dp376
I00
F7054.969829849717
sI01
F4289.468958350997
ss(i__main__
State
p377
(dp378
g3
F2.0
sg4
F2.0
sg5
F8.0
sg6
F5.0
sb(dp379
I00
F5897.384777601774
sI01
F8995.801318756572
ss(i__main__
State
p380
(dp381
g3
F5.0
sg4
F1.0
sg5
F-6.0
sg6
F8.0
sb(dp382
I00
F7989.467079153068
sI01
F9322.88101225207
ss(i__main__
State
p383
(dp384
g3
F-2.0
sg4
F4.0
sg5
F4.0
sg6
F1.0
sb(dp385
I00
F9945.53604199047
sI01
F10185.908555132992
ss(i__main__
State
p386
(dp387
g3
F-7.0
sg4
F2.0
sg5
F-1.0
sg6
F-4.0
sb(dp388
I00
F6393.4089723965935
sI01
F9806.51194394919
ss(i__main__
State
p389
(dp390
g3
F2.0
sg4
F4.0
sg5
F8.0
sg6
F5.0
sb(dp391
I00
F8534.995894671943
sI01
F6445.879635443609
ss(i__main__
State
p392
(dp393
g3
F-2.0
sg4
F3.0
sg5
F4.0
sg6
F1.0
sb(dp394
I00
F7947.843523770574
sI01
F10189.638583597383
ss(i__main__
State
p395
(dp396
g3
F7.0
sg4
F5.0
sg5
F-4.0
sg6
F-7.0
sb(dp397
I00
F6383.601201402601
sI01
F9844.358106615897
ss(i__main__
State
p398
(dp399
g3
F-4.0
sg4
F0.0
sg5
F2.0
sg6
F-1.0
sb(dp400
I00
F5768.279001469311
sI01
F7621.733713859708
ss(i__main__
State
p401
(dp402
g3
F8.0
sg4
F7.0
sg5
F-3.0
sg6
F-6.0
sb(dp403
I00
F2178.6231755182116
sI01
F7403.7661909716435
ss(i__main__
State
p404
(dp405
g3
F-2.0
sg4
F6.0
sg5
F4.0
sg6
F1.0
sb(dp406
I00
F10317.149948532255
sI01
F9675.1900166425
ss(i__main__
State
p407
(dp408
g3
F-6.0
sg4
F1.0
sg5
F0.0
sg6
F-3.0
sb(dp409
I00
F7349.142414717244
sI01
F9542.843159743601
ss(i__main__
State
p410
(dp411
g3
F2.0
sg4
F1.0
sg5
F8.0
sg6
F5.0
sb(dp412
I00
F879.045099826328
sI01
F6009.612482431876
ss(i__main__
State
p413
(dp414
g3
F4.0
sg4
F8.0
sg5
F-7.0
sg6
F7.0
sb(dp415
I00
F10382.527589900801
sI01
F9249.612733185517
ss(i__main__
State
p416
(dp417
g3
F7.0
sg4
F2.0
sg5
F-4.0
sg6
F-7.0
sb(dp418
I00
F9588.490288134955
sI01
F8385.576122916264
ss(i__main__
State
p419
(dp420
g3
F2.0
sg4
F3.0
sg5
F8.0
sg6
F5.0
sb(dp421
I00
F9328.005047074725
sI01
F8005.922150962359
ss(i__main__
State
p422
(dp423
g3
F0.0
sg4
F4.0
sg5
F6.0
sg6
F3.0
sb(dp424
I00
F9171.917751469608
sI01
F7652.92539391271
ss(i__main__
State
p425
(dp426
g3
F-1.0
sg4
F8.0
sg5
F5.0
sg6
F2.0
sb(dp427
I00
F-6092.841049093373
sI01
F5897.491195238983
ss(i__main__
State
p428
(dp429
g3
F8.0
sg4
F6.0
sg5
F-3.0
sg6
F-6.0
sb(dp430
I00
F6992.459087368507
sI01
F9944.895636582502
ss(i__main__
State
p431
(dp432
g3
F5.0
sg4
F7.0
sg5
F-6.0
sg6
F8.0
sb(dp433
I00
F8309.269963732158
sI01
F10090.687202253628
ss(i__main__
State
p434
(dp435
g3
F-7.0
sg4
F7.0
sg5
F-1.0
sg6
F-4.0
sb(dp436
I00
F7894.260713964622
sI01
F-3411.1122184146293
ss(i__main__
State
p437
(dp438
g3
F-7.0
sg4
F3.0
sg5
F-1.0
sg6
F-4.0
sb(dp439
I00
F10029.951535779106
sI01
F9311.149251461473
ss(i__main__
State
p440
(dp441
g3
F-5.0
sg4
F1.0
sg5
F1.0
sg6
F-2.0
sb(dp442
I00
F9588.364685628148
sI01
F10057.593585221119
ss(i__main__
State
p443
(dp444
g3
F0.0
sg4
F8.0
sg5
F6.0
sg6
F3.0
sb(dp445
I00
F-1042.1931144610303
sI01
F-7834.033558468208
ss(i__main__
State
p446
(dp447
g3
F4.0
sg4
F6.0
sg5
F-7.0
sg6
F7.0
sb(dp448
I00
F6770.356912909581
sI01
F9946.706592814691
ss(i__main__
State
p449
(dp450
g3
F-3.0
sg4
F5.0
sg5
F3.0
sg6
F0.0
sb(dp451
I00
F9810.686437388607
sI01
F10264.880515048731
ss(i__main__
State
p452
(dp453
g3
F1.0
sg4
F6.0
sg5
F7.0
sg6
F4.0
sb(dp454
I00
F9477.35286742876
sI01
F10369.182743524074
ss(i__main__
State
p455
(dp456
g3
F8.0
sg4
F0.0
sg5
F-3.0
sg6
F-6.0
sb(dp457
I00
F9633.692240257198
sI01
F7551.575261706856
ss(i__main__
State
p458
(dp459
g3
F3.0
sg4
F8.0
sg5
F-8.0
sg6
F6.0
sb(dp460
I00
F10446.42997107061
sI01
F9139.838740998854
ss(i__main__
State
p461
(dp462
g3
F-7.0
sg4
F0.0
sg5
F-1.0
sg6
F-4.0
sb(dp463
I00
F9930.063329709517
sI01
F8881.497780187883
ss.