(dp0
(i__main__
State
p1
(dp2
S'y1'
p3
F1.0
sS'x'
p4
F7.0
sS'y3'
p5
F-1.0
sS'y2'
p6
F-6.0
sb(dp7
I00
F-58.652
sI01
F-538.492854264
ss(i__main__
State
p8
(dp9
g3
F6.0
sg4
F5.0
sg5
F-6.0
sg6
F-2.0
sb(dp10
I00
F-60.80105383279922
sI01
F37.005082510418056
ss(i__main__
State
p11
(dp12
g3
F1.0
sg4
F9.0
sg5
F-1.0
sg6
F-8.0
sb(dp13
I00
F252.8288975116194
sI01
F-480.40289623100006
ss(i__main__
State
p14
(dp15
g3
F7.0
sg4
F6.0
sg5
F-7.0
sg6
F0.0
sb(dp16
I00
F-27.159999999999997
sI01
F10.035017681519403
ss(i__main__
State
p17
(dp18
g3
F-7.0
sg4
F0.0
sg5
F7.0
sg6
F-8.0
sb(dp19
I00
F10.5
sI01
F10.628109999999996
ss(i__main__
State
p20
(dp21
g3
F2.0
sg4
F6.0
sg5
F-2.0
sg6
F4.0
sb(dp22
I00
F16.36328410967905
sI01
F-80.3
ss(i__main__
State
p23
(dp24
g3
F-1.0
sg4
F10.0
sg5
F1.0
sg6
F-8.0
sb(dp25
I00
F211.64971087253366
sI01
F48.103152243536
ss(i__main__
State
p26
(dp27
g3
F-3.0
sg4
F4.0
sg5
F3.0
sg6
F6.0
sb(dp28
I00
F60.1718841485
sI01
I-3
ss(i__main__
State
p29
(dp30
g3
F8.0
sg4
F8.0
sg5
F-8.0
sg6
F2.0
sb(dp31
I00
F61.16633559318857
sI01
F27.787822659305363
ss(i__main__
State
p32
(dp33
g3
F-8.0
sg4
F10.0
sg5
F8.0
sg6
F-6.0
sb(dp34
I00
F113.31251497529409
sI01
F13.353100000000001
ss(i__main__
State
p35
(dp36
g3
F5.0
sg4
F1.0
sg5
F-5.0
sg6
F6.0
sb(dp37
I00
F-13.855300203549675
sI01
F-62.3222928513322
ss(i__main__
State
p38
(dp39
g3
F-3.0
sg4
F0.0
sg5
F3.0
sg6
F2.0
sb(dp40
I00
F1.3420000000000023
sI01
F26.78425698792673
ss(i__main__
State
p41
(dp42
g3
F6.0
sg4
F1.0
sg5
F-6.0
sg6
F-2.0
sb(dp43
I00
F41.10984698499753
sI01
F-32.4372324274763
ss(i__main__
State
p44
(dp45
g3
F-4.0
sg4
F4.0
sg5
F4.0
sg6
F-4.0
sb(dp46
I00
I-76
sI01
F65.88660999999999
ss(i__main__
State
p47
(dp48
g3
F1.0
sg4
F0.0
sg5
F-1.0
sg6
F-6.0
sb(dp49
I00
F43.959711504033116
sI01
I19
ss(i__main__
State
p50
(dp51
g3
F0.0
sg4
F5.0
sg5
F0.0
sg6
F8.0
sb(dp52
I00
F72.51661991197346
sI01
F-14.8
ss(i__main__
State
p53
(dp54
g3
F0.0
sg4
F8.0
sg5
F0.0
sg6
F2.0
sb(dp55
I00
F-4085.871
sI01
F-4056.4266115165206
ss(i__main__
State
p56
(dp57
g3
F7.0
sg4
F10.0
sg5
F-7.0
sg6
F-6.0
sb(dp58
I00
F151.52329935052117
sI01
F58.9544233002
ss(i__main__
State
p59
(dp60
g3
F4.0
sg4
F2.0
sg5
F-4.0
sg6
F2.0
sb(dp61
I00
F20.573875126166147
sI01
I-36
ss(i__main__
State
p62
(dp63
g3
F4.0
sg4
F7.0
sg5
F-4.0
sg6
F-2.0
sb(dp64
I00
I-72
sI01
F115.3862594433244
ss(i__main__
State
p65
(dp66
g3
F-1.0
sg4
F3.0
sg5
F1.0
sg6
F-8.0
sb(dp67
I00
F56.63146350176017
sI01
F29.10472
ss(i__main__
State
p68
(dp69
g3
F1.0
sg4
F2.0
sg5
F-1.0
sg6
F2.0
sb(dp70
I00
I-49
sI01
F26.18
ss(i__main__
State
p71
(dp72
g3
F-2.0
sg4
F1.0
sg5
F2.0
sg6
F-6.0
sb(dp73
I00
F55.6031605747
sI01
F59.20909067937659
ss(i__main__
State
p74
(dp75
g3
F-3.0
sg4
F3.0
sg5
F3.0
sg6
F0.0
sb(dp76
I00
F34.20033623732685
sI01
F34.52788878227991
ss(i__main__
State
p77
(dp78
g3
F4.0
sg4
F1.0
sg5
F-4.0
sg6
F-6.0
sb(dp79
I00
F-11.179091979901303
sI01
F-72.2309802187
ss(i__main__
State
p80
(dp81
g3
F1.0
sg4
F9.0
sg5
F-1.0
sg6
F8.0
sb(dp82
I00
F266.5161877250526
sI01
F-170.9667447937883
ss(i__main__
State
p83
(dp84
g3
F-1.0
sg4
F6.0
sg5
F1.0
sg6
F8.0
sb(dp85
I00
F43.269368990010605
sI01
F-16.974865631166608
ss(i__main__
State
p86
(dp87
g3
F-5.0
sg4
F9.0
sg5
F5.0
sg6
F2.0
sb(dp88
I00
F42.60985415731426
sI01
F0.0
ss(i__main__
State
p89
(dp90
g3
F4.0
sg4
F9.0
sg5
F-4.0
sg6
F8.0
sb(dp91
I00
F13.837997499247138
sI01
F129.96372894540053
ss(i__main__
State
p92
(dp93
g3
F0.0
sg4
F9.0
sg5
F0.0
sg6
F4.0
sb(dp94
I00
F76.34312187301379
sI01
F359.29187088995644
ss(i__main__
State
p95
(dp96
g3
F-5.0
sg4
F3.0
sg5
F5.0
sg6
F4.0
sb(dp97
I00
F-49.638029775999996
sI01
F28.864584269337566
ss(i__main__
State
p98
(dp99
g3
F-5.0
sg4
F10.0
sg5
F5.0
sg6
F-2.0
sb(dp100
I00
F184.7838963463657
sI01
F56.311173640723496
ss(i__main__
State
p101
(dp102
g3
F8.0
sg4
F5.0
sg5
F-8.0
sg6
F-4.0
sb(dp103
I00
F21.392895823069036
sI01
F23.50695402436256
ss(i__main__
State
p104
(dp105
g3
F-2.0
sg4
F2.0
sg5
F2.0
sg6
F-6.0
sb(dp106
I00
F63.039076578129226
sI01
F-29.74784579043488
ss(i__main__
State
p107
(dp108
g3
F-7.0
sg4
F8.0
sg5
F7.0
sg6
F-2.0
sb(dp109
I00
F21.009999999999998
sI01
F-90.0
ss(i__main__
State
p110
(dp111
g3
F-1.0
sg4
F0.0
sg5
F1.0
sg6
F6.0
sb(dp112
I00
F44.29709778232107
sI01
F-3.1499999999999995
ss(i__main__
State
p113
(dp114
g3
F1.0
sg4
F0.0
sg5
F-1.0
sg6
F-4.0
sb(dp115
I00
F33.9209747287643
sI01
F-84.1
ss(i__main__
State
p116
(dp117
g3
F8.0
sg4
F8.0
sg5
F-8.0
sg6
F4.0
sb(dp118
I00
F334.3619545100683
sI01
F42.802241258206806
ss(i__main__
State
p119
(dp120
g3
F-8.0
sg4
F0.0
sg5
F8.0
sg6
F4.0
sb(dp121
I00
F27.136923886300004
sI01
F-88.383228
ss(i__main__
State
p122
(dp123
g3
F5.0
sg4
F10.0
sg5
F-5.0
sg6
F-4.0
sb(dp124
I00
F264.5017212928664
sI01
F27.14813717
ss(i__main__
State
p125
(dp126
g3
F6.0
sg4
F9.0
sg5
F-6.0
sg6
F6.0
sb(dp127
I00
F10.0
sI01
F0.0
ss(i__main__
State
p128
(dp129
g3
F7.0
sg4
F9.0
sg5
F-7.0
sg6
F8.0
sb(dp130
I00
F184.4476686266338
sI01
F26.941945713400003
ss(i__main__
State
p131
(dp132
g3
F0.0
sg4
F10.0
sg5
F0.0
sg6
F-6.0
sb(dp133
I00
F-2700.31754485
sI01
F-2714.4217025843
ss(i__main__
State
p134
(dp135
g3
F2.0
sg4
F7.0
sg5
F-2.0
sg6
F-2.0
sb(dp136
I00
F-37.5
sI01
F86.40265708539323
ss(i__main__
State
p137
(dp138
g3
F-4.0
sg4
F3.0
sg5
F4.0
sg6
F-6.0
sb(dp139
I00
I-35
sI01
F-10.446410439049359
ss(i__main__
State
p140
(dp141
g3
F3.0
sg4
F10.0
sg5
F-3.0
sg6
F8.0
sb(dp142
I00
F42.162915462012
sI01
F0.0
ss(i__main__
State
p143
(dp144
g3
F-8.0
sg4
F10.0
sg5
F8.0
sg6
F-4.0
sb(dp145
I00
F21.219986
sI01
F0.0
ss(i__main__
State
p146
(dp147
g3
F-7.0
sg4
F10.0
sg5
F7.0
sg6
F2.0
sb(dp148
I00
F71.12643202
sI01
F0.0
ss(i__main__
State
p149
(dp150
g3
F2.0
sg4
F7.0
sg5
F-2.0
sg6
F8.0
sb(dp151
I00
F107.22049657268587
sI01
F-32.37180256087159
ss(i__main__
State
p152
(dp153
g3
F5.0
sg4
F4.0
sg5
F-5.0
sg6
F8.0
sb(dp154
I00
F66.9351463547402
sI01
F-4.3842
ss(i__main__
State
p155
(dp156
g3
F3.0
sg4
F7.0
sg5
F-3.0
sg6
F-2.0
sb(dp157
I00
F41.513097054558045
sI01
F222.2688759795495
ss(i__main__
State
p158
(dp159
g3
F5.0
sg4
F5.0
sg5
F-5.0
sg6
F8.0
sb(dp160
I00
F-35.308
sI01
F0.5401992434012675
ss(i__main__
State
p161
(dp162
g3
F4.0
sg4
F9.0
sg5
F-4.0
sg6
F6.0
sb(dp163
I00
F120.89277604951853
sI01
F21.921
ss(i__main__
State
p164
(dp165
g3
F-7.0
sg4
F6.0
sg5
F7.0
sg6
F0.0
sb(dp166
I00
F-35.48133645100965
sI01
F69.94273744561322
ss(i__main__
State
p167
(dp168
g3
F4.0
sg4
F7.0
sg5
F-4.0
sg6
F6.0
sb(dp169
I00
F60.6408545461062
sI01
F30.53803025234597
ss(i__main__
State
p170
(dp171
g3
F7.0
sg4
F5.0
sg5
F-7.0
sg6
F0.0
sb(dp172
I00
F-26.5
sI01
F67.6205574648107
ss(i__main__
State
p173
(dp174
g3
F6.0
sg4
F0.0
sg5
F-6.0
sg6
F-8.0
sb(dp175
I00
F65.98692702999999
sI01
F-1.5575336599199998
ss(i__main__
State
p176
(dp177
g3
F2.0
sg4
F9.0
sg5
F-2.0
sg6
F8.0
sb(dp178
I00
F218.52004083690952
sI01
F58.31901015702389
ss(i__main__
State
p179
(dp180
g3
F5.0
sg4
F6.0
sg5
F-5.0
sg6
F2.0
sb(dp181
I00
F-49.40242567791496
sI01
F6.574967891951433
ss(i__main__
State
p182
(dp183
g3
F0.0
sg4
F0.0
sg5
F0.0
sg6
F8.0
sb(dp184
I00
F52.8454822850024
sI01
F-82.97541433629999
ss(i__main__
State
p185
(dp186
g3
F-4.0
sg4
F4.0
sg5
F4.0
sg6
F-6.0
sb(dp187
I00
F32.57128226320196
sI01
F-0.5
ss(i__main__
State
p188
(dp189
g3
F0.0
sg4
F6.0
sg5
F0.0
sg6
F-2.0
sb(dp190
I00
F-50.588270972000004
sI01
I-100
ss(i__main__
State
p191
(dp192
g3
F-7.0
sg4
F7.0
sg5
F7.0
sg6
F8.0
sb(dp193
I00
F2.8724700713829057
sI01
F95.69496973869806
ss(i__main__
State
p194
(dp195
g3
F7.0
sg4
F10.0
sg5
F-7.0
sg6
F0.0
sb(dp196
I00
F156.3314922697153
sI01
F46.314108430000005
ss(i__main__
State
p197
(dp198
g3
F6.0
sg4
F7.0
sg5
F-6.0
sg6
F6.0
sb(dp199
I00
F191.5087747223143
sI01
F-7.109659903058626
ss(i__main__
State
p200
(dp201
g3
F-2.0
sg4
F9.0
sg5
F2.0
sg6
F0.0
sb(dp202
I00
F-4085.51233686413
sI01
F-4654.678894538402
ss(i__main__
State
p203
(dp204
g3
F1.0
sg4
F10.0
sg5
F-1.0
sg6
F8.0
sb(dp205
I00
F-326.40036693424804
sI01
F69.5483524492129
ss(i__main__
State
p206
(dp207
g3
F3.0
sg4
F2.0
sg5
F-3.0
sg6
F6.0
sb(dp208
I00
F35.386987190000006
sI01
I-84
ss(i__main__
State
p209
(dp210
g3
F2.0
sg4
F8.0
sg5
F-2.0
sg6
F4.0
sb(dp211
I00
F401.6017536852139
sI01
F77.6792303330599
ss(i__main__
State
p212
(dp213
g3
F-2.0
sg4
F5.0
sg5
F2.0
sg6
F-4.0
sb(dp214
I00
F61.020076
sI01
F88.09719337553746
ss(i__main__
State
p215
(dp216
g3
F2.0
sg4
F4.0
sg5
F-2.0
sg6
F-6.0
sb(dp217
I00
F-38.72155675368875
sI01
F36.03232022604626
ss(i__main__
State
p218
(dp219
g3
F-2.0
sg4
F0.0
sg5
F2.0
sg6
F-6.0
sb(dp220
I00
F20.91830300219718
sI01
F67.8681762113503
ss(i__main__
State
p221
(dp222
g3
F-6.0
sg4
F3.0
sg5
F6.0
sg6
F-8.0
sb(dp223
I00
F-40.94822084130668
sI01
I-92
ss(i__main__
State
p224
(dp225
g3
F6.0
sg4
F6.0
sg5
F-6.0
sg6
F6.0
sb(dp226
I00
F66.14487245458555
sI01
F-25.12390373836159
ss(i__main__
State
p227
(dp228
g3
F2.0
sg4
F2.0
sg5
F-2.0
sg6
F4.0
sb(dp229
I00
F24.392830334538317
sI01
F1.44
ss(i__main__
State
p230
(dp231
g3
F-3.0
sg4
F5.0
sg5
F3.0
sg6
F-4.0
sb(dp232
I00
I-41
sI01
F19.58442
ss(i__main__
State
p233
(dp234
g3
F-3.0
sg4
F5.0
sg5
F3.0
sg6
F2.0
sb(dp235
I00
F36.5634183565689
sI01
F33.805576959603
ss(i__main__
State
p236
(dp237
g3
F8.0
sg4
F4.0
sg5
F-8.0
sg6
F-6.0
sb(dp238
I00
I63
sI01
F92.11240764806998
ss(i__main__
State
p239
(dp240
g3
F8.0
sg4
F2.0
sg5
F-8.0
sg6
F-4.0
sb(dp241
I00
F29.3689396255299
sI01
F-85.72
ss(i__main__
State
p242
(dp243
g3
F4.0
sg4
F7.0
sg5
F-4.0
sg6
F8.0
sb(dp244
I00
F22.699351052636835
sI01
F137.6312599167172
ss(i__main__
State
p245
(dp246
g3
F1.0
sg4
F3.0
sg5
F-1.0
sg6
F8.0
sb(dp247
I00
F-31.0231
sI01
F20.532219156165564
ss(i__main__
State
p248
(dp249
g3
F-8.0
sg4
F5.0
sg5
F8.0
sg6
F6.0
sb(dp250
I00
I10
sI01
F25.942064079539303
ss(i__main__
State
p251
(dp252
g3
F5.0
sg4
F0.0
sg5
F-5.0
sg6
F-8.0
sb(dp253
I00
F33.98776602497749
sI01
F1.4071062766926161
ss(i__main__
State
p254
(dp255
g3
F-8.0
sg4
F0.0
sg5
F8.0
sg6
F2.0
sb(dp256
I00
F8.093553465033523
sI01
F84.3506113918
ss(i__main__
State
p257
(dp258
g3
F5.0
sg4
F7.0
sg5
F-5.0
sg6
F2.0
sb(dp259
I00
F43.47778642509769
sI01
F-36.82087565106049
ss(i__main__
State
p260
(dp261
g3
F0.0
sg4
F5.0
sg5
F0.0
sg6
F-2.0
sb(dp262
I00
F44.70790004803714
sI01
F37.92064682572984
ss(i__main__
State
p263
(dp264
g3
F2.0
sg4
F1.0
sg5
F-2.0
sg6
F-8.0
sb(dp265
I00
I-49
sI01
F-26.0096954
ss(i__main__
State
p266
(dp267
g3
F-8.0
sg4
F4.0
sg5
F8.0
sg6
F-6.0
sb(dp268
I00
F30.872351842776503
sI01
F31.55713292842271
ss(i__main__
State
p269
(dp270
g3
F3.0
sg4
F0.0
sg5
F-3.0
sg6
F6.0
sb(dp271
I00
F-10.595782585893598
sI01
F-47.1524767619077
ss(i__main__
State
p272
(dp273
g3
F6.0
sg4
F1.0
sg5
F-6.0
sg6
F8.0
sb(dp274
I00
F-32.52
sI01
I-78
ss(i__main__
State
p275
(dp276
g3
F-1.0
sg4
F7.0
sg5
F1.0
sg6
F2.0
sb(dp277
I00
F49.21773475380109
sI01
F-10.471906764105363
ss(i__main__
State
p278
(dp279
g3
F-2.0
sg4
F4.0
sg5
F2.0
sg6
F8.0
sb(dp280
I00
I25
sI01
F70.02221581668022
ss(i__main__
State
p281
(dp282
g3
F3.0
sg4
F1.0
sg5
F-3.0
sg6
F-8.0
sb(dp283
I00
F-78.9
sI01
F-42.21737559232221
ss(i__main__
State
p284
(dp285
g3
F-6.0
sg4
F7.0
sg5
F6.0
sg6
F4.0
sb(dp286
I00
F-12.47898
sI01
F145.80794277330338
ss(i__main__
State
p287
(dp288
g3
F8.0
sg4
F1.0
sg5
F-8.0
sg6
F0.0
sb(dp289
I00
F9.408486690202324
sI01
I-37
ss(i__main__
State
p290
(dp291
g3
F-5.0
sg4
F8.0
sg5
F5.0
sg6
F2.0
sb(dp292
I00
F212.16950227825444
sI01
F29.64162289889709
ss(i__main__
State
p293
(dp294
g3
F-4.0
sg4
F3.0
sg5
F4.0
sg6
F2.0
sb(dp295
I00
F-10.138509535562996
sI01
F27.521855683958123
ss(i__main__
State
p296
(dp297
g3
F5.0
sg4
F8.0
sg5
F-5.0
sg6
F-4.0
sb(dp298
I00
F52.99055978660494
sI01
F0.0
ss(i__main__
State
p299
(dp300
g3
F6.0
sg4
F1.0
sg5
F-6.0
sg6
F-6.0
sb(dp301
I00
F-18.2765432
sI01
I-59
ss(i__main__
State
p302
(dp303
g3
F3.0
sg4
F3.0
sg5
F-3.0
sg6
F8.0
sb(dp304
I00
F33.70851430369888
sI01
I-88
ss(i__main__
State
p305
(dp306
g3
F0.0
sg4
F4.0
sg5
F0.0
sg6
F-6.0
sb(dp307
I00
I-88
sI01
F38.69596778484746
ss(i__main__
State
p308
(dp309
g3
F-3.0
sg4
F2.0
sg5
F3.0
sg6
F-8.0
sb(dp310
I00
F66.72299746639727
sI01
F42.9
ss(i__main__
State
p311
(dp312
g3
F-7.0
sg4
F10.0
sg5
F7.0
sg6
F-2.0
sb(dp313
I00
F78.67069119371911
sI01
F13.803720912429
ss(i__main__
State
p314
(dp315
g3
F1.0
sg4
F8.0
sg5
F-1.0
sg6
F4.0
sb(dp316
I00
F-625.4074870564286
sI01
F233.1392651273479
ss(i__main__
State
p317
(dp318
g3
F8.0
sg4
F2.0
sg5
F-8.0
sg6
F4.0
sb(dp319
I00
F67.105046
sI01
F19.693099999999998
ss(i__main__
State
p320
(dp321
g3
F-2.0
sg4
F10.0
sg5
F2.0
sg6
F4.0
sb(dp322
I00
F220.92179063822763
sI01
F35.47434141045759
ss(i__main__
State
p323
(dp324
g3
F-2.0
sg4
F6.0
sg5
F2.0
sg6
F-6.0
sb(dp325
I00
F-3.313
sI01
F19.79498319152014
ss(i__main__
State
p326
(dp327
g3
F-1.0
sg4
F0.0
sg5
F1.0
sg6
F-8.0
sb(dp328
I00
F37.938722507
sI01
F58.292255307562904
ss(i__main__
State
p329
(dp330
g3
F1.0
sg4
F1.0
sg5
F-1.0
sg6
F4.0
sb(dp331
I00
F17.46236708651732
sI01
F-41.520544040000004
ss(i__main__
State
p332
(dp333
g3
F1.0
sg4
F5.0
sg5
F-1.0
sg6
F-2.0
sb(dp334
I00
F-42.4511
sI01
F11.777831290480004
ss(i__main__
State
p335
(dp336
g3
F4.0
sg4
F4.0
sg5
F-4.0
sg6
F8.0
sb(dp337
I00
F4.6720038608205305
sI01
F27.939139996910942
ss(i__main__
State
p338
(dp339
g3
F5.0
sg4
F5.0
sg5
F-5.0
sg6
F2.0
sb(dp340
I00
F55.773244323939984
sI01
F21.977397034812252
ss(i__main__
State
p341
(dp342
g3
F-5.0
sg4
F3.0
sg5
F5.0
sg6
F-6.0
sb(dp343
I00
F11.974973580292993
sI01
F14.57526485050136
ss(i__main__
State
p344
(dp345
g3
F-8.0
sg4
F5.0
sg5
F8.0
sg6
F8.0
sb(dp346
I00
F-6.624923102635266
sI01
F42.12497050421312
ss(i__main__
State
p347
(dp348
g3
F-3.0
sg4
F2.0
sg5
F3.0
sg6
F-4.0
sb(dp349
I00
F-5.40915254963
sI01
F68.01148740768977
ss(i__main__
State
p350
(dp351
g3
F-5.0
sg4
F7.0
sg5
F5.0
sg6
F-2.0
sb(dp352
I00
F-28.309030871239
sI01
F110.60494716798438
ss(i__main__
State
p353
(dp354
g3
F1.0
sg4
F4.0
sg5
F-1.0
sg6
F8.0
sb(dp355
I00
F-28.109870199263984
sI01
F-76.3108189
ss(i__main__
State
p356
(dp357
g3
F-1.0
sg4
F5.0
sg5
F1.0
sg6
F2.0
sb(dp358
I00
F44.635957501
sI01
I-14
ss(i__main__
State
p359
(dp360
g3
F-5.0
sg4
F9.0
sg5
F5.0
sg6
F-4.0
sb(dp361
I00
F224.07206886891186
sI01
F127.32877511656997
ss(i__main__
State
p362
(dp363
g3
F4.0
sg4
F0.0
sg5
F-4.0
sg6
F-8.0
sb(dp364
I00
F-54.5
sI01
F54.67173034429186
ss(i__main__
State
p365
(dp366
g3
F4.0
sg4
F3.0
sg5
F-4.0
sg6
F-6.0
sb(dp367
I00
F26.020016899999998
sI01
F11.5198
ss(i__main__
State
p368
(dp369
g3
F-2.0
sg4
F6.0
sg5
F2.0
sg6
F0.0
sb(dp370
I00
F34.902494675310265
sI01
F-42.5
ss(i__main__
State
p371
(dp372
g3
F-7.0
sg4
F8.0
sg5
F7.0
sg6
F-6.0
sb(dp373
I00
F322.37416939735465
sI01
F60.136649221266666
ss(i__main__
State
p374
(dp375
g3
F-2.0
sg4
F7.0
sg5
F2.0
sg6
F0.0
sb(dp376
I00
F31.022516434698446
sI01
F107.82048537958515
ss(i__main__
State
p377
(dp378
g3
F-2.0
sg4
F10.0
sg5
F2.0
sg6
F-2.0
sb(dp379
I00
F0.0
sI01
F67.027488392091
ss(i__main__
State
p380
(dp381
g3
F1.0
sg4
F8.0
sg5
F-1.0
sg6
F-8.0
sb(dp382
I00
F-90.0
sI01
F106.01459714571862
ss(i__main__
State
p383
(dp384
g3
F4.0
sg4
F8.0
sg5
F-4.0
sg6
F2.0
sb(dp385
I00
F74.62076688418745
sI01
F290.2303051260553
ss(i__main__
State
p386
(dp387
g3
F-3.0
sg4
F3.0
sg5
F3.0
sg6
F-2.0
sb(dp388
I00
F33.94082383479523
sI01
I-19
ss(i__main__
State
p389
(dp390
g3
F5.0
sg4
F7.0
sg5
F-5.0
sg6
F4.0
sb(dp391
I00
F68.60539644533621
sI01
F126.3476214433233
ss(i__main__
State
p392
(dp393
g3
F-4.0
sg4
F5.0
sg5
F4.0
sg6
F-2.0
sb(dp394
I00
F34.20804258
sI01
F-54.94772300594378
ss(i__main__
State
p395
(dp396
g3
F6.0
sg4
F9.0
sg5
F-6.0
sg6
F2.0
sb(dp397
I00
F122.7494569938489
sI01
F36.879381057949615
ss(i__main__
State
p398
(dp399
g3
F0.0
sg4
F4.0
sg5
F0.0
sg6
F0.0
sb(dp400
I00
F-52.17
sI01
F-35.954499999999996
ss(i__main__
State
p401
(dp402
g3
F-4.0
sg4
F3.0
sg5
F4.0
sg6
F-2.0
sb(dp403
I00
F-24.128415362814998
sI01
F73.16892137572665
ss(i__main__
State
p404
(dp405
g3
F3.0
sg4
F5.0
sg5
F-3.0
sg6
F-2.0
sb(dp406
I00
F-31.843622207969382
sI01
F19.292858012859746
ss(i__main__
State
p407
(dp408
g3
F-7.0
sg4
F10.0
sg5
F7.0
sg6
F6.0
sb(dp409
I00
F124.03814545197628
sI01
F29.37647908216
ss(i__main__
State
p410
(dp411
g3
F-4.0
sg4
F5.0
sg5
F4.0
sg6
F4.0
sb(dp412
I00
I-48
sI01
F-1.3506028326099804
ss(i__main__
State
p413
(dp414
g3
F-5.0
sg4
F7.0
sg5
F5.0
sg6
F0.0
sb(dp415
I00
F66.54037909670296
sI01
F-30.053430564699845
ss(i__main__
State
p416
(dp417
g3
F4.0
sg4
F5.0
sg5
F-4.0
sg6
F-6.0
sb(dp418
I00
I-54
sI01
F61.87358666538097
ss(i__main__
State
p419
(dp420
g3
F-7.0
sg4
F10.0
sg5
F7.0
sg6
F-6.0
sb(dp421
I00
F20.0
sI01
F126.450717639386
ss(i__main__
State
p422
(dp423
g3
F-6.0
sg4
F7.0
sg5
F6.0
sg6
F-2.0
sb(dp424
I00
F48.987559229230925
sI01
F-42.68187576402537
ss(i__main__
State
p425
(dp426
g3
F-6.0
sg4
F4.0
sg5
F6.0
sg6
F-8.0
sb(dp427
I00
F-65.9
sI01
F46.89161083111817
ss(i__main__
State
p428
(dp429
g3
F-1.0
sg4
F10.0
sg5
F1.0
sg6
F6.0
sb(dp430
I00
F339.3480891530351
sI01
F53.36546731968739
ss(i__main__
State
p431
(dp432
g3
F5.0
sg4
F5.0
sg5
F-5.0
sg6
F-6.0
sb(dp433
I00
I-65
sI01
F72.72947043669693
ss(i__main__
State
p434
(dp435
g3
F2.0
sg4
F1.0
sg5
F-2.0
sg6
F4.0
sb(dp436
I00
F-63.8
sI01
F4.110329509953402
ss(i__main__
State
p437
(dp438
g3
F-1.0
sg4
F3.0
sg5
F1.0
sg6
F-2.0
sb(dp439
I00
F44.92809445
sI01
F-45.4
ss(i__main__
State
p440
(dp441
g3
F-6.0
sg4
F2.0
sg5
F6.0
sg6
F-2.0
sb(dp442
I00
F-40.34
sI01
F-34.851007227979
ss(i__main__
State
p443
(dp444
g3
F-2.0
sg4
F0.0
sg5
F2.0
sg6
F0.0
sb(dp445
I00
F7.287475480000001
sI01
F13.61649500257342
ss(i__main__
State
p446
(dp447
g3
F5.0
sg4
F6.0
sg5
F-5.0
sg6
F4.0
sb(dp448
I00
F86.800597750557
sI01
F52.799084119164405
ss(i__main__
State
p449
(dp450
g3
F-1.0
sg4
F6.0
sg5
F1.0
sg6
F2.0
sb(dp451
I00
F36.9343
sI01
F81.79463114087073
ss(i__main__
State
p452
(dp453
g3
F6.0
sg4
F7.0
sg5
F-6.0
sg6
F-6.0
sb(dp454
I00
F45.66628675901
sI01
I-97
ss(i__main__
State
p455
(dp456
g3
F4.0
sg4
F2.0
sg5
F-4.0
sg6
F-2.0
sb(dp457
I00
F-12.388100002819998
sI01
I-89
ss(i__main__
State
p458
(dp459
g3
F0.0
sg4
F6.0
sg5
F0.0
sg6
F4.0
sb(dp460
I00
F-61.84402651210846
sI01
F64.0016499462136
ss(i__main__
State
p461
(dp462
g3
F0.0
sg4
F9.0
sg5
F0.0
sg6
F2.0
sb(dp463
I00
F263.52825495021153
sI01
F82.03383245631942
ss(i__main__
State
p464
(dp465
g3
F7.0
sg4
F8.0
sg5
F-7.0
sg6
F2.0
sb(dp466
I00
F97.44979286995611
sI01
F23.102285000000002
ss(i__main__
State
p467
(dp468
g3
F-5.0
sg4
F9.0
sg5
F5.0
sg6
F-6.0
sb(dp469
I00
F22.691000000000003
sI01
F0.0
ss(i__main__
State
p470
(dp471
g3
F3.0
sg4
F6.0
sg5
F-3.0
sg6
F-8.0
sb(dp472
I00
F74.39706486342665
sI01
F78.46651454541053
ss(i__main__
State
p473
(dp474
g3
F-2.0
sg4
F3.0
sg5
F2.0
sg6
F6.0
sb(dp475
I00
F-10.240170569999998
sI01
F34.82957882708028
ss(i__main__
State
p476
(dp477
g3
F3.0
sg4
F5.0
sg5
F-3.0
sg6
F4.0
sb(dp478
I00
F42.57066430400788
sI01
F-48.993927870280444
ss(i__main__
State
p479
(dp480
g3
F3.0
sg4
F0.0
sg5
F-3.0
sg6
F-8.0
sb(dp481
I00
F21.764622297534565
sI01
I-79
ss(i__main__
State
p482
(dp483
g3
F-3.0
sg4
F7.0
sg5
F3.0
sg6
F-8.0
sb(dp484
I00
I-32
sI01
F78.36396990914896
ss(i__main__
State
p485
(dp486
g3
F8.0
sg4
F1.0
sg5
F-8.0
sg6
F4.0
sb(dp487
I00
F-49.7
sI01
F70.473766009
ss(i__main__
State
p488
(dp489
g3
F-3.0
sg4
F4.0
sg5
F3.0
sg6
F-4.0
sb(dp490
I00
I-23
sI01
F14.717424258000001
ss(i__main__
State
p491
(dp492
g3
F2.0
sg4
F7.0
sg5
F-2.0
sg6
F-8.0
sb(dp493
I00
F-36.849617
sI01
F19.09151436234103
ss(i__main__
State
p494
(dp495
g3
F-7.0
sg4
F9.0
sg5
F7.0
sg6
F-2.0
sb(dp496
I00
F-230.04900000000004
sI01
F70.99903628732034
ss(i__main__
State
p497
(dp498
g3
F-4.0
sg4
F3.0
sg5
F4.0
sg6
F6.0
sb(dp499
I00
F-50.52593190472
sI01
F81.95075520380084
ss(i__main__
State
p500
(dp501
g3
F5.0
sg4
F8.0
sg5
F-5.0
sg6
F-8.0
sb(dp502
I00
F267.72437934644023
sI01
F103.39548284793379
ss(i__main__
State
p503
(dp504
g3
F2.0
sg4
F7.0
sg5
F-2.0
sg6
F2.0
sb(dp505
I00
F-52.74
sI01
I0
ss(i__main__
State
p506
(dp507
g3
F0.0
sg4
F10.0
sg5
F0.0
sg6
F0.0
sb(dp508
I00
F-6452.155155529542
sI01
F-6096.341422363242
ss(i__main__
State
p509
(dp510
g3
F6.0
sg4
F8.0
sg5
F-6.0
sg6
F0.0
sb(dp511
I00
F144.46845267861536
sI01
F60.9094236258028
ss(i__main__
State
p512
(dp513
g3
F3.0
sg4
F3.0
sg5
F-3.0
sg6
F-4.0
sb(dp514
I00
F36.75601782919363
sI01
F25.94752960422
ss(i__main__
State
p515
(dp516
g3
F5.0
sg4
F3.0
sg5
F-5.0
sg6
F0.0
sb(dp517
I00
F-51.925608458388
sI01
F3.262298762289651
ss(i__main__
State
p518
(dp519
g3
F-6.0
sg4
F5.0
sg5
F6.0
sg6
F-8.0
sb(dp520
I00
F-16.199316065072573
sI01
I-85
ss(i__main__
State
p521
(dp522
g3
F-6.0
sg4
F9.0
sg5
F6.0
sg6
F0.0
sb(dp523
I00
F-2705.1530000000002
sI01
F-2704.99358
ss(i__main__
State
p524
(dp525
g3
F3.0
sg4
F10.0
sg5
F-3.0
sg6
F-4.0
sb(dp526
I00
F31.412
sI01
F0.0
ss(i__main__
State
p527
(dp528
g3
F6.0
sg4
F4.0
sg5
F-6.0
sg6
F-2.0
sb(dp529
I00
F60.709745252800005
sI01
F61.58250328084679
ss(i__main__
State
p530
(dp531
g3
F8.0
sg4
F5.0
sg5
F-8.0
sg6
F6.0
sb(dp532
I00
F-10.195620000000005
sI01
F65.33415482138297
ss(i__main__
State
p533
(dp534
g3
F1.0
sg4
F0.0
sg5
F-1.0
sg6
F0.0
sb(dp535
I00
F52.80233512230584
sI01
F14.13202197055314
ss(i__main__
State
p536
(dp537
g3
F-2.0
sg4
F3.0
sg5
F2.0
sg6
F-4.0
sb(dp538
I00
F-41.51201123461017
sI01
F-10.74488108277
ss(i__main__
State
p539
(dp540
g3
F-2.0
sg4
F2.0
sg5
F2.0
sg6
F8.0
sb(dp541
I00
F81.12030566061865
sI01
F46.19199999999999
ss(i__main__
State
p542
(dp543
g3
F-5.0
sg4
F7.0
sg5
F5.0
sg6
F-4.0
sb(dp544
I00
F55.52138982788349
sI01
F13.92690191447183
ss(i__main__
State
p545
(dp546
g3
F0.0
sg4
F9.0
sg5
F0.0
sg6
F-8.0
sb(dp547
I00
F275.5922577274486
sI01
F55.0448070128585
ss(i__main__
State
p548
(dp549
g3
F3.0
sg4
F8.0
sg5
F-3.0
sg6
F0.0
sb(dp550
I00
F53.872548557886006
sI01
F195.41955544249467
ss(i__main__
State
p551
(dp552
g3
F8.0
sg4
F10.0
sg5
F-8.0
sg6
F-8.0
sb(dp553
I00
F141.55497040166264
sI01
F14.562828600046988
ss(i__main__
State
p554
(dp555
g3
F6.0
sg4
F0.0
sg5
F-6.0
sg6
F0.0
sb(dp556
I00
I-43
sI01
F81.96776876346134
ss(i__main__
State
p557
(dp558
g3
F-1.0
sg4
F9.0
sg5
F1.0
sg6
F-2.0
sb(dp559
I00
F-1362.671627140992
sI01
F213.7152009621851
ss(i__main__
State
p560
(dp561
g3
F-2.0
sg4
F0.0
sg5
F2.0
sg6
F-8.0
sb(dp562
I00
I-11
sI01
F39.38803829713774
ss(i__main__
State
p563
(dp564
g3
F1.0
sg4
F2.0
sg5
F-1.0
sg6
F-2.0
sb(dp565
I00
F36.499962672708065
sI01
F-19.10960219024288
ss(i__main__
State
p566
(dp567
g3
F2.0
sg4
F2.0
sg5
F-2.0
sg6
F2.0
sb(dp568
I00
F81.8
sI01
F77.0
ss(i__main__
State
p569
(dp570
g3
F-3.0
sg4
F1.0
sg5
F3.0
sg6
F-2.0
sb(dp571
I00
F63.73289791567281
sI01
I-69
ss(i__main__
State
p572
(dp573
g3
F-6.0
sg4
F8.0
sg5
F6.0
sg6
F8.0
sb(dp574
I00
F93.000007823219
sI01
F22.69859174187434
ss(i__main__
State
p575
(dp576
g3
F-8.0
sg4
F3.0
sg5
F8.0
sg6
F6.0
sb(dp577
I00
F-63.566
sI01
F6.015546650626483
ss(i__main__
State
p578
(dp579
g3
F8.0
sg4
F9.0
sg5
F-8.0
sg6
F-2.0
sb(dp580
I00
F-155.41100000000003
sI01
F153.44253828275507
ss(i__main__
State
p581
(dp582
g3
F4.0
sg4
F0.0
sg5
F-4.0
sg6
F6.0
sb(dp583
I00
F0.7966085453122238
sI01
I-67
ss(i__main__
State
p584
(dp585
g3
F2.0
sg4
F1.0
sg5
F-2.0
sg6
F-2.0
sb(dp586
I00
F15.668911475422354
sI01
F-27.656344107125285
ss(i__main__
State
p587
(dp588
g3
F-4.0
sg4
F1.0
sg5
F4.0
sg6
F8.0
sb(dp589
I00
F47.39020643892112
sI01
F-60.92040063
ss(i__main__
State
p590
(dp591
g3
F3.0
sg4
F1.0
sg5
F-3.0
sg6
F2.0
sb(dp592
I00
F-49.88993100491795
sI01
F16.19494949460011
ss(i__main__
State
p593
(dp594
g3
F4.0
sg4
F2.0
sg5
F-4.0
sg6
F8.0
sb(dp595
I00
F54.24111941071867
sI01
F51.2101753464396
ss(i__main__
State
p596
(dp597
g3
F4.0
sg4
F5.0
sg5
F-4.0
sg6
F8.0
sb(dp598
I00
F23.17341495496134
sI01
F20.247510705995463
ss(i__main__
State
p599
(dp600
g3
F6.0
sg4
F5.0
sg5
F-6.0
sg6
F4.0
sb(dp601
I00
F11.83229220363942
sI01
F47.500832308959346
ss(i__main__
State
p602
(dp603
g3
F-6.0
sg4
F8.0
sg5
F6.0
sg6
F-6.0
sb(dp604
I00
F20.0
sI01
F168.99062424865758
ss(i__main__
State
p605
(dp606
g3
F3.0
sg4
F2.0
sg5
F-3.0
sg6
F8.0
sb(dp607
I00
F73.44446710000001
sI01
F9.4900350564346
ss(i__main__
State
p608
(dp609
g3
F6.0
sg4
F0.0
sg5
F-6.0
sg6
F6.0
sb(dp610
I00
F29.02924875204466
sI01
F-21.48406452
ss(i__main__
State
p611
(dp612
g3
F8.0
sg4
F7.0
sg5
F-8.0
sg6
F8.0
sb(dp613
I00
F-64.31236
sI01
F103.92172583238677
ss(i__main__
State
p614
(dp615
g3
F0.0
sg4
F4.0
sg5
F0.0
sg6
F-4.0
sb(dp616
I00
F-5.53691457
sI01
F17.720648051093036
ss(i__main__
State
p617
(dp618
g3
F4.0
sg4
F8.0
sg5
F-4.0
sg6
F-6.0
sb(dp619
I00
F272.5213265550915
sI01
F48.06104589729446
ss(i__main__
State
p620
(dp621
g3
F-1.0
sg4
F9.0
sg5
F1.0
sg6
F0.0
sb(dp622
I00
F-6074.210139633543
sI01
F-4061.6351374414044
ss(i__main__
State
p623
(dp624
g3
F1.0
sg4
F7.0
sg5
F-1.0
sg6
F4.0
sb(dp625
I00
F56.792162246823935
sI01
F-31.960000000000008
ss(i__main__
State
p626
(dp627
g3
F-2.0
sg4
F7.0
sg5
F2.0
sg6
F-6.0
sb(dp628
I00
F-26.337116788733137
sI01
I-94
ss(i__main__
State
p629
(dp630
g3
F7.0
sg4
F9.0
sg5
F-7.0
sg6
F-8.0
sb(dp631
I00
F343.9441440836357
sI01
F95.55969614322669
ss(i__main__
State
p632
(dp633
g3
F-5.0
sg4
F2.0
sg5
F5.0
sg6
F4.0
sb(dp634
I00
F60.72754137874748
sI01
F64.00436281608
ss(i__main__
State
p635
(dp636
g3
F4.0
sg4
F3.0
sg5
F-4.0
sg6
F0.0
sb(dp637
I00
I-54
sI01
F14.235856
ss(i__main__
State
p638
(dp639
g3
F-3.0
sg4
F8.0
sg5
F3.0
sg6
F-2.0
sb(dp640
I00
F65.89875078674902
sI01
F-259.3370137827241
ss(i__main__
State
p641
(dp642
g3
F4.0
sg4
F1.0
sg5
F-4.0
sg6
F-2.0
sb(dp643
I00
F63.45458003121433
sI01
F-42.74885
ss(i__main__
State
p644
(dp645
g3
F-1.0
sg4
F0.0
sg5
F1.0
sg6
F-2.0
sb(dp646
I00
F14.980207306940253
sI01
F-27.232130499749353
ss(i__main__
State
p647
(dp648
g3
F6.0
sg4
F0.0
sg5
F-6.0
sg6
F-4.0
sb(dp649
I00
F49.79813046942704
sI01
F54.14739456776999
ss(i__main__
State
p650
(dp651
g3
F1.0
sg4
F5.0
sg5
F-1.0
sg6
F-8.0
sb(dp652
I00
I43
sI01
F83.00719999999998
ss(i__main__
State
p653
(dp654
g3
F6.0
sg4
F7.0
sg5
F-6.0
sg6
F-2.0
sb(dp655
I00
F-66.6
sI01
F124.66657935119605
ss(i__main__
State
p656
(dp657
g3
F0.0
sg4
F3.0
sg5
F0.0
sg6
F-4.0
sb(dp658
I00
F60.098613609999994
sI01
F-67.09871457
ss(i__main__
State
p659
(dp660
g3
F7.0
sg4
F9.0
sg5
F-7.0
sg6
F2.0
sb(dp661
I00
F59.13085010924186
sI01
F0.0
ss(i__main__
State
p662
(dp663
g3
F-5.0
sg4
F1.0
sg5
F5.0
sg6
F0.0
sb(dp664
I00
F48.833437023790914
sI01
F-21.274776007440007
ss(i__main__
State
p665
(dp666
g3
F7.0
sg4
F3.0
sg5
F-7.0
sg6
F4.0
sb(dp667
I00
F-15.69
sI01
F12.335762457751906
ss(i__main__
State
p668
(dp669
g3
F-8.0
sg4
F3.0
sg5
F8.0
sg6
F4.0
sb(dp670
I00
F18.07562202907455
sI01
F-34.55993030661678
ss(i__main__
State
p671
(dp672
g3
F-3.0
sg4
F10.0
sg5
F3.0
sg6
F2.0
sb(dp673
I00
F127.49337861639292
sI01
F18.9963
ss(i__main__
State
p674
(dp675
g3
F4.0
sg4
F10.0
sg5
F-4.0
sg6
F-6.0
sb(dp676
I00
F10.0
sI01
F0.0
ss(i__main__
State
p677
(dp678
g3
F3.0
sg4
F7.0
sg5
F-3.0
sg6
F4.0
sb(dp679
I00
F-81.32
sI01
F-10.828539855358343
ss(i__main__
State
p680
(dp681
g3
F-6.0
sg4
F2.0
sg5
F6.0
sg6
F4.0
sb(dp682
I00
F24.921750000000003
sI01
F54.977361642944906
ss(i__main__
State
p683
(dp684
g3
F5.0
sg4
F8.0
sg5
F-5.0
sg6
F6.0
sb(dp685
I00
F153.24385036458912
sI01
F61.68298683153016
ss(i__main__
State
p686
(dp687
g3
F1.0
sg4
F8.0
sg5
F-1.0
sg6
F-2.0
sb(dp688
I00
F-2766.533350746812
sI01
F-2833.6701987728843
ss(i__main__
State
p689
(dp690
g3
F-7.0
sg4
F9.0
sg5
F7.0
sg6
F6.0
sb(dp691
I00
F216.02877572279712
sI01
F20.09542791070085
ss(i__main__
State
p692
(dp693
g3
F8.0
sg4
F4.0
sg5
F-8.0
sg6
F2.0
sb(dp694
I00
F80.70475407885488
sI01
I-28
ss(i__main__
State
p695
(dp696
g3
F6.0
sg4
F9.0
sg5
F-6.0
sg6
F8.0
sb(dp697
I00
F50.45377175120643
sI01
F148.828809161838
ss(i__main__
State
p698
(dp699
g3
F-4.0
sg4
F9.0
sg5
F4.0
sg6
F2.0
sb(dp700
I00
F125.43418352306219
sI01
F21.069466597919465
ss(i__main__
State
p701
(dp702
g3
F0.0
sg4
F2.0
sg5
F0.0
sg6
F-4.0
sb(dp703
I00
I93
sI01
F-83.14
ss(i__main__
State
p704
(dp705
g3
F6.0
sg4
F3.0
sg5
F-6.0
sg6
F-2.0
sb(dp706
I00
F24.771945752963944
sI01
F-34.840353888359
ss(i__main__
State
p707
(dp708
g3
F3.0
sg4
F6.0
sg5
F-3.0
sg6
F6.0
sb(dp709
I00
F-50.61802592581569
sI01
F36.84791671641294
ss(i__main__
State
p710
(dp711
g3
F-6.0
sg4
F5.0
sg5
F6.0
sg6
F-4.0
sb(dp712
I00
F-16.90849922301625
sI01
F27.764173811545092
ss(i__main__
State
p713
(dp714
g3
F7.0
sg4
F8.0
sg5
F-7.0
sg6
F-2.0
sb(dp715
I00
F131.87206818841773
sI01
F-486.0463252215437
ss(i__main__
State
p716
(dp717
g3
F-1.0
sg4
F4.0
sg5
F1.0
sg6
F2.0
sb(dp718
I00
I-78
sI01
F68.6646
ss(i__main__
State
p719
(dp720
g3
F-2.0
sg4
F9.0
sg5
F2.0
sg6
F2.0
sb(dp721
I00
F198.2157811736515
sI01
F20.0
ss(i__main__
State
p722
(dp723
g3
F-6.0
sg4
F4.0
sg5
F6.0
sg6
F0.0
sb(dp724
I00
F53.09643549058909
sI01
I-16
ss(i__main__
State
p725
(dp726
g3
F-1.0
sg4
F10.0
sg5
F1.0
sg6
F0.0
sb(dp727
I00
F220.7503038163457
sI01
F72.58924348677733
ss(i__main__
State
p728
(dp729
g3
F-6.0
sg4
F10.0
sg5
F6.0
sg6
F2.0
sb(dp730
I00
F153.83754575644815
sI01
F15.700000000000001
ss(i__main__
State
p731
(dp732
g3
F0.0
sg4
F5.0
sg5
F0.0
sg6
F4.0
sb(dp733
I00
F33.900527092590735
sI01
F-21.635968944960148
ss(i__main__
State
p734
(dp735
g3
F-8.0
sg4
F0.0
sg5
F8.0
sg6
F-6.0
sb(dp736
I00
F8.888
sI01
I-73
ss(i__main__
State
p737
(dp738
g3
F-3.0
sg4
F4.0
sg5
F3.0
sg6
F4.0
sb(dp739
I00
F63.5447406138
sI01
F-25.19787765263841
ss(i__main__
State
p740
(dp741
g3
F0.0
sg4
F1.0
sg5
F0.0
sg6
F-4.0
sb(dp742
I00
F12.2663520990242
sI01
F-28.87804465670712
ss(i__main__
State
p743
(dp744
g3
F3.0
sg4
F0.0
sg5
F-3.0
sg6
F0.0
sb(dp745
I00
I-48
sI01
F15.527329043964112
ss(i__main__
State
p746
(dp747
g3
F-1.0
sg4
F3.0
sg5
F1.0
sg6
F0.0
sb(dp748
I00
F36.3
sI01
I-61
ss(i__main__
State
p749
(dp750
g3
F-1.0
sg4
F7.0
sg5
F1.0
sg6
F0.0
sb(dp751
I00
F159.56138308189387
sI01
F13.682841415567179
ss(i__main__
State
p752
(dp753
g3
F-2.0
sg4
F4.0
sg5
F2.0
sg6
F2.0
sb(dp754
I00
F52.870428397986004
sI01
F-63.35889689689689
ss(i__main__
State
p755
(dp756
g3
F-6.0
sg4
F1.0
sg5
F6.0
sg6
F-4.0
sb(dp757
I00
F-45.8
sI01
F-63.806442630336925
ss(i__main__
State
p758
(dp759
g3
F7.0
sg4
F0.0
sg5
F-7.0
sg6
F-6.0
sb(dp760
I00
F51.27934167948509
sI01
F-53.67300905748
ss(i__main__
State
p761
(dp762
g3
F3.0
sg4
F6.0
sg5
F-3.0
sg6
F8.0
sb(dp763
I00
F9.452615425800001
sI01
F33.574493615077195
ss(i__main__
State
p764
(dp765
g3
F6.0
sg4
F0.0
sg5
F-6.0
sg6
F-6.0
sb(dp766
I00
F-23.802768
sI01
I-91
ss(i__main__
State
p767
(dp768
g3
F6.0
sg4
F8.0
sg5
F-6.0
sg6
F-2.0
sb(dp769
I00
F329.50268533731855
sI01
F-325.9525420000001
ss(i__main__
State
p770
(dp771
g3
F-3.0
sg4
F9.0
sg5
F3.0
sg6
F-6.0
sb(dp772
I00
F34.45301198712672
sI01
F96.99910425398484
ss(i__main__
State
p773
(dp774
g3
F5.0
sg4
F0.0
sg5
F-5.0
sg6
F8.0
sb(dp775
I00
F4.25577251317708
sI01
F45.30474186718468
ss(i__main__
State
p776
(dp777
g3
F0.0
sg4
F6.0
sg5
F0.0
sg6
F2.0
sb(dp778
I00
I-29
sI01
F16.491764079840305
ss(i__main__
State
p779
(dp780
g3
F2.0
sg4
F9.0
sg5
F-2.0
sg6
F-6.0
sb(dp781
I00
F110.941562170344
sI01
F21.137
ss(i__main__
State
p782
(dp783
g3
F-5.0
sg4
F10.0
sg5
F5.0
sg6
F-4.0
sb(dp784
I00
F385.85548870324766
sI01
F36.16000000000001
ss(i__main__
State
p785
(dp786
g3
F-4.0
sg4
F0.0
sg5
F4.0
sg6
F-6.0
sb(dp787
I00
I-35
sI01
F65.08304490705
ss(i__main__
State
p788
(dp789
g3
F-5.0
sg4
F3.0
sg5
F5.0
sg6
F-8.0
sb(dp790
I00
F0.520300669004454
sI01
I-100
ss(i__main__
State
p791
(dp792
g3
F7.0
sg4
F10.0
sg5
F-7.0
sg6
F-8.0
sb(dp793
I00
F126.42496309611028
sI01
F6.800000000000001
ss(i__main__
State
p794
(dp795
g3
F4.0
sg4
F7.0
sg5
F-4.0
sg6
F-4.0
sb(dp796
I00
F147.69821115938691
sI01
F-0.5407690595980412
ss(i__main__
State
p797
(dp798
g3
F1.0
sg4
F6.0
sg5
F-1.0
sg6
F8.0
sb(dp799
I00
F24.3477329618878
sI01
I-91
ss(i__main__
State
p800
(dp801
g3
F5.0
sg4
F6.0
sg5
F-5.0
sg6
F-4.0
sb(dp802
I00
F-9.743403883932857
sI01
F-20.589044055095513
ss(i__main__
State
p803
(dp804
g3
F-3.0
sg4
F3.0
sg5
F3.0
sg6
F2.0
sb(dp805
I00
F51.414499768860196
sI01
F7.7793226628
ss(i__main__
State
p806
(dp807
g3
F-8.0
sg4
F10.0
sg5
F8.0
sg6
F4.0
sb(dp808
I00
F10.0
sI01
F70.25015578000001
ss(i__main__
State
p809
(dp810
g3
F0.0
sg4
F7.0
sg5
F0.0
sg6
F0.0
sb(dp811
I00
F29.896417703776947
sI01
F18.448073319321928
ss(i__main__
State
p812
(dp813
g3
F0.0
sg4
F10.0
sg5
F0.0
sg6
F6.0
sb(dp814
I00
F-5189.279782348458
sI01
F-5188.167662574925
ss(i__main__
State
p815
(dp816
g3
F7.0
sg4
F8.0
sg5
F-7.0
sg6
F4.0
sb(dp817
I00
F110.67940897482009
sI01
F0.0
ss(i__main__
State
p818
(dp819
g3
F4.0
sg4
F4.0
sg5
F-4.0
sg6
F2.0
sb(dp820
I00
F31.60499403311143
sI01
F-55.705207407832596
ss(i__main__
State
p821
(dp822
g3
F-8.0
sg4
F0.0
sg5
F8.0
sg6
F-8.0
sb(dp823
I00
F42.3552327302829
sI01
F18.07906300687044
ss(i__main__
State
p824
(dp825
g3
F1.0
sg4
F0.0
sg5
F-1.0
sg6
F6.0
sb(dp826
I00
F-71.161914103
sI01
F38.05433465576371
ss(i__main__
State
p827
(dp828
g3
F7.0
sg4
F3.0
sg5
F-7.0
sg6
F6.0
sb(dp829
I00
F-78.11085
sI01
F-42.911
ss(i__main__
State
p830
(dp831
g3
F3.0
sg4
F2.0
sg5
F-3.0
sg6
F0.0
sb(dp832
I00
F-14.299999999999999
sI01
F26.909070727144655
ss(i__main__
State
p833
(dp834
g3
F-7.0
sg4
F4.0
sg5
F7.0
sg6
F0.0
sb(dp835
I00
F-14.870000000000001
sI01
F-46.8769
ss(i__main__
State
p836
(dp837
g3
F8.0
sg4
F6.0
sg5
F-8.0
sg6
F-4.0
sb(dp838
I00
F15.498331198153517
sI01
F-34.311085949670144
ss(i__main__
State
p839
(dp840
g3
F-1.0
sg4
F4.0
sg5
F1.0
sg6
F0.0
sb(dp841
I00
F16.0195154230122
sI01
I-79
ss(i__main__
State
p842
(dp843
g3
F6.0
sg4
F4.0
sg5
F-6.0
sg6
F2.0
sb(dp844
I00
F35.190681707773294
sI01
F1.7736
ss(i__main__
State
p845
(dp846
g3
F7.0
sg4
F6.0
sg5
F-7.0
sg6
F2.0
sb(dp847
I00
I10
sI01
F44.3675337026093
ss(i__main__
State
p848
(dp849
g3
F-3.0
sg4
F10.0
sg5
F3.0
sg6
F8.0
sb(dp850
I00
F217.8933415060973
sI01
F71.40563095131806
ss(i__main__
State
p851
(dp852
g3
F-1.0
sg4
F8.0
sg5
F1.0
sg6
F-6.0
sb(dp853
I00
F30.81
sI01
F0.0
ss(i__main__
State
p854
(dp855
g3
F-4.0
sg4
F10.0
sg5
F4.0
sg6
F4.0
sb(dp856
I00
F120.05176883309629
sI01
F19.44
ss(i__main__
State
p857
(dp858
g3
F-7.0
sg4
F10.0
sg5
F7.0
sg6
F0.0
sb(dp859
I00
F363.19206219538563
sI01
F89.47357824000001
ss(i__main__
State
p860
(dp861
g3
F-3.0
sg4
F2.0
sg5
F3.0
sg6
F6.0
sb(dp862
I00
F62.60788539471794
sI01
F-12.67992
ss(i__main__
State
p863
(dp864
g3
F1.0
sg4
F2.0
sg5
F-1.0
sg6
F-8.0
sb(dp865
I00
I-83
sI01
F1.173488573710003
ss(i__main__
State
p866
(dp867
g3
F7.0
sg4
F10.0
sg5
F-7.0
sg6
F2.0
sb(dp868
I00
F30.01968521939596
sI01
F104.08004058573742
ss(i__main__
State
p869
(dp870
g3
F-7.0
sg4
F1.0
sg5
F7.0
sg6
F-8.0
sb(dp871
I00
F2.1746962394429348
sI01
F-45.959999999999994
ss(i__main__
State
p872
(dp873
g3
F5.0
sg4
F8.0
sg5
F-5.0
sg6
F2.0
sb(dp874
I00
F117.24356511127418
sI01
F56.372508687832166
ss(i__main__
State
p875
(dp876
g3
F4.0
sg4
F7.0
sg5
F-4.0
sg6
F4.0
sb(dp877
I00
F15.766408335658868
sI01
F12.505540615870276
ss(i__main__
State
p878
(dp879
g3
F-5.0
sg4
F0.0
sg5
F5.0
sg6
F-6.0
sb(dp880
I00
F17.20127963156486
sI01
F-88.6
ss(i__main__
State
p881
(dp882
g3
F8.0
sg4
F7.0
sg5
F-8.0
sg6
F6.0
sb(dp883
I00
F57.396418244624854
sI01
F40.012864274143766
ss(i__main__
State
p884
(dp885
g3
F-8.0
sg4
F3.0
sg5
F8.0
sg6
F0.0
sb(dp886
I00
F52.00919191250838
sI01
F-8.091855142509463
ss(i__main__
State
p887
(dp888
g3
F0.0
sg4
F8.0
sg5
F0.0
sg6
F-6.0
sb(dp889
I00
F-3405.159359078464
sI01
F-4029.317090397929
ss(i__main__
State
p890
(dp891
g3
F-4.0
sg4
F4.0
sg5
F4.0
sg6
F0.0
sb(dp892
I00
I-39
sI01
F-23.799999999999997
ss(i__main__
State
p893
(dp894
g3
F-4.0
sg4
F9.0
sg5
F4.0
sg6
F6.0
sb(dp895
I00
F211.1767618816258
sI01
F52.08434777841616
ss(i__main__
State
p896
(dp897
g3
F-8.0
sg4
F10.0
sg5
F8.0
sg6
F6.0
sb(dp898
I00
F124.39641878118135
sI01
F18.7
ss(i__main__
State
p899
(dp900
g3
F6.0
sg4
F3.0
sg5
F-6.0
sg6
F-6.0
sb(dp901
I00
F48.46781584938989
sI01
F-86.7982888
ss(i__main__
State
p902
(dp903
g3
F-4.0
sg4
F6.0
sg5
F4.0
sg6
F0.0
sb(dp904
I00
F-73.94528587724575
sI01
F80.29766945219913
ss(i__main__
State
p905
(dp906
g3
F-5.0
sg4
F5.0
sg5
F5.0
sg6
F4.0
sb(dp907
I00
F-48.85174786377125
sI01
F37.46413855904213
ss(i__main__
State
p908
(dp909
g3
F-1.0
sg4
F7.0
sg5
F1.0
sg6
F-4.0
sb(dp910
I00
I43
sI01
F63.83158897196236
ss(i__main__
State
p911
(dp912
g3
F-3.0
sg4
F0.0
sg5
F3.0
sg6
F-8.0
sb(dp913
I00
F91.30024649244999
sI01
F-51.5477622
ss(i__main__
State
p914
(dp915
g3
F-2.0
sg4
F5.0
sg5
F2.0
sg6
F-2.0
sb(dp916
I00
I-14
sI01
F91.31287912101762
ss(i__main__
State
p917
(dp918
g3
F5.0
sg4
F7.0
sg5
F-5.0
sg6
F-2.0
sb(dp919
I00
F62.52560039966614
sI01
I-20
ss(i__main__
State
p920
(dp921
g3
F2.0
sg4
F0.0
sg5
F-2.0
sg6
F-8.0
sb(dp922
I00
F-4.135775527622373
sI01
F30.54949214261623
ss(i__main__
State
p923
(dp924
g3
F-1.0
sg4
F2.0
sg5
F1.0
sg6
F4.0
sb(dp925
I00
F34.58616201310985
sI01
F-29.088620787035833
ss(i__main__
State
p926
(dp927
g3
F-3.0
sg4
F5.0
sg5
F3.0
sg6
F0.0
sb(dp928
I00
F32.33172163905849
sI01
F27.397316331909995
ss(i__main__
State
p929
(dp930
g3
F8.0
sg4
F2.0
sg5
F-8.0
sg6
F-2.0
sb(dp931
I00
F50.91990795809956
sI01
I-25
ss(i__main__
State
p932
(dp933
g3
F1.0
sg4
F7.0
sg5
F-1.0
sg6
F2.0
sb(dp934
I00
F102.64315268871613
sI01
F-230.975861
ss(i__main__
State
p935
(dp936
g3
F-2.0
sg4
F10.0
sg5
F2.0
sg6
F8.0
sb(dp937
I00
F322.588005701226
sI01
F92.403285905
ss(i__main__
State
p938
(dp939
g3
F7.0
sg4
F2.0
sg5
F-7.0
sg6
F8.0
sb(dp940
I00
F-23.849999999999998
sI01
F51.227512902440154
ss(i__main__
State
p941
(dp942
g3
F-5.0
sg4
F0.0
sg5
F5.0
sg6
F4.0
sb(dp943
I00
F28.909364214477108
sI01
F16.306595627519823
ss(i__main__
State
p944
(dp945
g3
F1.0
sg4
F4.0
sg5
F-1.0
sg6
F-8.0
sb(dp946
I00
I-54
sI01
F10.540000000000003
ss(i__main__
State
p947
(dp948
g3
F5.0
sg4
F1.0
sg5
F-5.0
sg6
F4.0
sb(dp949
I00
F59.05762899
sI01
F55.936180290564344
ss(i__main__
State
p950
(dp951
g3
F-6.0
sg4
F1.0
sg5
F6.0
sg6
F-8.0
sb(dp952
I00
F-24.199999999999996
sI01
F16.761137580283695
ss(i__main__
State
p953
(dp954
g3
F8.0
sg4
F1.0
sg5
F-8.0
sg6
F2.0
sb(dp955
I00
F61.99682007156872
sI01
F71.15
ss(i__main__
State
p956
(dp957
g3
F-5.0
sg4
F6.0
sg5
F5.0
sg6
F-4.0
sb(dp958
I00
F36.924221709934386
sI01
I-26
ss(i__main__
State
p959
(dp960
g3
F-4.0
sg4
F7.0
sg5
F4.0
sg6
F-2.0
sb(dp961
I00
F54.97470527192433
sI01
F-46.053754817215875
ss(i__main__
State
p962
(dp963
g3
F-8.0
sg4
F6.0
sg5
F8.0
sg6
F8.0
sb(dp964
I00
F-63.196017060410306
sI01
F9.90554092
ss(i__main__
State
p965
(dp966
g3
F-4.0
sg4
F2.0
sg5
F4.0
sg6
F-2.0
sb(dp967
I00
F12.259316593203726
sI01
F-52.2931385501485
ss(i__main__
State
p968
(dp969
g3
F4.0
sg4
F6.0
sg5
F-4.0
sg6
F-4.0
sb(dp970
I00
F77.7518465332772
sI01
F-43.543951183354125
ss(i__main__
State
p971
(dp972
g3
F-8.0
sg4
F1.0
sg5
F8.0
sg6
F-8.0
sb(dp973
I00
F-25.980487189896735
sI01
F28.65163828275123
ss(i__main__
State
p974
(dp975
g3
F-7.0
sg4
F10.0
sg5
F7.0
sg6
F-4.0
sb(dp976
I00
F202.34816709591072
sI01
F60.60727500242653
ss(i__main__
State
p977
(dp978
g3
F-6.0
sg4
F9.0
sg5
F6.0
sg6
F6.0
sb(dp979
I00
F68.48693958318756
sI01
F181.34953063481007
ss(i__main__
State
p980
(dp981
g3
F8.0
sg4
F2.0
sg5
F-8.0
sg6
F6.0
sb(dp982
I00
F83.51998536863456
sI01
I-19
ss(i__main__
State
p983
(dp984
g3
F3.0
sg4
F2.0
sg5
F-3.0
sg6
F-2.0
sb(dp985
I00
F-42.06224263456
sI01
F-78.4
ss(i__main__
State
p986
(dp987
g3
F-2.0
sg4
F10.0
sg5
F2.0
sg6
F6.0
sb(dp988
I00
F46.03042078990673
sI01
F119.0348006153822
ss(i__main__
State
p989
(dp990
g3
F-7.0
sg4
F3.0
sg5
F7.0
sg6
F-8.0
sb(dp991
I00
F8.736540616863358
sI01
F36.86524820077009
ss(i__main__
State
p992
(dp993
g3
F6.0
sg4
F6.0
sg5
F-6.0
sg6
F-4.0
sb(dp994
I00
F61.2154897158257
sI01
F-39.4776322923718
ss(i__main__
State
p995
(dp996
g3
F-4.0
sg4
F9.0
sg5
F4.0
sg6
F8.0
sb(dp997
I00
F43.43909391986608
sI01
F227.06728212181986
ss(i__main__
State
p998
(dp999
g3
F5.0
sg4
F10.0
sg5
F-5.0
sg6
F2.0
sb(dp1000
I00
F260.9856318066741
sI01
F38.76213790415029
ss(i__main__
State
p1001
(dp1002
g3
F-1.0
sg4
F0.0
sg5
F1.0
sg6
F8.0
sb(dp1003
I00
F34.251440366589804
sI01
F63.241066377239896
ss(i__main__
State
p1004
(dp1005
g3
F4.0
sg4
F10.0
sg5
F-4.0
sg6
F8.0
sb(dp1006
I00
F19.685219395961827
sI01
F30.908655921161998
ss(i__main__
State
p1007
(dp1008
g3
F7.0
sg4
F8.0
sg5
F-7.0
sg6
F0.0
sb(dp1009
I00
F379.4052694753521
sI01
F114.15098987844269
ss(i__main__
State
p1010
(dp1011
g3
F1.0
sg4
F5.0
sg5
F-1.0
sg6
F2.0
sb(dp1012
I00
F50.3256775368
sI01
F66.66678657358574
ss(i__main__
State
p1013
(dp1014
g3
F-5.0
sg4
F6.0
sg5
F5.0
sg6
F2.0
sb(dp1015
I00
I-4
sI01
F14.121176061002583
ss(i__main__
State
p1016
(dp1017
g3
F-7.0
sg4
F3.0
sg5
F7.0
sg6
F8.0
sb(dp1018
I00
F51.33106117
sI01
F59.27423334777549
ss(i__main__
State
p1019
(dp1020
g3
F-4.0
sg4
F0.0
sg5
F4.0
sg6
F-2.0
sb(dp1021
I00
F47.84211333030329
sI01
F26.91739464811461
ss(i__main__
State
p1022
(dp1023
g3
F-2.0
sg4
F4.0
sg5
F2.0
sg6
F-2.0
sb(dp1024
I00
F13.3
sI01
F47.53389567567699
ss(i__main__
State
p1025
(dp1026
g3
F1.0
sg4
F6.0
sg5
F-1.0
sg6
F-8.0
sb(dp1027
I00
F-4.699999999999999
sI01
F90.11832846950503
ss(i__main__
State
p1028
(dp1029
g3
F4.0
sg4
F3.0
sg5
F-4.0
sg6
F-8.0
sb(dp1030
I00
F87.5
sI01
F-10.634422750899997
ss(i__main__
State
p1031
(dp1032
g3
F-2.0
sg4
F6.0
sg5
F2.0
sg6
F2.0
sb(dp1033
I00
F61.44080677796671
sI01
F44.3
ss(i__main__
State
p1034
(dp1035
g3
F-3.0
sg4
F1.0
sg5
F3.0
sg6
F6.0
sb(dp1036
I00
F43.31126929121287
sI01
F-0.3850544116950876
ss(i__main__
State
p1037
(dp1038
g3
F8.0
sg4
F3.0
sg5
F-8.0
sg6
F-6.0
sb(dp1039
I00
I49
sI01
F81.26410013452205
ss(i__main__
State
p1040
(dp1041
g3
F-1.0
sg4
F2.0
sg5
F1.0
sg6
F-4.0
sb(dp1042
I00
F37.77013460112322
sI01
F-30.822798178453752
ss(i__main__
State
p1043
(dp1044
g3
F-6.0
sg4
F7.0
sg5
F6.0
sg6
F8.0
sb(dp1045
I00
F41.641410182099996
sI01
I-60
ss(i__main__
State
p1046
(dp1047
g3
F-5.0
sg4
F10.0
sg5
F5.0
sg6
F2.0
sb(dp1048
I00
F192.51282632249735
sI01
F49.10388118030599
ss(i__main__
State
p1049
(dp1050
g3
F4.0
sg4
F8.0
sg5
F-4.0
sg6
F0.0
sb(dp1051
I00
F296.4612050373588
sI01
F46.306392711136894
ss(i__main__
State
p1052
(dp1053
g3
F0.0
sg4
F1.0
sg5
F0.0
sg6
F-6.0
sb(dp1054
I00
F10.007936211575641
sI01
F35.2186670501084
ss(i__main__
State
p1055
(dp1056
g3
F2.0
sg4
F5.0
sg5
F-2.0
sg6
F-4.0
sb(dp1057
I00
I1
sI01
F13.50001343890546
ss(i__main__
State
p1058
(dp1059
g3
F-8.0
sg4
F9.0
sg5
F8.0
sg6
F0.0
sb(dp1060
I00
F-3433.48
sI01
F-1893.4556380200002
ss(i__main__
State
p1061
(dp1062
g3
F0.0
sg4
F0.0
sg5
F0.0
sg6
F6.0
sb(dp1063
I00
F61.960986539585974
sI01
F16.599782567768937
ss(i__main__
State
p1064
(dp1065
g3
F-1.0
sg4
F3.0
sg5
F1.0
sg6
F6.0
sb(dp1066
I00
F-0.009999999999999787
sI01
F-11.726727799999999
ss(i__main__
State
p1067
(dp1068
g3
F3.0
sg4
F9.0
sg5
F-3.0
sg6
F4.0
sb(dp1069
I00
F285.43477328158156
sI01
F52.24476042680471
ss(i__main__
State
p1070
(dp1071
g3
F7.0
sg4
F10.0
sg5
F-7.0
sg6
F4.0
sb(dp1072
I00
F101.01220647475236
sI01
F33.6396709813
ss(i__main__
State
p1073
(dp1074
g3
F1.0
sg4
F10.0
sg5
F-1.0
sg6
F6.0
sb(dp1075
I00
F0.0
sI01
F97.07946894100861
ss(i__main__
State
p1076
(dp1077
g3
F-5.0
sg4
F8.0
sg5
F5.0
sg6
F8.0
sb(dp1078
I00
F295.29528674880663
sI01
F102.51966240062053
ss(i__main__
State
p1079
(dp1080
g3
F7.0
sg4
F7.0
sg5
F-7.0
sg6
F2.0
sb(dp1081
I00
F42.57075550322181
sI01
F77.36945324181383
ss(i__main__
State
p1082
(dp1083
g3
F3.0
sg4
F0.0
sg5
F-3.0
sg6
F-2.0
sb(dp1084
I00
F-24.7
sI01
F30.4536229896285
ss(i__main__
State
p1085
(dp1086
g3
F8.0
sg4
F7.0
sg5
F-8.0
sg6
F2.0
sb(dp1087
I00
F52.08111878314834
sI01
F-35.37520339802688
ss(i__main__
State
p1088
(dp1089
g3
F0.0
sg4
F6.0
sg5
F0.0
sg6
F8.0
sb(dp1090
I00
I-93
sI01
F13.606394715686715
ss(i__main__
State
p1091
(dp1092
g3
F-4.0
sg4
F2.0
sg5
F4.0
sg6
F-8.0
sb(dp1093
I00
F13.199433310079527
sI01
F22.344877375949636
ss(i__main__
State
p1094
(dp1095
g3
F7.0
sg4
F4.0
sg5
F-7.0
sg6
F6.0
sb(dp1096
I00
I-24
sI01
F12.5
ss(i__main__
State
p1097
(dp1098
g3
F-3.0
sg4
F4.0
sg5
F3.0
sg6
F-6.0
sb(dp1099
I00
F13.5
sI01
F55.331279793840004
ss(i__main__
State
p1100
(dp1101
g3
F0.0
sg4
F0.0
sg5
F0.0
sg6
F-2.0
sb(dp1102
I00
F43.19128725542258
sI01
F-14.318581300000002
ss(i__main__
State
p1103
(dp1104
g3
F-3.0
sg4
F1.0
sg5
F3.0
sg6
F8.0
sb(dp1105
I00
F26.390694627753057
sI01
I-77
ss(i__main__
State
p1106
(dp1107
g3
F-7.0
sg4
F0.0
sg5
F7.0
sg6
F8.0
sb(dp1108
I00
F-36.72954762602799
sI01
F-12.888668855108374
ss(i__main__
State
p1109
(dp1110
g3
F2.0
sg4
F5.0
sg5
F-2.0
sg6
F6.0
sb(dp1111
I00
F49.63005027450546
sI01
F23.004783272398807
ss(i__main__
State
p1112
(dp1113
g3
F7.0
sg4
F6.0
sg5
F-7.0
sg6
F-2.0
sb(dp1114
I00
F13.652373065914649
sI01
F-24.772899869350244
ss(i__main__
State
p1115
(dp1116
g3
F-5.0
sg4
F5.0
sg5
F5.0
sg6
F8.0
sb(dp1117
I00
F21.931272300940243
sI01
I-13
ss(i__main__
State
p1118
(dp1119
g3
F-6.0
sg4
F2.0
sg5
F6.0
sg6
F-8.0
sb(dp1120
I00
F38.79904239316704
sI01
F67.37674472830908
ss(i__main__
State
p1121
(dp1122
g3
F-1.0
sg4
F8.0
sg5
F1.0
sg6
F2.0
sb(dp1123
I00
F120.90169006714069
sI01
F0.0
ss(i__main__
State
p1124
(dp1125
g3
F-7.0
sg4
F8.0
sg5
F7.0
sg6
F0.0
sb(dp1126
I00
F329.98876370502563
sI01
F55.19980982455998
ss(i__main__
State
p1127
(dp1128
g3
F1.0
sg4
F6.0
sg5
F-1.0
sg6
F2.0
sb(dp1129
I00
F57.58699491086916
sI01
F114.61354723724807
ss(i__main__
State
p1130
(dp1131
g3
F-3.0
sg4
F7.0
sg5
F3.0
sg6
F0.0
sb(dp1132
I00
F72.46778484746113
sI01
F-20.213197787914044
ss(i__main__
State
p1133
(dp1134
g3
F-1.0
sg4
F4.0
sg5
F1.0
sg6
F-4.0
sb(dp1135
I00
F40.03912112645
sI01
I-17
ss(i__main__
State
p1136
(dp1137
g3
F6.0
sg4
F2.0
sg5
F-6.0
sg6
F8.0
sb(dp1138
I00
F-80.8
sI01
F33.4093236348
ss(i__main__
State
p1139
(dp1140
g3
F8.0
sg4
F0.0
sg5
F-8.0
sg6
F6.0
sb(dp1141
I00
F51.2161857238
sI01
F-25.619508897899998
ss(i__main__
State
p1142
(dp1143
g3
F-2.0
sg4
F8.0
sg5
F2.0
sg6
F4.0
sb(dp1144
I00
F138.0677170427499
sI01
F37.1327023909
ss(i__main__
State
p1145
(dp1146
g3
F-1.0
sg4
F1.0
sg5
F1.0
sg6
F6.0
sb(dp1147
I00
F-47.0913
sI01
F85.76367683400001
ss(i__main__
State
p1148
(dp1149
g3
F-2.0
sg4
F3.0
sg5
F2.0
sg6
F4.0
sb(dp1150
I00
F45.618159166866825
sI01
F-81.0
ss(i__main__
State
p1151
(dp1152
g3
F-3.0
sg4
F7.0
sg5
F3.0
sg6
F-6.0
sb(dp1153
I00
F22.4320787117514
sI01
F-63.8
ss(i__main__
State
p1154
(dp1155
g3
F-4.0
sg4
F8.0
sg5
F4.0
sg6
F6.0
sb(dp1156
I00
F311.77967216006965
sI01
F36.27418435952872
ss(i__main__
State
p1157
(dp1158
g3
F5.0
sg4
F3.0
sg5
F-5.0
sg6
F-6.0
sb(dp1159
I00
F48.30554368015419
sI01
F46.92204237776823
ss(i__main__
State
p1160
(dp1161
g3
F8.0
sg4
F1.0
sg5
F-8.0
sg6
F6.0
sb(dp1162
I00
F-34.557550133819994
sI01
F52.96219913059389
ss(i__main__
State
p1163
(dp1164
g3
F-5.0
sg4
F6.0
sg5
F5.0
sg6
F-8.0
sb(dp1165
I00
F40.85399995217709
sI01
F27.021947246730004
ss(i__main__
State
p1166
(dp1167
g3
F-4.0
sg4
F7.0
sg5
F4.0
sg6
F-6.0
sb(dp1168
I00
F-16.320677711025937
sI01
F96.42428146237211
ss(i__main__
State
p1169
(dp1170
g3
F-7.0
sg4
F9.0
sg5
F7.0
sg6
F-4.0
sb(dp1171
I00
F170.12478021576266
sI01
F20.26636052676018
ss(i__main__
State
p1172
(dp1173
g3
F2.0
sg4
F3.0
sg5
F-2.0
sg6
F-2.0
sb(dp1174
I00
F53.40086466229081
sI01
I4
ss(i__main__
State
p1175
(dp1176
g3
F4.0
sg4
F6.0
sg5
F-4.0
sg6
F4.0
sb(dp1177
I00
F-29.410776728603903
sI01
F30.467548542518045
ss(i__main__
State
p1178
(dp1179
g3
F-8.0
sg4
F9.0
sg5
F8.0
sg6
F-4.0
sb(dp1180
I00
F128.94583795015635
sI01
F23.43774653
ss(i__main__
State
p1181
(dp1182
g3
F-6.0
sg4
F8.0
sg5
F6.0
sg6
F6.0
sb(dp1183
I00
F57.250493669904436
sI01
F0.0
ss(i__main__
State
p1184
(dp1185
g3
F3.0
sg4
F3.0
sg5
F-3.0
sg6
F-2.0
sb(dp1186
I00
F64.95174272312794
sI01
F24.02607
ss(i__main__
State
p1187
(dp1188
g3
F-6.0
sg4
F5.0
sg5
F6.0
sg6
F-6.0
sb(dp1189
I00
F46.06407339619527
sI01
F-43.592882505516904
ss(i__main__
State
p1190
(dp1191
g3
F5.0
sg4
F8.0
sg5
F-5.0
sg6
F8.0
sb(dp1192
I00
F196.16638723523872
sI01
F26.143310672286482
ss(i__main__
State
p1193
(dp1194
g3
F-6.0
sg4
F9.0
sg5
F6.0
sg6
F2.0
sb(dp1195
I00
F43.760564835542205
sI01
F0.0
ss(i__main__
State
p1196
(dp1197
g3
F5.0
sg4
F2.0
sg5
F-5.0
sg6
F-6.0
sb(dp1198
I00
F-72.7
sI01
F-6.659952229407031
ss(i__main__
State
p1199
(dp1200
g3
F8.0
sg4
F5.0
sg5
F-8.0
sg6
F8.0
sb(dp1201
I00
F54.657868791655204
sI01
F26.0
ss(i__main__
State
p1202
(dp1203
g3
F-5.0
sg4
F10.0
sg5
F5.0
sg6
F6.0
sb(dp1204
I00
F10.0
sI01
F84.89900102170846
ss(i__main__
State
p1205
(dp1206
g3
F4.0
sg4
F2.0
sg5
F-4.0
sg6
F4.0
sb(dp1207
I00
F-56.71261464999999
sI01
F-77.631632014688
ss(i__main__
State
p1208
(dp1209
g3
F-1.0
sg4
F7.0
sg5
F1.0
sg6
F-6.0
sb(dp1210
I00
F65.87046937417513
sI01
F-36.370612966274
ss(i__main__
State
p1211
(dp1212
g3
F3.0
sg4
F8.0
sg5
F-3.0
sg6
F2.0
sb(dp1213
I00
F335.61447143583104
sI01
F117.67093047043655
ss(i__main__
State
p1214
(dp1215
g3
F8.0
sg4
F10.0
sg5
F-8.0
sg6
F-6.0
sb(dp1216
I00
F0.0
sI01
F53.029342300024744
ss(i__main__
State
p1217
(dp1218
g3
F-2.0
sg4
F1.0
sg5
F2.0
sg6
F-4.0
sb(dp1219
I00
F73.19056056477723
sI01
F70.88915707608277
ss(i__main__
State
p1220
(dp1221
g3
F-7.0
sg4
F6.0
sg5
F7.0
sg6
F8.0
sb(dp1222
I00
F-25.212538208149617
sI01
F66.22225887308008
ss(i__main__
State
p1223
(dp1224
g3
F-2.0
sg4
F5.0
sg5
F2.0
sg6
F4.0
sb(dp1225
I00
F17.761345085028843
sI01
I2
ss(i__main__
State
p1226
(dp1227
g3
F6.0
sg4
F10.0
sg5
F-6.0
sg6
F2.0
sb(dp1228
I00
F179.49538900757125
sI01
F28.220000000000006
ss(i__main__
State
p1229
(dp1230
g3
F8.0
sg4
F3.0
sg5
F-8.0
sg6
F-2.0
sb(dp1231
I00
F50.07237614756179
sI01
F-83.99975453097774
ss(i__main__
State
p1232
(dp1233
g3
F-3.0
sg4
F1.0
sg5
F3.0
sg6
F-4.0
sb(dp1234
I00
F23.3577544338
sI01
F22.833052414059697
ss(i__main__
State
p1235
(dp1236
g3
F-8.0
sg4
F7.0
sg5
F8.0
sg6
F-6.0
sb(dp1237
I00
F1.3096301887589799
sI01
F-47.7092572091
ss(i__main__
State
p1238
(dp1239
g3
F-8.0
sg4
F8.0
sg5
F8.0
sg6
F-8.0
sb(dp1240
I00
F213.68849934246396
sI01
F0.0
ss(i__main__
State
p1241
(dp1242
g3
F4.0
sg4
F0.0
sg5
F-4.0
sg6
F4.0
sb(dp1243
I00
F4.899186848471844
sI01
I-17
ss(i__main__
State
p1244
(dp1245
g3
F-4.0
sg4
F1.0
sg5
F4.0
sg6
F-4.0
sb(dp1246
I00
F-49.3309695843043
sI01
F16.872608474746794
ss(i__main__
State
p1247
(dp1248
g3
F-8.0
sg4
F1.0
sg5
F8.0
sg6
F4.0
sb(dp1249
I00
F41.30106408251652
sI01
F-37.05928468918719
ss(i__main__
State
p1250
(dp1251
g3
F3.0
sg4
F1.0
sg5
F-3.0
sg6
F0.0
sb(dp1252
I00
F67.32385181046445
sI01
F-49.5
ss(i__main__
State
p1253
(dp1254
g3
F6.0
sg4
F2.0
sg5
F-6.0
sg6
F-6.0
sb(dp1255
I00
I-12
sI01
F49.63981557263737
ss(i__main__
State
p1256
(dp1257
g3
F2.0
sg4
F6.0
sg5
F-2.0
sg6
F-8.0
sb(dp1258
I00
F-0.8463130221911386
sI01
F-59.8
ss(i__main__
State
p1259
(dp1260
g3
F5.0
sg4
F9.0
sg5
F-5.0
sg6
F-4.0
sb(dp1261
I00
F357.18515625138565
sI01
F139.0356208213209
ss(i__main__
State
p1262
(dp1263
g3
F-6.0
sg4
F8.0
sg5
F6.0
sg6
F-8.0
sb(dp1264
I00
F296.7123990798459
sI01
F60.68156800715017
ss(i__main__
State
p1265
(dp1266
g3
F5.0
sg4
F9.0
sg5
F-5.0
sg6
F-6.0
sb(dp1267
I00
F41.936765605612706
sI01
F22.7191181933015
ss(i__main__
State
p1268
(dp1269
g3
F-8.0
sg4
F3.0
sg5
F8.0
sg6
F8.0
sb(dp1270
I00
F43.555890000000005
sI01
F46.698127928411914
ss(i__main__
State
p1271
(dp1272
g3
F-8.0
sg4
F6.0
sg5
F8.0
sg6
F6.0
sb(dp1273
I00
F-51.855196813
sI01
F27.18422668344367
ss(i__main__
State
p1274
(dp1275
g3
F2.0
sg4
F3.0
sg5
F-2.0
sg6
F6.0
sb(dp1276
I00
F-7.9417779295222
sI01
F-27.423360827874454
ss(i__main__
State
p1277
(dp1278
g3
F1.0
sg4
F9.0
sg5
F-1.0
sg6
F0.0
sb(dp1279
I00
F-5141.941400794299
sI01
F-5106.0700357000005
ss(i__main__
State
p1280
(dp1281
g3
F3.0
sg4
F7.0
sg5
F-3.0
sg6
F-8.0
sb(dp1282
I00
F65.76064795977322
sI01
F29.02085014776361
ss(i__main__
State
p1283
(dp1284
g3
F7.0
sg4
F6.0
sg5
F-7.0
sg6
F-6.0
sb(dp1285
I00
F47.01120264920214
sI01
F-45.8132521304042
ss(i__main__
State
p1286
(dp1287
g3
F4.0
sg4
F8.0
sg5
F-4.0
sg6
F-8.0
sb(dp1288
I00
F326.24640543308453
sI01
F76.40001712262595
ss(i__main__
State
p1289
(dp1290
g3
F4.0
sg4
F9.0
sg5
F-4.0
sg6
F0.0
sb(dp1291
I00
F-4077.738433824846
sI01
F-4079.30237214332
ss(i__main__
State
p1292
(dp1293
g3
F-2.0
sg4
F7.0
sg5
F2.0
sg6
F-8.0
sb(dp1294
I00
F66.1281350127
sI01
F81.6062324659304
ss(i__main__
State
p1295
(dp1296
g3
F7.0
sg4
F9.0
sg5
F-7.0
sg6
F-2.0
sb(dp1297
I00
F-251.66286079300002
sI01
F145.00933070885398
ss(i__main__
State
p1298
(dp1299
g3
F-7.0
sg4
F1.0
sg5
F7.0
sg6
F2.0
sb(dp1300
I00
I-31
sI01
F26.69762555221487
ss(i__main__
State
p1301
(dp1302
g3
F-4.0
sg4
F8.0
sg5
F4.0
sg6
F0.0
sb(dp1303
I00
F83.21918312261809
sI01
F23.801000000000002
ss(i__main__
State
p1304
(dp1305
g3
F2.0
sg4
F10.0
sg5
F-2.0
sg6
F-4.0
sb(dp1306
I00
F82.59914504433539
sI01
F14.380000000000003
ss(i__main__
State
p1307
(dp1308
g3
F5.0
sg4
F4.0
sg5
F-5.0
sg6
F-6.0
sb(dp1309
I00
F-26.67494237472149
sI01
F49.329435326236116
ss(i__main__
State
p1310
(dp1311
g3
F-8.0
sg4
F2.0
sg5
F8.0
sg6
F6.0
sb(dp1312
I00
F55.93878439674588
sI01
F-1.4612810483574927
ss(i__main__
State
p1313
(dp1314
g3
F6.0
sg4
F5.0
sg5
F-6.0
sg6
F-8.0
sb(dp1315
I00
F83.95152767972189
sI01
F2.5255125915996004
ss(i__main__
State
p1316
(dp1317
g3
F4.0
sg4
F4.0
sg5
F-4.0
sg6
F-6.0
sb(dp1318
I00
F54.389674154999994
sI01
I-77
ss(i__main__
State
p1319
(dp1320
g3
F1.0
sg4
F1.0
sg5
F-1.0
sg6
F-2.0
sb(dp1321
I00
I-11
sI01
F17.42
ss(i__main__
State
p1322
(dp1323
g3
F-8.0
sg4
F7.0
sg5
F8.0
sg6
F-8.0
sb(dp1324
I00
F-29.993454773693202
sI01
F160.67796688869953
ss(i__main__
State
p1325
(dp1326
g3
F7.0
sg4
F9.0
sg5
F-7.0
sg6
F0.0
sb(dp1327
I00
F-3420.3689507408994
sI01
F-4056.1076771162907
ss(i__main__
State
p1328
(dp1329
g3
F0.0
sg4
F7.0
sg5
F0.0
sg6
F-6.0
sb(dp1330
I00
F-10.319800907067146
sI01
F269.40486578264034
ss(i__main__
State
p1331
(dp1332
g3
F3.0
sg4
F4.0
sg5
F-3.0
sg6
F2.0
sb(dp1333
I00
F-45.44882528468
sI01
F23.641049999999996
ss(i__main__
State
p1334
(dp1335
g3
F3.0
sg4
F10.0
sg5
F-3.0
sg6
F0.0
sb(dp1336
I00
F320.70221167458396
sI01
F89.96253133689414
ss(i__main__
State
p1337
(dp1338
g3
F-4.0
sg4
F1.0
sg5
F4.0
sg6
F-8.0
sb(dp1339
I00
F55.88896972380718
sI01
F14.612714877044597
ss(i__main__
State
p1340
(dp1341
g3
F-3.0
sg4
F0.0
sg5
F3.0
sg6
F6.0
sb(dp1342
I00
F38.31386427615653
sI01
F23.406901675594934
ss(i__main__
State
p1343
(dp1344
g3
F6.0
sg4
F10.0
sg5
F-6.0
sg6
F4.0
sb(dp1345
I00
F30.451186143086936
sI01
F0.0
ss(i__main__
State
p1346
(dp1347
g3
F3.0
sg4
F7.0
sg5
F-3.0
sg6
F6.0
sb(dp1348
I00
F48.078599990730126
sI01
F-3.23144329233091
ss(i__main__
State
p1349
(dp1350
g3
F-6.0
sg4
F2.0
sg5
F6.0
sg6
F6.0
sb(dp1351
I00
I-54
sI01
F29.56221654005607
ss(i__main__
State
p1352
(dp1353
g3
F-3.0
sg4
F5.0
sg5
F3.0
sg6
F-6.0
sb(dp1354
I00
F37.187078875556004
sI01
F18.139
ss(i__main__
State
p1355
(dp1356
g3
F-7.0
sg4
F8.0
sg5
F7.0
sg6
F-4.0
sb(dp1357
I00
F20.0
sI01
F0.0
ss(i__main__
State
p1358
(dp1359
g3
F-8.0
sg4
F2.0
sg5
F8.0
sg6
F-4.0
sb(dp1360
I00
F67.97955015416073
sI01
F11.0
ss(i__main__
State
p1361
(dp1362
g3
F5.0
sg4
F9.0
sg5
F-5.0
sg6
F4.0
sb(dp1363
I00
F58.14642427
sI01
F139.25083595005702
ss(i__main__
State
p1364
(dp1365
g3
F2.0
sg4
F5.0
sg5
F-2.0
sg6
F-6.0
sb(dp1366
I00
F71.85318900873088
sI01
F-55.20170324521879
ss(i__main__
State
p1367
(dp1368
g3
F8.0
sg4
F4.0
sg5
F-8.0
sg6
F0.0
sb(dp1369
I00
F-78.66098742728971
sI01
F18.56574941539825
ss(i__main__
State
p1370
(dp1371
g3
F5.0
sg4
F3.0
sg5
F-5.0
sg6
F-8.0
sb(dp1372
I00
F22.789186
sI01
F71.960717388
ss(i__main__
State
p1373
(dp1374
g3
F2.0
sg4
F9.0
sg5
F-2.0
sg6
F0.0
sb(dp1375
I00
F-2697.1502574139886
sI01
F-2699.26318783539
ss(i__main__
State
p1376
(dp1377
g3
F0.0
sg4
F0.0
sg5
F0.0
sg6
F0.0
sb(dp1378
I00
F42.10304262080958
sI01
F-38.97320667504208
ss(i__main__
State
p1379
(dp1380
g3
F-8.0
sg4
F6.0
sg5
F8.0
sg6
F0.0
sb(dp1381
I00
F-2.9582990173205843
sI01
F12.858823241601142
ss(i__main__
State
p1382
(dp1383
g3
F-4.0
sg4
F2.0
sg5
F4.0
sg6
F6.0
sb(dp1384
I00
F-67.54605430221599
sI01
F35.565482630000005
ss(i__main__
State
p1385
(dp1386
g3
F3.0
sg4
F1.0
sg5
F-3.0
sg6
F-2.0
sb(dp1387
I00
F67.26933447900001
sI01
F58.492390525935996
ss(i__main__
State
p1388
(dp1389
g3
F-6.0
sg4
F9.0
sg5
F6.0
sg6
F-2.0
sb(dp1390
I00
F-466.55469051353987
sI01
F288.5582549187276
ss(i__main__
State
p1391
(dp1392
g3
F-3.0
sg4
F6.0
sg5
F3.0
sg6
F4.0
sb(dp1393
I00
F55.01894074372555
sI01
F57.0110745104
ss(i__main__
State
p1394
(dp1395
g3
F-6.0
sg4
F5.0
sg5
F6.0
sg6
F8.0
sb(dp1396
I00
F-0.3119999999999994
sI01
F20.42
ss(i__main__
State
p1397
(dp1398
g3
F6.0
sg4
F2.0
sg5
F-6.0
sg6
F-4.0
sb(dp1399
I00
F20.9
sI01
I-34
ss(i__main__
State
p1400
(dp1401
g3
F1.0
sg4
F10.0
sg5
F-1.0
sg6
F0.0
sb(dp1402
I00
F-898.332555
sI01
F123.47124625595595
ss(i__main__
State
p1403
(dp1404
g3
F8.0
sg4
F8.0
sg5
F-8.0
sg6
F6.0
sb(dp1405
I00
F68.41302019654316
sI01
F0.0
ss(i__main__
State
p1406
(dp1407
g3
F-6.0
sg4
F5.0
sg5
F6.0
sg6
F-2.0
sb(dp1408
I00
F-14.176488111110768
sI01
F32.2
ss(i__main__
State
p1409
(dp1410
g3
F6.0
sg4
F8.0
sg5
F-6.0
sg6
F-4.0
sb(dp1411
I00
F201.18995107245826
sI01
F0.0
ss(i__main__
State
p1412
(dp1413
g3
F0.0
sg4
F0.0
sg5
F0.0
sg6
F-8.0
sb(dp1414
I00
F40.90485622372499
sI01
I-66
ss(i__main__
State
p1415
(dp1416
g3
F-8.0
sg4
F9.0
sg5
F8.0
sg6
F-8.0
sb(dp1417
I00
F73.91999054743745
sI01
F0.0
ss(i__main__
State
p1418
(dp1419
g3
F0.0
sg4
F1.0
sg5
F0.0
sg6
F6.0
sb(dp1420
I00
F-53.283987356436306
sI01
F-2.6736471340046695
ss(i__main__
State
p1421
(dp1422
g3
F-4.0
sg4
F8.0
sg5
F4.0
sg6
F-2.0
sb(dp1423
I00
F122.78748854306315
sI01
F-89.9
ss(i__main__
State
p1424
(dp1425
g3
F1.0
sg4
F3.0
sg5
F-1.0
sg6
F-6.0
sb(dp1426
I00
F-45.616226
sI01
F17.312984353126925
ss(i__main__
State
p1427
(dp1428
g3
F-2.0
sg4
F6.0
sg5
F2.0
sg6
F-4.0
sb(dp1429
I00
F91.49832450718513
sI01
F-14.78617857334612
ss(i__main__
State
p1430
(dp1431
g3
F-7.0
sg4
F10.0
sg5
F7.0
sg6
F4.0
sb(dp1432
I00
F137.45121700718553
sI01
F8.1
ss(i__main__
State
p1433
(dp1434
g3
F-1.0
sg4
F8.0
sg5
F1.0
sg6
F8.0
sb(dp1435
I00
F23.0
sI01
F28.431701813459952
ss(i__main__
State
p1436
(dp1437
g3
F1.0
sg4
F6.0
sg5
F-1.0
sg6
F4.0
sb(dp1438
I00
F56.82040842320728
sI01
F-5.697693908561536
ss(i__main__
State
p1439
(dp1440
g3
F2.0
sg4
F4.0
sg5
F-2.0
sg6
F0.0
sb(dp1441
I00
F34.99538041105896
sI01
F-60.81245506863124
ss(i__main__
State
p1442
(dp1443
g3
F-6.0
sg4
F1.0
sg5
F6.0
sg6
F-2.0
sb(dp1444
I00
I-72
sI01
F52.65156458
ss(i__main__
State
p1445
(dp1446
g3
F-2.0
sg4
F9.0
sg5
F2.0
sg6
F-8.0
sb(dp1447
I00
F51.79661677080907
sI01
F256.3341725197711
ss(i__main__
State
p1448
(dp1449
g3
F-8.0
sg4
F8.0
sg5
F8.0
sg6
F2.0
sb(dp1450
I00
F339.1373132650078
sI01
F61.234544729181984
ss(i__main__
State
p1451
(dp1452
g3
F-1.0
sg4
F4.0
sg5
F1.0
sg6
F-6.0
sb(dp1453
I00
I-69
sI01
F73.50370449323357
ss(i__main__
State
p1454
(dp1455
g3
F2.0
sg4
F8.0
sg5
F-2.0
sg6
F-2.0
sb(dp1456
I00
F271.94171671210313
sI01
F-1483.8577912875126
ss(i__main__
State
p1457
(dp1458
g3
F-5.0
sg4
F10.0
sg5
F5.0
sg6
F-6.0
sb(dp1459
I00
F184.53783308378488
sI01
F63.098325984885896
ss(i__main__
State
p1460
(dp1461
g3
F-3.0
sg4
F9.0
sg5
F3.0
sg6
F-8.0
sb(dp1462
I00
F188.02457721670478
sI01
F57.62313656858835
ss(i__main__
State
p1463
(dp1464
g3
F-8.0
sg4
F2.0
sg5
F8.0
sg6
F-2.0
sb(dp1465
I00
F24.756347598121426
sI01
F49.129378575384784
ss(i__main__
State
p1466
(dp1467
g3
F-5.0
sg4
F7.0
sg5
F5.0
sg6
F-6.0
sb(dp1468
I00
F7.41
sI01
I-13
ss(i__main__
State
p1469
(dp1470
g3
F3.0
sg4
F3.0
sg5
F-3.0
sg6
F0.0
sb(dp1471
I00
F-2.5812201892589943
sI01
F51.106197394413826
ss(i__main__
State
p1472
(dp1473
g3
F-2.0
sg4
F10.0
sg5
F2.0
sg6
F-8.0
sb(dp1474
I00
F60.084469964713044
sI01
F101.0431252009682
ss(i__main__
State
p1475
(dp1476
g3
F-7.0
sg4
F5.0
sg5
F7.0
sg6
F4.0
sb(dp1477
I00
F-73.53109042700585
sI01
F21.905781779748352
ss(i__main__
State
p1478
(dp1479
g3
F5.0
sg4
F9.0
sg5
F-5.0
sg6
F2.0
sb(dp1480
I00
F82.44339207096779
sI01
F0.0
ss(i__main__
State
p1481
(dp1482
g3
F1.0
sg4
F10.0
sg5
F-1.0
sg6
F-4.0
sb(dp1483
I00
F-161.8191661977794
sI01
F24.35852017292344
ss(i__main__
State
p1484
(dp1485
g3
F-3.0
sg4
F2.0
sg5
F3.0
sg6
F2.0
sb(dp1486
I00
I-57
sI01
F39.71553364310809
ss(i__main__
State
p1487
(dp1488
g3
F-8.0
sg4
F1.0
sg5
F8.0
sg6
F0.0
sb(dp1489
I00
F-47.9
sI01
F31.3338836
ss(i__main__
State
p1490
(dp1491
g3
F5.0
sg4
F3.0
sg5
F-5.0
sg6
F4.0
sb(dp1492
I00
F-81.84772048522812
sI01
F-27.40908047364544
ss(i__main__
State
p1493
(dp1494
g3
F-7.0
sg4
F4.0
sg5
F7.0
sg6
F-6.0
sb(dp1495
I00
I25
sI01
F-69.0394386
ss(i__main__
State
p1496
(dp1497
g3
F-4.0
sg4
F2.0
sg5
F4.0
sg6
F0.0
sb(dp1498
I00
F-14.356331054858494
sI01
F53.107229152074446
ss(i__main__
State
p1499
(dp1500
g3
F-5.0
sg4
F5.0
sg5
F5.0
sg6
F-4.0
sb(dp1501
I00
I-49
sI01
F53.68361
ss(i__main__
State
p1502
(dp1503
g3
F-2.0
sg4
F8.0
sg5
F2.0
sg6
F-8.0
sb(dp1504
I00
F127.33881571178168
sI01
F22.643742859546883
ss(i__main__
State
p1505
(dp1506
g3
F-6.0
sg4
F8.0
sg5
F6.0
sg6
F4.0
sb(dp1507
I00
F411.85308480232885
sI01
F65.44479407051737
ss(i__main__
State
p1508
(dp1509
g3
F-7.0
sg4
F8.0
sg5
F7.0
sg6
F6.0
sb(dp1510
I00
F72.05542547120083
sI01
F388.71725597564995
ss(i__main__
State
p1511
(dp1512
g3
F0.0
sg4
F3.0
sg5
F0.0
sg6
F6.0
sb(dp1513
I00
I-80
sI01
F37.600655100084
ss(i__main__
State
p1514
(dp1515
g3
F-8.0
sg4
F9.0
sg5
F8.0
sg6
F-6.0
sb(dp1516
I00
F258.83101692087143
sI01
F135.6904987001737
ss(i__main__
State
p1517
(dp1518
g3
F4.0
sg4
F4.0
sg5
F-4.0
sg6
F0.0
sb(dp1519
I00
F17.0991858
sI01
F60.0694775318715
ss(i__main__
State
p1520
(dp1521
g3
F-5.0
sg4
F9.0
sg5
F5.0
sg6
F6.0
sb(dp1522
I00
F132.86308873788278
sI01
F11.0
ss(i__main__
State
p1523
(dp1524
g3
F4.0
sg4
F5.0
sg5
F-4.0
sg6
F-4.0
sb(dp1525
I00
F-11.617276937409223
sI01
F58.83125806555779
ss(i__main__
State
p1526
(dp1527
g3
F-1.0
sg4
F1.0
sg5
F1.0
sg6
F-6.0
sb(dp1528
I00
F85.8213268726179
sI01
F-5.186617372692481
ss(i__main__
State
p1529
(dp1530
g3
F4.0
sg4
F1.0
sg5
F-4.0
sg6
F4.0
sb(dp1531
I00
F73.44363379682896
sI01
F44.32368
ss(i__main__
State
p1532
(dp1533
g3
F-3.0
sg4
F9.0
sg5
F3.0
sg6
F8.0
sb(dp1534
I00
F73.1087215815362
sI01
F0.0
ss(i__main__
State
p1535
(dp1536
g3
F2.0
sg4
F10.0
sg5
F-2.0
sg6
F6.0
sb(dp1537
I00
F62.56938028456199
sI01
F0.0
ss(i__main__
State
p1538
(dp1539
g3
F6.0
sg4
F6.0
sg5
F-6.0
sg6
F8.0
sb(dp1540
I00
I13
sI01
F69.95995621658145
ss(i__main__
State
p1541
(dp1542
g3
F-1.0
sg4
F6.0
sg5
F1.0
sg6
F-2.0
sb(dp1543
I00
F-82.694
sI01
F68.51027449719618
ss(i__main__
State
p1544
(dp1545
g3
F5.0
sg4
F4.0
sg5
F-5.0
sg6
F-2.0
sb(dp1546
I00
F9.6105067523746
sI01
F-39.940518545546794
ss(i__main__
State
p1547
(dp1548
g3
F-2.0
sg4
F7.0
sg5
F2.0
sg6
F8.0
sb(dp1549
I00
I-81
sI01
F148.6056859985017
ss(i__main__
State
p1550
(dp1551
g3
F-5.0
sg4
F2.0
sg5
F5.0
sg6
F0.0
sb(dp1552
I00
F40.9020323706378
sI01
F3.951247521249998
ss(i__main__
State
p1553
(dp1554
g3
F8.0
sg4
F8.0
sg5
F-8.0
sg6
F0.0
sb(dp1555
I00
F79.91632062598637
sI01
F14.638521197077953
ss(i__main__
State
p1556
(dp1557
g3
F6.0
sg4
F5.0
sg5
F-6.0
sg6
F-4.0
sb(dp1558
I00
F-55.0
sI01
F24.488827435642385
ss(i__main__
State
p1559
(dp1560
g3
F-3.0
sg4
F6.0
sg5
F3.0
sg6
F-8.0
sb(dp1561
I00
F43.48571636566803
sI01
F3.7799753437469032
ss(i__main__
State
p1562
(dp1563
g3
F-5.0
sg4
F8.0
sg5
F5.0
sg6
F-4.0
sb(dp1564
I00
F341.07211917696173
sI01
F99.65055018404809
ss(i__main__
State
p1565
(dp1566
g3
F1.0
sg4
F9.0
sg5
F-1.0
sg6
F-6.0
sb(dp1567
I00
F260.3560646134229
sI01
F10.0
ss(i__main__
State
p1568
(dp1569
g3
F-2.0
sg4
F0.0
sg5
F2.0
sg6
F6.0
sb(dp1570
I00
F46.267360789886034
sI01
I-53
ss(i__main__
State
p1571
(dp1572
g3
F3.0
sg4
F2.0
sg5
F-3.0
sg6
F4.0
sb(dp1573
I00
F-66.59100899999999
sI01
F-9.514453639084884
ss(i__main__
State
p1574
(dp1575
g3
F6.0
sg4
F10.0
sg5
F-6.0
sg6
F8.0
sb(dp1576
I00
F10.0
sI01
F94.88525066103188
ss(i__main__
State
p1577
(dp1578
g3
F2.0
sg4
F6.0
sg5
F-2.0
sg6
F2.0
sb(dp1579
I00
F12.911902013341432
sI01
F59.73599
ss(i__main__
State
p1580
(dp1581
g3
F7.0
sg4
F7.0
sg5
F-7.0
sg6
F8.0
sb(dp1582
I00
F-28.72085311594649
sI01
F66.77095519888417
ss(i__main__
State
p1583
(dp1584
g3
F-7.0
sg4
F5.0
sg5
F7.0
sg6
F6.0
sb(dp1585
I00
F17.239965148183767
sI01
I-81
ss(i__main__
State
p1586
(dp1587
g3
F-8.0
sg4
F7.0
sg5
F8.0
sg6
F-4.0
sb(dp1588
I00
F-8.787099999999999
sI01
F264.17722409644693
ss(i__main__
State
p1589
(dp1590
g3
F-1.0
sg4
F10.0
sg5
F1.0
sg6
F-6.0
sb(dp1591
I00
F103.69174449666704
sI01
F22.427168
ss(i__main__
State
p1592
(dp1593
g3
F8.0
sg4
F7.0
sg5
F-8.0
sg6
F4.0
sb(dp1594
I00
F-40.177001333626194
sI01
F115.68539339002845
ss(i__main__
State
p1595
(dp1596
g3
F-4.0
sg4
F6.0
sg5
F4.0
sg6
F-2.0
sb(dp1597
I00
F3.173927318098701
sI01
F-77.2
ss(i__main__
State
p1598
(dp1599
g3
F5.0
sg4
F2.0
sg5
F-5.0
sg6
F0.0
sb(dp1600
I00
F33.598219000927585
sI01
F-82.28999999999999
ss(i__main__
State
p1601
(dp1602
g3
F5.0
sg4
F0.0
sg5
F-5.0
sg6
F6.0
sb(dp1603
I00
I-22
sI01
F18.506056037651458
ss(i__main__
State
p1604
(dp1605
g3
F6.0
sg4
F1.0
sg5
F-6.0
sg6
F-4.0
sb(dp1606
I00
F76.96516666513295
sI01
F-14.73
ss(i__main__
State
p1607
(dp1608
g3
F-7.0
sg4
F2.0
sg5
F7.0
sg6
F8.0
sb(dp1609
I00
F-1.6460325964676388
sI01
F-61.789259579814996
ss(i__main__
State
p1610
(dp1611
g3
F-4.0
sg4
F9.0
sg5
F4.0
sg6
F-6.0
sb(dp1612
I00
F205.68048506770575
sI01
F83.67421192444883
ss(i__main__
State
p1613
(dp1614
g3
F-4.0
sg4
F4.0
sg5
F4.0
sg6
F-2.0
sb(dp1615
I00
F3.029146805414914
sI01
F-35.04422
ss(i__main__
State
p1616
(dp1617
g3
F3.0
sg4
F6.0
sg5
F-3.0
sg6
F-2.0
sb(dp1618
I00
F66.83777986431801
sI01
F6.056615158021653
ss(i__main__
State
p1619
(dp1620
g3
F0.0
sg4
F8.0
sg5
F0.0
sg6
F4.0
sb(dp1621
I00
F-2695.1258306989303
sI01
F-2702.235666991482
ss(i__main__
State
p1622
(dp1623
g3
F3.0
sg4
F5.0
sg5
F-3.0
sg6
F2.0
sb(dp1624
I00
F33.32488108982599
sI01
F34.0752752275677
ss(i__main__
State
p1625
(dp1626
g3
F3.0
sg4
F9.0
sg5
F-3.0
sg6
F-6.0
sb(dp1627
I00
F110.20878613553748
sI01
F0.0
ss(i__main__
State
p1628
(dp1629
g3
F-3.0
sg4
F0.0
sg5
F3.0
sg6
F-6.0
sb(dp1630
I00
F-11.262522039802999
sI01
F36.81509096589256
ss(i__main__
State
p1631
(dp1632
g3
F1.0
sg4
F2.0
sg5
F-1.0
sg6
F4.0
sb(dp1633
I00
I-63
sI01
F72.764628706854
ss(i__main__
State
p1634
(dp1635
g3
F2.0
sg4
F0.0
sg5
F-2.0
sg6
F8.0
sb(dp1636
I00
F45.90640762625554
sI01
F-2.09150257662756
ss(i__main__
State
p1637
(dp1638
g3
F3.0
sg4
F2.0
sg5
F-3.0
sg6
F-8.0
sb(dp1639
I00
F1.5842479412134827
sI01
F8.913366430804805
ss(i__main__
State
p1640
(dp1641
g3
F2.0
sg4
F3.0
sg5
F-2.0
sg6
F8.0
sb(dp1642
I00
F3.4464237212799995
sI01
F-82.629
ss(i__main__
State
p1643
(dp1644
g3
F7.0
sg4
F10.0
sg5
F-7.0
sg6
F-2.0
sb(dp1645
I00
F309.4527343718571
sI01
F64.660810957096
ss(i__main__
State
p1646
(dp1647
g3
F-6.0
sg4
F9.0
sg5
F6.0
sg6
F4.0
sb(dp1648
I00
F97.9513444967096
sI01
F0.0
ss(i__main__
State
p1649
(dp1650
g3
F-3.0
sg4
F10.0
sg5
F3.0
sg6
F-6.0
sb(dp1651
I00
F253.67130290204338
sI01
F11.690000000000001
ss(i__main__
State
p1652
(dp1653
g3
F-7.0
sg4
F5.0
sg5
F7.0
sg6
F-2.0
sb(dp1654
I00
F15.671784303874608
sI01
F0.5839502807391171
ss(i__main__
State
p1655
(dp1656
g3
F-7.0
sg4
F6.0
sg5
F7.0
sg6
F-2.0
sb(dp1657
I00
F15.668037160390876
sI01
F15.181631655009365
ss(i__main__
State
p1658
(dp1659
g3
F-5.0
sg4
F6.0
sg5
F5.0
sg6
F-6.0
sb(dp1660
I00
F15.183193793500656
sI01
I-81
ss(i__main__
State
p1661
(dp1662
g3
F2.0
sg4
F10.0
sg5
F-2.0
sg6
F-6.0
sb(dp1663
I00
F28.337000000000003
sI01
F0.0
ss(i__main__
State
p1664
(dp1665
g3
F-1.0
sg4
F0.0
sg5
F1.0
sg6
F4.0
sb(dp1666
I00
F5.3397235057999985
sI01
F-23.15687085299831
ss(i__main__
State
p1667
(dp1668
g3
F-6.0
sg4
F1.0
sg5
F6.0
sg6
F-6.0
sb(dp1669
I00
F34.392303049449794
sI01
F52.578827383003926
ss(i__main__
State
p1670
(dp1671
g3
F7.0
sg4
F4.0
sg5
F-7.0
sg6
F8.0
sb(dp1672
I00
F51.34195173115845
sI01
F-49.88669541468927
ss(i__main__
State
p1673
(dp1674
g3
F5.0
sg4
F10.0
sg5
F-5.0
sg6
F-2.0
sb(dp1675
I00
F90.20544883911609
sI01
F10.0
ss(i__main__
State
p1676
(dp1677
g3
F6.0
sg4
F9.0
sg5
F-6.0
sg6
F4.0
sb(dp1678
I00
F86.56755217281463
sI01
F0.0
ss(i__main__
State
p1679
(dp1680
g3
F3.0
sg4
F5.0
sg5
F-3.0
sg6
F8.0
sb(dp1681
I00
F53.31026083309095
sI01
F25.6
ss(i__main__
State
p1682
(dp1683
g3
F-5.0
sg4
F6.0
sg5
F5.0
sg6
F0.0
sb(dp1684
I00
F-27.786500840659482
sI01
F-69.62
ss(i__main__
State
p1685
(dp1686
g3
F0.0
sg4
F10.0
sg5
F0.0
sg6
F-8.0
sb(dp1687
I00
F-2701.172130219858
sI01
F-2705.90347157699
ss(i__main__
State
p1688
(dp1689
g3
F0.0
sg4
F7.0
sg5
F0.0
sg6
F-4.0
sb(dp1690
I00
F18.52084583371127
sI01
F28.0
ss(i__main__
State
p1691
(dp1692
g3
F-4.0
sg4
F0.0
sg5
F4.0
sg6
F-4.0
sb(dp1693
I00
F16.782627985516
sI01
I-39
ss(i__main__
State
p1694
(dp1695
g3
F4.0
sg4
F6.0
sg5
F-4.0
sg6
F-2.0
sb(dp1696
I00
F-46.68012
sI01
F35.74930742843226
ss(i__main__
State
p1697
(dp1698
g3
F0.0
sg4
F10.0
sg5
F0.0
sg6
F8.0
sb(dp1699
I00
F-1000.0
sI01
F-1890.3315000000002
ss(i__main__
State
p1700
(dp1701
g3
F-5.0
sg4
F10.0
sg5
F5.0
sg6
F0.0
sb(dp1702
I00
F156.30241800851067
sI01
F37.70608980539058
ss(i__main__
State
p1703
(dp1704
g3
F1.0
sg4
F0.0
sg5
F-1.0
sg6
F8.0
sb(dp1705
I00
F16.864779266928
sI01
F45.83316350756553
ss(i__main__
State
p1706
(dp1707
g3
F-7.0
sg4
F3.0
sg5
F7.0
sg6
F-6.0
sb(dp1708
I00
F37.965985463444454
sI01
F59.74639521787607
ss(i__main__
State
p1709
(dp1710
g3
F-4.0
sg4
F0.0
sg5
F4.0
sg6
F4.0
sb(dp1711
I00
F89.73948592890429
sI01
I75
ss(i__main__
State
p1712
(dp1713
g3
F2.0
sg4
F9.0
sg5
F-2.0
sg6
F6.0
sb(dp1714
I00
F274.6504254010073
sI01
F43.189342251043726
ss(i__main__
State
p1715
(dp1716
g3
F0.0
sg4
F6.0
sg5
F0.0
sg6
F-4.0
sb(dp1717
I00
F-57.91963319
sI01
F-20.827157668068118
ss(i__main__
State
p1718
(dp1719
g3
F-7.0
sg4
F8.0
sg5
F7.0
sg6
F2.0
sb(dp1720
I00
F193.99798492515643
sI01
F30.199564550782
ss(i__main__
State
p1721
(dp1722
g3
F2.0
sg4
F2.0
sg5
F-2.0
sg6
F-8.0
sb(dp1723
I00
F42.39304425399999
sI01
I-69
ss(i__main__
State
p1724
(dp1725
g3
F3.0
sg4
F4.0
sg5
F-3.0
sg6
F-4.0
sb(dp1726
I00
F49.242115909999995
sI01
F53.341899906
ss(i__main__
State
p1727
(dp1728
g3
F2.0
sg4
F8.0
sg5
F-2.0
sg6
F6.0
sb(dp1729
I00
F99.30974554807077
sI01
F17.972
ss(i__main__
State
p1730
(dp1731
g3
F-5.0
sg4
F3.0
sg5
F5.0
sg6
F-2.0
sb(dp1732
I00
F63.79945494871575
sI01
F37.04209563184229
ss(i__main__
State
p1733
(dp1734
g3
F2.0
sg4
F4.0
sg5
F-2.0
sg6
F-4.0
sb(dp1735
I00
F-10.64722
sI01
F22.879372546369996
ss(i__main__
State
p1736
(dp1737
g3
F6.0
sg4
F6.0
sg5
F-6.0
sg6
F4.0
sb(dp1738
I00
F32.65203266423923
sI01
F1.31184778492843
ss(i__main__
State
p1739
(dp1740
g3
F-3.0
sg4
F1.0
sg5
F3.0
sg6
F4.0
sb(dp1741
I00
F-73.131
sI01
F0.8134585620000014
ss(i__main__
State
p1742
(dp1743
g3
F8.0
sg4
F3.0
sg5
F-8.0
sg6
F-8.0
sb(dp1744
I00
I-68
sI01
F-0.12614878816537178
ss(i__main__
State
p1745
(dp1746
g3
F5.0
sg4
F2.0
sg5
F-5.0
sg6
F4.0
sb(dp1747
I00
I-74
sI01
F12.682368223442353
ss(i__main__
State
p1748
(dp1749
g3
F1.0
sg4
F3.0
sg5
F-1.0
sg6
F6.0
sb(dp1750
I00
I-79
sI01
F-4.210000000000001
ss(i__main__
State
p1751
(dp1752
g3
F3.0
sg4
F0.0
sg5
F-3.0
sg6
F-4.0
sb(dp1753
I00
F23.885005017282918
sI01
F22.35560878684967
ss(i__main__
State
p1754
(dp1755
g3
F5.0
sg4
F7.0
sg5
F-5.0
sg6
F0.0
sb(dp1756
I00
F-25.38
sI01
I-68
ss(i__main__
State
p1757
(dp1758
g3
F0.0
sg4
F5.0
sg5
F0.0
sg6
F-4.0
sb(dp1759
I00
F-0.8612690924799453
sI01
F-34.532767069586804
ss(i__main__
State
p1760
(dp1761
g3
F8.0
sg4
F6.0
sg5
F-8.0
sg6
F4.0
sb(dp1762
I00
F36.6711451239168
sI01
F90.99805811008939
ss(i__main__
State
p1763
(dp1764
g3
F-5.0
sg4
F1.0
sg5
F5.0
sg6
F-8.0
sb(dp1765
I00
F51.1121033919332
sI01
F25.68947580653482
ss(i__main__
State
p1766
(dp1767
g3
F-3.0
sg4
F4.0
sg5
F3.0
sg6
F-8.0
sb(dp1768
I00
I41
sI01
F-15.232399999999998
ss(i__main__
State
p1769
(dp1770
g3
F3.0
sg4
F4.0
sg5
F-3.0
sg6
F4.0
sb(dp1771
I00
I36
sI01
F72.66167114515751
ss(i__main__
State
p1772
(dp1773
g3
F-6.0
sg4
F10.0
sg5
F6.0
sg6
F-4.0
sb(dp1774
I00
F54.63199048386534
sI01
F124.69551680901095
ss(i__main__
State
p1775
(dp1776
g3
F7.0
sg4
F0.0
sg5
F-7.0
sg6
F6.0
sb(dp1777
I00
F50.326185047884934
sI01
I24
ss(i__main__
State
p1778
(dp1779
g3
F4.0
sg4
F1.0
sg5
F-4.0
sg6
F-8.0
sb(dp1780
I00
F31.19203462238071
sI01
F-13.574
ss(i__main__
State
p1781
(dp1782
g3
F4.0
sg4
F5.0
sg5
F-4.0
sg6
F0.0
sb(dp1783
I00
F1.9923554673320014
sI01
F-18.659
ss(i__main__
State
p1784
(dp1785
g3
F8.0
sg4
F7.0
sg5
F-8.0
sg6
F0.0
sb(dp1786
I00
F71.40746840459772
sI01
F-45.89756780490649
ss(i__main__
State
p1787
(dp1788
g3
F5.0
sg4
F0.0
sg5
F-5.0
sg6
F-6.0
sb(dp1789
I00
I-62
sI01
F61.72249118
ss(i__main__
State
p1790
(dp1791
g3
F0.0
sg4
F2.0
sg5
F0.0
sg6
F2.0
sb(dp1792
I00
F25.094927223130775
sI01
F14.175248033143744
ss(i__main__
State
p1793
(dp1794
g3
F4.0
sg4
F10.0
sg5
F-4.0
sg6
F-4.0
sb(dp1795
I00
F137.68209496376323
sI01
F22.9496
ss(i__main__
State
p1796
(dp1797
g3
F6.0
sg4
F1.0
sg5
F-6.0
sg6
F-8.0
sb(dp1798
I00
F-30.660099999999996
sI01
F-7.78539426081
ss(i__main__
State
p1799
(dp1800
g3
F-4.0
sg4
F9.0
sg5
F4.0
sg6
F-2.0
sb(dp1801
I00
F-72.60000000000001
sI01
F115.24464411882853
ss(i__main__
State
p1802
(dp1803
g3
F-7.0
sg4
F6.0
sg5
F7.0
sg6
F-4.0
sb(dp1804
I00
I-49
sI01
F-6.547191282450347
ss(i__main__
State
p1805
(dp1806
g3
F1.0
sg4
F8.0
sg5
F-1.0
sg6
F2.0
sb(dp1807
I00
F-319.7537542900001
sI01
F362.8006046787153
ss(i__main__
State
p1808
(dp1809
g3
F-6.0
sg4
F2.0
sg5
F6.0
sg6
F-6.0
sb(dp1810
I00
F-45.411925387053444
sI01
F5.026094923083264
ss(i__main__
State
p1811
(dp1812
g3
F-3.0
sg4
F7.0
sg5
F3.0
sg6
F2.0
sb(dp1813
I00
F-46.47757924979737
sI01
F30.273540294026052
ss(i__main__
State
p1814
(dp1815
g3
F2.0
sg4
F0.0
sg5
F-2.0
sg6
F-4.0
sb(dp1816
I00
F-7.8999999999999995
sI01
I-83
ss(i__main__
State
p1817
(dp1818
g3
F0.0
sg4
F3.0
sg5
F0.0
sg6
F0.0
sb(dp1819
I00
F27.14091180174055
sI01
F-28.352849999999997
ss(i__main__
State
p1820
(dp1821
g3
F1.0
sg4
F1.0
sg5
F-1.0
sg6
F6.0
sb(dp1822
I00
F16.694987220049608
sI01
F-6.450109182163038
ss(i__main__
State
p1823
(dp1824
g3
F8.0
sg4
F0.0
sg5
F-8.0
sg6
F4.0
sb(dp1825
I00
F55.435097334013456
sI01
F-64.29085140000001
ss(i__main__
State
p1826
(dp1827
g3
F7.0
sg4
F3.0
sg5
F-7.0
sg6
F-8.0
sb(dp1828
I00
F43.79711025555956
sI01
F6.9176030736
ss(i__main__
State
p1829
(dp1830
g3
F-6.0
sg4
F0.0
sg5
F6.0
sg6
F2.0
sb(dp1831
I00
I-18
sI01
F22.639333654862334
ss(i__main__
State
p1832
(dp1833
g3
F-5.0
sg4
F1.0
sg5
F5.0
sg6
F8.0
sb(dp1834
I00
F18.083802284341147
sI01
F-34.90184965130135
ss(i__main__
State
p1835
(dp1836
g3
F-1.0
sg4
F1.0
sg5
F1.0
sg6
F-4.0
sb(dp1837
I00
F-14.152446892089998
sI01
F25.648089554085377
ss(i__main__
State
p1838
(dp1839
g3
F5.0
sg4
F2.0
sg5
F-5.0
sg6
F-8.0
sb(dp1840
I00
I-57
sI01
F4.1
ss(i__main__
State
p1841
(dp1842
g3
F-2.0
sg4
F9.0
sg5
F2.0
sg6
F4.0
sb(dp1843
I00
F54.973154439966535
sI01
F0.0
ss(i__main__
State
p1844
(dp1845
g3
F5.0
sg4
F5.0
sg5
F-5.0
sg6
F0.0
sb(dp1846
I00
F-22.880761190570475
sI01
F51.373029832746255
ss(i__main__
State
p1847
(dp1848
g3
F-3.0
sg4
F10.0
sg5
F3.0
sg6
F4.0
sb(dp1849
I00
F40.1929
sI01
F47.03681736122058
ss(i__main__
State
p1850
(dp1851
g3
F-5.0
sg4
F9.0
sg5
F5.0
sg6
F-2.0
sb(dp1852
I00
F-467.7632000000001
sI01
F130.1166292151447
ss(i__main__
State
p1853
(dp1854
g3
F-4.0
sg4
F5.0
sg5
F4.0
sg6
F-4.0
sb(dp1855
I00
F2.448603828644002
sI01
F-37.48
ss(i__main__
State
p1856
(dp1857
g3
F6.0
sg4
F9.0
sg5
F-6.0
sg6
F0.0
sb(dp1858
I00
F-2705.1881
sI01
F-3399.4177621332024
ss(i__main__
State
p1859
(dp1860
g3
F0.0
sg4
F4.0
sg5
F0.0
sg6
F2.0
sb(dp1861
I00
F84.32836687895848
sI01
I72
ss(i__main__
State
p1862
(dp1863
g3
F1.0
sg4
F9.0
sg5
F-1.0
sg6
F-4.0
sb(dp1864
I00
F155.00706623677988
sI01
F-169.7780175286454
ss(i__main__
State
p1865
(dp1866
g3
F4.0
sg4
F6.0
sg5
F-4.0
sg6
F6.0
sb(dp1867
I00
I-69
sI01
F55.172232742208536
ss(i__main__
State
p1868
(dp1869
g3
F-2.0
sg4
F5.0
sg5
F2.0
sg6
F8.0
sb(dp1870
I00
F-1.8839999999999995
sI01
F41.79980045940725
ss(i__main__
State
p1871
(dp1872
g3
F6.0
sg4
F8.0
sg5
F-6.0
sg6
F4.0
sb(dp1873
I00
F146.977377733424
sI01
F50.136357712000006
ss(i__main__
State
p1874
(dp1875
g3
F6.0
sg4
F2.0
sg5
F-6.0
sg6
F6.0
sb(dp1876
I00
F-40.482517
sI01
F-52.977999999999994
ss(i__main__
State
p1877
(dp1878
g3
F-7.0
sg4
F1.0
sg5
F7.0
sg6
F-6.0
sb(dp1879
I00
I-63
sI01
F83.15505866028614
ss(i__main__
State
p1880
(dp1881
g3
F6.0
sg4
F4.0
sg5
F-6.0
sg6
F-6.0
sb(dp1882
I00
F-24.08524
sI01
F-11.06101226831087
ss(i__main__
State
p1883
(dp1884
g3
F-8.0
sg4
F10.0
sg5
F8.0
sg6
F-2.0
sb(dp1885
I00
F85.28873103616124
sI01
F115.0183699452652
ss(i__main__
State
p1886
(dp1887
g3
F-8.0
sg4
F4.0
sg5
F8.0
sg6
F2.0
sb(dp1888
I00
F-22.758264396878765
sI01
F-45.69
ss(i__main__
State
p1889
(dp1890
g3
F2.0
sg4
F1.0
sg5
F-2.0
sg6
F2.0
sb(dp1891
I00
F60.994591146478975
sI01
F68.56151432665901
ss(i__main__
State
p1892
(dp1893
g3
F-7.0
sg4
F4.0
sg5
F7.0
sg6
F8.0
sb(dp1894
I00
F30.5
sI01
F56.2903311
ss(i__main__
State
p1895
(dp1896
g3
F-4.0
sg4
F5.0
sg5
F4.0
sg6
F6.0
sb(dp1897
I00
F-54.125599308294404
sI01
F76.59496350182275
ss(i__main__
State
p1898
(dp1899
g3
F4.0
sg4
F2.0
sg5
F-4.0
sg6
F6.0
sb(dp1900
I00
I-73
sI01
F4.071135270578589
ss(i__main__
State
p1901
(dp1902
g3
F6.0
sg4
F6.0
sg5
F-6.0
sg6
F0.0
sb(dp1903
I00
F5.490062447295185
sI01
F-20.335366832894444
ss(i__main__
State
p1904
(dp1905
g3
F8.0
sg4
F8.0
sg5
F-8.0
sg6
F-6.0
sb(dp1906
I00
F301.3873776819597
sI01
F63.223109363099326
ss(i__main__
State
p1907
(dp1908
g3
F-1.0
sg4
F3.0
sg5
F1.0
sg6
F-4.0
sb(dp1909
I00
F58.76204669538137
sI01
F-82.386119147147
ss(i__main__
State
p1910
(dp1911
g3
F8.0
sg4
F10.0
sg5
F-8.0
sg6
F-4.0
sb(dp1912
I00
F229.32889678818094
sI01
F7.03
ss(i__main__
State
p1913
(dp1914
g3
F6.0
sg4
F10.0
sg5
F-6.0
sg6
F-2.0
sb(dp1915
I00
F28.036929205993115
sI01
F0.0
ss(i__main__
State
p1916
(dp1917
g3
F2.0
sg4
F0.0
sg5
F-2.0
sg6
F2.0
sb(dp1918
I00
F59.702583148305074
sI01
F52.60587824274113
ss(i__main__
State
p1919
(dp1920
g3
F-2.0
sg4
F1.0
sg5
F2.0
sg6
F-2.0
sb(dp1921
I00
F44.3255310791
sI01
F32.6685772934
ss(i__main__
State
p1922
(dp1923
g3
F-3.0
sg4
F3.0
sg5
F3.0
sg6
F4.0
sb(dp1924
I00
I-28
sI01
F56.3
ss(i__main__
State
p1925
(dp1926
g3
F7.0
sg4
F8.0
sg5
F-7.0
sg6
F-6.0
sb(dp1927
I00
F134.28258774973824
sI01
F67.53721479732167
ss(i__main__
State
p1928
(dp1929
g3
F8.0
sg4
F3.0
sg5
F-8.0
sg6
F-4.0
sb(dp1930
I00
F31.95402277549768
sI01
F-68.42353686031358
ss(i__main__
State
p1931
(dp1932
g3
F0.0
sg4
F9.0
sg5
F0.0
sg6
F0.0
sb(dp1933
I00
F-6795.0240360981325
sI01
F-6802.107443720622
ss(i__main__
State
p1934
(dp1935
g3
F8.0
sg4
F6.0
sg5
F-8.0
sg6
F8.0
sb(dp1936
I00
F-40.23747898304126
sI01
F19.3343576782448
ss(i__main__
State
p1937
(dp1938
g3
F-8.0
sg4
F2.0
sg5
F8.0
sg6
F-8.0
sb(dp1939
I00
F-69.349
sI01
F40.59768411036467
ss(i__main__
State
p1940
(dp1941
g3
F5.0
sg4
F9.0
sg5
F-5.0
sg6
F8.0
sb(dp1942
I00
F40.28
sI01
F0.0
ss(i__main__
State
p1943
(dp1944
g3
F4.0
sg4
F9.0
sg5
F-4.0
sg6
F-4.0
sb(dp1945
I00
F51.99914351199125
sI01
F19.992829773581647
ss(i__main__
State
p1946
(dp1947
g3
F-8.0
sg4
F0.0
sg5
F8.0
sg6
F0.0
sb(dp1948
I00
F41.799987065100126
sI01
F22.717798358
ss(i__main__
State
p1949
(dp1950
g3
F-6.0
sg4
F8.0
sg5
F6.0
sg6
F-2.0
sb(dp1951
I00
F331.04328835430334
sI01
F-1534.0367375285668
ss(i__main__
State
p1952
(dp1953
g3
F-8.0
sg4
F4.0
sg5
F8.0
sg6
F-8.0
sb(dp1954
I00
F-57.099999999999994
sI01
F57.41446821151708
ss(i__main__
State
p1955
(dp1956
g3
F0.0
sg4
F10.0
sg5
F0.0
sg6
F-2.0
sb(dp1957
I00
F-1887.7801752864539
sI01
F-2694.812510506223
ss(i__main__
State
p1958
(dp1959
g3
F2.0
sg4
F7.0
sg5
F-2.0
sg6
F-6.0
sb(dp1960
I00
F50.36018556054491
sI01
F36.334240772640435
ss(i__main__
State
p1961
(dp1962
g3
F2.0
sg4
F7.0
sg5
F-2.0
sg6
F4.0
sb(dp1963
I00
F42.260000000000005
sI01
F31.181515360824513
ss(i__main__
State
p1964
(dp1965
g3
F-7.0
sg4
F4.0
sg5
F7.0
sg6
F-8.0
sb(dp1966
I00
F-74.20501462110823
sI01
F-41.087
ss(i__main__
State
p1967
(dp1968
g3
F-8.0
sg4
F4.0
sg5
F8.0
sg6
F0.0
sb(dp1969
I00
I24
sI01
F65.08715198087067
ss(i__main__
State
p1970
(dp1971
g3
F3.0
sg4
F7.0
sg5
F-3.0
sg6
F-6.0
sb(dp1972
I00
F-44.65888034895342
sI01
F-223.92817356669818
ss(i__main__
State
p1973
(dp1974
g3
F6.0
sg4
F8.0
sg5
F-6.0
sg6
F2.0
sb(dp1975
I00
F357.19883888831276
sI01
F54.0888310887373
ss(i__main__
State
p1976
(dp1977
g3
F-7.0
sg4
F6.0
sg5
F7.0
sg6
F-8.0
sb(dp1978
I00
F8.4888356264568
sI01
F31.31398351233
ss(i__main__
State
p1979
(dp1980
g3
F8.0
sg4
F9.0
sg5
F-8.0
sg6
F-6.0
sb(dp1981
I00
F93.46545844125544
sI01
F0.0
ss(i__main__
State
p1982
(dp1983
g3
F4.0
sg4
F9.0
sg5
F-4.0
sg6
F2.0
sb(dp1984
I00
F158.40811323583384
sI01
F0.0
ss(i__main__
State
p1985
(dp1986
g3
F-3.0
sg4
F4.0
sg5
F3.0
sg6
F0.0
sb(dp1987
I00
I16
sI01
F-73.86327272796319
ss(i__main__
State
p1988
(dp1989
g3
F7.0
sg4
F9.0
sg5
F-7.0
sg6
F-4.0
sb(dp1990
I00
F134.13946096996105
sI01
F10.0
ss(i__main__
State
p1991
(dp1992
g3
F-3.0
sg4
F9.0
sg5
F3.0
sg6
F2.0
sb(dp1993
I00
F22.64188874539203
sI01
F45.392031358699995
ss(i__main__
State
p1994
(dp1995
g3
F5.0
sg4
F1.0
sg5
F-5.0
sg6
F0.0
sb(dp1996
I00
F37.02984798208451
sI01
F-14.05973861176885
ss(i__main__
State
p1997
(dp1998
g3
F-7.0
sg4
F2.0
sg5
F7.0
sg6
F-8.0
sb(dp1999
I00
F5.602
sI01
F52.93742358273606
ss(i__main__
State
p2000
(dp2001
g3
F3.0
sg4
F0.0
sg5
F-3.0
sg6
F4.0
sb(dp2002
I00
I-94
sI01
F-74.59321823799586
ss(i__main__
State
p2003
(dp2004
g3
F0.0
sg4
F9.0
sg5
F0.0
sg6
F-2.0
sb(dp2005
I00
F-824.04037174212
sI01
F253.45118181987402
ss(i__main__
State
p2006
(dp2007
g3
F0.0
sg4
F6.0
sg5
F0.0
sg6
F-6.0
sb(dp2008
I00
F80.56856163929433
sI01
F-44.0
ss(i__main__
State
p2009
(dp2010
g3
F4.0
sg4
F4.0
sg5
F-4.0
sg6
F-8.0
sb(dp2011
I00
F72.8721453559619
sI01
I-5
ss(i__main__
State
p2012
(dp2013
g3
F-6.0
sg4
F4.0
sg5
F6.0
sg6
F4.0
sb(dp2014
I00
F5.105263661075395
sI01
F-10.15308915009559
ss(i__main__
State
p2015
(dp2016
g3
F8.0
sg4
F3.0
sg5
F-8.0
sg6
F2.0
sb(dp2017
I00
F32.14710363004621
sI01
F61.435413430358025
ss(i__main__
State
p2018
(dp2019
g3
F-2.0
sg4
F8.0
sg5
F2.0
sg6
F8.0
sb(dp2020
I00
F373.3368782562463
sI01
F112.95109904280451
ss(i__main__
State
p2021
(dp2022
g3
F7.0
sg4
F9.0
sg5
F-7.0
sg6
F6.0
sb(dp2023
I00
F148.57047966879256
sI01
F12.304919726000001
ss(i__main__
State
p2024
(dp2025
g3
F-5.0
sg4
F1.0
sg5
F5.0
sg6
F4.0
sb(dp2026
I00
F59.89394858031283
sI01
F58.95885
ss(i__main__
State
p2027
(dp2028
g3
F-2.0
sg4
F5.0
sg5
F2.0
sg6
F-8.0
sb(dp2029
I00
F53.09555172492901
sI01
I37
ss(i__main__
State
p2030
(dp2031
g3
F-1.0
sg4
F9.0
sg5
F1.0
sg6
F-8.0
sb(dp2032
I00
F120.47461123774698
sI01
F0.0
ss(i__main__
State
p2033
(dp2034
g3
F-2.0
sg4
F1.0
sg5
F2.0
sg6
F0.0
sb(dp2035
I00
F-14.714658692636199
sI01
F20.560444511757385
ss(i__main__
State
p2036
(dp2037
g3
F-2.0
sg4
F0.0
sg5
F2.0
sg6
F-2.0
sb(dp2038
I00
F26.80124909835827
sI01
F-38.2
ss(i__main__
State
p2039
(dp2040
g3
F-6.0
sg4
F2.0
sg5
F6.0
sg6
F0.0
sb(dp2041
I00
F47.183380532436104
sI01
F-18.98878946397192
ss(i__main__
State
p2042
(dp2043
g3
F-3.0
sg4
F5.0
sg5
F3.0
sg6
F-8.0
sb(dp2044
I00
F39.180800000000005
sI01
F42.783778362938705
ss(i__main__
State
p2045
(dp2046
g3
F8.0
sg4
F10.0
sg5
F-8.0
sg6
F0.0
sb(dp2047
I00
F150.39498953147697
sI01
F32.746260440061334
ss(i__main__
State
p2048
(dp2049
g3
F-4.0
sg4
F5.0
sg5
F4.0
sg6
F-8.0
sb(dp2050
I00
F51.937075475
sI01
F56.174
ss(i__main__
State
p2051
(dp2052
g3
F8.0
sg4
F4.0
sg5
F-8.0
sg6
F6.0
sb(dp2053
I00
F48.13806289597831
sI01
F-1.4725623995674901
ss(i__main__
State
p2054
(dp2055
g3
F2.0
sg4
F1.0
sg5
F-2.0
sg6
F-4.0
sb(dp2056
I00
F45.9
sI01
F71.64797280331405
ss(i__main__
State
p2057
(dp2058
g3
F-5.0
sg4
F3.0
sg5
F5.0
sg6
F2.0
sb(dp2059
I00
F52.73160716549126
sI01
F10.272982346772631
ss(i__main__
State
p2060
(dp2061
g3
F-8.0
sg4
F4.0
sg5
F8.0
sg6
F-2.0
sb(dp2062
I00
F9.674325430696307
sI01
F-49.566866176251715
ss(i__main__
State
p2063
(dp2064
g3
F-4.0
sg4
F6.0
sg5
F4.0
sg6
F8.0
sb(dp2065
I00
F46.924942907015854
sI01
F-59.371
ss(i__main__
State
p2066
(dp2067
g3
F3.0
sg4
F1.0
sg5
F-3.0
sg6
F-4.0
sb(dp2068
I00
F-56.245507853004256
sI01
F40.37841195897103
ss(i__main__
State
p2069
(dp2070
g3
F-6.0
sg4
F4.0
sg5
F6.0
sg6
F6.0
sb(dp2071
I00
F-4.229999999999999
sI01
F30.181247282254066
ss(i__main__
State
p2072
(dp2073
g3
F-8.0
sg4
F7.0
sg5
F8.0
sg6
F8.0
sb(dp2074
I00
F38.726601
sI01
I-49
ss(i__main__
State
p2075
(dp2076
g3
F-3.0
sg4
F6.0
sg5
F3.0
sg6
F0.0
sb(dp2077
I00
F12.91660433191
sI01
F49.12879121017615
ss(i__main__
State
p2078
(dp2079
g3
F7.0
sg4
F10.0
sg5
F-7.0
sg6
F6.0
sb(dp2080
I00
F114.6863254600886
sI01
F131.23625306756037
ss(i__main__
State
p2081
(dp2082
g3
F6.0
sg4
F3.0
sg5
F-6.0
sg6
F8.0
sb(dp2083
I00
F34.453230249
sI01
F59.94036772209184
ss(i__main__
State
p2084
(dp2085
g3
F0.0
sg4
F2.0
sg5
F0.0
sg6
F8.0
sb(dp2086
I00
F43.66687238540943
sI01
F16.674183012317037
ss(i__main__
State
p2087
(dp2088
g3
F-2.0
sg4
F4.0
sg5
F2.0
sg6
F-4.0
sb(dp2089
I00
F10.963828272246001
sI01
F-64.01167
ss(i__main__
State
p2090
(dp2091
g3
F0.0
sg4
F4.0
sg5
F0.0
sg6
F-2.0
sb(dp2092
I00
F-6.05003626146
sI01
F41.751081736294616
ss(i__main__
State
p2093
(dp2094
g3
F6.0
sg4
F9.0
sg5
F-6.0
sg6
F-2.0
sb(dp2095
I00
F-413.38793609132784
sI01
F189.0950332839501
ss(i__main__
State
p2096
(dp2097
g3
F-4.0
sg4
F5.0
sg5
F4.0
sg6
F2.0
sb(dp2098
I00
F-39.684013
sI01
F29.69351386670146
ss(i__main__
State
p2099
(dp2100
g3
F1.0
sg4
F8.0
sg5
F-1.0
sg6
F8.0
sb(dp2101
I00
F-245.32
sI01
F143.59603798848005
ss(i__main__
State
p2102
(dp2103
g3
F-1.0
sg4
F9.0
sg5
F1.0
sg6
F2.0
sb(dp2104
I00
F50.21510386038659
sI01
F178.79134283598242
ss(i__main__
State
p2105
(dp2106
g3
F-2.0
sg4
F10.0
sg5
F2.0
sg6
F0.0
sb(dp2107
I00
F83.59488029992775
sI01
F122.79180857485969
ss(i__main__
State
p2108
(dp2109
g3
F-5.0
sg4
F4.0
sg5
F5.0
sg6
F0.0
sb(dp2110
I00
F73.72707129073426
sI01
F60.895322094718175
ss(i__main__
State
p2111
(dp2112
g3
F-2.0
sg4
F6.0
sg5
F2.0
sg6
F-2.0
sb(dp2113
I00
F-49.8
sI01
F88.51677848474611
ss(i__main__
State
p2114
(dp2115
g3
F-7.0
sg4
F7.0
sg5
F7.0
sg6
F-8.0
sb(dp2116
I00
F-61.3532
sI01
F104.90647019266463
ss(i__main__
State
p2117
(dp2118
g3
F-2.0
sg4
F9.0
sg5
F2.0
sg6
F-6.0
sb(dp2119
I00
F95.52093781853267
sI01
F68.54816158767956
ss(i__main__
State
p2120
(dp2121
g3
F-1.0
sg4
F0.0
sg5
F1.0
sg6
F-4.0
sb(dp2122
I00
F-43.41228824597895
sI01
F-5.6328434823999975
ss(i__main__
State
p2123
(dp2124
g3
F8.0
sg4
F0.0
sg5
F-8.0
sg6
F-4.0
sb(dp2125
I00
F27.2079
sI01
F28.7760636026201
ss(i__main__
State
p2126
(dp2127
g3
F1.0
sg4
F5.0
sg5
F-1.0
sg6
F-6.0
sb(dp2128
I00
F5.250013541987717
sI01
F-45.6007592311942
ss(i__main__
State
p2129
(dp2130
g3
F0.0
sg4
F3.0
sg5
F0.0
sg6
F-2.0
sb(dp2131
I00
I-94
sI01
F-43.8501081474264
ss(i__main__
State
p2132
(dp2133
g3
F7.0
sg4
F7.0
sg5
F-7.0
sg6
F0.0
sb(dp2134
I00
F45.144488
sI01
I-54
ss(i__main__
State
p2135
(dp2136
g3
F-5.0
sg4
F1.0
sg5
F5.0
sg6
F2.0
sb(dp2137
I00
F26.463686950000003
sI01
F45.498211292186696
ss(i__main__
State
p2138
(dp2139
g3
F7.0
sg4
F4.0
sg5
F-7.0
sg6
F-8.0
sb(dp2140
I00
F20.776583238845234
sI01
F-5.783650993358362
ss(i__main__
State
p2141
(dp2142
g3
F-2.0
sg4
F6.0
sg5
F2.0
sg6
F4.0
sb(dp2143
I00
I76
sI01
F79.5894771992132
ss(i__main__
State
p2144
(dp2145
g3
F-2.0
sg4
F10.0
sg5
F2.0
sg6
F-6.0
sb(dp2146
I00
F93.21076690402398
sI01
F117.60198732868795
ss(i__main__
State
p2147
(dp2148
g3
F-5.0
sg4
F8.0
sg5
F5.0
sg6
F4.0
sb(dp2149
I00
F44.294401251661704
sI01
F170.21786516207428
ss(i__main__
State
p2150
(dp2151
g3
F1.0
sg4
F8.0
sg5
F-1.0
sg6
F-4.0
sb(dp2152
I00
F-1556.8136621642225
sI01
F243.54099248443114
ss(i__main__
State
p2153
(dp2154
g3
F0.0
sg4
F4.0
sg5
F0.0
sg6
F4.0
sb(dp2155
I00
F-28.44486287872381
sI01
F37.4982611835067
ss(i__main__
State
p2156
(dp2157
g3
F-4.0
sg4
F9.0
sg5
F4.0
sg6
F0.0
sb(dp2158
I00
F-1899.0
sI01
F-2682.08270057655
ss(i__main__
State
p2159
(dp2160
g3
F6.0
sg4
F1.0
sg5
F-6.0
sg6
F6.0
sb(dp2161
I00
F42.48242693992654
sI01
F42.219142591
ss(i__main__
State
p2162
(dp2163
g3
F6.0
sg4
F4.0
sg5
F-6.0
sg6
F-8.0
sb(dp2164
I00
F45.23242313744675
sI01
F-5.2260159178225845
ss(i__main__
State
p2165
(dp2166
g3
F4.0
sg4
F10.0
sg5
F-4.0
sg6
F0.0
sb(dp2167
I00
F57.555032370400006
sI01
F112.25407639035886
ss(i__main__
State
p2168
(dp2169
g3
F0.0
sg4
F2.0
sg5
F0.0
sg6
F-6.0
sb(dp2170
I00
F14.446320791326533
sI01
F-20.93238044860912
ss(i__main__
State
p2171
(dp2172
g3
F3.0
sg4
F5.0
sg5
F-3.0
sg6
F-6.0
sb(dp2173
I00
F8.693470852906
sI01
F31.0277709272
ss(i__main__
State
p2174
(dp2175
g3
F8.0
sg4
F7.0
sg5
F-8.0
sg6
F-2.0
sb(dp2176
I00
F-57.8
sI01
F154.64038036360716
ss(i__main__
State
p2177
(dp2178
g3
F-8.0
sg4
F2.0
sg5
F8.0
sg6
F8.0
sb(dp2179
I00
I20
sI01
F40.23907714455
ss(i__main__
State
p2180
(dp2181
g3
F7.0
sg4
F4.0
sg5
F-7.0
sg6
F-4.0
sb(dp2182
I00
F73.90735497194082
sI01
F-42.43550253356162
ss(i__main__
State
p2183
(dp2184
g3
F-7.0
sg4
F2.0
sg5
F7.0
sg6
F2.0
sb(dp2185
I00
F62.660276561807855
sI01
F48.24036281910844
ss(i__main__
State
p2186
(dp2187
g3
F4.0
sg4
F5.0
sg5
F-4.0
sg6
F-2.0
sb(dp2188
I00
I-5
sI01
F27.651000000000003
ss(i__main__
State
p2189
(dp2190
g3
F7.0
sg4
F6.0
sg5
F-7.0
sg6
F-8.0
sb(dp2191
I00
F36.38926404374801
sI01
I-97
ss(i__main__
State
p2192
(dp2193
g3
F-7.0
sg4
F3.0
sg5
F7.0
sg6
F0.0
sb(dp2194
I00
F-82.4
sI01
F-32.24392601019579
ss(i__main__
State
p2195
(dp2196
g3
F4.0
sg4
F1.0
sg5
F-4.0
sg6
F6.0
sb(dp2197
I00
F-55.15
sI01
F39.221193840000005
ss(i__main__
State
p2198
(dp2199
g3
F-1.0
sg4
F10.0
sg5
F1.0
sg6
F2.0
sb(dp2200
I00
F190.7807600816755
sI01
F46.11091704877609
ss(i__main__
State
p2201
(dp2202
g3
F8.0
sg4
F6.0
sg5
F-8.0
sg6
F-8.0
sb(dp2203
I00
F-14.4260376807568
sI01
F59.518036672567206
ss(i__main__
State
p2204
(dp2205
g3
F1.0
sg4
F7.0
sg5
F-1.0
sg6
F-2.0
sb(dp2206
I00
F0.19261468522314162
sI01
F-926.022768925729
ss(i__main__
State
p2207
(dp2208
g3
F8.0
sg4
F3.0
sg5
F-8.0
sg6
F6.0
sb(dp2209
I00
F6.207475682414662
sI01
F63.164315336459794
ss(i__main__
State
p2210
(dp2211
g3
F7.0
sg4
F0.0
sg5
F-7.0
sg6
F-4.0
sb(dp2212
I00
I-88
sI01
F26.97627317415371
ss(i__main__
State
p2213
(dp2214
g3
F-4.0
sg4
F5.0
sg5
F4.0
sg6
F0.0
sb(dp2215
I00
F65.42178064561
sI01
F1.1
ss(i__main__
State
p2216
(dp2217
g3
F2.0
sg4
F0.0
sg5
F-2.0
sg6
F4.0
sb(dp2218
I00
F35.519589714404226
sI01
F-60.54470182115947
ss(i__main__
State
p2219
(dp2220
g3
F-2.0
sg4
F8.0
sg5
F2.0
sg6
F-6.0
sb(dp2221
I00
F132.77527494371176
sI01
F47.189752262999995
ss(i__main__
State
p2222
(dp2223
g3
F-1.0
sg4
F6.0
sg5
F1.0
sg6
F6.0
sb(dp2224
I00
F-82.76123377939032
sI01
F1.772626550398508
ss(i__main__
State
p2225
(dp2226
g3
F5.0
sg4
F5.0
sg5
F-5.0
sg6
F4.0
sb(dp2227
I00
F-7.346999999999999
sI01
F-38.866493473761984
ss(i__main__
State
p2228
(dp2229
g3
F0.0
sg4
F6.0
sg5
F0.0
sg6
F0.0
sb(dp2230
I00
F39.56551567780001
sI01
F-10.526012804437062
ss(i__main__
State
p2231
(dp2232
g3
F3.0
sg4
F2.0
sg5
F-3.0
sg6
F-6.0
sb(dp2233
I00
F13.377497438857759
sI01
F35.26
ss(i__main__
State
p2234
(dp2235
g3
F-4.0
sg4
F4.0
sg5
F4.0
sg6
F4.0
sb(dp2236
I00
F-44.4718
sI01
F-5.509669406799996
ss(i__main__
State
p2237
(dp2238
g3
F-7.0
sg4
F1.0
sg5
F7.0
sg6
F0.0
sb(dp2239
I00
F46.8
sI01
I12
ss(i__main__
State
p2240
(dp2241
g3
F7.0
sg4
F7.0
sg5
F-7.0
sg6
F-2.0
sb(dp2242
I00
F1.85297423253098
sI01
F68.66019937140305
ss(i__main__
State
p2243
(dp2244
g3
F5.0
sg4
F10.0
sg5
F-5.0
sg6
F6.0
sb(dp2245
I00
F32.587047707605706
sI01
F0.0
ss(i__main__
State
p2246
(dp2247
g3
F2.0
sg4
F9.0
sg5
F-2.0
sg6
F-8.0
sb(dp2248
I00
F229.71168499764786
sI01
F29.62
ss(i__main__
State
p2249
(dp2250
g3
F4.0
sg4
F0.0
sg5
F-4.0
sg6
F-4.0
sb(dp2251
I00
F-14.833399999999997
sI01
F28.6464269964
ss(i__main__
State
p2252
(dp2253
g3
F7.0
sg4
F0.0
sg5
F-7.0
sg6
F-2.0
sb(dp2254
I00
F-29.7
sI01
F-28.807162720459218
ss(i__main__
State
p2255
(dp2256
g3
F-5.0
sg4
F5.0
sg5
F5.0
sg6
F0.0
sb(dp2257
I00
F81.7104258
sI01
F8.722148865928265
ss(i__main__
State
p2258
(dp2259
g3
F3.0
sg4
F9.0
sg5
F-3.0
sg6
F-8.0
sb(dp2260
I00
F66.12822874140056
sI01
F0.0
ss(i__main__
State
p2261
(dp2262
g3
F7.0
sg4
F5.0
sg5
F-7.0
sg6
F4.0
sb(dp2263
I00
I-84
sI01
F37.557501512099925
ss(i__main__
State
p2264
(dp2265
g3
F5.0
sg4
F7.0
sg5
F-5.0
sg6
F-6.0
sb(dp2266
I00
F95.88432069303752
sI01
F84.193433309001
ss(i__main__
State
p2267
(dp2268
g3
F-3.0
sg4
F7.0
sg5
F3.0
sg6
F8.0
sb(dp2269
I00
F-5.452060747431997
sI01
F-44.79
ss(i__main__
State
p2270
(dp2271
g3
F0.0
sg4
F7.0
sg5
F0.0
sg6
F2.0
sb(dp2272
I00
F65.784
sI01
I-26
ss(i__main__
State
p2273
(dp2274
g3
F0.0
sg4
F10.0
sg5
F0.0
sg6
F4.0
sb(dp2275
I00
F-3398.30138721919
sI01
F-3417.2571811334738
ss(i__main__
State
p2276
(dp2277
g3
F6.0
sg4
F9.0
sg5
F-6.0
sg6
F-6.0
sb(dp2278
I00
F347.2752619074546
sI01
F133.71159982201166
ss(i__main__
State
p2279
(dp2280
g3
F-5.0
sg4
F7.0
sg5
F5.0
sg6
F6.0
sb(dp2281
I00
F0.5158000000000005
sI01
F15.874376100000001
ss(i__main__
State
p2282
(dp2283
g3
F-1.0
sg4
F5.0
sg5
F1.0
sg6
F-2.0
sb(dp2284
I00
F-27.969759076326696
sI01
F11.070109092661479
ss(i__main__
State
p2285
(dp2286
g3
F-3.0
sg4
F10.0
sg5
F3.0
sg6
F-8.0
sb(dp2287
I00
F330.971781022284
sI01
F72.155117201
ss(i__main__
State
p2288
(dp2289
g3
F1.0
sg4
F0.0
sg5
F-1.0
sg6
F4.0
sb(dp2290
I00
F69.79650320187253
sI01
F36.51538474927078
ss(i__main__
State
p2291
(dp2292
g3
F-5.0
sg4
F10.0
sg5
F5.0
sg6
F8.0
sb(dp2293
I00
F39.87647149302357
sI01
F38.680897260964805
ss(i__main__
State
p2294
(dp2295
g3
F-2.0
sg4
F2.0
sg5
F2.0
sg6
F4.0
sb(dp2296
I00
F11.783574559729253
sI01
I-30
ss(i__main__
State
p2297
(dp2298
g3
F-7.0
sg4
F5.0
sg5
F7.0
sg6
F-4.0
sb(dp2299
I00
F51.163082805205335
sI01
F21.5856
ss(i__main__
State
p2300
(dp2301
g3
F5.0
sg4
F4.0
sg5
F-5.0
sg6
F-8.0
sb(dp2302
I00
F-48.2652253977
sI01
F52.96324258436373
ss(i__main__
State
p2303
(dp2304
g3
F6.0
sg4
F4.0
sg5
F-6.0
sg6
F-4.0
sb(dp2305
I00
F54.38282598261888
sI01
F50.8
ss(i__main__
State
p2306
(dp2307
g3
F3.0
sg4
F8.0
sg5
F-3.0
sg6
F-6.0
sb(dp2308
I00
F-239.84698689482929
sI01
F281.581606244974
ss(i__main__
State
p2309
(dp2310
g3
F-1.0
sg4
F4.0
sg5
F1.0
sg6
F6.0
sb(dp2311
I00
F86.57140877946122
sI01
I51
ss(i__main__
State
p2312
(dp2313
g3
F-1.0
sg4
F8.0
sg5
F1.0
sg6
F-8.0
sb(dp2314
I00
F70.7325883426
sI01
F0.0
ss(i__main__
State
p2315
(dp2316
g3
F3.0
sg4
F8.0
sg5
F-3.0
sg6
F4.0
sb(dp2317
I00
F76.93226655701412
sI01
F29.66716131987015
ss(i__main__
State
p2318
(dp2319
g3
F6.0
sg4
F6.0
sg5
F-6.0
sg6
F-8.0
sb(dp2320
I00
F36.30441698333677
sI01
F78.14530311204553
ss(i__main__
State
p2321
(dp2322
g3
F-3.0
sg4
F8.0
sg5
F3.0
sg6
F2.0
sb(dp2323
I00
F201.4884443869636
sI01
F22.094226
ss(i__main__
State
p2324
(dp2325
g3
F1.0
sg4
F2.0
sg5
F-1.0
sg6
F-6.0
sb(dp2326
I00
I-65
sI01
F24.311306280999997
ss(i__main__
State
p2327
(dp2328
g3
F-5.0
sg4
F8.0
sg5
F5.0
sg6
F0.0
sb(dp2329
I00
F133.55788759954726
sI01
F21.1
ss(i__main__
State
p2330
(dp2331
g3
F3.0
sg4
F9.0
sg5
F-3.0
sg6
F6.0
sb(dp2332
I00
F194.0251238973682
sI01
F39.22219462898559
ss(i__main__
State
p2333
(dp2334
g3
F0.0
sg4
F8.0
sg5
F0.0
sg6
F-4.0
sb(dp2335
I00
F-4085.47134454131
sI01
F-4639.6160965584295
ss(i__main__
State
p2336
(dp2337
g3
F-7.0
sg4
F3.0
sg5
F7.0
sg6
F-4.0
sb(dp2338
I00
F2.6279947353668835
sI01
F6.53829897802758
ss(i__main__
State
p2339
(dp2340
g3
F4.0
sg4
F0.0
sg5
F-4.0
sg6
F2.0
sb(dp2341
I00
F-31.1
sI01
F-12.088446133706114
ss(i__main__
State
p2342
(dp2343
g3
F7.0
sg4
F3.0
sg5
F-7.0
sg6
F8.0
sb(dp2344
I00
I-100
sI01
F-3.6759781294034273
ss(i__main__
State
p2345
(dp2346
g3
F-4.0
sg4
F4.0
sg5
F4.0
sg6
F2.0
sb(dp2347
I00
I-30
sI01
F26.9843014154857
ss(i__main__
State
p2348
(dp2349
g3
F-4.0
sg4
F9.0
sg5
F4.0
sg6
F4.0
sb(dp2350
I00
F36.41888745392032
sI01
F17.888292915971203
ss(i__main__
State
p2351
(dp2352
g3
F-2.0
sg4
F4.0
sg5
F2.0
sg6
F4.0
sb(dp2353
I00
I-64
sI01
F41.72303922712358
ss(i__main__
State
p2354
(dp2355
g3
F3.0
sg4
F4.0
sg5
F-3.0
sg6
F8.0
sb(dp2356
I00
F35.76974074022041
sI01
F-34.74386232126453
ss(i__main__
State
p2357
(dp2358
g3
F3.0
sg4
F1.0
sg5
F-3.0
sg6
F6.0
sb(dp2359
I00
F53.635662388926555
sI01
F-60.174
ss(i__main__
State
p2360
(dp2361
g3
F2.0
sg4
F0.0
sg5
F-2.0
sg6
F0.0
sb(dp2362
I00
I-85
sI01
F-11.485695899999996
ss(i__main__
State
p2363
(dp2364
g3
F-5.0
sg4
F5.0
sg5
F5.0
sg6
F6.0
sb(dp2365
I00
F-17.92
sI01
F57.56803050381285
ss(i__main__
State
p2366
(dp2367
g3
F-8.0
sg4
F7.0
sg5
F8.0
sg6
F2.0
sb(dp2368
I00
F-34.63666104528073
sI01
F109.32163682220964
ss(i__main__
State
p2369
(dp2370
g3
F-7.0
sg4
F2.0
sg5
F7.0
sg6
F6.0
sb(dp2371
I00
F-72.1
sI01
F64.2135
ss(i__main__
State
p2372
(dp2373
g3
F3.0
sg4
F4.0
sg5
F-3.0
sg6
F-2.0
sb(dp2374
I00
F44.491970118268995
sI01
F-45.29978816977093
ss(i__main__
State
p2375
(dp2376
g3
F-3.0
sg4
F4.0
sg5
F3.0
sg6
F8.0
sb(dp2377
I00
F42.39179824291509
sI01
F-8.109999999999998
ss(i__main__
State
p2378
(dp2379
g3
F5.0
sg4
F7.0
sg5
F-5.0
sg6
F-4.0
sb(dp2380
I00
F58.870248549885
sI01
F3.825665218617985
ss(i__main__
State
p2381
(dp2382
g3
F2.0
sg4
F8.0
sg5
F-2.0
sg6
F8.0
sb(dp2383
I00
F13.364204817822216
sI01
F136.08640202273816
ss(i__main__
State
p2384
(dp2385
g3
F2.0
sg4
F0.0
sg5
F-2.0
sg6
F-6.0
sb(dp2386
I00
F48.079176188815325
sI01
F34.68
ss(i__main__
State
p2387
(dp2388
g3
F-4.0
sg4
F3.0
sg5
F4.0
sg6
F8.0
sb(dp2389
I00
F-64.4
sI01
F54.90369
ss(i__main__
State
p2390
(dp2391
g3
F-7.0
sg4
F4.0
sg5
F7.0
sg6
F2.0
sb(dp2392
I00
F37.44677198247746
sI01
F-21.997006907586997
ss(i__main__
State
p2393
(dp2394
g3
F-1.0
sg4
F2.0
sg5
F1.0
sg6
F6.0
sb(dp2395
I00
F91.93677083309001
sI01
F59.054752453999996
ss(i__main__
State
p2396
(dp2397
g3
F5.0
sg4
F2.0
sg5
F-5.0
sg6
F-2.0
sb(dp2398
I00
I48
sI01
F46.88376
ss(i__main__
State
p2399
(dp2400
g3
F-4.0
sg4
F5.0
sg5
F4.0
sg6
F8.0
sb(dp2401
I00
I-44
sI01
F60.5
ss(i__main__
State
p2402
(dp2403
g3
F6.0
sg4
F5.0
sg5
F-6.0
sg6
F2.0
sb(dp2404
I00
F81.0
sI01
F93.7930597750557
ss(i__main__
State
p2405
(dp2406
g3
F-1.0
sg4
F9.0
sg5
F1.0
sg6
F4.0
sb(dp2407
I00
F248.11548286976512
sI01
F57.996014488776126
ss(i__main__
State
p2408
(dp2409
g3
F1.0
sg4
F7.0
sg5
F-1.0
sg6
F0.0
sb(dp2410
I00
F82.5
sI01
F-420.9262265003065
ss(i__main__
State
p2411
(dp2412
g3
F8.0
sg4
F6.0
sg5
F-8.0
sg6
F6.0
sb(dp2413
I00
F37.11989875409478
sI01
I-52
ss(i__main__
State
p2414
(dp2415
g3
F-6.0
sg4
F6.0
sg5
F6.0
sg6
F0.0
sb(dp2416
I00
F-29.004833692868843
sI01
I-66
ss(i__main__
State
p2417
(dp2418
g3
F7.0
sg4
F0.0
sg5
F-7.0
sg6
F-8.0
sb(dp2419
I00
I-45
sI01
F-28.0614
ss(i__main__
State
p2420
(dp2421
g3
F3.0
sg4
F4.0
sg5
F-3.0
sg6
F6.0
sb(dp2422
I00
F-38.131949999999996
sI01
F28.517637706594844
ss(i__main__
State
p2423
(dp2424
g3
F-2.0
sg4
F2.0
sg5
F2.0
sg6
F-4.0
sb(dp2425
I00
F46.487723953125695
sI01
F-40.53815430538724
ss(i__main__
State
p2426
(dp2427
g3
F-6.0
sg4
F10.0
sg5
F6.0
sg6
F-2.0
sb(dp2428
I00
F392.1875332508207
sI01
F31.36309
ss(i__main__
State
p2429
(dp2430
g3
F1.0
sg4
F4.0
sg5
F-1.0
sg6
F-2.0
sb(dp2431
I00
F-47.39935
sI01
F-50.59175823814999
ss(i__main__
State
p2432
(dp2433
g3
F7.0
sg4
F6.0
sg5
F-7.0
sg6
F8.0
sb(dp2434
I00
F68.82110555729224
sI01
F35.37386944897074
ss(i__main__
State
p2435
(dp2436
g3
F3.0
sg4
F1.0
sg5
F-3.0
sg6
F8.0
sb(dp2437
I00
I-59
sI01
F26.536493245
ss(i__main__
State
p2438
(dp2439
g3
F-7.0
sg4
F7.0
sg5
F7.0
sg6
F4.0
sb(dp2440
I00
F-25.512054728372547
sI01
F121.7496062820066
ss(i__main__
State
p2441
(dp2442
g3
F4.0
sg4
F5.0
sg5
F-4.0
sg6
F2.0
sb(dp2443
I00
F14.770334201778068
sI01
F-43.6655
ss(i__main__
State
p2444
(dp2445
g3
F5.0
sg4
F6.0
sg5
F-5.0
sg6
F-2.0
sb(dp2446
I00
F20.43980822268754
sI01
F110.0493578188135
ss(i__main__
State
p2447
(dp2448
g3
F-8.0
sg4
F9.0
sg5
F8.0
sg6
F4.0
sb(dp2449
I00
F81.2854087263948
sI01
F0.0
ss(i__main__
State
p2450
(dp2451
g3
F-7.0
sg4
F5.0
sg5
F7.0
sg6
F8.0
sb(dp2452
I00
F-52.67
sI01
F21.04210360679205
ss(i__main__
State
p2453
(dp2454
g3
F0.0
sg4
F3.0
sg5
F0.0
sg6
F-8.0
sb(dp2455
I00
I-26
sI01
F27.82440076
ss(i__main__
State
p2456
(dp2457
g3
F7.0
sg4
F5.0
sg5
F-7.0
sg6
F-2.0
sb(dp2458
I00
F-14.089071993072022
sI01
F4.10053693047407
ss(i__main__
State
p2459
(dp2460
g3
F-4.0
sg4
F2.0
sg5
F4.0
sg6
F-4.0
sb(dp2461
I00
F9.332024468678933
sI01
F65.0576059002714
ss(i__main__
State
p2462
(dp2463
g3
F4.0
sg4
F10.0
sg5
F-4.0
sg6
F-2.0
sb(dp2464
I00
F322.3185040440038
sI01
F17.09
ss(i__main__
State
p2465
(dp2466
g3
F-1.0
sg4
F5.0
sg5
F1.0
sg6
F8.0
sb(dp2467
I00
F-4.1099999999999985
sI01
F62.808987505894954
ss(i__main__
State
p2468
(dp2469
g3
F-8.0
sg4
F1.0
sg5
F8.0
sg6
F-2.0
sb(dp2470
I00
I-83
sI01
F-59.1525564694
ss(i__main__
State
p2471
(dp2472
g3
F3.0
sg4
F7.0
sg5
F-3.0
sg6
F0.0
sb(dp2473
I00
F-32.4
sI01
F105.63328729822936
ss(i__main__
State
p2474
(dp2475
g3
F-3.0
sg4
F10.0
sg5
F3.0
sg6
F6.0
sb(dp2476
I00
F207.80328465604006
sI01
F40.95794419255179
ss(i__main__
State
p2477
(dp2478
g3
F2.0
sg4
F2.0
sg5
F-2.0
sg6
F0.0
sb(dp2479
I00
F18.34
sI01
F10.272994562424
ss(i__main__
State
p2480
(dp2481
g3
F8.0
sg4
F4.0
sg5
F-8.0
sg6
F-2.0
sb(dp2482
I00
F39.58725648239954
sI01
F-42.66995309
ss(i__main__
State
p2483
(dp2484
g3
F1.0
sg4
F5.0
sg5
F-1.0
sg6
F4.0
sb(dp2485
I00
F34.0884600662564
sI01
F14.734488000000002
ss(i__main__
State
p2486
(dp2487
g3
F8.0
sg4
F0.0
sg5
F-8.0
sg6
F2.0
sb(dp2488
I00
F44.06138788004931
sI01
F-21.768135415559176
ss(i__main__
State
p2489
(dp2490
g3
F-2.0
sg4
F8.0
sg5
F2.0
sg6
F2.0
sb(dp2491
I00
F194.56061895134934
sI01
F39.831481129163656
ss(i__main__
State
p2492
(dp2493
g3
F7.0
sg4
F3.0
sg5
F-7.0
sg6
F-6.0
sb(dp2494
I00
I-1
sI01
F47.50455874169147
ss(i__main__
State
p2495
(dp2496
g3
F-6.0
sg4
F0.0
sg5
F6.0
sg6
F0.0
sb(dp2497
I00
F49.123090655144324
sI01
F3.55
ss(i__main__
State
p2498
(dp2499
g3
F-8.0
sg4
F8.0
sg5
F8.0
sg6
F-2.0
sb(dp2500
I00
F81.9696152983062
sI01
F-414.46412
ss(i__main__
State
p2501
(dp2502
g3
F-2.0
sg4
F9.0
sg5
F2.0
sg6
F6.0
sb(dp2503
I00
F53.051105235335
sI01
F234.09898549943028
ss(i__main__
State
p2504
(dp2505
g3
F-6.0
sg4
F10.0
sg5
F6.0
sg6
F8.0
sb(dp2506
I00
F22.507364477977596
sI01
F0.0
ss(i__main__
State
p2507
(dp2508
g3
F-6.0
sg4
F1.0
sg5
F6.0
sg6
F0.0
sb(dp2509
I00
F70.06802558662126
sI01
F-23.211137024744794
ss(i__main__
State
p2510
(dp2511
g3
F1.0
sg4
F6.0
sg5
F-1.0
sg6
F-6.0
sb(dp2512
I00
F-25.059960708263745
sI01
F-59.864999999999995
ss(i__main__
State
p2513
(dp2514
g3
F-1.0
sg4
F2.0
sg5
F1.0
sg6
F-2.0
sb(dp2515
I00
F80.37523532547542
sI01
I-43
ss(i__main__
State
p2516
(dp2517
g3
F-4.0
sg4
F8.0
sg5
F4.0
sg6
F2.0
sb(dp2518
I00
F151.75915381624662
sI01
F18.851758744847384
ss(i__main__
State
p2519
(dp2520
g3
F5.0
sg4
F3.0
sg5
F-5.0
sg6
F-2.0
sb(dp2521
I00
F-24.3
sI01
F53.0902539520079
ss(i__main__
State
p2522
(dp2523
g3
F0.0
sg4
F1.0
sg5
F0.0
sg6
F-8.0
sb(dp2524
I00
F32.53194386248059
sI01
F-67.9472095801373
ss(i__main__
State
p2525
(dp2526
g3
F8.0
sg4
F2.0
sg5
F-8.0
sg6
F8.0
sb(dp2527
I00
F44.252425724440265
sI01
F46.24528977721435
ss(i__main__
State
p2528
(dp2529
g3
F8.0
sg4
F4.0
sg5
F-8.0
sg6
F8.0
sb(dp2530
I00
F31.15056188276063
sI01
F10.814045749955966
ss(i__main__
State
p2531
(dp2532
g3
F-8.0
sg4
F9.0
sg5
F8.0
sg6
F6.0
sb(dp2533
I00
F78.3348344770107
sI01
F19.877551010407977
ss(i__main__
State
p2534
(dp2535
g3
F-3.0
sg4
F0.0
sg5
F3.0
sg6
F0.0
sb(dp2536
I00
F42.33429143077956
sI01
F-52.15
ss(i__main__
State
p2537
(dp2538
g3
F-1.0
sg4
F3.0
sg5
F1.0
sg6
F4.0
sb(dp2539
I00
F8.929852318860899
sI01
F-18.06410267988925
ss(i__main__
State
p2540
(dp2541
g3
F-6.0
sg4
F5.0
sg5
F6.0
sg6
F0.0
sb(dp2542
I00
I-10
sI01
F46.36713132262527
ss(i__main__
State
p2543
(dp2544
g3
F1.0
sg4
F10.0
sg5
F-1.0
sg6
F-2.0
sb(dp2545
I00
F-1419.8085389807013
sI01
F137.74735116957913
ss(i__main__
State
p2546
(dp2547
g3
F5.0
sg4
F1.0
sg5
F-5.0
sg6
F-8.0
sb(dp2548
I00
I-91
sI01
F-7.98814682
ss(i__main__
State
p2549
(dp2550
g3
F-3.0
sg4
F9.0
sg5
F3.0
sg6
F-2.0
sb(dp2551
I00
F-72.7
sI01
F84.8331114643045
ss(i__main__
State
p2552
(dp2553
g3
F-5.0
sg4
F4.0
sg5
F5.0
sg6
F4.0
sb(dp2554
I00
F-14.783537973596598
sI01
F23.675191856154456
ss(i__main__
State
p2555
(dp2556
g3
F-8.0
sg4
F6.0
sg5
F8.0
sg6
F-4.0
sb(dp2557
I00
I18
sI01
F86.6728530780995
ss(i__main__
State
p2558
(dp2559
g3
F2.0
sg4
F9.0
sg5
F-2.0
sg6
F-2.0
sb(dp2560
I00
F-692.2458750385927
sI01
F186.85907327693235
ss(i__main__
State
p2561
(dp2562
g3
F-7.0
sg4
F8.0
sg5
F7.0
sg6
F-8.0
sb(dp2563
I00
F99.44141467745149
sI01
F39.44210579871651
ss(i__main__
State
p2564
(dp2565
g3
F8.0
sg4
F4.0
sg5
F-8.0
sg6
F-8.0
sb(dp2566
I00
F-4.039022189927975
sI01
I-13
ss(i__main__
State
p2567
(dp2568
g3
F2.0
sg4
F5.0
sg5
F-2.0
sg6
F4.0
sb(dp2569
I00
F-20.845473723375605
sI01
F-45.8064
ss(i__main__
State
p2570
(dp2571
g3
F-3.0
sg4
F2.0
sg5
F3.0
sg6
F-2.0
sb(dp2572
I00
F51.197349648035996
sI01
F-0.404709947105899
ss(i__main__
State
p2573
(dp2574
g3
F-8.0
sg4
F2.0
sg5
F8.0
sg6
F0.0
sb(dp2575
I00
F-49.08273586
sI01
F55.71341555849553
ss(i__main__
State
p2576
(dp2577
g3
F8.0
sg4
F10.0
sg5
F-8.0
sg6
F-2.0
sb(dp2578
I00
F50.48214092283928
sI01
F0.0
ss(i__main__
State
p2579
(dp2580
g3
F2.0
sg4
F2.0
sg5
F-2.0
sg6
F-2.0
sb(dp2581
I00
F43.26555357671284
sI01
F-44.970374369539584
ss(i__main__
State
p2582
(dp2583
g3
F-1.0
sg4
F8.0
sg5
F1.0
sg6
F0.0
sb(dp2584
I00
F47.027230873946166
sI01
F155.1449596567595
ss(i__main__
State
p2585
(dp2586
g3
F-6.0
sg4
F9.0
sg5
F6.0
sg6
F-6.0
sb(dp2587
I00
F30.6822332029914
sI01
F164.55192665679732
ss(i__main__
State
p2588
(dp2589
g3
F-3.0
sg4
F3.0
sg5
F3.0
sg6
F6.0
sb(dp2590
I00
F-30.25
sI01
F38.32232871622486
ss(i__main__
State
p2591
(dp2592
g3
F0.0
sg4
F7.0
sg5
F0.0
sg6
F4.0
sb(dp2593
I00
F29.477363492120322
sI01
F220.89118130359003
ss(i__main__
State
p2594
(dp2595
g3
F-8.0
sg4
F7.0
sg5
F8.0
sg6
F6.0
sb(dp2596
I00
F21.76257221894491
sI01
F153.64198046050075
ss(i__main__
State
p2597
(dp2598
g3
F4.0
sg4
F4.0
sg5
F-4.0
sg6
F6.0
sb(dp2599
I00
F5.433231111043139
sI01
F-33.51254348968537
ss(i__main__
State
p2600
(dp2601
g3
F-1.0
sg4
F5.0
sg5
F1.0
sg6
F-8.0
sb(dp2602
I00
F7.6
sI01
F51.784721533426406
ss(i__main__
State
p2603
(dp2604
g3
F6.0
sg4
F5.0
sg5
F-6.0
sg6
F6.0
sb(dp2605
I00
F27.709821000847924
sI01
F42.79611001258159
ss(i__main__
State
p2606
(dp2607
g3
F-1.0
sg4
F1.0
sg5
F1.0
sg6
F0.0
sb(dp2608
I00
F4.5619751
sI01
I-66
ss(i__main__
State
p2609
(dp2610
g3
F-2.0
sg4
F7.0
sg5
F2.0
sg6
F6.0
sb(dp2611
I00
F12.620578244010002
sI01
F-62.8
ss(i__main__
State
p2612
(dp2613
g3
F4.0
sg4
F9.0
sg5
F-4.0
sg6
F-2.0
sb(dp2614
I00
F-1597.064980815378
sI01
F335.25574210900584
ss(i__main__
State
p2615
(dp2616
g3
F-3.0
sg4
F3.0
sg5
F3.0
sg6
F-8.0
sb(dp2617
I00
F-70.34701
sI01
F-15.82826785641652
ss(i__main__
State
p2618
(dp2619
g3
F5.0
sg4
F6.0
sg5
F-5.0
sg6
F-6.0
sb(dp2620
I00
F6.4689625601695155
sI01
F87.09334604019493
ss(i__main__
State
p2621
(dp2622
g3
F-1.0
sg4
F8.0
sg5
F1.0
sg6
F-2.0
sb(dp2623
I00
F54.710502611884415
sI01
F10.0
ss(i__main__
State
p2624
(dp2625
g3
F-6.0
sg4
F8.0
sg5
F6.0
sg6
F-4.0
sb(dp2626
I00
F20.0
sI01
F13.32252
ss(i__main__
State
p2627
(dp2628
g3
F7.0
sg4
F2.0
sg5
F-7.0
sg6
F-6.0
sb(dp2629
I00
F-84.7
sI01
F20.969033398853153
ss(i__main__
State
p2630
(dp2631
g3
F5.0
sg4
F9.0
sg5
F-5.0
sg6
F-2.0
sb(dp2632
I00
F-897.3778329281793
sI01
F180.44606127402565
ss(i__main__
State
p2633
(dp2634
g3
F2.0
sg4
F3.0
sg5
F-2.0
sg6
F-8.0
sb(dp2635
I00
F-38.85870156468731
sI01
F75.42262677674319
ss(i__main__
State
p2636
(dp2637
g3
F7.0
sg4
F1.0
sg5
F-7.0
sg6
F2.0
sb(dp2638
I00
F-71.53117657
sI01
F20.899757880985398
ss(i__main__
State
p2639
(dp2640
g3
F-4.0
sg4
F2.0
sg5
F4.0
sg6
F8.0
sb(dp2641
I00
F31.226933554324162
sI01
F-88.15
ss(i__main__
State
p2642
(dp2643
g3
F-8.0
sg4
F6.0
sg5
F8.0
sg6
F-2.0
sb(dp2644
I00
F32.256
sI01
F-49.46795570888931
ss(i__main__
State
p2645
(dp2646
g3
F3.0
sg4
F2.0
sg5
F-3.0
sg6
F2.0
sb(dp2647
I00
F1.8604714659560004
sI01
F43.61839172606669
ss(i__main__
State
p2648
(dp2649
g3
F7.0
sg4
F4.0
sg5
F-7.0
sg6
F-6.0
sb(dp2650
I00
F-61.13358899999999
sI01
F-45.64059086846234
ss(i__main__
State
p2651
(dp2652
g3
F-5.0
sg4
F5.0
sg5
F5.0
sg6
F-8.0
sb(dp2653
I00
F50.740208720284464
sI01
I6
ss(i__main__
State
p2654
(dp2655
g3
F-5.0
sg4
F0.0
sg5
F5.0
sg6
F6.0
sb(dp2656
I00
F40.181644295
sI01
F80.91247299114303
ss(i__main__
State
p2657
(dp2658
g3
F-3.0
sg4
F9.0
sg5
F3.0
sg6
F0.0
sb(dp2659
I00
F-6470.476743285794
sI01
F-6038.984832870237
ss(i__main__
State
p2660
(dp2661
g3
F-7.0
sg4
F1.0
sg5
F7.0
sg6
F6.0
sb(dp2662
I00
F21.041950661261275
sI01
I-65
ss(i__main__
State
p2663
(dp2664
g3
F-8.0
sg4
F1.0
sg5
F8.0
sg6
F-6.0
sb(dp2665
I00
F-37.84909683550219
sI01
F14.636590121247535
ss(i__main__
State
p2666
(dp2667
g3
F-4.0
sg4
F1.0
sg5
F4.0
sg6
F2.0
sb(dp2668
I00
F72.02000247035
sI01
I-36
ss(i__main__
State
p2669
(dp2670
g3
F5.0
sg4
F2.0
sg5
F-5.0
sg6
F8.0
sb(dp2671
I00
F35.00360103999999
sI01
F-15.459999999999997
ss(i__main__
State
p2672
(dp2673
g3
F8.0
sg4
F8.0
sg5
F-8.0
sg6
F8.0
sb(dp2674
I00
F92.48464405624638
sI01
F326.4376300414588
ss(i__main__
State
p2675
(dp2676
g3
F6.0
sg4
F8.0
sg5
F-6.0
sg6
F-8.0
sb(dp2677
I00
F168.25330163928942
sI01
F30.009999999999998
ss(i__main__
State
p2678
(dp2679
g3
F7.0
sg4
F1.0
sg5
F-7.0
sg6
F-6.0
sb(dp2680
I00
F-35.57565452874
sI01
I-82
ss(i__main__
State
p2681
(dp2682
g3
F-1.0
sg4
F7.0
sg5
F1.0
sg6
F-8.0
sb(dp2683
I00
F-25.923123518578613
sI01
F52.21522011488223
ss(i__main__
State
p2684
(dp2685
g3
F-8.0
sg4
F7.0
sg5
F8.0
sg6
F4.0
sb(dp2686
I00
F42.117263596148725
sI01
F-31.502262782385806
ss(i__main__
State
p2687
(dp2688
g3
F-7.0
sg4
F4.0
sg5
F7.0
sg6
F-2.0
sb(dp2689
I00
F86.64433160240822
sI01
F-20.75763416072948
ss(i__main__
State
p2690
(dp2691
g3
F-3.0
sg4
F0.0
sg5
F3.0
sg6
F-4.0
sb(dp2692
I00
F7.384070523072909
sI01
F22.33733513295524
ss(i__main__
State
p2693
(dp2694
g3
F8.0
sg4
F3.0
sg5
F-8.0
sg6
F0.0
sb(dp2695
I00
F-29.93325093555065
sI01
F46.46491829325162
ss(i__main__
State
p2696
(dp2697
g3
F7.0
sg4
F9.0
sg5
F-7.0
sg6
F4.0
sb(dp2698
I00
F10.0
sI01
F66.4632031081753
ss(i__main__
State
p2699
(dp2700
g3
F-2.0
sg4
F5.0
sg5
F2.0
sg6
F-6.0
sb(dp2701
I00
F38.238
sI01
I11
ss(i__main__
State
p2702
(dp2703
g3
F-2.0
sg4
F1.0
sg5
F2.0
sg6
F2.0
sb(dp2704
I00
F-69.58836138
sI01
F9.779032914
ss(i__main__
State
p2705
(dp2706
g3
F7.0
sg4
F2.0
sg5
F-7.0
sg6
F0.0
sb(dp2707
I00
F1.2007722037718755
sI01
F-21.169705237337965
ss(i__main__
State
p2708
(dp2709
g3
F-5.0
sg4
F2.0
sg5
F5.0
sg6
F-8.0
sb(dp2710
I00
F-2.5057332426374286
sI01
F-60.04
ss(i__main__
State
p2711
(dp2712
g3
F6.0
sg4
F10.0
sg5
F-6.0
sg6
F0.0
sb(dp2713
I00
F300.7811132646775
sI01
F42.325911240858304
ss(i__main__
State
p2714
(dp2715
g3
F-1.0
sg4
F2.0
sg5
F1.0
sg6
F0.0
sb(dp2716
I00
F-33.38
sI01
I-95
ss(i__main__
State
p2717
(dp2718
g3
F-6.0
sg4
F2.0
sg5
F6.0
sg6
F2.0
sb(dp2719
I00
F42.1580678963653
sI01
F-18.672519410917996
ss(i__main__
State
p2720
(dp2721
g3
F8.0
sg4
F10.0
sg5
F-8.0
sg6
F2.0
sb(dp2722
I00
F109.13785582632062
sI01
F0.0
ss(i__main__
State
p2723
(dp2724
g3
F6.0
sg4
F5.0
sg5
F-6.0
sg6
F8.0
sb(dp2725
I00
F-15.2
sI01
I-70
ss(i__main__
State
p2726
(dp2727
g3
F4.0
sg4
F2.0
sg5
F-4.0
sg6
F-8.0
sb(dp2728
I00
F-85.0
sI01
F32.299698910000004
ss(i__main__
State
p2729
(dp2730
g3
F3.0
sg4
F6.0
sg5
F-3.0
sg6
F2.0
sb(dp2731
I00
F-81.12602705353596
sI01
F74.41
ss(i__main__
State
p2732
(dp2733
g3
F7.0
sg4
F10.0
sg5
F-7.0
sg6
F8.0
sb(dp2734
I00
F30.372660000000003
sI01
F16.598692703
ss(i__main__
State
p2735
(dp2736
g3
F-6.0
sg4
F6.0
sg5
F6.0
sg6
F-8.0
sb(dp2737
I00
F17.360000000000003
sI01
I-64
ss(i__main__
State
p2738
(dp2739
g3
F6.0
sg4
F4.0
sg5
F-6.0
sg6
F4.0
sb(dp2740
I00
F27.53103371693581
sI01
F31.597030609421772
ss(i__main__
State
p2741
(dp2742
g3
F-6.0
sg4
F9.0
sg5
F6.0
sg6
F-4.0
sb(dp2743
I00
F84.56881257178217
sI01
F26.321841015508074
ss(i__main__
State
p2744
(dp2745
g3
F-6.0
sg4
F5.0
sg5
F6.0
sg6
F4.0
sb(dp2746
I00
F63.925900000000006
sI01
F65.114119419
ss(i__main__
State
p2747
(dp2748
g3
F6.0
sg4
F2.0
sg5
F-6.0
sg6
F-8.0
sb(dp2749
I00
F53.099999999999994
sI01
F-68.67756437792106
ss(i__main__
State
p2750
(dp2751
g3
F8.0
sg4
F7.0
sg5
F-8.0
sg6
F-8.0
sb(dp2752
I00
I38
sI01
F46.52154667826431
ss(i__main__
State
p2753
(dp2754
g3
F6.0
sg4
F8.0
sg5
F-6.0
sg6
F-6.0
sb(dp2755
I00
F50.13781375901001
sI01
F300.52059493870985
ss(i__main__
State
p2756
(dp2757
g3
F-8.0
sg4
F9.0
sg5
F8.0
sg6
F2.0
sb(dp2758
I00
F104.88176017347902
sI01
F54.33717516482986
ss(i__main__
State
p2759
(dp2760
g3
F-5.0
sg4
F7.0
sg5
F5.0
sg6
F2.0
sb(dp2761
I00
F66.83206345733026
sI01
F324.5653807670675
ss(i__main__
State
p2762
(dp2763
g3
F-4.0
sg4
F10.0
sg5
F4.0
sg6
F2.0
sb(dp2764
I00
F338.3397590878384
sI01
F46.47608418482572
ss(i__main__
State
p2765
(dp2766
g3
F4.0
sg4
F6.0
sg5
F-4.0
sg6
F-8.0
sb(dp2767
I00
F-53.84231420871398
sI01
F-15.12629837379737
ss(i__main__
State
p2768
(dp2769
g3
F2.0
sg4
F3.0
sg5
F-2.0
sg6
F0.0
sb(dp2770
I00
I-92
sI01
F49.386551266496774
ss(i__main__
State
p2771
(dp2772
g3
F1.0
sg4
F9.0
sg5
F-1.0
sg6
F2.0
sb(dp2773
I00
F192.0253567649066
sI01
F0.0
ss(i__main__
State
p2774
(dp2775
g3
F-4.0
sg4
F7.0
sg5
F4.0
sg6
F4.0
sb(dp2776
I00
F-47.600174100000004
sI01
F166.7998192811539
ss(i__main__
State
p2777
(dp2778
g3
F6.0
sg4
F0.0
sg5
F-6.0
sg6
F8.0
sb(dp2779
I00
F36.90628213149827
sI01
F-20.451221580000002
ss(i__main__
State
p2780
(dp2781
g3
F8.0
sg4
F1.0
sg5
F-8.0
sg6
F-8.0
sb(dp2782
I00
F-75.0643
sI01
F47.92867408584179
ss(i__main__
State
p2783
(dp2784
g3
F-4.0
sg4
F8.0
sg5
F4.0
sg6
F-6.0
sb(dp2785
I00
F354.88089407365646
sI01
F46.36623452701228
ss(i__main__
State
p2786
(dp2787
g3
F-5.0
sg4
F0.0
sg5
F5.0
sg6
F2.0
sb(dp2788
I00
F43.01804015194325
sI01
I13
ss(i__main__
State
p2789
(dp2790
g3
F-2.0
sg4
F10.0
sg5
F2.0
sg6
F2.0
sb(dp2791
I00
F54.48607100000001
sI01
F163.54415549074184
ss(i__main__
State
p2792
(dp2793
g3
F-2.0
sg4
F3.0
sg5
F2.0
sg6
F-6.0
sb(dp2794
I00
F52.185751203074766
sI01
F-3.116839999999999
ss(i__main__
State
p2795
(dp2796
g3
F-6.0
sg4
F8.0
sg5
F6.0
sg6
F0.0
sb(dp2797
I00
F189.06164796052767
sI01
F11.0
ss(i__main__
State
p2798
(dp2799
g3
F-5.0
sg4
F4.0
sg5
F5.0
sg6
F-8.0
sb(dp2800
I00
F0.08863758545490708
sI01
I-65
ss(i__main__
State
p2801
(dp2802
g3
F-7.0
sg4
F7.0
sg5
F7.0
sg6
F-6.0
sb(dp2803
I00
F151.23205307491983
sI01
F-31.044395576607968
ss(i__main__
State
p2804
(dp2805
g3
F-4.0
sg4
F6.0
sg5
F4.0
sg6
F6.0
sb(dp2806
I00
F37.51480240468972
sI01
F32.781739548804026
ss(i__main__
State
p2807
(dp2808
g3
F8.0
sg4
F0.0
sg5
F-8.0
sg6
F-6.0
sb(dp2809
I00
F-2.607881510168314
sI01
F44.46766115050949
ss(i__main__
State
p2810
(dp2811
g3
F7.0
sg4
F0.0
sg5
F-7.0
sg6
F4.0
sb(dp2812
I00
F-55.80859048908
sI01
F43.01668868602
ss(i__main__
State
p2813
(dp2814
g3
F1.0
sg4
F1.0
sg5
F-1.0
sg6
F-8.0
sb(dp2815
I00
F-60.328699563777434
sI01
F0.4780192141071382
ss(i__main__
State
p2816
(dp2817
g3
F-4.0
sg4
F6.0
sg5
F4.0
sg6
F2.0
sb(dp2818
I00
F-39.465130206447554
sI01
F-20.775582138061857
ss(i__main__
State
p2819
(dp2820
g3
F-6.0
sg4
F4.0
sg5
F6.0
sg6
F-6.0
sb(dp2821
I00
I-97
sI01
F47.144781476019205
ss(i__main__
State
p2822
(dp2823
g3
F-2.0
sg4
F4.0
sg5
F2.0
sg6
F-6.0
sb(dp2824
I00
F-76.8
sI01
F17.31166
ss(i__main__
State
p2825
(dp2826
g3
F1.0
sg4
F6.0
sg5
F-1.0
sg6
F-4.0
sb(dp2827
I00
F50.239908281999995
sI01
F61.81312217084205
ss(i__main__
State
p2828
(dp2829
g3
F-1.0
sg4
F2.0
sg5
F1.0
sg6
F-8.0
sb(dp2830
I00
F59.477422871404336
sI01
F20.527553595153677
ss(i__main__
State
p2831
(dp2832
g3
F-3.0
sg4
F10.0
sg5
F3.0
sg6
F-4.0
sb(dp2833
I00
F128.00121011716857
sI01
F0.0
ss(i__main__
State
p2834
(dp2835
g3
F-7.0
sg4
F6.0
sg5
F7.0
sg6
F-6.0
sb(dp2836
I00
F5.218844004547552
sI01
I-23
ss(i__main__
State
p2837
(dp2838
g3
F5.0
sg4
F9.0
sg5
F-5.0
sg6
F6.0
sb(dp2839
I00
F113.13068974342914
sI01
F10.0
ss(i__main__
State
p2840
(dp2841
g3
F2.0
sg4
F5.0
sg5
F-2.0
sg6
F-8.0
sb(dp2842
I00
F29.515371516532078
sI01
F28.861973413209242
ss(i__main__
State
p2843
(dp2844
g3
F-5.0
sg4
F0.0
sg5
F5.0
sg6
F-4.0
sb(dp2845
I00
F76.588656
sI01
I-93
ss(i__main__
State
p2846
(dp2847
g3
F-4.0
sg4
F8.0
sg5
F4.0
sg6
F-8.0
sb(dp2848
I00
F58.73660163420001
sI01
F0.0
ss(i__main__
State
p2849
(dp2850
g3
F0.0
sg4
F0.0
sg5
F0.0
sg6
F2.0
sb(dp2851
I00
F-48.34500974836
sI01
F32.88113937057778
ss(i__main__
State
p2852
(dp2853
g3
F-7.0
sg4
F2.0
sg5
F7.0
sg6
F-6.0
sb(dp2854
I00
F-21.611350989606386
sI01
F51.01723838960617
ss(i__main__
State
p2855
(dp2856
g3
F3.0
sg4
F9.0
sg5
F-3.0
sg6
F8.0
sb(dp2857
I00
F191.92157056989814
sI01
F24.725186000000004
ss(i__main__
State
p2858
(dp2859
g3
F4.0
sg4
F10.0
sg5
F-4.0
sg6
F2.0
sb(dp2860
I00
F166.50240506844875
sI01
F0.0
ss(i__main__
State
p2861
(dp2862
g3
F-4.0
sg4
F2.0
sg5
F4.0
sg6
F4.0
sb(dp2863
I00
F72.89291823068265
sI01
I33
ss(i__main__
State
p2864
(dp2865
g3
F3.0
sg4
F5.0
sg5
F-3.0
sg6
F-8.0
sb(dp2866
I00
F-28.57701257960276
sI01
F32.42884520267715
ss(i__main__
State
p2867
(dp2868
g3
F8.0
sg4
F7.0
sg5
F-8.0
sg6
F-4.0
sb(dp2869
I00
F36.62666888143958
sI01
F23.424209011639
ss(i__main__
State
p2870
(dp2871
g3
F7.0
sg4
F4.0
sg5
F-7.0
sg6
F-2.0
sb(dp2872
I00
F-2.702697157506834
sI01
I-58
ss(i__main__
State
p2873
(dp2874
g3
F-4.0
sg4
F1.0
sg5
F4.0
sg6
F6.0
sb(dp2875
I00
F52.30450205501727
sI01
F68.42581496664877
ss(i__main__
State
p2876
(dp2877
g3
F-7.0
sg4
F2.0
sg5
F7.0
sg6
F0.0
sb(dp2878
I00
F14.073913820000001
sI01
I-16
ss(i__main__
State
p2879
(dp2880
g3
F1.0
sg4
F10.0
sg5
F-1.0
sg6
F2.0
sb(dp2881
I00
F-810.9326966169734
sI01
F116.57832723385016
ss(i__main__
State
p2882
(dp2883
g3
F1.0
sg4
F10.0
sg5
F-1.0
sg6
F-8.0
sb(dp2884
I00
F19.0
sI01
F71.89698690897296
ss(i__main__
State
p2885
(dp2886
g3
F-7.0
sg4
F3.0
sg5
F7.0
sg6
F2.0
sb(dp2887
I00
F3.8776600353607615
sI01
F63.34257179900508
ss(i__main__
State
p2888
(dp2889
g3
F5.0
sg4
F0.0
sg5
F-5.0
sg6
F2.0
sb(dp2890
I00
I-10
sI01
F35.5450852175502
ss(i__main__
State
p2891
(dp2892
g3
F0.0
sg4
F0.0
sg5
F0.0
sg6
F-6.0
sb(dp2893
I00
F-69.3149632303
sI01
F10.451139857008416
ss(i__main__
State
p2894
(dp2895
g3
F-5.0
sg4
F10.0
sg5
F5.0
sg6
F4.0
sb(dp2896
I00
F285.67433059765585
sI01
F70.1263539157455
ss(i__main__
State
p2897
(dp2898
g3
F-8.0
sg4
F9.0
sg5
F8.0
sg6
F-2.0
sb(dp2899
I00
F-553.5286732585778
sI01
F155.349828314204
ss(i__main__
State
p2900
(dp2901
g3
F8.0
sg4
F6.0
sg5
F-8.0
sg6
F-6.0
sb(dp2902
I00
I37
sI01
F76.25135070605134
ss(i__main__
State
p2903
(dp2904
g3
F2.0
sg4
F5.0
sg5
F-2.0
sg6
F2.0
sb(dp2905
I00
F-44.64735430336041
sI01
F26.792026639959225
ss(i__main__
State
p2906
(dp2907
g3
F0.0
sg4
F1.0
sg5
F0.0
sg6
F4.0
sb(dp2908
I00
F8.995608061
sI01
F62.11405070158745
ss(i__main__
State
p2909
(dp2910
g3
F1.0
sg4
F3.0
sg5
F-1.0
sg6
F-8.0
sb(dp2911
I00
F55.363591913248996
sI01
F56.4
ss(i__main__
State
p2912
(dp2913
g3
F5.0
sg4
F7.0
sg5
F-5.0
sg6
F8.0
sb(dp2914
I00
F-22.042528921013226
sI01
F258.1806438564429
ss(i__main__
State
p2915
(dp2916
g3
F7.0
sg4
F5.0
sg5
F-7.0
sg6
F6.0
sb(dp2917
I00
F-65.6
sI01
F22.7176841075094
ss(i__main__
State
p2918
(dp2919
g3
F6.0
sg4
F6.0
sg5
F-6.0
sg6
F-6.0
sb(dp2920
I00
F26.872610882732356
sI01
F37.05933529952818
ss(i__main__
State
p2921
(dp2922
g3
F4.0
sg4
F3.0
sg5
F-4.0
sg6
F6.0
sb(dp2923
I00
F10.102501
sI01
F24.091750894402693
ss(i__main__
State
p2924
(dp2925
g3
F3.0
sg4
F8.0
sg5
F-3.0
sg6
F-8.0
sb(dp2926
I00
F236.5774018295071
sI01
F65.89975615794376
ss(i__main__
State
p2927
(dp2928
g3
F-1.0
sg4
F8.0
sg5
F1.0
sg6
F6.0
sb(dp2929
I00
F340.7191395667049
sI01
F82.48032001236234
ss(i__main__
State
p2930
(dp2931
g3
F1.0
sg4
F6.0
sg5
F-1.0
sg6
F6.0
sb(dp2932
I00
F12.697379785249641
sI01
I-84
ss(i__main__
State
p2933
(dp2934
g3
F-1.0
sg4
F7.0
sg5
F1.0
sg6
F8.0
sb(dp2935
I00
F-30.990830546543997
sI01
F82.13538081843842
ss(i__main__
State
p2936
(dp2937
g3
F-8.0
sg4
F0.0
sg5
F8.0
sg6
F-2.0
sb(dp2938
I00
F37.52998168053091
sI01
F4.5
ss(i__main__
State
p2939
(dp2940
g3
F2.0
sg4
F4.0
sg5
F-2.0
sg6
F2.0
sb(dp2941
I00
F36.36094230318546
sI01
F46.33872194528809
ss(i__main__
State
p2942
(dp2943
g3
F-1.0
sg4
F4.0
sg5
F1.0
sg6
F-8.0
sb(dp2944
I00
F55.635
sI01
I-23
ss(i__main__
State
p2945
(dp2946
g3
F-5.0
sg4
F2.0
sg5
F5.0
sg6
F-4.0
sb(dp2947
I00
F-60.46292
sI01
F-34.43541862204409
ss(i__main__
State
p2948
(dp2949
g3
F5.0
sg4
F4.0
sg5
F-5.0
sg6
F2.0
sb(dp2950
I00
F42.956974365911336
sI01
F32.9918
ss(i__main__
State
p2951
(dp2952
g3
F-4.0
sg4
F6.0
sg5
F4.0
sg6
F-6.0
sb(dp2953
I00
F-27.259999999999998
sI01
F54.70890268715952
ss(i__main__
State
p2954
(dp2955
g3
F7.0
sg4
F7.0
sg5
F-7.0
sg6
F-8.0
sb(dp2956
I00
F-51.9
sI01
F108.3456889334208
ss(i__main__
State
p2957
(dp2958
g3
F-2.0
sg4
F3.0
sg5
F2.0
sg6
F8.0
sb(dp2959
I00
F40.709856172999984
sI01
F-16.6
ss(i__main__
State
p2960
(dp2961
g3
F-5.0
sg4
F4.0
sg5
F5.0
sg6
F-6.0
sb(dp2962
I00
F-46.70847106283918
sI01
F36.97288721476933
ss(i__main__
State
p2963
(dp2964
g3
F-6.0
sg4
F4.0
sg5
F6.0
sg6
F8.0
sb(dp2965
I00
F55.35790000000001
sI01
F78.5848755592872
ss(i__main__
State
p2966
(dp2967
g3
F-6.0
sg4
F9.0
sg5
F6.0
sg6
F-8.0
sb(dp2968
I00
F50.43345433626529
sI01
F192.0865413373251
ss(i__main__
State
p2969
(dp2970
g3
F7.0
sg4
F0.0
sg5
F-7.0
sg6
F2.0
sb(dp2971
I00
I-89
sI01
F9.458829110552045
ss(i__main__
State
p2972
(dp2973
g3
F-8.0
sg4
F1.0
sg5
F8.0
sg6
F6.0
sb(dp2974
I00
F62.513980895966924
sI01
I22
ss(i__main__
State
p2975
(dp2976
g3
F-7.0
sg4
F0.0
sg5
F7.0
sg6
F-2.0
sb(dp2977
I00
F42.034619903268776
sI01
F-57.62364000000001
ss(i__main__
State
p2978
(dp2979
g3
F4.0
sg4
F6.0
sg5
F-4.0
sg6
F0.0
sb(dp2980
I00
F24.0
sI01
F110.5660242398817
ss(i__main__
State
p2981
(dp2982
g3
F-5.0
sg4
F5.0
sg5
F5.0
sg6
F-2.0
sb(dp2983
I00
F20.439051089400003
sI01
F-74.6702823352
ss(i__main__
State
p2984
(dp2985
g3
F-3.0
sg4
F8.0
sg5
F3.0
sg6
F-8.0
sb(dp2986
I00
F367.23808768198063
sI01
F111.232899385407
ss(i__main__
State
p2987
(dp2988
g3
F-4.0
sg4
F7.0
sg5
F4.0
sg6
F0.0
sb(dp2989
I00
F252.53197140332844
sI01
F58.78794872790883
ss(i__main__
State
p2990
(dp2991
g3
F-4.0
sg4
F10.0
sg5
F4.0
sg6
F-2.0
sb(dp2992
I00
F129.31108940705528
sI01
F59.940399123830076
ss(i__main__
State
p2993
(dp2994
g3
F0.0
sg4
F3.0
sg5
F0.0
sg6
F8.0
sb(dp2995
I00
F7.461650406348944
sI01
I-95
ss(i__main__
State
p2996
(dp2997
g3
F-3.0
sg4
F0.0
sg5
F3.0
sg6
F8.0
sb(dp2998
I00
F65.4529667683347
sI01
F66.79659330538796
ss(i__main__
State
p2999
(dp3000
g3
F8.0
sg4
F1.0
sg5
F-8.0
sg6
F-4.0
sb(dp3001
I00
F-27.8763335796924
sI01
F-77.1
ss(i__main__
State
p3002
(dp3003
g3
F-5.0
sg4
F4.0
sg5
F5.0
sg6
F-2.0
sb(dp3004
I00
F1.8000000000000007
sI01
F29.395469655533116
ss(i__main__
State
p3005
(dp3006
g3
F-6.0
sg4
F1.0
sg5
F6.0
sg6
F6.0
sb(dp3007
I00
F-36.603427778219995
sI01
F-9.907573319774412
ss(i__main__
State
p3008
(dp3009
g3
F1.0
sg4
F4.0
sg5
F-1.0
sg6
F6.0
sb(dp3010
I00
I-52
sI01
F36.26630303159866
ss(i__main__
State
p3011
(dp3012
g3
F2.0
sg4
F10.0
sg5
F-2.0
sg6
F4.0
sb(dp3013
I00
F94.93159394340101
sI01
F10.025
ss(i__main__
State
p3014
(dp3015
g3
F-2.0
sg4
F2.0
sg5
F2.0
sg6
F6.0
sb(dp3016
I00
F-32.09364154704942
sI01
F38.131912491045654
ss(i__main__
State
p3017
(dp3018
g3
F-7.0
sg4
F5.0
sg5
F7.0
sg6
F-6.0
sb(dp3019
I00
F11.084999468974507
sI01
F12.879695473364162
ss(i__main__
State
p3020
(dp3021
g3
F-1.0
sg4
F6.0
sg5
F1.0
sg6
F-8.0
sb(dp3022
I00
I-37
sI01
F1.061432620371459
ss(i__main__
State
p3023
(dp3024
g3
F-3.0
sg4
F8.0
sg5
F3.0
sg6
F0.0
sb(dp3025
I00
F142.39687819609145
sI01
F26.7323064686
ss(i__main__
State
p3026
(dp3027
g3
F-5.0
sg4
F4.0
sg5
F5.0
sg6
F-4.0
sb(dp3028
I00
F69.03400687186367
sI01
F-50.824999999999996
ss(i__main__
State
p3029
(dp3030
g3
F5.0
sg4
F2.0
sg5
F-5.0
sg6
F2.0
sb(dp3031
I00
F-64.49457100000001
sI01
F27.1460812647799
ss(i__main__
State
p3032
(dp3033
g3
F3.0
sg4
F8.0
sg5
F-3.0
sg6
F6.0
sb(dp3034
I00
F36.24988303740325
sI01
F113.93574969402704
ss(i__main__
State
p3035
(dp3036
g3
F-7.0
sg4
F0.0
sg5
F7.0
sg6
F0.0
sb(dp3037
I00
F70.6081578
sI01
F-0.8999999999999986
ss(i__main__
State
p3038
(dp3039
g3
F5.0
sg4
F3.0
sg5
F-5.0
sg6
F8.0
sb(dp3040
I00
F54.65
sI01
F89.89592370311
ss(i__main__
State
p3041
(dp3042
g3
F-2.0
sg4
F5.0
sg5
F2.0
sg6
F0.0
sb(dp3043
I00
F41.39250178695577
sI01
F-59.46590711910143
ss(i__main__
State
p3044
(dp3045
g3
F2.0
sg4
F6.0
sg5
F-2.0
sg6
F0.0
sb(dp3046
I00
F75.94556564200265
sI01
F17.06878168189926
ss(i__main__
State
p3047
(dp3048
g3
F-1.0
sg4
F10.0
sg5
F1.0
sg6
F-4.0
sb(dp3049
I00
F10.0
sI01
F60.20065144553499
ss(i__main__
State
p3050
(dp3051
g3
F5.0
sg4
F0.0
sg5
F-5.0
sg6
F-4.0
sb(dp3052
I00
F-40.6
sI01
F54.23597138151191
ss(i__main__
State
p3053
(dp3054
g3
F6.0
sg4
F3.0
sg5
F-6.0
sg6
F4.0
sb(dp3055
I00
F-29.5059571
sI01
F1.2200155331634452
ss(i__main__
State
p3056
(dp3057
g3
F-7.0
sg4
F3.0
sg5
F7.0
sg6
F-2.0
sb(dp3058
I00
F60.99395646583476
sI01
I34
ss(i__main__
State
p3059
(dp3060
g3
F2.0
sg4
F8.0
sg5
F-2.0
sg6
F-8.0
sb(dp3061
I00
F372.6132697338295
sI01
F12.223300000000002
ss(i__main__
State
p3062
(dp3063
g3
F-4.0
sg4
F9.0
sg5
F4.0
sg6
F-8.0
sb(dp3064
I00
F20.0
sI01
F93.03686214508939
ss(i__main__
State
p3065
(dp3066
g3
F7.0
sg4
F2.0
sg5
F-7.0
sg6
F-2.0
sb(dp3067
I00
F29.126711605793105
sI01
F-76.3
ss(i__main__
State
p3068
(dp3069
g3
F0.0
sg4
F8.0
sg5
F0.0
sg6
F6.0
sb(dp3070
I00
F-2706.8
sI01
F-3394.9489673868793
ss(i__main__
State
p3071
(dp3072
g3
F-8.0
sg4
F3.0
sg5
F8.0
sg6
F-2.0
sb(dp3073
I00
F30.586549779765665
sI01
F-63.322024182820144
ss(i__main__
State
p3074
(dp3075
g3
F3.0
sg4
F1.0
sg5
F-3.0
sg6
F4.0
sb(dp3076
I00
F36.78231675912592
sI01
F4.537531087984119
ss(i__main__
State
p3077
(dp3078
g3
F4.0
sg4
F7.0
sg5
F-4.0
sg6
F-6.0
sb(dp3079
I00
F14.78
sI01
F177.5953024221635
ss(i__main__
State
p3080
(dp3081
g3
F7.0
sg4
F2.0
sg5
F-7.0
sg6
F4.0
sb(dp3082
I00
F-5.947251700000002
sI01
F32.76823777146
ss(i__main__
State
p3083
(dp3084
g3
F2.0
sg4
F6.0
sg5
F-2.0
sg6
F-4.0
sb(dp3085
I00
F44.687440889545
sI01
I-37
ss(i__main__
State
p3086
(dp3087
g3
F-8.0
sg4
F9.0
sg5
F8.0
sg6
F8.0
sb(dp3088
I00
F360.991241374643
sI01
F136.64465209470129
ss(i__main__
State
p3089
(dp3090
g3
F1.0
sg4
F2.0
sg5
F-1.0
sg6
F6.0
sb(dp3091
I00
F31.820133928001788
sI01
F-52.5459554122734
ss(i__main__
State
p3092
(dp3093
g3
F-4.0
sg4
F10.0
sg5
F4.0
sg6
F8.0
sb(dp3094
I00
F222.7227778912097
sI01
F66.11554975077614
ss(i__main__
State
p3095
(dp3096
g3
F-8.0
sg4
F6.0
sg5
F8.0
sg6
F2.0
sb(dp3097
I00
F80.3513452882049
sI01
F-13.75230698971849
ss(i__main__
State
p3098
(dp3099
g3
F-3.0
sg4
F10.0
sg5
F3.0
sg6
F0.0
sb(dp3100
I00
F370.7342719389593
sI01
F84.09784503515542
ss(i__main__
State
p3101
(dp3102
g3
F-4.0
sg4
F10.0
sg5
F4.0
sg6
F-8.0
sb(dp3103
I00
F210.72855541550624
sI01
F7.300000000000001
ss(i__main__
State
p3104
(dp3105
g3
F-3.0
sg4
F6.0
sg5
F3.0
sg6
F-4.0
sb(dp3106
I00
I-68
sI01
F-25.500420813615335
ss(i__main__
State
p3107
(dp3108
g3
F7.0
sg4
F4.0
sg5
F-7.0
sg6
F4.0
sb(dp3109
I00
F19.170435524547734
sI01
F53.80426810922192
ss(i__main__
State
p3110
(dp3111
g3
F5.0
sg4
F8.0
sg5
F-5.0
sg6
F0.0
sb(dp3112
I00
F318.0306782011177
sI01
F62.53246671420699
ss(i__main__
State
p3113
(dp3114
g3
F0.0
sg4
F9.0
sg5
F0.0
sg6
F8.0
sb(dp3115
I00
F104.1588875350753
sI01
F297.101104458672
ss(i__main__
State
p3116
(dp3117
g3
F-6.0
sg4
F4.0
sg5
F6.0
sg6
F-2.0
sb(dp3118
I00
F-34.967000000000006
sI01
F57.91366921232878
ss(i__main__
State
p3119
(dp3120
g3
F8.0
sg4
F6.0
sg5
F-8.0
sg6
F0.0
sb(dp3121
I00
I-60
sI01
F35.229145097539295
ss(i__main__
State
p3122
(dp3123
g3
F-5.0
sg4
F1.0
sg5
F5.0
sg6
F-4.0
sb(dp3124
I00
F49.97422590000001
sI01
F36.58767228819999
ss(i__main__
State
p3125
(dp3126
g3
F-6.0
sg4
F6.0
sg5
F6.0
sg6
F2.0
sb(dp3127
I00
F10.24972992975111
sI01
I-37
ss(i__main__
State
p3128
(dp3129
g3
F-7.0
sg4
F0.0
sg5
F7.0
sg6
F-6.0
sb(dp3130
I00
F73.39075642482892
sI01
I-77
ss(i__main__
State
p3131
(dp3132
g3
F5.0
sg4
F10.0
sg5
F-5.0
sg6
F8.0
sb(dp3133
I00
F20.1
sI01
F0.0
ss(i__main__
State
p3134
(dp3135
g3
F2.0
sg4
F10.0
sg5
F-2.0
sg6
F-8.0
sb(dp3136
I00
F10.0
sI01
F56.01637283135008
ss(i__main__
State
p3137
(dp3138
g3
F-1.0
sg4
F0.0
sg5
F1.0
sg6
F2.0
sb(dp3139
I00
F-0.6770337318978091
sI01
F41.86853259633132
ss(i__main__
State
p3140
(dp3141
g3
F1.0
sg4
F0.0
sg5
F-1.0
sg6
F-8.0
sb(dp3142
I00
F-15.360323653129676
sI01
F40.05205443026324
ss(i__main__
State
p3143
(dp3144
g3
F-7.0
sg4
F7.0
sg5
F7.0
sg6
F6.0
sb(dp3145
I00
I-94
sI01
F-36.220502877724435
ss(i__main__
State
p3146
(dp3147
g3
F5.0
sg4
F4.0
sg5
F-5.0
sg6
F6.0
sb(dp3148
I00
I-78
sI01
F12.059227502307902
ss(i__main__
State
p3149
(dp3150
g3
F4.0
sg4
F4.0
sg5
F-4.0
sg6
F-2.0
sb(dp3151
I00
F14.969145854574446
sI01
F-35.54
ss(i__main__
State
p3152
(dp3153
g3
F1.0
sg4
F5.0
sg5
F-1.0
sg6
F8.0
sb(dp3154
I00
F-55.89677874673493
sI01
F34.72861054529332
ss(i__main__
State
p3155
(dp3156
g3
F0.0
sg4
F7.0
sg5
F0.0
sg6
F-2.0
sb(dp3157
I00
F114.68725287578266
sI01
F61.87742564284843
ss(i__main__
State
p3158
(dp3159
g3
F7.0
sg4
F5.0
sg5
F-7.0
sg6
F-4.0
sb(dp3160
I00
F58.35936872031809
sI01
F-23.9
ss(i__main__
State
p3161
(dp3162
g3
F-8.0
sg4
F10.0
sg5
F8.0
sg6
F-8.0
sb(dp3163
I00
F68.41306659827887
sI01
F0.0
ss(i__main__
State
p3164
(dp3165
g3
F-5.0
sg4
F6.0
sg5
F5.0
sg6
F-2.0
sb(dp3166
I00
I-41
sI01
F37.519546000000005
ss(i__main__
State
p3167
(dp3168
g3
F3.0
sg4
F7.0
sg5
F-3.0
sg6
F2.0
sb(dp3169
I00
F-17.119999999999997
sI01
F291.36801983611036
ss(i__main__
State
p3170
(dp3171
g3
F4.0
sg4
F7.0
sg5
F-4.0
sg6
F2.0
sb(dp3172
I00
F-27.53
sI01
F-10.8
ss(i__main__
State
p3173
(dp3174
g3
F-4.0
sg4
F0.0
sg5
F4.0
sg6
F6.0
sb(dp3175
I00
F-22.5357
sI01
F63.55591567727089
ss(i__main__
State
p3176
(dp3177
g3
F-7.0
sg4
F1.0
sg5
F7.0
sg6
F8.0
sb(dp3178
I00
F30.271863769936004
sI01
F-42.000587669656824
ss(i__main__
State
p3179
(dp3180
g3
F-2.0
sg4
F0.0
sg5
F2.0
sg6
F-4.0
sb(dp3181
I00
F21.650565260500002
sI01
F20.77168
ss(i__main__
State
p3182
(dp3183
g3
F-5.0
sg4
F7.0
sg5
F5.0
sg6
F-8.0
sb(dp3184
I00
F-7.822413442269
sI01
F66.36207851978011
ss(i__main__
State
p3185
(dp3186
g3
F2.0
sg4
F9.0
sg5
F-2.0
sg6
F4.0
sb(dp3187
I00
F197.29558108402915
sI01
F18.421903299630003
ss(i__main__
State
p3188
(dp3189
g3
F8.0
sg4
F0.0
sg5
F-8.0
sg6
F0.0
sb(dp3190
I00
F8.076110607061127
sI01
F17.935844823869616
ss(i__main__
State
p3191
(dp3192
g3
F-2.0
sg4
F8.0
sg5
F2.0
sg6
F0.0
sb(dp3193
I00
F101.36872742147929
sI01
F12.999400000000001
ss(i__main__
State
p3194
(dp3195
g3
F-5.0
sg4
F3.0
sg5
F5.0
sg6
F-4.0
sb(dp3196
I00
F-79.76486
sI01
F57.83708987017457
ss(i__main__
State
p3197
(dp3198
g3
F-6.0
sg4
F0.0
sg5
F6.0
sg6
F6.0
sb(dp3199
I00
F-15.001713982658973
sI01
F33.66422389439617
ss(i__main__
State
p3200
(dp3201
g3
F-6.0
sg4
F1.0
sg5
F6.0
sg6
F2.0
sb(dp3202
I00
F62.01562518194338
sI01
F-30.55283341698697
ss(i__main__
State
p3203
(dp3204
g3
F2.0
sg4
F4.0
sg5
F-2.0
sg6
F-2.0
sb(dp3205
I00
I-62
sI01
F-14.040390298108
ss(i__main__
State
p3206
(dp3207
g3
F-2.0
sg4
F1.0
sg5
F2.0
sg6
F8.0
sb(dp3208
I00
F49.7036624298983
sI01
I22
ss(i__main__
State
p3209
(dp3210
g3
F-4.0
sg4
F5.0
sg5
F4.0
sg6
F-6.0
sb(dp3211
I00
I83
sI01
F78.7004445220082
ss(i__main__
State
p3212
(dp3213
g3
F5.0
sg4
F8.0
sg5
F-5.0
sg6
F4.0
sb(dp3214
I00
F345.370020805375
sI01
F71.27272325614842
ss(i__main__
State
p3215
(dp3216
g3
F2.0
sg4
F2.0
sg5
F-2.0
sg6
F8.0
sb(dp3217
I00
F39.024190399999995
sI01
F-22.0
ss(i__main__
State
p3218
(dp3219
g3
F-3.0
sg4
F5.0
sg5
F3.0
sg6
F6.0
sb(dp3220
I00
F-46.3
sI01
F44.70364272002256
ss(i__main__
State
p3221
(dp3222
g3
F8.0
sg4
F10.0
sg5
F-8.0
sg6
F8.0
sb(dp3223
I00
F118.94857435688353
sI01
F19.3809
ss(i__main__
State
p3224
(dp3225
g3
F-5.0
sg4
F2.0
sg5
F5.0
sg6
F6.0
sb(dp3226
I00
F38.74667438345966
sI01
F10.574309973524537
ss(i__main__
State
p3227
(dp3228
g3
F2.0
sg4
F5.0
sg5
F-2.0
sg6
F8.0
sb(dp3229
I00
F-23.5432
sI01
F27.38714155919856
ss(i__main__
State
p3230
(dp3231
g3
F-7.0
sg4
F9.0
sg5
F7.0
sg6
F4.0
sb(dp3232
I00
F61.1923743299302
sI01
F0.0
ss(i__main__
State
p3233
(dp3234
g3
F0.0
sg4
F1.0
sg5
F0.0
sg6
F2.0
sb(dp3235
I00
F-19.911313748329214
sI01
F29.27371397070752
ss(i__main__
State
p3236
(dp3237
g3
F1.0
sg4
F3.0
sg5
F-1.0
sg6
F4.0
sb(dp3238
I00
F29.8897
sI01
I-27
ss(i__main__
State
p3239
(dp3240
g3
F-7.0
sg4
F2.0
sg5
F7.0
sg6
F-4.0
sb(dp3241
I00
F51.49135853398638
sI01
F48.26155378706737
ss(i__main__
State
p3242
(dp3243
g3
F-8.0
sg4
F0.0
sg5
F8.0
sg6
F6.0
sb(dp3244
I00
I-82
sI01
F-9.953348159931918
ss(i__main__
State
p3245
(dp3246
g3
F0.0
sg4
F5.0
sg5
F0.0
sg6
F-6.0
sb(dp3247
I00
F90.021
sI01
I-47
ss(i__main__
State
p3248
(dp3249
g3
F-5.0
sg4
F1.0
sg5
F5.0
sg6
F-6.0
sb(dp3250
I00
F3.9699999999999998
sI01
F45.87975931814242
ss(i__main__
State
p3251
(dp3252
g3
F3.0
sg4
F0.0
sg5
F-3.0
sg6
F2.0
sb(dp3253
I00
F28.43049994439474
sI01
F-0.45523216679282535
ss(i__main__
State
p3254
(dp3255
g3
F-1.0
sg4
F7.0
sg5
F1.0
sg6
F6.0
sb(dp3256
I00
F-20.638930708438377
sI01
F179.2839349108327
ss(i__main__
State
p3257
(dp3258
g3
F6.0
sg4
F4.0
sg5
F-6.0
sg6
F8.0
sb(dp3259
I00
F66.54132425843639
sI01
I-87
ss(i__main__
State
p3260
(dp3261
g3
F-2.0
sg4
F9.0
sg5
F2.0
sg6
F-4.0
sb(dp3262
I00
F37.968
sI01
F0.0
ss(i__main__
State
p3263
(dp3264
g3
F-5.0
sg4
F4.0
sg5
F5.0
sg6
F8.0
sb(dp3265
I00
F73.97209361198696
sI01
F-72.74376203684321
ss(i__main__
State
p3266
(dp3267
g3
F-6.0
sg4
F5.0
sg5
F6.0
sg6
F2.0
sb(dp3268
I00
F31.159602383033636
sI01
F54.65589558754358
ss(i__main__
State
p3269
(dp3270
g3
F6.0
sg4
F2.0
sg5
F-6.0
sg6
F2.0
sb(dp3271
I00
F4.264333595622613
sI01
F-64.64115860614734
ss(i__main__
State
p3272
(dp3273
g3
F-3.0
sg4
F6.0
sg5
F3.0
sg6
F-6.0
sb(dp3274
I00
F4.557658
sI01
F66.17769298210497
ss(i__main__
State
p3275
(dp3276
g3
F-7.0
sg4
F1.0
sg5
F7.0
sg6
F-2.0
sb(dp3277
I00
F56.54553
sI01
F-9.469982494047255
ss(i__main__
State
p3278
(dp3279
g3
F-3.0
sg4
F9.0
sg5
F3.0
sg6
F-4.0
sb(dp3280
I00
F98.72214650906419
sI01
F43.533713204884606
ss(i__main__
State
p3281
(dp3282
g3
F-5.0
sg4
F0.0
sg5
F5.0
sg6
F-8.0
sb(dp3283
I00
F74.30556519770194
sI01
I67
ss(i__main__
State
p3284
(dp3285
g3
F6.0
sg4
F3.0
sg5
F-6.0
sg6
F0.0
sb(dp3286
I00
F-59.9
sI01
F13.129908
ss(i__main__
State
p3287
(dp3288
g3
F0.0
sg4
F2.0
sg5
F0.0
sg6
F0.0
sb(dp3289
I00
F53.179287708728005
sI01
F-27.308627454586563
ss(i__main__
State
p3290
(dp3291
g3
F-4.0
sg4
F9.0
sg5
F4.0
sg6
F-4.0
sb(dp3292
I00
F131.29911792071178
sI01
F54.445533507930605
ss(i__main__
State
p3293
(dp3294
g3
F-7.0
sg4
F4.0
sg5
F7.0
sg6
F4.0
sb(dp3295
I00
F58.113046674391754
sI01
F57.64151013503565
ss(i__main__
State
p3296
(dp3297
g3
F3.0
sg4
F2.0
sg5
F-3.0
sg6
F-4.0
sb(dp3298
I00
F-38.043976588423924
sI01
F-58.79
ss(i__main__
State
p3299
(dp3300
g3
F1.0
sg4
F8.0
sg5
F-1.0
sg6
F0.0
sb(dp3301
I00
F-1118.856202638072
sI01
F276.9299249470304
ss(i__main__
State
p3302
(dp3303
g3
F6.0
sg4
F10.0
sg5
F-6.0
sg6
F-6.0
sb(dp3304
I00
F178.418030769193
sI01
F84.911898884
ss(i__main__
State
p3305
(dp3306
g3
F-5.0
sg4
F6.0
sg5
F5.0
sg6
F4.0
sb(dp3307
I00
F63.248799130780384
sI01
I-56
ss(i__main__
State
p3308
(dp3309
g3
F-8.0
sg4
F3.0
sg5
F8.0
sg6
F-6.0
sb(dp3310
I00
F50.4757191992371
sI01
I-50
ss(i__main__
State
p3311
(dp3312
g3
F0.0
sg4
F3.0
sg5
F0.0
sg6
F2.0
sb(dp3313
I00
F22.578524166137942
sI01
F-75.88507006370607
ss(i__main__
State
p3314
(dp3315
g3
F6.0
sg4
F7.0
sg5
F-6.0
sg6
F0.0
sb(dp3316
I00
F45.324546735288585
sI01
I-39
ss(i__main__
State
p3317
(dp3318
g3
F1.0
sg4
F1.0
sg5
F-1.0
sg6
F0.0
sb(dp3319
I00
F22.557281807156514
sI01
F-16.759874315683636
ss(i__main__
State
p3320
(dp3321
g3
F4.0
sg4
F4.0
sg5
F-4.0
sg6
F4.0
sb(dp3322
I00
F41.67802365911335
sI01
F-73.0
ss(i__main__
State
p3323
(dp3324
g3
F-8.0
sg4
F5.0
sg5
F8.0
sg6
F4.0
sb(dp3325
I00
I-74
sI01
F-22.10164840475928
ss(i__main__
State
p3326
(dp3327
g3
F-1.0
sg4
F1.0
sg5
F1.0
sg6
F-2.0
sb(dp3328
I00
F-35.262100965577
sI01
F30.294387334694513
ss(i__main__
State
p3329
(dp3330
g3
F4.0
sg4
F1.0
sg5
F-4.0
sg6
F0.0
sb(dp3331
I00
F6.473921946174897
sI01
F-16.7407961164
ss(i__main__
State
p3332
(dp3333
g3
F-1.0
sg4
F5.0
sg5
F1.0
sg6
F6.0
sb(dp3334
I00
F43.1586090813095
sI01
F-20.919999999999998
ss(i__main__
State
p3335
(dp3336
g3
F2.0
sg4
F10.0
sg5
F-2.0
sg6
F2.0
sb(dp3337
I00
F245.57545759904983
sI01
F91.10990634869582
ss(i__main__
State
p3338
(dp3339
g3
F4.0
sg4
F3.0
sg5
F-4.0
sg6
F-2.0
sb(dp3340
I00
F52.55012002147847
sI01
F-16.363537855291227
ss(i__main__
State
p3341
(dp3342
g3
F-2.0
sg4
F7.0
sg5
F2.0
sg6
F4.0
sb(dp3343
I00
F63.527635638945874
sI01
I-4
ss(i__main__
State
p3344
(dp3345
g3
F4.0
sg4
F8.0
sg5
F-4.0
sg6
F6.0
sb(dp3346
I00
F358.7632249077046
sI01
F97.70894267894636
ss(i__main__
State
p3347
(dp3348
g3
F-3.0
sg4
F3.0
sg5
F3.0
sg6
F-6.0
sb(dp3349
I00
F-28.093
sI01
F-67.41127
ss(i__main__
State
p3350
(dp3351
g3
F1.0
sg4
F9.0
sg5
F-1.0
sg6
F-2.0
sb(dp3352
I00
F-2969.670904791658
sI01
F-3058.574856093402
ss(i__main__
State
p3353
(dp3354
g3
F3.0
sg4
F6.0
sg5
F-3.0
sg6
F4.0
sb(dp3355
I00
F19.063703136457008
sI01
F-8.1
ss(i__main__
State
p3356
(dp3357
g3
F3.0
sg4
F9.0
sg5
F-3.0
sg6
F2.0
sb(dp3358
I00
F92.81062454809094
sI01
F29.120165645000007
ss(i__main__
State
p3359
(dp3360
g3
F7.0
sg4
F1.0
sg5
F-7.0
sg6
F0.0
sb(dp3361
I00
I33
sI01
F50.82643335956226
ss(i__main__
State
p3362
(dp3363
g3
F-3.0
sg4
F2.0
sg5
F3.0
sg6
F0.0
sb(dp3364
I00
F81.036600520116
sI01
F-9.199779226787257
ss(i__main__
State
p3365
(dp3366
g3
F-6.0
sg4
F0.0
sg5
F6.0
sg6
F-6.0
sb(dp3367
I00
I38
sI01
F42.12397413065951
ss(i__main__
State
p3368
(dp3369
g3
F6.0
sg4
F8.0
sg5
F-6.0
sg6
F6.0
sb(dp3370
I00
F137.31993009522137
sI01
F32.72
ss(i__main__
State
p3371
(dp3372
g3
F2.0
sg4
F6.0
sg5
F-2.0
sg6
F6.0
sb(dp3373
I00
F12.291588627105273
sI01
F-20.66
ss(i__main__
State
p3374
(dp3375
g3
F6.0
sg4
F2.0
sg5
F-6.0
sg6
F4.0
sb(dp3376
I00
F-23.3279125845245
sI01
F26.037802513026364
ss(i__main__
State
p3377
(dp3378
g3
F-7.0
sg4
F4.0
sg5
F7.0
sg6
F-4.0
sb(dp3379
I00
F73.5011435611708
sI01
F-15.343648929987886
ss(i__main__
State
p3380
(dp3381
g3
F-7.0
sg4
F1.0
sg5
F7.0
sg6
F4.0
sb(dp3382
I00
F44.044701997999994
sI01
F63.10795318762686
ss(i__main__
State
p3383
(dp3384
g3
F7.0
sg4
F2.0
sg5
F-7.0
sg6
F2.0
sb(dp3385
I00
F-5.016937351480438
sI01
F-86.6
ss(i__main__
State
p3386
(dp3387
g3
F-7.0
sg4
F9.0
sg5
F7.0
sg6
F-8.0
sb(dp3388
I00
F269.10960232305024
sI01
F52.23117105496428
ss(i__main__
State
p3389
(dp3390
g3
F2.0
sg4
F1.0
sg5
F-2.0
sg6
F0.0
sb(dp3391
I00
F59.9490869845545
sI01
I-3
ss(i__main__
State
p3392
(dp3393
g3
F4.0
sg4
F0.0
sg5
F-4.0
sg6
F-6.0
sb(dp3394
I00
F28.58470410745483
sI01
F10.780342191466815
ss(i__main__
State
p3395
(dp3396
g3
F0.0
sg4
F8.0
sg5
F0.0
sg6
F0.0
sb(dp3397
I00
F-5666.247173247578
sI01
F-6062.312980478568
ss(i__main__
State
p3398
(dp3399
g3
F8.0
sg4
F9.0
sg5
F-8.0
sg6
F0.0
sb(dp3400
I00
F-3432.9255309038717
sI01
F-3418.9127413145043
ss(i__main__
State
p3401
(dp3402
g3
F-8.0
sg4
F3.0
sg5
F8.0
sg6
F-8.0
sb(dp3403
I00
F55.07415291270951
sI01
I14
ss(i__main__
State
p3404
(dp3405
g3
F5.0
sg4
F8.0
sg5
F-5.0
sg6
F-6.0
sb(dp3406
I00
F212.4962244045006
sI01
F23.71
ss(i__main__
State
p3407
(dp3408
g3
F7.0
sg4
F1.0
sg5
F-7.0
sg6
F-8.0
sb(dp3409
I00
F61.586369999999995
sI01
I-8
ss(i__main__
State
p3410
(dp3411
g3
F3.0
sg4
F9.0
sg5
F-3.0
sg6
F-2.0
sb(dp3412
I00
F-80.81
sI01
F90.56684492927987
ss(i__main__
State
p3413
(dp3414
g3
F-1.0
sg4
F3.0
sg5
F1.0
sg6
F-6.0
sb(dp3415
I00
F34.336639380723
sI01
F7.69068991728
ss(i__main__
State
p3416
(dp3417
g3
F-3.0
sg4
F0.0
sg5
F3.0
sg6
F-2.0
sb(dp3418
I00
F18.34
sI01
F65.69816951399949
ss(i__main__
State
p3419
(dp3420
g3
F6.0
sg4
F10.0
sg5
F-6.0
sg6
F-4.0
sb(dp3421
I00
F52.72268025787622
sI01
F86.6711246483493
ss(i__main__
State
p3422
(dp3423
g3
F1.0
sg4
F2.0
sg5
F-1.0
sg6
F0.0
sb(dp3424
I00
F31.843172761009765
sI01
F-27.626796924914167
ss(i__main__
State
p3425
(dp3426
g3
F5.0
sg4
F3.0
sg5
F-5.0
sg6
F2.0
sb(dp3427
I00
F-17.646656442988373
sI01
I-74
ss(i__main__
State
p3428
(dp3429
g3
F8.0
sg4
F10.0
sg5
F-8.0
sg6
F4.0
sb(dp3430
I00
F217.67460667742165
sI01
F95.00126619074477
ss(i__main__
State
p3431
(dp3432
g3
F-5.0
sg4
F9.0
sg5
F5.0
sg6
F0.0
sb(dp3433
I00
F-1895.909799
sI01
F-1893.3000000000002
ss(i__main__
State
p3434
(dp3435
g3
F4.0
sg4
F2.0
sg5
F-4.0
sg6
F-6.0
sb(dp3436
I00
F-22.9109802187
sI01
F11.838746147349733
ss(i__main__
State
p3437
(dp3438
g3
F0.0
sg4
F9.0
sg5
F0.0
sg6
F6.0
sb(dp3439
I00
F282.9507609629489
sI01
F96.23973421502849
ss(i__main__
State
p3440
(dp3441
g3
F-5.0
sg4
F3.0
sg5
F5.0
sg6
F6.0
sb(dp3442
I00
F46.249804866220195
sI01
F25.990000000000002
ss(i__main__
State
p3443
(dp3444
g3
F-6.0
sg4
F10.0
sg5
F6.0
sg6
F4.0
sb(dp3445
I00
F159.02798891601827
sI01
F51.094380375300005
ss(i__main__
State
p3446
(dp3447
g3
F-6.0
sg4
F3.0
sg5
F6.0
sg6
F8.0
sb(dp3448
I00
F42.10130485428355
sI01
F-51.68
ss(i__main__
State
p3449
(dp3450
g3
F-6.0
sg4
F6.0
sg5
F6.0
sg6
F-6.0
sb(dp3451
I00
F28.462809108584157
sI01
F40.965157995187944
ss(i__main__
State
p3452
(dp3453
g3
F-2.0
sg4
F3.0
sg5
F2.0
sg6
F2.0
sb(dp3454
I00
I-93
sI01
F32.274121
ss(i__main__
State
p3455
(dp3456
g3
F1.0
sg4
F0.0
sg5
F-1.0
sg6
F-2.0
sb(dp3457
I00
F42.34702604450037
sI01
I22
ss(i__main__
State
p3458
(dp3459
g3
F8.0
sg4
F5.0
sg5
F-8.0
sg6
F-8.0
sb(dp3460
I00
F-16.440398989544093
sI01
F45.16297849923788
ss(i__main__
State
p3461
(dp3462
g3
F-6.0
sg4
F4.0
sg5
F6.0
sg6
F2.0
sb(dp3463
I00
F68.04543216511479
sI01
F2.35789196671923
ss(i__main__
State
p3464
(dp3465
g3
F-3.0
sg4
F7.0
sg5
F3.0
sg6
F-4.0
sb(dp3466
I00
F20.296009024182663
sI01
F-47.54306445276045
ss(i__main__
State
p3467
(dp3468
g3
F-5.0
sg4
F2.0
sg5
F5.0
sg6
F8.0
sb(dp3469
I00
F67.01899429743489
sI01
F-87.42962579297
ss(i__main__
State
p3470
(dp3471
g3
F-5.0
sg4
F7.0
sg5
F5.0
sg6
F4.0
sb(dp3472
I00
F-0.1825912516852215
sI01
F-10.8
ss(i__main__
State
p3473
(dp3474
g3
F-6.0
sg4
F5.0
sg5
F6.0
sg6
F6.0
sb(dp3475
I00
F20.18685067131615
sI01
F32.74786751423329
ss(i__main__
State
p3476
(dp3477
g3
F0.0
sg4
F10.0
sg5
F0.0
sg6
F-4.0
sb(dp3478
I00
F-1894.8072338799998
sI01
F-1897.1199739091344
ss(i__main__
State
p3479
(dp3480
g3
F2.0
sg4
F7.0
sg5
F-2.0
sg6
F-4.0
sb(dp3481
I00
F-33.30246646593223
sI01
F-687.2533361821968
ss(i__main__
State
p3482
(dp3483
g3
F-4.0
sg4
F3.0
sg5
F4.0
sg6
F-8.0
sb(dp3484
I00
F-2.1996337359066853
sI01
F-69.11035516888745
ss(i__main__
State
p3485
(dp3486
g3
F2.0
sg4
F7.0
sg5
F-2.0
sg6
F6.0
sb(dp3487
I00
F-5.34
sI01
I-10
ss(i__main__
State
p3488
(dp3489
g3
F5.0
sg4
F0.0
sg5
F-5.0
sg6
F-2.0
sb(dp3490
I00
F-27.15828817724676
sI01
F-1.189078804915236
ss(i__main__
State
p3491
(dp3492
g3
F3.0
sg4
F3.0
sg5
F-3.0
sg6
F-8.0
sb(dp3493
I00
I-23
sI01
F7.484670521856678
ss(i__main__
State
p3494
(dp3495
g3
F8.0
sg4
F1.0
sg5
F-8.0
sg6
F-6.0
sb(dp3496
I00
F48.4311848712588
sI01
I48
ss(i__main__
State
p3497
(dp3498
g3
F-2.0
sg4
F3.0
sg5
F2.0
sg6
F-8.0
sb(dp3499
I00
I-37
sI01
F11.398680156600001
ss(i__main__
State
p3500
(dp3501
g3
F-6.0
sg4
F4.0
sg5
F6.0
sg6
F-4.0
sb(dp3502
I00
F4.1710589767483555
sI01
F16.506699237307092
ss(i__main__
State
p3503
(dp3504
g3
F5.0
sg4
F1.0
sg5
F-5.0
sg6
F2.0
sb(dp3505
I00
F66.09970324320265
sI01
F-18.0
ss(i__main__
State
p3506
(dp3507
g3
F5.0
sg4
F6.0
sg5
F-5.0
sg6
F0.0
sb(dp3508
I00
F34.95158316791751
sI01
F-45.3
ss(i__main__
State
p3509
(dp3510
g3
F-4.0
sg4
F4.0
sg5
F4.0
sg6
F-8.0
sb(dp3511
I00
F41.34054771576596
sI01
F-39.04532021383145
ss(i__main__
State
p3512
(dp3513
g3
F-5.0
sg4
F8.0
sg5
F5.0
sg6
F-8.0
sb(dp3514
I00
F139.66906689761603
sI01
F115.0538565472783
ss(i__main__
State
p3515
(dp3516
g3
F7.0
sg4
F5.0
sg5
F-7.0
sg6
F8.0
sb(dp3517
I00
F94.58916440821773
sI01
F8.66122320519275
ss(i__main__
State
p3518
(dp3519
g3
F0.0
sg4
F9.0
sg5
F0.0
sg6
F-4.0
sb(dp3520
I00
F289.52502012516675
sI01
F116.60829976463191
ss(i__main__
State
p3521
(dp3522
g3
F0.0
sg4
F6.0
sg5
F0.0
sg6
F-8.0
sb(dp3523
I00
F-28.029363677826307
sI01
F43.86943275603693
ss(i__main__
State
p3524
(dp3525
g3
F-1.0
sg4
F1.0
sg5
F1.0
sg6
F8.0
sb(dp3526
I00
F33.0277425629297
sI01
F73.59621307589896
ss(i__main__
State
p3527
(dp3528
g3
F-3.0
sg4
F10.0
sg5
F3.0
sg6
F-2.0
sb(dp3529
I00
F248.46698337176957
sI01
F58.47302327944889
ss(i__main__
State
p3530
(dp3531
g3
F6.0
sg4
F7.0
sg5
F-6.0
sg6
F4.0
sb(dp3532
I00
I-53
sI01
F82.70903655643403
ss(i__main__
State
p3533
(dp3534
g3
F8.0
sg4
F0.0
sg5
F-8.0
sg6
F-8.0
sb(dp3535
I00
F56.21405332352438
sI01
F-88.32
ss(i__main__
State
p3536
(dp3537
g3
F3.0
sg4
F4.0
sg5
F-3.0
sg6
F-8.0
sb(dp3538
I00
F45.03489605664479
sI01
F-1.8691134690600428
ss(i__main__
State
p3539
(dp3540
g3
F-7.0
sg4
F0.0
sg5
F7.0
sg6
F6.0
sb(dp3541
I00
F15.622
sI01
F30.018937253041
ss(i__main__
State
p3542
(dp3543
g3
F-5.0
sg4
F1.0
sg5
F5.0
sg6
F6.0
sb(dp3544
I00
F45.433727319987035
sI01
I-5
ss(i__main__
State
p3545
(dp3546
g3
F-1.0
sg4
F9.0
sg5
F1.0
sg6
F-6.0
sb(dp3547
I00
F40.205000000000005
sI01
F270.03921882060496
ss(i__main__
State
p3548
(dp3549
g3
F2.0
sg4
F4.0
sg5
F-2.0
sg6
F-8.0
sb(dp3550
I00
F37.7288788488532
sI01
F36.90599745566435
ss(i__main__
State
p3551
(dp3552
g3
F2.0
sg4
F2.0
sg5
F-2.0
sg6
F6.0
sb(dp3553
I00
F-12.17693006511453
sI01
F17.20704748267323
ss(i__main__
State
p3554
(dp3555
g3
F-3.0
sg4
F1.0
sg5
F3.0
sg6
F-6.0
sb(dp3556
I00
F30.477215874931776
sI01
F42.946618054937815
ss(i__main__
State
p3557
(dp3558
g3
F0.0
sg4
F1.0
sg5
F0.0
sg6
F8.0
sb(dp3559
I00
F39.35634344603
sI01
F58.1659691123363
ss(i__main__
State
p3560
(dp3561
g3
F1.0
sg4
F3.0
sg5
F-1.0
sg6
F0.0
sb(dp3562
I00
F10.911978610471056
sI01
F-32.62
ss(i__main__
State
p3563
(dp3564
g3
F5.0
sg4
F4.0
sg5
F-5.0
sg6
F-4.0
sb(dp3565
I00
F-10.492104006999998
sI01
I-92
ss(i__main__
State
p3566
(dp3567
g3
F2.0
sg4
F1.0
sg5
F-2.0
sg6
F-6.0
sb(dp3568
I00
I-69
sI01
F66.9
ss(i__main__
State
p3569
(dp3570
g3
F-5.0
sg4
F3.0
sg5
F5.0
sg6
F0.0
sb(dp3571
I00
F27.8250532532965
sI01
F-46.4368105586552
ss(i__main__
State
p3572
(dp3573
g3
F3.0
sg4
F4.0
sg5
F-3.0
sg6
F0.0
sb(dp3574
I00
I-1
sI01
F38.50126703200316
ss(i__main__
State
p3575
(dp3576
g3
F7.0
sg4
F2.0
sg5
F-7.0
sg6
F-8.0
sb(dp3577
I00
F29.544247380635387
sI01
F-62.8843050734874
ss(i__main__
State
p3578
(dp3579
g3
F-5.0
sg4
F2.0
sg5
F5.0
sg6
F2.0
sb(dp3580
I00
F-30.768674301542603
sI01
F-78.95995814817032
ss(i__main__
State
p3581
(dp3582
g3
F-8.0
sg4
F8.0
sg5
F8.0
sg6
F8.0
sb(dp3583
I00
F95.15399994849082
sI01
F24.692365820100914
ss(i__main__
State
p3584
(dp3585
g3
F4.0
sg4
F5.0
sg5
F-4.0
sg6
F4.0
sb(dp3586
I00
F17.369354420207156
sI01
F41.07151638066094
ss(i__main__
State
p3587
(dp3588
g3
F4.0
sg4
F0.0
sg5
F-4.0
sg6
F-2.0
sb(dp3589
I00
F37.77615997932935
sI01
I37
ss(i__main__
State
p3590
(dp3591
g3
F-7.0
sg4
F3.0
sg5
F7.0
sg6
F4.0
sb(dp3592
I00
F-1.8000000000000007
sI01
F43.89204846323474
ss(i__main__
State
p3593
(dp3594
g3
F0.0
sg4
F2.0
sg5
F0.0
sg6
F6.0
sb(dp3595
I00
F49.369663239999994
sI01
I-62
ss(i__main__
State
p3596
(dp3597
g3
F-4.0
sg4
F3.0
sg5
F4.0
sg6
F0.0
sb(dp3598
I00
F65.48960854939317
sI01
F-29.31983760745681
ss(i__main__
State
p3599
(dp3600
g3
F5.0
sg4
F8.0
sg5
F-5.0
sg6
F-2.0
sb(dp3601
I00
F278.5226997504942
sI01
F-560.2474576100321
ss(i__main__
State
p3602
(dp3603
g3
F-7.0
sg4
F8.0
sg5
F7.0
sg6
F8.0
sb(dp3604
I00
F85.82170067767618
sI01
F13.011000000000003
ss(i__main__
State
p3605
(dp3606
g3
F0.0
sg4
F4.0
sg5
F0.0
sg6
F-8.0
sb(dp3607
I00
F-10.639410977876604
sI01
F6.011373581999986
ss(i__main__
State
p3608
(dp3609
g3
F6.0
sg4
F9.0
sg5
F-6.0
sg6
F-4.0
sb(dp3610
I00
F235.81827111083643
sI01
F33.07431345958983
ss(i__main__
State
p3611
(dp3612
g3
F8.0
sg4
F9.0
sg5
F-8.0
sg6
F4.0
sb(dp3613
I00
F132.14205865260791
sI01
F22.804980019396936
ss(i__main__
State
p3614
(dp3615
g3
F3.0
sg4
F8.0
sg5
F-3.0
sg6
F-2.0
sb(dp3616
I00
F310.65103870714796
sI01
F-406.96531400000003
ss(i__main__
State
p3617
(dp3618
g3
F4.0
sg4
F8.0
sg5
F-4.0
sg6
F-2.0
sb(dp3619
I00
F80.30815066119756
sI01
F0.0
ss(i__main__
State
p3620
(dp3621
g3
F1.0
sg4
F8.0
sg5
F-1.0
sg6
F6.0
sb(dp3622
I00
F-685.5666805793
sI01
F358.4946356020082
ss(i__main__
State
p3623
(dp3624
g3
F1.0
sg4
F7.0
sg5
F-1.0
sg6
F8.0
sb(dp3625
I00
F-17.94247198781838
sI01
F-338.38647368209
ss(i__main__
State
p3626
(dp3627
g3
F-7.0
sg4
F9.0
sg5
F7.0
sg6
F8.0
sb(dp3628
I00
F63.10304828094049
sI01
F14.942364929443398
ss(i__main__
State
p3629
(dp3630
g3
F-2.0
sg4
F7.0
sg5
F2.0
sg6
F-2.0
sb(dp3631
I00
I-63
sI01
F57.777531181932474
ss(i__main__
State
p3632
(dp3633
g3
F-6.0
sg4
F6.0
sg5
F6.0
sg6
F8.0
sb(dp3634
I00
F-34.668601648767
sI01
F79.15465571423033
ss(i__main__
State
p3635
(dp3636
g3
F4.0
sg4
F3.0
sg5
F-4.0
sg6
F4.0
sb(dp3637
I00
F-23.959957
sI01
F17.306392358728353
ss(i__main__
State
p3638
(dp3639
g3
F-3.0
sg4
F8.0
sg5
F3.0
sg6
F-6.0
sb(dp3640
I00
F11.190000000000001
sI01
F134.16128515361484
ss(i__main__
State
p3641
(dp3642
g3
F8.0
sg4
F4.0
sg5
F-8.0
sg6
F4.0
sb(dp3643
I00
F-24.5
sI01
F-3.3610636497351756
ss(i__main__
State
p3644
(dp3645
g3
F-1.0
sg4
F0.0
sg5
F1.0
sg6
F-6.0
sb(dp3646
I00
F-15.022832
sI01
F41.49414016042308
ss(i__main__
State
p3647
(dp3648
g3
F-3.0
sg4
F8.0
sg5
F3.0
sg6
F6.0
sb(dp3649
I00
F49.51400000000001
sI01
F157.31990571572686
ss(i__main__
State
p3650
(dp3651
g3
F1.0
sg4
F5.0
sg5
F-1.0
sg6
F-4.0
sb(dp3652
I00
F43.994498351869964
sI01
F-53.07
ss(i__main__
State
p3653
(dp3654
g3
F-7.0
sg4
F5.0
sg5
F7.0
sg6
F0.0
sb(dp3655
I00
F-64.1
sI01
F69.4511498457087
ss(i__main__
State
p3656
(dp3657
g3
F7.0
sg4
F0.0
sg5
F-7.0
sg6
F0.0
sb(dp3658
I00
F25.1302199366
sI01
I-37
ss(i__main__
State
p3659
(dp3660
g3
F-7.0
sg4
F0.0
sg5
F7.0
sg6
F-4.0
sb(dp3661
I00
F-53.53018691714735
sI01
I-84
ss(i__main__
State
p3662
(dp3663
g3
F-2.0
sg4
F9.0
sg5
F2.0
sg6
F8.0
sb(dp3664
I00
F153.4038765075406
sI01
F79.42457707616371
ss(i__main__
State
p3665
(dp3666
g3
F3.0
sg4
F10.0
sg5
F-3.0
sg6
F6.0
sb(dp3667
I00
F54.64432704740545
sI01
F137.4273766655445
ss(i__main__
State
p3668
(dp3669
g3
F-7.0
sg4
F5.0
sg5
F7.0
sg6
F-8.0
sb(dp3670
I00
I-26
sI01
F69.73271566004159
ss(i__main__
State
p3671
(dp3672
g3
F-1.0
sg4
F5.0
sg5
F1.0
sg6
F0.0
sb(dp3673
I00
F49.85750366644028
sI01
F34.85569133628516
ss(i__main__
State
p3674
(dp3675
g3
F2.0
sg4
F10.0
sg5
F-2.0
sg6
F8.0
sb(dp3676
I00
F75.57886295288672
sI01
F14.813985296941766
ss(i__main__
State
p3677
(dp3678
g3
F7.0
sg4
F7.0
sg5
F-7.0
sg6
F-6.0
sb(dp3679
I00
F87.88791025751436
sI01
F44.43476799218002
ss(i__main__
State
p3680
(dp3681
g3
F6.0
sg4
F6.0
sg5
F-6.0
sg6
F2.0
sb(dp3682
I00
I-20
sI01
F78.38773726061882
ss(i__main__
State
p3683
(dp3684
g3
F3.0
sg4
F7.0
sg5
F-3.0
sg6
F8.0
sb(dp3685
I00
F-13.955408597079899
sI01
F107.64119948831971
ss(i__main__
State
p3686
(dp3687
g3
F-2.0
sg4
F4.0
sg5
F2.0
sg6
F0.0
sb(dp3688
I00
I-43
sI01
F-12.643287710587677
ss(i__main__
State
p3689
(dp3690
g3
F7.0
sg4
F8.0
sg5
F-7.0
sg6
F8.0
sb(dp3691
I00
F111.31682421090127
sI01
F0.0
ss(i__main__
State
p3692
(dp3693
g3
F8.0
sg4
F2.0
sg5
F-8.0
sg6
F-8.0
sb(dp3694
I00
F35.84189840172144
sI01
F-51.171597504582195
ss(i__main__
State
p3695
(dp3696
g3
F1.0
sg4
F8.0
sg5
F-1.0
sg6
F-6.0
sb(dp3697
I00
F-1200.0934632456451
sI01
F341.6701999060637
ss(i__main__
State
p3698
(dp3699
g3
F-2.0
sg4
F0.0
sg5
F2.0
sg6
F4.0
sb(dp3700
I00
F8.062145744050124
sI01
F-63.713493556691255
ss(i__main__
State
p3701
(dp3702
g3
F-7.0
sg4
F7.0
sg5
F7.0
sg6
F-2.0
sb(dp3703
I00
F30.243841594486465
sI01
F25.3
ss(i__main__
State
p3704
(dp3705
g3
F5.0
sg4
F7.0
sg5
F-5.0
sg6
F6.0
sb(dp3706
I00
F40.02124402487122
sI01
I15
ss(i__main__
State
p3707
(dp3708
g3
F-8.0
sg4
F5.0
sg5
F8.0
sg6
F-6.0
sb(dp3709
I00
I-25
sI01
F-5.087
ss(i__main__
State
p3710
(dp3711
g3
F0.0
sg4
F4.0
sg5
F0.0
sg6
F6.0
sb(dp3712
I00
F-59.47437
sI01
F71.74297228631937
ss(i__main__
State
p3713
(dp3714
g3
F-6.0
sg4
F0.0
sg5
F6.0
sg6
F-4.0
sb(dp3715
I00
F73.36870702173411
sI01
F75.1186194
ss(i__main__
State
p3716
(dp3717
g3
F6.0
sg4
F1.0
sg5
F-6.0
sg6
F4.0
sb(dp3718
I00
F-19.99525712842225
sI01
F-11.977494446354608
ss(i__main__
State
p3719
(dp3720
g3
F-4.0
sg4
F3.0
sg5
F4.0
sg6
F-4.0
sb(dp3721
I00
F42.54932754984093
sI01
F9.934000000000001
ss(i__main__
State
p3722
(dp3723
g3
F4.0
sg4
F6.0
sg5
F-4.0
sg6
F2.0
sb(dp3724
I00
F33.843811755628714
sI01
F-73.29467273106133
ss(i__main__
State
p3725
(dp3726
g3
F0.0
sg4
F2.0
sg5
F0.0
sg6
F-8.0
sb(dp3727
I00
F43.801351154559704
sI01
F17.821942167910006
ss(i__main__
State
p3728
(dp3729
g3
F-3.0
sg4
F6.0
sg5
F3.0
sg6
F2.0
sb(dp3730
I00
F-55.94563506875157
sI01
F77.18544003266811
ss(i__main__
State
p3731
(dp3732
g3
F8.0
sg4
F1.0
sg5
F-8.0
sg6
F-2.0
sb(dp3733
I00
F8.3
sI01
F6.532431971661638
ss(i__main__
State
p3734
(dp3735
g3
F-6.0
sg4
F0.0
sg5
F6.0
sg6
F8.0
sb(dp3736
I00
F0.4382170000000003
sI01
F9.023110989442298
ss(i__main__
State
p3737
(dp3738
g3
F-6.0
sg4
F1.0
sg5
F6.0
sg6
F8.0
sb(dp3739
I00
F17.601174651562822
sI01
F-43.46
ss(i__main__
State
p3740
(dp3741
g3
F-1.0
sg4
F10.0
sg5
F1.0
sg6
F4.0
sb(dp3742
I00
F111.51415814717959
sI01
F25.94929559747832
ss(i__main__
State
p3743
(dp3744
g3
F5.0
sg4
F5.0
sg5
F-5.0
sg6
F-8.0
sb(dp3745
I00
F-61.30068708344183
sI01
I1
ss(i__main__
State
p3746
(dp3747
g3
F-8.0
sg4
F4.0
sg5
F8.0
sg6
F6.0
sb(dp3748
I00
F-45.60992857260821
sI01
F54.56649316374652
ss(i__main__
State
p3749
(dp3750
g3
F2.0
sg4
F1.0
sg5
F-2.0
sg6
F6.0
sb(dp3751
I00
F45.1635341415283
sI01
F-30.75781988584067
ss(i__main__
State
p3752
(dp3753
g3
F0.0
sg4
F5.0
sg5
F0.0
sg6
F0.0
sb(dp3754
I00
F34.3
sI01
F94.14670203445
ss(i__main__
State
p3755
(dp3756
g3
F1.0
sg4
F7.0
sg5
F-1.0
sg6
F-4.0
sb(dp3757
I00
F83.02084268437589
sI01
F-1555.4629046396
ss(i__main__
State
p3758
(dp3759
g3
F5.0
sg4
F10.0
sg5
F-5.0
sg6
F-6.0
sb(dp3760
I00
F136.732356795205
sI01
F60.79622864764001
ss(i__main__
State
p3761
(dp3762
g3
F-8.0
sg4
F5.0
sg5
F8.0
sg6
F-8.0
sb(dp3763
I00
F-4.096689
sI01
F-45.8912175740232
ss(i__main__
State
p3764
(dp3765
g3
F5.0
sg4
F1.0
sg5
F-5.0
sg6
F-2.0
sb(dp3766
I00
F23.075460767062886
sI01
F25.983530000000002
ss(i__main__
State
p3767
(dp3768
g3
F8.0
sg4
F2.0
sg5
F-8.0
sg6
F0.0
sb(dp3769
I00
F-35.766510801986385
sI01
F-78.1
ss(i__main__
State
p3770
(dp3771
g3
F-7.0
sg4
F0.0
sg5
F7.0
sg6
F2.0
sb(dp3772
I00
F-10.601825452699998
sI01
F25.32769130131085
ss(i__main__
State
p3773
(dp3774
g3
F3.0
sg4
F0.0
sg5
F-3.0
sg6
F8.0
sb(dp3775
I00
F39.707578418998835
sI01
F-61.682900000000004
ss(i__main__
State
p3776
(dp3777
g3
F-6.0
sg4
F3.0
sg5
F6.0
sg6
F6.0
sb(dp3778
I00
F54.26334894504147
sI01
I-69
ss(i__main__
State
p3779
(dp3780
g3
F2.0
sg4
F0.0
sg5
F-2.0
sg6
F6.0
sb(dp3781
I00
F20.59338986647
sI01
F39.73006995845682
ss(i__main__
State
p3782
(dp3783
g3
F-3.0
sg4
F3.0
sg5
F3.0
sg6
F8.0
sb(dp3784
I00
F-7.179995124376004
sI01
F41.00350926327462
ss(i__main__
State
p3785
(dp3786
g3
F-2.0
sg4
F4.0
sg5
F2.0
sg6
F6.0
sb(dp3787
I00
F62.75769186223217
sI01
F-62.22
ss(i__main__
State
p3788
(dp3789
g3
F-2.0
sg4
F5.0
sg5
F2.0
sg6
F2.0
sb(dp3790
I00
F51.1024399281723
sI01
F8.46443685104
ss(i__main__
State
p3791
(dp3792
g3
F-1.0
sg4
F6.0
sg5
F1.0
sg6
F0.0
sb(dp3793
I00
F42.77189026204466
sI01
F-65.5909726
ss(i__main__
State
p3794
(dp3795
g3
F5.0
sg4
F5.0
sg5
F-5.0
sg6
F6.0
sb(dp3796
I00
F25.962190412989955
sI01
F-26.858186142199376
ss(i__main__
State
p3797
(dp3798
g3
F6.0
sg4
F7.0
sg5
F-6.0
sg6
F-8.0
sb(dp3799
I00
F61.798161421457934
sI01
F85.8652746943381
ss(i__main__
State
p3800
(dp3801
g3
F0.0
sg4
F6.0
sg5
F0.0
sg6
F6.0
sb(dp3802
I00
I-50
sI01
F70.465761057083
ss(i__main__
State
p3803
(dp3804
g3
F-5.0
sg4
F9.0
sg5
F5.0
sg6
F8.0
sb(dp3805
I00
F213.07959123524392
sI01
F20.4603639
ss(i__main__
State
p3806
(dp3807
g3
F-4.0
sg4
F4.0
sg5
F4.0
sg6
F6.0
sb(dp3808
I00
F83.76840186000001
sI01
F54.35231894911608
ss(i__main__
State
p3809
(dp3810
g3
F-7.0
sg4
F6.0
sg5
F7.0
sg6
F4.0
sb(dp3811
I00
F20.432916210836527
sI01
F80.95547809024384
ss(i__main__
State
p3812
(dp3813
g3
F-5.0
sg4
F9.0
sg5
F5.0
sg6
F-8.0
sb(dp3814
I00
F44.219845453207306
sI01
F63.110859298660756
ss(i__main__
State
p3815
(dp3816
g3
F3.0
sg4
F10.0
sg5
F-3.0
sg6
F2.0
sb(dp3817
I00
F83.93667387755
sI01
F31.567999999999998
ss(i__main__
State
p3818
(dp3819
g3
F7.0
sg4
F2.0
sg5
F-7.0
sg6
F-4.0
sb(dp3820
I00
F-8.6916075829578
sI01
F40.77655876378275
ss(i__main__
State
p3821
(dp3822
g3
F7.0
sg4
F4.0
sg5
F-7.0
sg6
F2.0
sb(dp3823
I00
F40.780477433430065
sI01
F11.598250744163142
ss(i__main__
State
p3824
(dp3825
g3
F-6.0
sg4
F7.0
sg5
F6.0
sg6
F-4.0
sb(dp3826
I00
F38.992809439477135
sI01
F10.0
ss(i__main__
State
p3827
(dp3828
g3
F-5.0
sg4
F5.0
sg5
F5.0
sg6
F2.0
sb(dp3829
I00
F72.25389360999999
sI01
F-13.949999999999996
ss(i__main__
State
p3830
(dp3831
g3
F4.0
sg4
F7.0
sg5
F-4.0
sg6
F-8.0
sb(dp3832
I00
F-12.905188267457739
sI01
F18.946874259654688
ss(i__main__
State
p3833
(dp3834
g3
F4.0
sg4
F9.0
sg5
F-4.0
sg6
F-8.0
sb(dp3835
I00
F13.686243988000001
sI01
F53.37569882402144
ss(i__main__
State
p3836
(dp3837
g3
F-8.0
sg4
F4.0
sg5
F8.0
sg6
F-4.0
sb(dp3838
I00
F41.63032336395162
sI01
F-9.1
ss(i__main__
State
p3839
(dp3840
g3
F5.0
sg4
F7.0
sg5
F-5.0
sg6
F-8.0
sb(dp3841
I00
F122.40435174220377
sI01
F37.78308309266001
ss(i__main__
State
p3842
(dp3843
g3
F-8.0
sg4
F10.0
sg5
F8.0
sg6
F0.0
sb(dp3844
I00
F106.77000264825371
sI01
F27.577009711952726
ss(i__main__
State
p3845
(dp3846
g3
F-4.0
sg4
F3.0
sg5
F4.0
sg6
F4.0
sb(dp3847
I00
F50.03140228552648
sI01
F-27.937
ss(i__main__
State
p3848
(dp3849
g3
F-5.0
sg4
F8.0
sg5
F5.0
sg6
F-6.0
sb(dp3850
I00
F29.332252
sI01
F102.28534739205801
ss(i__main__
State
p3851
(dp3852
g3
F2.0
sg4
F7.0
sg5
F-2.0
sg6
F0.0
sb(dp3853
I00
F61.22098221161184
sI01
F80.30856284705523
ss(i__main__
State
p3854
(dp3855
g3
F0.0
sg4
F10.0
sg5
F0.0
sg6
F2.0
sb(dp3856
I00
F-4665.979939254124
sI01
F-4098.703562000001
ss(i__main__
State
p3857
(dp3858
g3
F-8.0
sg4
F4.0
sg5
F8.0
sg6
F4.0
sb(dp3859
I00
F40.51191774300735
sI01
F64.27205531239186
ss(i__main__
State
p3860
(dp3861
g3
F6.0
sg4
F9.0
sg5
F-6.0
sg6
F-8.0
sb(dp3862
I00
F25.984486560561276
sI01
F157.51608838189017
ss(i__main__
State
p3863
(dp3864
g3
F7.0
sg4
F7.0
sg5
F-7.0
sg6
F4.0
sb(dp3865
I00
F114.9743205066387
sI01
F-12.265513108807697
ss(i__main__
State
p3866
(dp3867
g3
F-8.0
sg4
F0.0
sg5
F8.0
sg6
F-4.0
sb(dp3868
I00
F33.898933797000005
sI01
F21.321133873992796
ss(i__main__
State
p3869
(dp3870
g3
F8.0
sg4
F8.0
sg5
F-8.0
sg6
F-4.0
sb(dp3871
I00
F142.446277382275
sI01
F55.29304474705007
ss(i__main__
State
p3872
(dp3873
g3
F1.0
sg4
F0.0
sg5
F-1.0
sg6
F2.0
sb(dp3874
I00
F-40.4
sI01
F-19.89865848685795
ss(i__main__
State
p3875
(dp3876
g3
F8.0
sg4
F6.0
sg5
F-8.0
sg6
F2.0
sb(dp3877
I00
F-45.231387627428596
sI01
F44.91377693089268
ss(i__main__
State
p3878
(dp3879
g3
F-3.0
sg4
F9.0
sg5
F3.0
sg6
F6.0
sb(dp3880
I00
F92.5714190880029
sI01
F23.59553475044881
ss(i__main__
State
p3881
(dp3882
g3
F-6.0
sg4
F6.0
sg5
F6.0
sg6
F4.0
sb(dp3883
I00
F-74.1874437039
sI01
F56.7
ss(i__main__
State
p3884
(dp3885
g3
F5.0
sg4
F5.0
sg5
F-5.0
sg6
F-2.0
sb(dp3886
I00
F34.6
sI01
F41.3987565865691
ss(i__main__
State
p3887
(dp3888
g3
F-4.0
sg4
F6.0
sg5
F4.0
sg6
F-4.0
sb(dp3889
I00
F-28.989067999999996
sI01
I-74
ss(i__main__
State
p3890
(dp3891
g3
F2.0
sg4
F4.0
sg5
F-2.0
sg6
F4.0
sb(dp3892
I00
I0
sI01
F12.054058304906002
ss(i__main__
State
p3893
(dp3894
g3
F-6.0
sg4
F10.0
sg5
F6.0
sg6
F-6.0
sb(dp3895
I00
F257.39275995561843
sI01
F5.770683104261809
ss(i__main__
State
p3896
(dp3897
g3
F-1.0
sg4
F4.0
sg5
F1.0
sg6
F4.0
sb(dp3898
I00
F61.56915028422783
sI01
I-63
ss(i__main__
State
p3899
(dp3900
g3
F0.0
sg4
F9.0
sg5
F0.0
sg6
F-6.0
sb(dp3901
I00
F294.7141297769324
sI01
F50.539633561
ss(i__main__
State
p3902
(dp3903
g3
F-7.0
sg4
F7.0
sg5
F7.0
sg6
F0.0
sb(dp3904
I00
F64.5951962821811
sI01
F55.19144788808953
ss(i__main__
State
p3905
(dp3906
g3
F4.0
sg4
F4.0
sg5
F-4.0
sg6
F-4.0
sb(dp3907
I00
F35.83903404443416
sI01
F20.085512741219382
ss(i__main__
State
p3908
(dp3909
g3
F-4.0
sg4
F0.0
sg5
F4.0
sg6
F0.0
sb(dp3910
I00
I9
sI01
F61.334528622421345
ss(i__main__
State
p3911
(dp3912
g3
F7.0
sg4
F5.0
sg5
F-7.0
sg6
F-6.0
sb(dp3913
I00
F-35.174384232498575
sI01
I-69
ss(i__main__
State
p3914
(dp3915
g3
F-1.0
sg4
F9.0
sg5
F1.0
sg6
F-4.0
sb(dp3916
I00
F344.83554149422037
sI01
F57.16449110611848
ss(i__main__
State
p3917
(dp3918
g3
F-2.0
sg4
F1.0
sg5
F2.0
sg6
F4.0
sb(dp3919
I00
F41.51399360806519
sI01
F-13.751609999999998
ss(i__main__
State
p3920
(dp3921
g3
F1.0
sg4
F2.0
sg5
F-1.0
sg6
F-4.0
sb(dp3922
I00
F58.8
sI01
F47.623
ss(i__main__
State
p3923
(dp3924
g3
F-5.0
sg4
F8.0
sg5
F5.0
sg6
F6.0
sb(dp3925
I00
F76.873430921508
sI01
F291.3446860980332
ss(i__main__
State
p3926
(dp3927
g3
F4.0
sg4
F8.0
sg5
F-4.0
sg6
F8.0
sb(dp3928
I00
F167.60707850641404
sI01
F42.8069566080116
ss(i__main__
State
p3929
(dp3930
g3
F4.0
sg4
F7.0
sg5
F-4.0
sg6
F0.0
sb(dp3931
I00
F185.56183730987038
sI01
F37.605798092603095
ss(i__main__
State
p3932
(dp3933
g3
F0.0
sg4
F8.0
sg5
F0.0
sg6
F-2.0
sb(dp3934
I00
F-5663.532704906677
sI01
F-6330.0712357712
ss(i__main__
State
p3935
(dp3936
g3
F3.0
sg4
F6.0
sg5
F-3.0
sg6
F-4.0
sb(dp3937
I00
F-48.050000000000004
sI01
F63.26055269941057
ss(i__main__
State
p3938
(dp3939
g3
F6.0
sg4
F1.0
sg5
F-6.0
sg6
F0.0
sb(dp3940
I00
F25.2099462312528
sI01
F-46.7001
ss(i__main__
State
p3941
(dp3942
g3
F-8.0
sg4
F10.0
sg5
F8.0
sg6
F2.0
sb(dp3943
I00
F295.9965924352239
sI01
F71.97117174046498
ss(i__main__
State
p3944
(dp3945
g3
F-6.0
sg4
F7.0
sg5
F6.0
sg6
F-6.0
sb(dp3946
I00
F-12.075035060870999
sI01
I-81
ss(i__main__
State
p3947
(dp3948
g3
F-7.0
sg4
F2.0
sg5
F7.0
sg6
F-2.0
sb(dp3949
I00
F44.86118337559942
sI01
F-11.246056218729585
ss(i__main__
State
p3950
(dp3951
g3
F8.0
sg4
F1.0
sg5
F-8.0
sg6
F8.0
sb(dp3952
I00
F47.571
sI01
F62.62014734212351
ss(i__main__
State
p3953
(dp3954
g3
F8.0
sg4
F3.0
sg5
F-8.0
sg6
F8.0
sb(dp3955
I00
F21.287321916353783
sI01
F-27.726
ss(i__main__
State
p3956
(dp3957
g3
F7.0
sg4
F3.0
sg5
F-7.0
sg6
F-2.0
sb(dp3958
I00
F-53.047900000000006
sI01
F23.137509469356214
ss(i__main__
State
p3959
(dp3960
g3
F6.0
sg4
F0.0
sg5
F-6.0
sg6
F4.0
sb(dp3961
I00
F22.183443434008556
sI01
F-25.422666372354968
ss(i__main__
State
p3962
(dp3963
g3
F-7.0
sg4
F9.0
sg5
F7.0
sg6
F-6.0
sb(dp3964
I00
F102.51761662385653
sI01
F0.0
ss(i__main__
State
p3965
(dp3966
g3
F7.0
sg4
F4.0
sg5
F-7.0
sg6
F0.0
sb(dp3967
I00
F41.20609556160462
sI01
F-62.18299999999999
ss(i__main__
State
p3968
(dp3969
g3
F5.0
sg4
F1.0
sg5
F-5.0
sg6
F-4.0
sb(dp3970
I00
I-1
sI01
F0.15217270907999958
ss(i__main__
State
p3971
(dp3972
g3
F-1.0
sg4
F2.0
sg5
F1.0
sg6
F8.0
sb(dp3973
I00
F20.162082527267426
sI01
F-69.51
ss(i__main__
State
p3974
(dp3975
g3
F3.0
sg4
F5.0
sg5
F-3.0
sg6
F0.0
sb(dp3976
I00
F15.96744653184477
sI01
I-28
ss(i__main__
State
p3977
(dp3978
g3
F-3.0
sg4
F5.0
sg5
F3.0
sg6
F4.0
sb(dp3979
I00
F7.8100000000000005
sI01
F46.45908835354301
ss(i__main__
State
p3980
(dp3981
g3
F-5.0
sg4
F6.0
sg5
F5.0
sg6
F8.0
sb(dp3982
I00
F-30.799999999999997
sI01
F44.43839477363103
ss(i__main__
State
p3983
(dp3984
g3
F6.0
sg4
F5.0
sg5
F-6.0
sg6
F0.0
sb(dp3985
I00
F-68.68741976507167
sI01
F-34.77205641206881
ss(i__main__
State
p3986
(dp3987
g3
F-1.0
sg4
F9.0
sg5
F1.0
sg6
F6.0
sb(dp3988
I00
F111.49967684150704
sI01
F0.0
ss(i__main__
State
p3989
(dp3990
g3
F1.0
sg4
F7.0
sg5
F-1.0
sg6
F6.0
sb(dp3991
I00
F43.970001
sI01
F-24.3
ss(i__main__
State
p3992
(dp3993
g3
F-6.0
sg4
F3.0
sg5
F6.0
sg6
F2.0
sb(dp3994
I00
F8.13683857642209
sI01
I-100
ss(i__main__
State
p3995
(dp3996
g3
F1.0
sg4
F4.0
sg5
F-1.0
sg6
F-4.0
sb(dp3997
I00
F-15.811576739105547
sI01
I-79
ss(i__main__
State
p3998
(dp3999
g3
F-2.0
sg4
F9.0
sg5
F2.0
sg6
F-2.0
sb(dp4000
I00
F-3336.293907353458
sI01
F390.37012417609697
ss(i__main__
State
p4001
(dp4002
g3
F3.0
sg4
F8.0
sg5
F-3.0
sg6
F8.0
sb(dp4003
I00
F361.51448526298293
sI01
F141.99101913475084
ss(i__main__
State
p4004
(dp4005
g3
F-8.0
sg4
F5.0
sg5
F8.0
sg6
F-4.0
sb(dp4006
I00
F-15.421555999999999
sI01
F-7.787482754464162
ss(i__main__
State
p4007
(dp4008
g3
F8.0
sg4
F0.0
sg5
F-8.0
sg6
F8.0
sb(dp4009
I00
I64
sI01
F86.5
ss(i__main__
State
p4010
(dp4011
g3
F8.0
sg4
F0.0
sg5
F-8.0
sg6
F-2.0
sb(dp4012
I00
F53.438055301700004
sI01
I17
ss(i__main__
State
p4013
(dp4014
g3
F-7.0
sg4
F1.0
sg5
F7.0
sg6
F-4.0
sb(dp4015
I00
F-10.205938888000004
sI01
F43.598519459440524
ss(i__main__
State
p4016
(dp4017
g3
F-7.0
sg4
F2.0
sg5
F7.0
sg6
F4.0
sb(dp4018
I00
F-44.85452689865658
sI01
F7.435439228590673
ss(i__main__
State
p4019
(dp4020
g3
F0.0
sg4
F3.0
sg5
F0.0
sg6
F-6.0
sb(dp4021
I00
I-86
sI01
F-2.781513544038991
ss(i__main__
State
p4022
(dp4023
g3
F-8.0
sg4
F3.0
sg5
F8.0
sg6
F2.0
sb(dp4024
I00
I-23
sI01
F-75.8
ss(i__main__
State
p4025
(dp4026
g3
F7.0
sg4
F6.0
sg5
F-7.0
sg6
F6.0
sb(dp4027
I00
F-70.3322
sI01
F-21.00123820238927
ss(i__main__
State
p4028
(dp4029
g3
F3.0
sg4
F3.0
sg5
F-3.0
sg6
F6.0
sb(dp4030
I00
F10.620554239935998
sI01
I-95
ss(i__main__
State
p4031
(dp4032
g3
F-7.0
sg4
F4.0
sg5
F7.0
sg6
F6.0
sb(dp4033
I00
F-4.640350922806968
sI01
F38.14744015098866
ss(i__main__
State
p4034
(dp4035
g3
F-6.0
sg4
F7.0
sg5
F6.0
sg6
F2.0
sb(dp4036
I00
F67.12006021012274
sI01
F27.2
ss(i__main__
State
p4037
(dp4038
g3
F4.0
sg4
F10.0
sg5
F-4.0
sg6
F4.0
sb(dp4039
I00
F208.1229232855444
sI01
F18.25676134307929
ss(i__main__
State
p4040
(dp4041
g3
F1.0
sg4
F3.0
sg5
F-1.0
sg6
F-2.0
sb(dp4042
I00
F23.49052702054572
sI01
I17
ss(i__main__
State
p4043
(dp4044
g3
F0.0
sg4
F2.0
sg5
F0.0
sg6
F-2.0
sb(dp4045
I00
F-33.0
sI01
F-43.1
ss(i__main__
State
p4046
(dp4047
g3
F6.0
sg4
F3.0
sg5
F-6.0
sg6
F-4.0
sb(dp4048
I00
F29.99368857133787
sI01
F8.1241341117107
ss(i__main__
State
p4049
(dp4050
g3
F1.0
sg4
F5.0
sg5
F-1.0
sg6
F6.0
sb(dp4051
I00
F21.380684681903908
sI01
F-55.736430359726995
ss(i__main__
State
p4052
(dp4053
g3
F6.0
sg4
F0.0
sg5
F-6.0
sg6
F2.0
sb(dp4054
I00
F15.43
sI01
F68.95102778299999
ss(i__main__
State
p4055
(dp4056
g3
F4.0
sg4
F1.0
sg5
F-4.0
sg6
F2.0
sb(dp4057
I00
F34.660719019301645
sI01
F26.28725466927
ss(i__main__
State
p4058
(dp4059
g3
F4.0
sg4
F0.0
sg5
F-4.0
sg6
F0.0
sb(dp4060
I00
F5.509081651799221
sI01
I-3
ss(i__main__
State
p4061
(dp4062
g3
F-6.0
sg4
F0.0
sg5
F6.0
sg6
F4.0
sb(dp4063
I00
F-84.81435938
sI01
F17.64443164585419
ss(i__main__
State
p4064
(dp4065
g3
F4.0
sg4
F3.0
sg5
F-4.0
sg6
F-4.0
sb(dp4066
I00
F-45.46368
sI01
F56.2040959487056
ss(i__main__
State
p4067
(dp4068
g3
F-3.0
sg4
F1.0
sg5
F3.0
sg6
F2.0
sb(dp4069
I00
F16.614391784294757
sI01
F3.140526275575711
ss(i__main__
State
p4070
(dp4071
g3
F-8.0
sg4
F4.0
sg5
F8.0
sg6
F8.0
sb(dp4072
I00
F-19.90307365863506
sI01
F47.197231542000395
ss(i__main__
State
p4073
(dp4074
g3
F0.0
sg4
F5.0
sg5
F0.0
sg6
F6.0
sb(dp4075
I00
F4.2171837333807165
sI01
F28.374330344338397
ss(i__main__
State
p4076
(dp4077
g3
F7.0
sg4
F8.0
sg5
F-7.0
sg6
F6.0
sb(dp4078
I00
F319.53266119095707
sI01
F96.63945969411391
ss(i__main__
State
p4079
(dp4080
g3
F-8.0
sg4
F5.0
sg5
F8.0
sg6
F-2.0
sb(dp4081
I00
F44.75520005275538
sI01
F35.207428731
ss(i__main__
State
p4082
(dp4083
g3
F4.0
sg4
F8.0
sg5
F-4.0
sg6
F4.0
sb(dp4084
I00
F38.8211278662058
sI01
F138.9291642000462
ss(i__main__
State
p4085
(dp4086
g3
F5.0
sg4
F3.0
sg5
F-5.0
sg6
F-4.0
sb(dp4087
I00
F51.626129762409775
sI01
F-34.630057
ss(i__main__
State
p4088
(dp4089
g3
F0.0
sg4
F1.0
sg5
F0.0
sg6
F-2.0
sb(dp4090
I00
F-34.4
sI01
F-23.12
ss(i__main__
State
p4091
(dp4092
g3
F-5.0
sg4
F4.0
sg5
F5.0
sg6
F2.0
sb(dp4093
I00
F29.509997734993554
sI01
I31
ss(i__main__
State
p4094
(dp4095
g3
F-1.0
sg4
F3.0
sg5
F1.0
sg6
F2.0
sb(dp4096
I00
I7
sI01
F41.5417552251426
ss(i__main__
State
p4097
(dp4098
g3
F3.0
sg4
F9.0
sg5
F-3.0
sg6
F0.0
sb(dp4099
I00
F-4072.472016999225
sI01
F-4614.953363197929
ss(i__main__
State
p4100
(dp4101
g3
F7.0
sg4
F1.0
sg5
F-7.0
sg6
F6.0
sb(dp4102
I00
F51.5
sI01
F53.664920944
ss(i__main__
State
p4103
(dp4104
g3
F-6.0
sg4
F0.0
sg5
F6.0
sg6
F-8.0
sb(dp4105
I00
F57.50461239588641
sI01
I-16
ss(i__main__
State
p4106
(dp4107
g3
F-2.0
sg4
F8.0
sg5
F2.0
sg6
F-2.0
sb(dp4108
I00
F133.49242321341504
sI01
F-807.0736216555641
ss(i__main__
State
p4109
(dp4110
g3
F1.0
sg4
F9.0
sg5
F-1.0
sg6
F4.0
sb(dp4111
I00
F231.42970176619994
sI01
F-1090.2662539660591
ss(i__main__
State
p4112
(dp4113
g3
F5.0
sg4
F1.0
sg5
F-5.0
sg6
F-6.0
sb(dp4114
I00
F-50.1827089
sI01
F51.93546071124
ss(i__main__
State
p4115
(dp4116
g3
F2.0
sg4
F9.0
sg5
F-2.0
sg6
F-4.0
sb(dp4117
I00
F-614.4327486180074
sI01
F219.05253510759746
ss(i__main__
State
p4118
(dp4119
g3
F-4.0
sg4
F0.0
sg5
F4.0
sg6
F-8.0
sb(dp4120
I00
F-39.204107397803995
sI01
F52.01845746508057
ss(i__main__
State
p4121
(dp4122
g3
F8.0
sg4
F9.0
sg5
F-8.0
sg6
F2.0
sb(dp4123
I00
F38.6543183
sI01
F0.0
ss(i__main__
State
p4124
(dp4125
g3
F8.0
sg4
F5.0
sg5
F-8.0
sg6
F2.0
sb(dp4126
I00
F-8.63111756857785
sI01
F27.746585518281037
ss(i__main__
State
p4127
(dp4128
g3
F7.0
sg4
F1.0
sg5
F-7.0
sg6
F-2.0
sb(dp4129
I00
F4.411256057985864
sI01
I-46
ss(i__main__
State
p4130
(dp4131
g3
F3.0
sg4
F9.0
sg5
F-3.0
sg6
F-4.0
sb(dp4132
I00
F210.7556095198722
sI01
F0.0
ss(i__main__
State
p4133
(dp4134
g3
F-7.0
sg4
F9.0
sg5
F7.0
sg6
F2.0
sb(dp4135
I00
F40.903366440000006
sI01
F0.0
ss(i__main__
State
p4136
(dp4137
g3
F2.0
sg4
F2.0
sg5
F-2.0
sg6
F-4.0
sb(dp4138
I00
F23.865491141499778
sI01
F-42.860535127963736
ss(i__main__
State
p4139
(dp4140
g3
F-3.0
sg4
F7.0
sg5
F3.0
sg6
F4.0
sb(dp4141
I00
F-10.749960784000002
sI01
F-56.493585521384816
ss(i__main__
State
p4142
(dp4143
g3
F0.0
sg4
F7.0
sg5
F0.0
sg6
F6.0
sb(dp4144
I00
F10.491409665754116
sI01
I-42
ss(i__main__
State
p4145
(dp4146
g3
F-8.0
sg4
F7.0
sg5
F8.0
sg6
F0.0
sb(dp4147
I00
F3.065034617163898
sI01
F-33.5988830194472
ss(i__main__
State
p4148
(dp4149
g3
F8.0
sg4
F10.0
sg5
F-8.0
sg6
F6.0
sb(dp4150
I00
F12.01
sI01
F0.0
ss(i__main__
State
p4151
(dp4152
g3
F6.0
sg4
F8.0
sg5
F-6.0
sg6
F8.0
sb(dp4153
I00
F286.40317585222306
sI01
F149.70982613446714
ss(i__main__
State
p4154
(dp4155
g3
F-1.0
sg4
F5.0
sg5
F1.0
sg6
F-6.0
sb(dp4156
I00
F-23.4574543374404
sI01
F49.455816229165094
ss(i__main__
State
p4157
(dp4158
g3
F-6.0
sg4
F9.0
sg5
F6.0
sg6
F8.0
sb(dp4159
I00
F286.67936148191717
sI01
F40.3558044779776
ss(i__main__
State
p4160
(dp4161
g3
F3.0
sg4
F10.0
sg5
F-3.0
sg6
F-8.0
sb(dp4162
I00
F29.9
sI01
F111.17174241176542
ss(i__main__
State
p4163
(dp4164
g3
F-1.0
sg4
F1.0
sg5
F1.0
sg6
F2.0
sb(dp4165
I00
F-13.183021930216869
sI01
F-60.170361
ss(i__main__
State
p4166
(dp4167
g3
F-6.0
sg4
F10.0
sg5
F6.0
sg6
F6.0
sb(dp4168
I00
F222.39691923697063
sI01
F19.176359614000003
ss(i__main__
State
p4169
(dp4170
g3
F-2.0
sg4
F2.0
sg5
F2.0
sg6
F0.0
sb(dp4171
I00
F-15.5175
sI01
F53.320662051329975
ss(i__main__
State
p4172
(dp4173
g3
F-6.0
sg4
F3.0
sg5
F6.0
sg6
F-2.0
sb(dp4174
I00
F-21.3704300237675
sI01
F-53.4
ss(i__main__
State
p4175
(dp4176
g3
F-6.0
sg4
F6.0
sg5
F6.0
sg6
F-4.0
sb(dp4177
I00
F-48.399243218149955
sI01
F45.271937935006555
ss(i__main__
State
p4178
(dp4179
g3
F-2.0
sg4
F3.0
sg5
F2.0
sg6
F0.0
sb(dp4180
I00
F30.29121191828113
sI01
F46.092999999999996
ss(i__main__
State
p4181
(dp4182
g3
F-6.0
sg4
F1.0
sg5
F6.0
sg6
F4.0
sb(dp4183
I00
F-4.357787272
sI01
F-71.74
ss(i__main__
State
p4184
(dp4185
g3
F8.0
sg4
F5.0
sg5
F-8.0
sg6
F-6.0
sb(dp4186
I00
F47.57920796461366
sI01
I-92
ss(i__main__
State
p4187
(dp4188
g3
F6.0
sg4
F4.0
sg5
F-6.0
sg6
F0.0
sb(dp4189
I00
F-60.66666
sI01
F46.41571418424637
ss(i__main__
State
p4190
(dp4191
g3
F-3.0
sg4
F7.0
sg5
F3.0
sg6
F-2.0
sb(dp4192
I00
F173.27354477541238
sI01
F0.869584149446343
ss(i__main__
State
p4193
(dp4194
g3
F-1.0
sg4
F8.0
sg5
F1.0
sg6
F-4.0
sb(dp4195
I00
F104.16306315328724
sI01
F360.2059916869474
ss(i__main__
State
p4196
(dp4197
g3
F-3.0
sg4
F8.0
sg5
F3.0
sg6
F8.0
sb(dp4198
I00
F42.69814959000001
sI01
F12.0
ss(i__main__
State
p4199
(dp4200
g3
F8.0
sg4
F8.0
sg5
F-8.0
sg6
F-2.0
sb(dp4201
I00
F399.06516758654277
sI01
F-1024.7563320620181
ss(i__main__
State
p4202
(dp4203
g3
F-4.0
sg4
F10.0
sg5
F4.0
sg6
F6.0
sb(dp4204
I00
F10.0
sI01
F59.317624155809995
ss(i__main__
State
p4205
(dp4206
g3
F2.0
sg4
F3.0
sg5
F-2.0
sg6
F-6.0
sb(dp4207
I00
F14.107856767826465
sI01
F-52.31184189234445
ss(i__main__
State
p4208
(dp4209
g3
F4.0
sg4
F6.0
sg5
F-4.0
sg6
F8.0
sb(dp4210
I00
F-14.247777025924957
sI01
F39.19048496893919
ss(i__main__
State
p4211
(dp4212
g3
F-2.0
sg4
F6.0
sg5
F2.0
sg6
F8.0
sb(dp4213
I00
I-1
sI01
F46.09555244959319
ss(i__main__
State
p4214
(dp4215
g3
F-7.0
sg4
F6.0
sg5
F7.0
sg6
F2.0
sb(dp4216
I00
F53.63752795217372
sI01
F53.35645832940216
ss(i__main__
State
p4217
(dp4218
g3
F-4.0
sg4
F7.0
sg5
F4.0
sg6
F8.0
sb(dp4219
I00
F-27.46205079600928
sI01
F85.29717236292946
ss(i__main__
State
p4220
(dp4221
g3
F3.0
sg4
F3.0
sg5
F-3.0
sg6
F-6.0
sb(dp4222
I00
F28.318054000000004
sI01
F-48.041395900000005
ss(i__main__
State
p4223
(dp4224
g3
F5.0
sg4
F5.0
sg5
F-5.0
sg6
F-4.0
sb(dp4225
I00
F-39.400999999999996
sI01
F-7.6449720023628895
ss(i__main__
State
p4226
(dp4227
g3
F-6.0
sg4
F7.0
sg5
F6.0
sg6
F6.0
sb(dp4228
I00
F-47.83928429116315
sI01
F-81.341473036488
ss(i__main__
State
p4229
(dp4230
g3
F-4.0
sg4
F8.0
sg5
F4.0
sg6
F-4.0
sb(dp4231
I00
F10.0
sI01
F25.74261068525763
ss(i__main__
State
p4232
(dp4233
g3
F5.0
sg4
F0.0
sg5
F-5.0
sg6
F4.0
sb(dp4234
I00
F-5.3972531109999995
sI01
F45.592119384
ss(i__main__
State
p4235
(dp4236
g3
F0.0
sg4
F8.0
sg5
F0.0
sg6
F-8.0
sb(dp4237
I00
F-2706.92
sI01
F-2681.7448240875697
ss(i__main__
State
p4238
(dp4239
g3
F-4.0
sg4
F1.0
sg5
F4.0
sg6
F0.0
sb(dp4240
I00
F51.66006395989703
sI01
F-35.52931075485849
ss(i__main__
State
p4241
(dp4242
g3
F-8.0
sg4
F10.0
sg5
F8.0
sg6
F8.0
sb(dp4243
I00
F34.246638211000004
sI01
F111.72144979931318
ss(i__main__
State
p4244
(dp4245
g3
F1.0
sg4
F7.0
sg5
F-1.0
sg6
F-8.0
sb(dp4246
I00
F177.16331108053257
sI01
F-1101.842038580246
ss(i__main__
State
p4247
(dp4248
g3
F6.0
sg4
F3.0
sg5
F-6.0
sg6
F-8.0
sb(dp4249
I00
F-5.629900830837094
sI01
F44.693787305474764
ss(i__main__
State
p4250
(dp4251
g3
F8.0
sg4
F6.0
sg5
F-8.0
sg6
F-2.0
sb(dp4252
I00
F-8.270355075050855
sI01
I-98
ss(i__main__
State
p4253
(dp4254
g3
F4.0
sg4
F2.0
sg5
F-4.0
sg6
F0.0
sb(dp4255
I00
F-7.009379999999997
sI01
I-48
ss(i__main__
State
p4256
(dp4257
g3
F-1.0
sg4
F7.0
sg5
F1.0
sg6
F-2.0
sb(dp4258
I00
F38.09244504356938
sI01
F-71.25873061131222
ss(i__main__
State
p4259
(dp4260
g3
F3.0
sg4
F4.0
sg5
F-3.0
sg6
F-6.0
sb(dp4261
I00
F51.95184703733
sI01
F22.544905610515002
ss(i__main__
State
p4262
(dp4263
g3
F7.0
sg4
F0.0
sg5
F-7.0
sg6
F8.0
sb(dp4264
I00
F56.464357186
sI01
F-18.8347091541
ss(i__main__
State
p4265
(dp4266
g3
F-8.0
sg4
F8.0
sg5
F8.0
sg6
F0.0
sb(dp4267
I00
F31.481560691000006
sI01
F0.0
ss(i__main__
State
p4268
(dp4269
g3
F-2.0
sg4
F1.0
sg5
F2.0
sg6
F-8.0
sb(dp4270
I00
F-37.022405350468716
sI01
F64.43486714575903
ss(i__main__
State
p4271
(dp4272
g3
F-2.0
sg4
F2.0
sg5
F2.0
sg6
F-2.0
sb(dp4273
I00
F15.848029919999997
sI01
F39.981804034979284
ss(i__main__
State
p4274
(dp4275
g3
F2.0
sg4
F0.0
sg5
F-2.0
sg6
F-2.0
sb(dp4276
I00
F-16.666605972827142
sI01
F19.566947528445144
ss(i__main__
State
p4277
(dp4278
g3
F-5.0
sg4
F2.0
sg5
F5.0
sg6
F-6.0
sb(dp4279
I00
F49.082182665090066
sI01
I-22
ss(i__main__
State
p4280
(dp4281
g3
F-6.0
sg4
F10.0
sg5
F6.0
sg6
F-8.0
sb(dp4282
I00
F79.18323109912406
sI01
F0.0
ss(i__main__
State
p4283
(dp4284
g3
F-1.0
sg4
F2.0
sg5
F1.0
sg6
F2.0
sb(dp4285
I00
F43.082
sI01
F56.01177534572703
ss(i__main__
State
p4286
(dp4287
g3
F2.0
sg4
F6.0
sg5
F-2.0
sg6
F8.0
sb(dp4288
I00
F57.27829053052916
sI01
F-59.74528131266244
ss(i__main__
State
p4289
(dp4290
g3
F-3.0
sg4
F1.0
sg5
F3.0
sg6
F-8.0
sb(dp4291
I00
F-0.9792839999999998
sI01
F51.23320045930011
ss(i__main__
State
p4292
(dp4293
g3
F-1.0
sg4
F9.0
sg5
F1.0
sg6
F8.0
sb(dp4294
I00
F281.3529181779837
sI01
F18.72254161617003
ss(i__main__
State
p4295
(dp4296
g3
F-8.0
sg4
F8.0
sg5
F8.0
sg6
F-4.0
sb(dp4297
I00
F360.99980924968605
sI01
F62.10121443388663
ss(i__main__
State
p4298
(dp4299
g3
F-4.0
sg4
F0.0
sg5
F4.0
sg6
F8.0
sb(dp4300
I00
F-1.8562942921851295
sI01
F48.97502155134187
ss(i__main__
State
p4301
(dp4302
g3
F7.0
sg4
F3.0
sg5
F-7.0
sg6
F2.0
sb(dp4303
I00
F-54.90939957568366
sI01
F-1.9741783836300035
ss(i__main__
State
p4304
(dp4305
g3
F-8.0
sg4
F1.0
sg5
F8.0
sg6
F8.0
sb(dp4306
I00
F-22.410652644000002
sI01
F41.310824452529815
ss(i__main__
State
p4307
(dp4308
g3
F4.0
sg4
F3.0
sg5
F-4.0
sg6
F8.0
sb(dp4309
I00
F-75.9
sI01
F0.3183093076645589
ss(i__main__
State
p4310
(dp4311
g3
F-3.0
sg4
F4.0
sg5
F3.0
sg6
F2.0
sb(dp4312
I00
F-36.1
sI01
F12.968904631000001
ss(i__main__
State
p4313
(dp4314
g3
F-2.0
sg4
F2.0
sg5
F2.0
sg6
F-8.0
sb(dp4315
I00
F65.20858095323372
sI01
F-75.354
ss(i__main__
State
p4316
(dp4317
g3
F7.0
sg4
F8.0
sg5
F-7.0
sg6
F-4.0
sb(dp4318
I00
F318.18406079450875
sI01
F146.75873514839284
ss(i__main__
State
p4319
(dp4320
g3
F1.0
sg4
F4.0
sg5
F-1.0
sg6
F-6.0
sb(dp4321
I00
F2.1399502469597476
sI01
F19.76561579313298
ss(i__main__
State
p4322
(dp4323
g3
F6.0
sg4
F4.0
sg5
F-6.0
sg6
F6.0
sb(dp4324
I00
F9.597033241832904
sI01
F1.5729907334425852
ss(i__main__
State
p4325
(dp4326
g3
F3.0
sg4
F8.0
sg5
F-3.0
sg6
F-4.0
sb(dp4327
I00
F289.9101767872915
sI01
F131.97661629732005
ss(i__main__
State
p4328
(dp4329
g3
F4.0
sg4
F5.0
sg5
F-4.0
sg6
F6.0
sb(dp4330
I00
F52.361941704634134
sI01
F-10.445909462741199
ss(i__main__
State
p4331
(dp4332
g3
F-7.0
sg4
F3.0
sg5
F7.0
sg6
F6.0
sb(dp4333
I00
F15.622919614455002
sI01
F54.433767274389965
ss(i__main__
State
p4334
(dp4335
g3
F-4.0
sg4
F10.0
sg5
F4.0
sg6
F0.0
sb(dp4336
I00
F231.764698925242
sI01
F40.20629470699627
ss(i__main__
State
p4337
(dp4338
g3
F-4.0
sg4
F7.0
sg5
F4.0
sg6
F-4.0
sb(dp4339
I00
F71.54275155932622
sI01
I-34
ss(i__main__
State
p4340
(dp4341
g3
F7.0
sg4
F3.0
sg5
F-7.0
sg6
F0.0
sb(dp4342
I00
F-65.2094
sI01
F38.4327403123491
ss(i__main__
State
p4343
(dp4344
g3
F2.0
sg4
F3.0
sg5
F-2.0
sg6
F2.0
sb(dp4345
I00
F37.23
sI01
F70.22522988004648
ss(i__main__
State
p4346
(dp4347
g3
F-4.0
sg4
F7.0
sg5
F4.0
sg6
F6.0
sb(dp4348
I00
F87.89035047925451
sI01
I37
ss(i__main__
State
p4349
(dp4350
g3
F8.0
sg4
F5.0
sg5
F-8.0
sg6
F-2.0
sb(dp4351
I00
F-31.88444100522556
sI01
I-94
ss(i__main__
State
p4352
(dp4353
g3
F0.0
sg4
F4.0
sg5
F0.0
sg6
F8.0
sb(dp4354
I00
F70.17
sI01
I-62
ss(i__main__
State
p4355
(dp4356
g3
F3.0
sg4
F7.0
sg5
F-3.0
sg6
F-4.0
sb(dp4357
I00
I-84
sI01
F60.817434494162654
ss(i__main__
State
p4358
(dp4359
g3
F-3.0
sg4
F8.0
sg5
F3.0
sg6
F4.0
sb(dp4360
I00
F324.6723759657356
sI01
F115.94971206411155
ss(i__main__
State
p4361
(dp4362
g3
F8.0
sg4
F9.0
sg5
F-8.0
sg6
F6.0
sb(dp4363
I00
F197.9495093040036
sI01
F31.037266000000002
ss(i__main__
State
p4364
(dp4365
g3
F-5.0
sg4
F4.0
sg5
F5.0
sg6
F6.0
sb(dp4366
I00
F-44.12
sI01
F61.082
ss(i__main__
State
p4367
(dp4368
g3
F4.0
sg4
F8.0
sg5
F-4.0
sg6
F-4.0
sb(dp4369
I00
F261.25883611522994
sI01
F36.90155204172078
ss(i__main__
State
p4370
(dp4371
g3
F4.0
sg4
F9.0
sg5
F-4.0
sg6
F4.0
sb(dp4372
I00
F134.97694437652171
sI01
F39.37298006295613
ss(i__main__
State
p4373
(dp4374
g3
F7.0
sg4
F5.0
sg5
F-7.0
sg6
F2.0
sb(dp4375
I00
F-47.004403247303216
sI01
F29.259635339536555
ss(i__main__
State
p4376
(dp4377
g3
F-2.0
sg4
F7.0
sg5
F2.0
sg6
F-4.0
sb(dp4378
I00
F106.78752901998854
sI01
F1.9931148910512269
ss(i__main__
State
p4379
(dp4380
g3
F6.0
sg4
F6.0
sg5
F-6.0
sg6
F-2.0
sb(dp4381
I00
F54.3
sI01
I-94
ss(i__main__
State
p4382
(dp4383
g3
F5.0
sg4
F10.0
sg5
F-5.0
sg6
F0.0
sb(dp4384
I00
F188.47285969546036
sI01
F15.770000000000001
ss(i__main__
State
p4385
(dp4386
g3
F-4.0
sg4
F6.0
sg5
F4.0
sg6
F4.0
sb(dp4387
I00
F-1.1751516239948776
sI01
I-49
ss(i__main__
State
p4388
(dp4389
g3
F-8.0
sg4
F2.0
sg5
F8.0
sg6
F2.0
sb(dp4390
I00
F46.94551652
sI01
I-9
ss(i__main__
State
p4391
(dp4392
g3
F-7.0
sg4
F7.0
sg5
F7.0
sg6
F-4.0
sb(dp4393
I00
F-66.8
sI01
F32.446110918680354
ss(i__main__
State
p4394
(dp4395
g3
F1.0
sg4
F5.0
sg5
F-1.0
sg6
F0.0
sb(dp4396
I00
I-50
sI01
F-20.668431714428994
ss(i__main__
State
p4397
(dp4398
g3
F1.0
sg4
F1.0
sg5
F-1.0
sg6
F-6.0
sb(dp4399
I00
F18.14508329764351
sI01
F18.3
ss(i__main__
State
p4400
(dp4401
g3
F-2.0
sg4
F8.0
sg5
F2.0
sg6
F6.0
sb(dp4402
I00
F40.1247629
sI01
F26.7498896938
ss(i__main__
State
p4403
(dp4404
g3
F-8.0
sg4
F8.0
sg5
F8.0
sg6
F-6.0
sb(dp4405
I00
F167.11748270671814
sI01
F40.43480977419677
ss(i__main__
State
p4406
(dp4407
g3
F3.0
sg4
F10.0
sg5
F-3.0
sg6
F4.0
sb(dp4408
I00
F13.16224
sI01
F115.1144084485762
ss(i__main__
State
p4409
(dp4410
g3
F-1.0
sg4
F10.0
sg5
F1.0
sg6
F8.0
sb(dp4411
I00
F125.03934802218548
sI01
F14.026227896286471
ss(i__main__
State
p4412
(dp4413
g3
F2.0
sg4
F8.0
sg5
F-2.0
sg6
F-4.0
sb(dp4414
I00
F-945.7521314431311
sI01
F-1060.9658372455447
ss(i__main__
State
p4415
(dp4416
g3
F1.0
sg4
F6.0
sg5
F-1.0
sg6
F-2.0
sb(dp4417
I00
F-4.484927499999999
sI01
F3.100526008795021
ss(i__main__
State
p4418
(dp4419
g3
F-6.0
sg4
F3.0
sg5
F6.0
sg6
F-6.0
sb(dp4420
I00
I-75
sI01
F7.982820377157167
ss(i__main__
State
p4421
(dp4422
g3
F-3.0
sg4
F5.0
sg5
F3.0
sg6
F-2.0
sb(dp4423
I00
F53.8549429
sI01
I3
ss(i__main__
State
p4424
(dp4425
g3
F-1.0
sg4
F2.0
sg5
F1.0
sg6
F-6.0
sb(dp4426
I00
F41.88987431519121
sI01
F-10.3773932619
ss(i__main__
State
p4427
(dp4428
g3
F8.0
sg4
F2.0
sg5
F-8.0
sg6
F-6.0
sb(dp4429
I00
F34.51190959700557
sI01
F32.61125057739456
ss(i__main__
State
p4430
(dp4431
g3
F5.0
sg4
F10.0
sg5
F-5.0
sg6
F-8.0
sb(dp4432
I00
F0.0
sI01
F109.89675515710043
ss(i__main__
State
p4433
(dp4434
g3
F6.0
sg4
F7.0
sg5
F-6.0
sg6
F-4.0
sb(dp4435
I00
F39.46541575575771
sI01
F150.01018673954985
ss(i__main__
State
p4436
(dp4437
g3
F2.0
sg4
F5.0
sg5
F-2.0
sg6
F-2.0
sb(dp4438
I00
I8
sI01
F74.79425835563
ss(i__main__
State
p4439
(dp4440
g3
F-3.0
sg4
F2.0
sg5
F3.0
sg6
F4.0
sb(dp4441
I00
F-53.62
sI01
F22.046420227494785
ss(i__main__
State
p4442
(dp4443
g3
F-4.0
sg4
F1.0
sg5
F4.0
sg6
F-6.0
sb(dp4444
I00
I-48
sI01
F23.42416591417749
ss(i__main__
State
p4445
(dp4446
g3
F-3.0
sg4
F0.0
sg5
F3.0
sg6
F4.0
sb(dp4447
I00
F-5.000999999999998
sI01
F72.97069477442082
ss(i__main__
State
p4448
(dp4449
g3
F0.0
sg4
F0.0
sg5
F0.0
sg6
F4.0
sb(dp4450
I00
F56.983368798670476
sI01
F-32.923592938999995
ss(i__main__
State
p4451
(dp4452
g3
F2.0
sg4
F6.0
sg5
F-2.0
sg6
F-2.0
sb(dp4453
I00
F-7.1
sI01
F-78.15
ss(i__main__
State
p4454
(dp4455
g3
F-8.0
sg4
F6.0
sg5
F8.0
sg6
F4.0
sb(dp4456
I00
I-19
sI01
F47.11951479981889
ss(i__main__
State
p4457
(dp4458
g3
F2.0
sg4
F8.0
sg5
F-2.0
sg6
F-6.0
sb(dp4459
I00
F234.86118618662846
sI01
F51.28449241213187
ss(i__main__
State
p4460
(dp4461
g3
F-5.0
sg4
F5.0
sg5
F5.0
sg6
F-6.0
sb(dp4462
I00
F-24.94953602916108
sI01
F-43.73482214954216
ss(i__main__
State
p4463
(dp4464
g3
F3.0
sg4
F1.0
sg5
F-3.0
sg6
F-6.0
sb(dp4465
I00
F-4.0
sI01
F22.4260472730313
ss(i__main__
State
p4466
(dp4467
g3
F-7.0
sg4
F0.0
sg5
F7.0
sg6
F4.0
sb(dp4468
I00
I-52
sI01
F56.4
ss(i__main__
State
p4469
(dp4470
g3
F3.0
sg4
F6.0
sg5
F-3.0
sg6
F0.0
sb(dp4471
I00
F57.012508999999994
sI01
I-3
ss(i__main__
State
p4472
(dp4473
g3
F1.0
sg4
F10.0
sg5
F-1.0
sg6
F4.0
sb(dp4474
I00
F-1733.0965481478952
sI01
F158.17589705054775
ss(i__main__
State
p4475
(dp4476
g3
F1.0
sg4
F10.0
sg5
F-1.0
sg6
F-6.0
sb(dp4477
I00
F-72.74841967942812
sI01
F14.292317020975469
ss(i__main__
State
p4478
(dp4479
g3
F-5.0
sg4
F0.0
sg5
F5.0
sg6
F0.0
sb(dp4480
I00
F-84.5
sI01
F48.05430192827628
ss(i__main__
State
p4481
(dp4482
g3
F-4.0
sg4
F2.0
sg5
F4.0
sg6
F-6.0
sb(dp4483
I00
F-6.617892528575924
sI01
F60.76045092059664
ss(i__main__
State
p4484
(dp4485
g3
F-8.0
sg4
F6.0
sg5
F8.0
sg6
F-8.0
sb(dp4486
I00
F13.4909758505
sI01
F51.87781965366721
ss(i__main__
State
p4487
(dp4488
g3
F0.0
sg4
F0.0
sg5
F0.0
sg6
F-4.0
sb(dp4489
I00
F38.48403979164004
sI01
F42.9231702097547
ss(i__main__
State
p4490
(dp4491
g3
F-4.0
sg4
F1.0
sg5
F4.0
sg6
F4.0
sb(dp4492
I00
F11.737019306626054
sI01
F33.28752396837254
ss(i__main__
State
p4493
(dp4494
g3
F-5.0
sg4
F7.0
sg5
F5.0
sg6
F8.0
sb(dp4495
I00
F-37.8943142594573
sI01
F109.75679885654516
ss(i__main__
State
p4496
(dp4497
g3
F2.0
sg4
F5.0
sg5
F-2.0
sg6
F0.0
sb(dp4498
I00
F64.888113498643
sI01
F53.624479
ss(i__main__
State
p4499
(dp4500
g3
F-3.0
sg4
F2.0
sg5
F3.0
sg6
F-6.0
sb(dp4501
I00
F65.15366465101455
sI01
F0.6697144468413958
ss(i__main__
State
p4502
(dp4503
g3
F-8.0
sg4
F2.0
sg5
F8.0
sg6
F4.0
sb(dp4504
I00
F-11.8358991063348
sI01
F67.20221798282032
ss(i__main__
State
p4505
(dp4506
g3
F8.0
sg4
F2.0
sg5
F-8.0
sg6
F2.0
sb(dp4507
I00
F21.45175449534
sI01
F-0.8773123627496155
ss(i__main__
State
p4508
(dp4509
g3
F2.0
sg4
F2.0
sg5
F-2.0
sg6
F-6.0
sb(dp4510
I00
F-45.263
sI01
F-20.135213500304467
ss(i__main__
State
p4511
(dp4512
g3
F-2.0
sg4
F6.0
sg5
F2.0
sg6
F-8.0
sb(dp4513
I00
F65.7399752975431
sI01
F25.385087
ss(i__main__
State
p4514
(dp4515
g3
F-6.0
sg4
F3.0
sg5
F6.0
sg6
F4.0
sb(dp4516
I00
F24.712315735632195
sI01
F46.5992550593133
ss(i__main__
State
p4517
(dp4518
g3
F-7.0
sg4
F6.0
sg5
F7.0
sg6
F6.0
sb(dp4519
I00
F45.7300608549
sI01
F7.4
ss(i__main__
State
p4520
(dp4521
g3
F-1.0
sg4
F8.0
sg5
F1.0
sg6
F4.0
sb(dp4522
I00
F40.9
sI01
F30.980522994853228
ss(i__main__
State
p4523
(dp4524
g3
F2.0
sg4
F8.0
sg5
F-2.0
sg6
F0.0
sb(dp4525
I00
F360.9627653198012
sI01
F79.93440001554687
ss(i__main__
State
p4526
(dp4527
g3
F1.0
sg4
F6.0
sg5
F-1.0
sg6
F0.0
sb(dp4528
I00
F31.487621556671705
sI01
I14
ss(i__main__
State
p4529
(dp4530
g3
F-5.0
sg4
F0.0
sg5
F5.0
sg6
F8.0
sb(dp4531
I00
F67.5905001581
sI01
F-82.4258661619427
ss(i__main__
State
p4532
(dp4533
g3
F-8.0
sg4
F8.0
sg5
F8.0
sg6
F6.0
sb(dp4534
I00
F278.5345402851138
sI01
F87.77260498749999
ss(i__main__
State
p4535
(dp4536
g3
F-1.0
sg4
F4.0
sg5
F1.0
sg6
F-2.0
sb(dp4537
I00
F-59.53
sI01
F-33.55918095130442
ss(i__main__
State
p4538
(dp4539
g3
F-5.0
sg4
F2.0
sg5
F5.0
sg6
F-2.0
sb(dp4540
I00
F29.327462130569927
sI01
F1.8754416590025658
ss(i__main__
State
p4541
(dp4542
g3
F0.0
sg4
F7.0
sg5
F0.0
sg6
F8.0
sb(dp4543
I00
I44
sI01
F46.00556674
ss(i__main__
State
p4544
(dp4545
g3
F5.0
sg4
F4.0
sg5
F-5.0
sg6
F0.0
sb(dp4546
I00
I-13
sI01
F28.139005956145514
ss(i__main__
State
p4547
(dp4548
g3
F-5.0
sg4
F8.0
sg5
F5.0
sg6
F-2.0
sb(dp4549
I00
F10.0
sI01
F0.0
ss(i__main__
State
p4550
(dp4551
g3
F-8.0
sg4
F2.0
sg5
F8.0
sg6
F-6.0
sb(dp4552
I00
F50.8
sI01
F20.91244966831301
ss(i__main__
State
p4553
(dp4554
g3
F-1.0
sg4
F1.0
sg5
F1.0
sg6
F4.0
sb(dp4555
I00
F28.437486006020656
sI01
F15.378823056818806
ss(i__main__
State
p4556
(dp4557
g3
F-5.0
sg4
F0.0
sg5
F5.0
sg6
F-2.0
sb(dp4558
I00
F-22.110886048920094
sI01
F27.485674813387
ss(i__main__
State
p4559
(dp4560
g3
F7.0
sg4
F8.0
sg5
F-7.0
sg6
F-8.0
sb(dp4561
I00
F251.8727695124105
sI01
F15.082654453800002
ss(i__main__
State
p4562
(dp4563
g3
F-2.0
sg4
F7.0
sg5
F2.0
sg6
F2.0
sb(dp4564
I00
F-12.738996078400001
sI01
F231.02852520652635
ss(i__main__
State
p4565
(dp4566
g3
F-2.0
sg4
F10.0
sg5
F2.0
sg6
F-4.0
sb(dp4567
I00
F261.5381625592226
sI01
F56.943359654745265
ss(i__main__
State
p4568
(dp4569
g3
F-1.0
sg4
F4.0
sg5
F1.0
sg6
F8.0
sb(dp4570
I00
I-48
sI01
F65.774240235234
ss(i__main__
State
p4571
(dp4572
g3
F4.0
sg4
F9.0
sg5
F-4.0
sg6
F-6.0
sb(dp4573
I00
F208.54980579313607
sI01
F21.954
ss(i__main__
State
p4574
(dp4575
g3
F-4.0
sg4
F8.0
sg5
F4.0
sg6
F4.0
sb(dp4576
I00
F231.22449892364173
sI01
F71.18425212676502
ss(i__main__
State
p4577
(dp4578
g3
F-3.0
sg4
F3.0
sg5
F3.0
sg6
F-4.0
sb(dp4579
I00
F58.60883125285874
sI01
F-24.949940190617784
ss(i__main__
State
p4580
(dp4581
g3
F8.0
sg4
F4.0
sg5
F-8.0
sg6
F-4.0
sb(dp4582
I00
F16.754274287032086
sI01
F16.243720476102023
ss(i__main__
State
p4583
(dp4584
g3
F8.0
sg4
F9.0
sg5
F-8.0
sg6
F-8.0
sb(dp4585
I00
F303.28977368076704
sI01
F144.21378436780662
ss(i__main__
State
p4586
(dp4587
g3
F-4.0
sg4
F7.0
sg5
F4.0
sg6
F-8.0
sb(dp4588
I00
F-33.629999999999995
sI01
F35.40557472274401
ss(i__main__
State
p4589
(dp4590
g3
F2.0
sg4
F3.0
sg5
F-2.0
sg6
F-4.0
sb(dp4591
I00
F-2.7897049505207976
sI01
F-19.549999999999997
ss(i__main__
State
p4592
(dp4593
g3
F-8.0
sg4
F6.0
sg5
F8.0
sg6
F-6.0
sb(dp4594
I00
F-57.850166880184645
sI01
F24.62625940970001
ss(i__main__
State
p4595
(dp4596
g3
F-7.0
sg4
F10.0
sg5
F7.0
sg6
F8.0
sb(dp4597
I00
F60.85975076495745
sI01
F138.61785736611523
ss(i__main__
State
p4598
(dp4599
g3
F-4.0
sg4
F7.0
sg5
F4.0
sg6
F2.0
sb(dp4600
I00
I-94
sI01
F1.250494255038074
ss(i__main__
State
p4601
(dp4602
g3
F-4.0
sg4
F10.0
sg5
F4.0
sg6
F-4.0
sb(dp4603
I00
F235.70216325881768
sI01
F47.940323100000015
ss(i__main__
State
p4604
(dp4605
g3
F8.0
sg4
F8.0
sg5
F-8.0
sg6
F-8.0
sb(dp4606
I00
F108.10789097455805
sI01
F0.0
ss(i__main__
State
p4607
(dp4608
g3
F6.0
sg4
F7.0
sg5
F-6.0
sg6
F8.0
sb(dp4609
I00
F72.95143300465053
sI01
F26.09946313
ss(i__main__
State
p4610
(dp4611
g3
F1.0
sg4
F1.0
sg5
F-1.0
sg6
F8.0
sb(dp4612
I00
F-26.299303524233803
sI01
F48.37127646572302
ss(i__main__
State
p4613
(dp4614
g3
F7.0
sg4
F7.0
sg5
F-7.0
sg6
F6.0
sb(dp4615
I00
F68.92762561059364
sI01
F135.29800205452887
ss(i__main__
State
p4616
(dp4617
g3
F4.0
sg4
F5.0
sg5
F-4.0
sg6
F-8.0
sb(dp4618
I00
F28.444977092720002
sI01
I10
ss(i__main__
State
p4619
(dp4620
g3
F7.0
sg4
F7.0
sg5
F-7.0
sg6
F-4.0
sb(dp4621
I00
F26.95713712611839
sI01
F113.72308872260118
ss(i__main__
State
p4622
(dp4623
g3
F4.0
sg4
F1.0
sg5
F-4.0
sg6
F8.0
sb(dp4624
I00
F-44.551280000000006
sI01
F13.71102956546843
ss(i__main__
State
p4625
(dp4626
g3
F1.0
sg4
F4.0
sg5
F-1.0
sg6
F4.0
sb(dp4627
I00
F47.633100000000006
sI01
F43.383109462118725
ss(i__main__
State
p4628
(dp4629
g3
F-3.0
sg4
F9.0
sg5
F3.0
sg6
F4.0
sb(dp4630
I00
F204.9381543671041
sI01
F14.728730460000001
ss(i__main__
State
p4631
(dp4632
g3
F-6.0
sg4
F6.0
sg5
F6.0
sg6
F6.0
sb(dp4633
I00
F18.59802059726557
sI01
F50.62810988808418
ss(i__main__
State
p4634
(dp4635
g3
F-8.0
sg4
F1.0
sg5
F8.0
sg6
F2.0
sb(dp4636
I00
F88.2888
sI01
F-13.09278
ss(i__main__
State
p4637
(dp4638
g3
F-4.0
sg4
F4.0
sg5
F4.0
sg6
F8.0
sb(dp4639
I00
F11.5581785811555
sI01
F44.66815753490416
ss(i__main__
State
p4640
(dp4641
g3
F-5.0
sg4
F3.0
sg5
F5.0
sg6
F8.0
sb(dp4642
I00
I15
sI01
F69.06447773751314
ss(i__main__
State
p4643
(dp4644
g3
F5.0
sg4
F10.0
sg5
F-5.0
sg6
F4.0
sb(dp4645
I00
F174.9546088007628
sI01
F17.197622429323197
ss(i__main__
State
p4646
(dp4647
g3
F-1.0
sg4
F6.0
sg5
F1.0
sg6
F-6.0
sb(dp4648
I00
F-38.93294391806023
sI01
F15.448560386839342
ss(i__main__
State
p4649
(dp4650
g3
F2.0
sg4
F4.0
sg5
F-2.0
sg6
F8.0
sb(dp4651
I00
F-83.52000000000001
sI01
F95.595
ss(i__main__
State
p4652
(dp4653
g3
F-8.0
sg4
F8.0
sg5
F8.0
sg6
F4.0
sb(dp4654
I00
F41.78207681417388
sI01
F201.07060770158688
ss(i__main__
State
p4655
(dp4656
g3
F-7.0
sg4
F7.0
sg5
F7.0
sg6
F2.0
sb(dp4657
I00
F-26.239173179374085
sI01
F44.883826950856154
ss(i__main__
State
p4658
(dp4659
g3
F5.0
sg4
F1.0
sg5
F-5.0
sg6
F8.0
sb(dp4660
I00
F39.389866228026506
sI01
F-70.339
ss(i__main__
State
p4661
(dp4662
g3
F-7.0
sg4
F10.0
sg5
F7.0
sg6
F-8.0
sb(dp4663
I00
F49.088919772840946
sI01
F19.848
ss(i__main__
State
p4664
(dp4665
g3
F-6.0
sg4
F2.0
sg5
F6.0
sg6
F-4.0
sb(dp4666
I00
F39.3690710169094
sI01
F40.16900692759829
ss(i__main__
State
p4667
(dp4668
g3
F-3.0
sg4
F6.0
sg5
F3.0
sg6
F-2.0
sb(dp4669
I00
F67.39344178668416
sI01
F158.29837016854873
ss(i__main__
State
p4670
(dp4671
g3
F7.0
sg4
F5.0
sg5
F-7.0
sg6
F-8.0
sb(dp4672
I00
F41.077953272091634
sI01
F43.911309086316194
ss(i__main__
State
p4673
(dp4674
g3
F-2.0
sg4
F0.0
sg5
F2.0
sg6
F2.0
sb(dp4675
I00
F78.18299229526217
sI01
F-25.082041781999997
ss(i__main__
State
p4676
(dp4677
g3
F7.0
sg4
F1.0
sg5
F-7.0
sg6
F8.0
sb(dp4678
I00
F13.621395483930002
sI01
I6
ss(i__main__
State
p4679
(dp4680
g3
F-2.0
sg4
F1.0
sg5
F2.0
sg6
F6.0
sb(dp4681
I00
F-13.758447682333905
sI01
F27.324899196896375
ss(i__main__
State
p4682
(dp4683
g3
F-3.0
sg4
F2.0
sg5
F3.0
sg6
F8.0
sb(dp4684
I00
F26.273611802876612
sI01
F-80.3609168339878
ss(i__main__
State
p4685
(dp4686
g3
F-7.0
sg4
F9.0
sg5
F7.0
sg6
F0.0
sb(dp4687
I00
F-4665.181262099841
sI01
F-4596.852785441409
ss(i__main__
State
p4688
(dp4689
g3
F-3.0
sg4
F5.0
sg5
F3.0
sg6
F8.0
sb(dp4690
I00
F58.269999999999996
sI01
I45
ss(i__main__
State
p4691
(dp4692
g3
F-1.0
sg4
F10.0
sg5
F1.0
sg6
F-2.0
sb(dp4693
I00
F40.07922838237363
sI01
F86.03967594624828
ss(i__main__
State
p4694
(dp4695
g3
F4.0
sg4
F2.0
sg5
F-4.0
sg6
F-4.0
sb(dp4696
I00
F22.38
sI01
F52.735811779742484
ss(i__main__
State
p4697
(dp4698
g3
F6.0
sg4
F3.0
sg5
F-6.0
sg6
F6.0
sb(dp4699
I00
F-36.190407629689005
sI01
F46.39160776952
ss(i__main__
State
p4700
(dp4701
g3
F-4.0
sg4
F0.0
sg5
F4.0
sg6
F2.0
sb(dp4702
I00
F34.08544779493525
sI01
F18.844120139175
ss(i__main__
State
p4703
(dp4704
g3
F-4.0
sg4
F1.0
sg5
F4.0
sg6
F-2.0
sb(dp4705
I00
F32.48444871594089
sI01
F3.081016548839999
ss(i__main__
State
p4706
(dp4707
g3
F2.0
sg4
F1.0
sg5
F-2.0
sg6
F8.0
sb(dp4708
I00
F21.020307713383414
sI01
F8.624266943000002
ss(i__main__
State
p4709
(dp4710
g3
F3.0
sg4
F6.0
sg5
F-3.0
sg6
F-6.0
sb(dp4711
I00
I-46
sI01
F8.671984069572368
ss(i__main__
State
p4712
(dp4713
g3
F0.0
sg4
F8.0
sg5
F0.0
sg6
F8.0
sb(dp4714
I00
F-2701.7499017343
sI01
F-3419.490399249239
ss(i__main__
State
p4715
(dp4716
g3
F8.0
sg4
F9.0
sg5
F-8.0
sg6
F8.0
sb(dp4717
I00
F214.69384097577642
sI01
F0.0
ss(i__main__
State
p4718
(dp4719
g3
F3.0
sg4
F5.0
sg5
F-3.0
sg6
F6.0
sb(dp4720
I00
F56.9884926389975
sI01
F67.0664082014696
ss(i__main__
State
p4721
(dp4722
g3
F-6.0
sg4
F7.0
sg5
F6.0
sg6
F-8.0
sb(dp4723
I00
F84.25820063951124
sI01
F46.30697221749014
ss(i__main__
State
p4724
(dp4725
g3
F8.0
sg4
F7.0
sg5
F-8.0
sg6
F-6.0
sb(dp4726
I00
F76.80431531569954
sI01
F46.59866910338269
ss(i__main__
State
p4727
(dp4728
g3
F2.0
sg4
F6.0
sg5
F-2.0
sg6
F-6.0
sb(dp4729
I00
F-8.935961966370556
sI01
F53.755671699531604
ss(i__main__
State
p4730
(dp4731
g3
F1.0
sg4
F2.0
sg5
F-1.0
sg6
F8.0
sb(dp4732
I00
F41.63761809369537
sI01
F-71.2
ss(i__main__
State
p4733
(dp4734
g3
F5.0
sg4
F9.0
sg5
F-5.0
sg6
F-8.0
sb(dp4735
I00
F185.28429940354513
sI01
F10.0
ss(i__main__
State
p4736
(dp4737
g3
F2.0
sg4
F3.0
sg5
F-2.0
sg6
F4.0
sb(dp4738
I00
F-82.3
sI01
F42.09396961509283
ss(i__main__
State
p4739
(dp4740
g3
F5.0
sg4
F6.0
sg5
F-5.0
sg6
F6.0
sb(dp4741
I00
F-50.83385778515777
sI01
F67.14243189682014
ss(i__main__
State
p4742
(dp4743
g3
F1.0
sg4
F9.0
sg5
F-1.0
sg6
F6.0
sb(dp4744
I00
F276.1443157834398
sI01
F-72.414
ss(i__main__
State
p4745
(dp4746
g3
F-6.0
sg4
F8.0
sg5
F6.0
sg6
F2.0
sb(dp4747
I00
F157.1546489241936
sI01
F23.918819300000003
ss(i__main__
State
p4748
(dp4749
g3
F3.0
sg4
F0.0
sg5
F-3.0
sg6
F-6.0
sb(dp4750
I00
F67.0
sI01
I-84
ss(i__main__
State
p4751
(dp4752
g3
F7.0
sg4
F2.0
sg5
F-7.0
sg6
F6.0
sb(dp4753
I00
F-60.420399999999994
sI01
F65.786209078
ss(i__main__
State
p4754
(dp4755
g3
F3.0
sg4
F10.0
sg5
F-3.0
sg6
F-2.0
sb(dp4756
I00
F143.13784758229826
sI01
F8.34791
ss(i__main__
State
p4757
(dp4758
g3
F8.0
sg4
F5.0
sg5
F-8.0
sg6
F4.0
sb(dp4759
I00
F-34.78634079808335
sI01
F-23.2849
ss(i__main__
State
p4760
(dp4761
g3
F-5.0
sg4
F1.0
sg5
F5.0
sg6
F-2.0
sb(dp4762
I00
I-67
sI01
F-36.856110614494966
ss(i__main__
State
p4763
(dp4764
g3
F-3.0
sg4
F4.0
sg5
F3.0
sg6
F-2.0
sb(dp4765
I00
F-44.0
sI01
F19.103336848824004
ss(i__main__
State
p4766
(dp4767
g3
F-2.0
sg4
F3.0
sg5
F2.0
sg6
F-2.0
sb(dp4768
I00
F33.187853890640724
sI01
F-29.0
ss(i__main__
State
p4769
(dp4770
g3
F-6.0
sg4
F3.0
sg5
F6.0
sg6
F0.0
sb(dp4771
I00
F63.192195696787536
sI01
F49.87508683449258
ss(i__main__
State
p4772
(dp4773
g3
F2.0
sg4
F10.0
sg5
F-2.0
sg6
F-2.0
sb(dp4774
I00
F0.0
sI01
F41.614233512230584
ss(i__main__
State
p4775
(dp4776
g3
F-1.0
sg4
F0.0
sg5
F1.0
sg6
F0.0
sb(dp4777
I00
F66.13678244108617
sI01
F-17.311290999999997
ss(i__main__
State
p4778
(dp4779
g3
F6.0
sg4
F5.0
sg5
F-6.0
sg6
F-6.0
sb(dp4780
I00
F-73.32
sI01
F-3.754893413212205
ss(i__main__
State
p4781
(dp4782
g3
F5.0
sg4
F4.0
sg5
F-5.0
sg6
F4.0
sb(dp4783
I00
F7.363180352835546
sI01
F39.87958220604356
ss(i__main__
State
p4784
(dp4785
g3
F1.0
sg4
F1.0
sg5
F-1.0
sg6
F-4.0
sb(dp4786
I00
F81.5
sI01
F-44.7
ss(i__main__
State
p4787
(dp4788
g3
F-8.0
sg4
F7.0
sg5
F8.0
sg6
F-2.0
sb(dp4789
I00
F22.02654579359881
sI01
F-71.4169124619966
ss(i__main__
State
p4790
(dp4791
g3
F0.0
sg4
F7.0
sg5
F0.0
sg6
F-8.0
sb(dp4792
I00
F43.981374339762695
sI01
I-66
ss(i__main__
State
p4793
(dp4794
g3
F-2.0
sg4
F0.0
sg5
F2.0
sg6
F8.0
sb(dp4795
I00
F-57.469975350755
sI01
F38.342519117277945
ss(i__main__
State
p4796
(dp4797
g3
F7.0
sg4
F6.0
sg5
F-7.0
sg6
F4.0
sb(dp4798
I00
F-7.860747153851573
sI01
F62.225119287153
ss(i__main__
State
p4799
(dp4800
g3
F6.0
sg4
F10.0
sg5
F-6.0
sg6
F6.0
sb(dp4801
I00
F20.0
sI01
F103.84518172207798
ss(i__main__
State
p4802
(dp4803
g3
F-6.0
sg4
F7.0
sg5
F6.0
sg6
F0.0
sb(dp4804
I00
F46.644617287610004
sI01
F32.16509159689061
ss(i__main__
State
p4805
(dp4806
g3
F-4.0
sg4
F8.0
sg5
F4.0
sg6
F8.0
sb(dp4807
I00
F110.43389892555201
sI01
F23.50280738104423
ss(i__main__
State
p4808
(dp4809
g3
F8.0
sg4
F9.0
sg5
F-8.0
sg6
F-4.0
sb(dp4810
I00
F56.95692483422053
sI01
F267.0169157466739
ss(i__main__
State
p4811
(dp4812
g3
F7.0
sg4
F3.0
sg5
F-7.0
sg6
F-4.0
sb(dp4813
I00
I9
sI01
F80.52783619057412
ss(i__main__
State
p4814
(dp4815
g3
F2.0
sg4
F9.0
sg5
F-2.0
sg6
F2.0
sb(dp4816
I00
F206.79995758310542
sI01
F82.23551430117203
ss(i__main__
State
p4817
(dp4818
g3
F5.0
sg4
F6.0
sg5
F-5.0
sg6
F8.0
sb(dp4819
I00
F-66.445355623758
sI01
F31.697441194463746
ss(i__main__
State
p4820
(dp4821
g3
F4.0
sg4
F10.0
sg5
F-4.0
sg6
F6.0
sb(dp4822
I00
F22.059820000000002
sI01
F135.8887220441954
ss(i__main__
State
p4823
(dp4824
g3
F-7.0
sg4
F8.0
sg5
F7.0
sg6
F4.0
sb(dp4825
I00
F203.94655163743147
sI01
F15.753571810050406
ss(i__main__
State
p4826
(dp4827
g3
F6.0
sg4
F2.0
sg5
F-6.0
sg6
F-2.0
sb(dp4828
I00
F36.051662207288835
sI01
F-74.85488
ss(i__main__
State
p4829
(dp4830
g3
F2.0
sg4
F8.0
sg5
F-2.0
sg6
F2.0
sb(dp4831
I00
F209.23254511104778
sI01
F69.01224507252887
ss(i__main__
State
p4832
(dp4833
g3
F-4.0
sg4
F10.0
sg5
F4.0
sg6
F-6.0
sb(dp4834
I00
F359.25168871654085
sI01
F33.208000000000006
ss(i__main__
State
p4835
(dp4836
g3
F-3.0
sg4
F1.0
sg5
F3.0
sg6
F0.0
sb(dp4837
I00
F-65.8
sI01
F64.0329491554
ss(i__main__
State
p4838
(dp4839
g3
F1.0
sg4
F3.0
sg5
F-1.0
sg6
F2.0
sb(dp4840
I00
F-73.487
sI01
F-27.7194534216
ss(i__main__
State
p4841
(dp4842
g3
F-8.0
sg4
F5.0
sg5
F8.0
sg6
F0.0
sb(dp4843
I00
F16.309144061192427
sI01
F-47.048106211538794
ss(i__main__
State
p4844
(dp4845
g3
F1.0
sg4
F3.0
sg5
F-1.0
sg6
F-4.0
sb(dp4846
I00
F-75.02141059995179
sI01
F29.934455252556823
ss(i__main__
State
p4847
(dp4848
g3
F-8.0
sg4
F0.0
sg5
F8.0
sg6
F8.0
sb(dp4849
I00
F-82.44373621482396
sI01
F-14.2173519057
ss(i__main__
State
p4850
(dp4851
g3
F0.0
sg4
F5.0
sg5
F0.0
sg6
F-8.0
sb(dp4852
I00
F-3.949263422323308
sI01
I-38
ss(i__main__
State
p4853
(dp4854
g3
F7.0
sg4
F9.0
sg5
F-7.0
sg6
F-6.0
sb(dp4855
I00
F266.756975198441
sI01
F59.380168098656156
ss(i__main__
State
p4856
(dp4857
g3
F4.0
sg4
F3.0
sg5
F-4.0
sg6
F2.0
sb(dp4858
I00
I40
sI01
F62.57599579018338
ss(i__main__
State
p4859
(dp4860
g3
F-3.0
sg4
F8.0
sg5
F3.0
sg6
F-4.0
sb(dp4861
I00
F125.98745271448989
sI01
F11.0
ss(i__main__
State
p4862
(dp4863
g3
F-1.0
sg4
F7.0
sg5
F1.0
sg6
F4.0
sb(dp4864
I00
F32.894607933645005
sI01
F24.240000000000002
ss(i__main__
State
p4865
(dp4866
g3
F7.0
sg4
F1.0
sg5
F-7.0
sg6
F4.0
sb(dp4867
I00
F22.896060641070658
sI01
I-9
ss(i__main__
State
p4868
(dp4869
g3
F-1.0
sg4
F5.0
sg5
F1.0
sg6
F-4.0
sb(dp4870
I00
F-31.799999999999997
sI01
F89.9596778484746
ss(i__main__
State
p4871
(dp4872
g3
F4.0
sg4
F1.0
sg5
F-4.0
sg6
F-4.0
sb(dp4873
I00
F63.39412710999999
sI01
F7.73752859616
ss(i__main__
State
p4874
(dp4875
g3
F-6.0
sg4
F0.0
sg5
F6.0
sg6
F-2.0
sb(dp4876
I00
F84.7836195
sI01
F28.5
ss(i__main__
State
p4877
(dp4878
g3
F-2.0
sg4
F8.0
sg5
F2.0
sg6
F-4.0
sb(dp4879
I00
F31.1125633354
sI01
F36.24376788879201
ss(i__main__
State
p4880
(dp4881
g3
F-5.0
sg4
F10.0
sg5
F5.0
sg6
F-8.0
sb(dp4882
I00
F286.74634899760804
sI01
F59.88772560255466
ss(i__main__
State
p4883
(dp4884
g3
F6.0
sg4
F2.0
sg5
F-6.0
sg6
F0.0
sb(dp4885
I00
F36.06041522811242
sI01
F-56.03363716405105
ss(i__main__
State
p4886
(dp4887
g3
F-6.0
sg4
F2.0
sg5
F6.0
sg6
F8.0
sb(dp4888
I00
F-22.08875598340586
sI01
F40.562177027893355
ss(i__main__
State
p4889
(dp4890
g3
F6.0
sg4
F3.0
sg5
F-6.0
sg6
F2.0
sb(dp4891
I00
F1.359754626364733
sI01
F-41.566689611
ss(i__main__
State
p4892
(dp4893
g3
F4.0
sg4
F10.0
sg5
F-4.0
sg6
F-8.0
sb(dp4894
I00
F25.819557825510792
sI01
F0.0
ss(i__main__
State
p4895
(dp4896
g3
F-6.0
sg4
F10.0
sg5
F6.0
sg6
F0.0
sb(dp4897
I00
F49.12541246000001
sI01
F112.82004355059358
ss(i__main__
State
p4898
(dp4899
g3
F7.0
sg4
F1.0
sg5
F-7.0
sg6
F-4.0
sb(dp4900
I00
F44.28586000159953
sI01
F-26.090998576829815
ss(i__main__
State
p4901
(dp4902
g3
F5.0
sg4
F9.0
sg5
F-5.0
sg6
F0.0
sb(dp4903
I00
F-3419.9530612025032
sI01
F-2700.59013810112
ss(i__main__
State
p4904
(dp4905
g3
F3.0
sg4
F10.0
sg5
F-3.0
sg6
F-6.0
sb(dp4906
I00
F69.8301737324863
sI01
F0.0
ss(i__main__
State
p4907
(dp4908
g3
F5.0
sg4
F2.0
sg5
F-5.0
sg6
F6.0
sb(dp4909
I00
F32.52510358852145
sI01
F-2.5760361224119936
ss(i__main__
State
p4910
(dp4911
g3
F6.0
sg4
F10.0
sg5
F-6.0
sg6
F-8.0
sb(dp4912
I00
F63.81580370404839
sI01
F0.0
ss(i__main__
State
p4913
(dp4914
g3
F-5.0
sg4
F6.0
sg5
F5.0
sg6
F6.0
sb(dp4915
I00
F51.80685037934799
sI01
F-14.696241
ss(i__main__
State
p4916
(dp4917
g3
F5.0
sg4
F3.0
sg5
F-5.0
sg6
F6.0
sb(dp4918
I00
F-74.55921651478717
sI01
F29.354409398657506
ss(i__main__
State
p4919
(dp4920
g3
F-3.0
sg4
F7.0
sg5
F3.0
sg6
F6.0
sb(dp4921
I00
F67.99420133496253
sI01
F46.01736174949688
ss(i__main__
State
p4922
(dp4923
g3
F-4.0
sg4
F2.0
sg5
F4.0
sg6
F2.0
sb(dp4924
I00
F69.594443915644
sI01
F-63.35904691642084
ss(i__main__
State
p4925
(dp4926
g3
F-8.0
sg4
F3.0
sg5
F8.0
sg6
F-4.0
sb(dp4927
I00
F48.831264268028555
sI01
F15.673100657702248
ss(i__main__
State
p4928
(dp4929
g3
F0.0
sg4
F3.0
sg5
F0.0
sg6
F4.0
sb(dp4930
I00
F-10.306000000000001
sI01
F-47.730000000000004
ss(i__main__
State
p4931
(dp4932
g3
F6.0
sg4
F7.0
sg5
F-6.0
sg6
F2.0
sb(dp4933
I00
F33.10939335774239
sI01
F7.425909798967531
ss(i__main__
State
p4934
(dp4935
g3
F1.0
sg4
F1.0
sg5
F-1.0
sg6
F2.0
sb(dp4936
I00
F39.028580484205506
sI01
I-64
ss(i__main__
State
p4937
(dp4938
g3
F-5.0
sg4
F9.0
sg5
F5.0
sg6
F4.0
sb(dp4939
I00
F159.0853459493403
sI01
F0.0
ss(i__main__
State
p4940
(dp4941
g3
F-8.0
sg4
F5.0
sg5
F8.0
sg6
F2.0
sb(dp4942
I00
F59.18741
sI01
I-52
ss(i__main__
State
p4943
(dp4944
g3
F-1.0
sg4
F1.0
sg5
F1.0
sg6
F-8.0
sb(dp4945
I00
F44.7492705381043
sI01
F-62.95266599428199
ss(i__main__
State
p4946
(dp4947
g3
F8.0
sg4
F5.0
sg5
F-8.0
sg6
F0.0
sb(dp4948
I00
F33.68217186978135
sI01
F9.99
ss(i__main__
State
p4949
(dp4950
g3
F1.0
sg4
F4.0
sg5
F-1.0
sg6
F2.0
sb(dp4951
I00
F40.62889688406593
sI01
F23.546573543431514
ss(i__main__
State
p4952
(dp4953
g3
F2.0
sg4
F10.0
sg5
F-2.0
sg6
F0.0
sb(dp4954
I00
F149.42214166141449
sI01
F18.250700000000002
ss(i__main__
State
p4955
(dp4956
g3
F-2.0
sg4
F2.0
sg5
F2.0
sg6
F2.0
sb(dp4957
I00
F-29.9676113634
sI01
F-53.2
ss(i__main__
State
p4958
(dp4959
g3
F-6.0
sg4
F3.0
sg5
F6.0
sg6
F-4.0
sb(dp4960
I00
F32.741043561639955
sI01
F-39.66
ss(i__main__
State
p4961
(dp4962
g3
F-1.0
sg4
F6.0
sg5
F1.0
sg6
F-4.0
sb(dp4963
I00
F-79.1
sI01
F64.35561639294333
ss(i__main__
State
p4964
(dp4965
g3
F-6.0
sg4
F6.0
sg5
F6.0
sg6
F-2.0
sb(dp4966
I00
F88.59099224461305
sI01
F35.2
ss.