(dp0
(i__main__
State
p1
(dp2
S'y1'
p3
F5.0
sS'x'
p4
F5.0
sS'y3'
p5
F-5.0
sS'y2'
p6
F0.0
sb(dp7
I00
F26.563199999999995
sI01
I10
ss(i__main__
State
p8
(dp9
g3
F1.0
sg4
F7.0
sg5
F-1.0
sg6
F-6.0
sb(dp10
I00
F-64.2
sI01
F-121.14100000000002
ss(i__main__
State
p11
(dp12
g3
F-7.0
sg4
F0.0
sg5
F7.0
sg6
F0.0
sb(dp13
I00
I-45
sI01
F-9.0
ss(i__main__
State
p14
(dp15
g3
F-2.0
sg4
F5.0
sg5
F2.0
sg6
F4.0
sb(dp16
I00
F-20.732000000000003
sI01
F-25.4
ss(i__main__
State
p17
(dp18
g3
F-7.0
sg4
F0.0
sg5
F7.0
sg6
F-8.0
sb(dp19
I00
F-16.45642
sI01
I-16
ss(i__main__
State
p20
(dp21
g3
F6.0
sg4
F5.0
sg5
F-6.0
sg6
F-2.0
sb(dp22
I00
I21
sI01
F64.2
ss(i__main__
State
p23
(dp24
g3
F6.0
sg4
F10.0
sg5
F-6.0
sg6
F2.0
sb(dp25
I00
F10.0
sI01
F32.870000000000005
ss(i__main__
State
p26
(dp27
g3
F-6.0
sg4
F10.0
sg5
F6.0
sg6
F-2.0
sb(dp28
I00
F21.914
sI01
F0.0
ss(i__main__
State
p29
(dp30
g3
F3.0
sg4
F10.0
sg5
F-3.0
sg6
F6.0
sb(dp31
I00
F30.0
sI01
F0.0
ss(i__main__
State
p32
(dp33
g3
F-7.0
sg4
F6.0
sg5
F7.0
sg6
F8.0
sb(dp34
I00
I66
sI01
F97.7
ss(i__main__
State
p35
(dp36
g3
F6.0
sg4
F5.0
sg5
F-6.0
sg6
F-6.0
sb(dp37
I00
I37
sI01
F-29.9
ss(i__main__
State
p38
(dp39
g3
F4.0
sg4
F1.0
sg5
F-4.0
sg6
F-6.0
sb(dp40
I00
I-13
sI01
F56.334999999999994
ss(i__main__
State
p41
(dp42
g3
F-8.0
sg4
F7.0
sg5
F8.0
sg6
F-6.0
sb(dp43
I00
I-48
sI01
F-3.05
ss(i__main__
State
p44
(dp45
g3
F2.0
sg4
F10.0
sg5
F-2.0
sg6
F8.0
sb(dp46
I00
F29.9
sI01
F0.0
ss(i__main__
State
p47
(dp48
g3
F7.0
sg4
F7.0
sg5
F-7.0
sg6
F-6.0
sb(dp49
I00
I11
sI01
F43.41
ss(i__main__
State
p50
(dp51
g3
F-7.0
sg4
F7.0
sg5
F7.0
sg6
F4.0
sb(dp52
I00
I-92
sI01
F-81.0
ss(i__main__
State
p53
(dp54
g3
F1.0
sg4
F9.0
sg5
F-1.0
sg6
F-8.0
sb(dp55
I00
F10.0
sI01
F0.0
ss(i__main__
State
p56
(dp57
g3
F3.0
sg4
F7.0
sg5
F-3.0
sg6
F8.0
sb(dp58
I00
F-59.0166
sI01
I16
ss(i__main__
State
p59
(dp60
g3
F4.0
sg4
F5.0
sg5
F-4.0
sg6
F2.0
sb(dp61
I00
F-72.7
sI01
F-33.641999999999996
ss(i__main__
State
p62
(dp63
g3
F-8.0
sg4
F8.0
sg5
F8.0
sg6
F-8.0
sb(dp64
I00
F21.0
sI01
F0.0
ss(i__main__
State
p65
(dp66
g3
F5.0
sg4
F6.0
sg5
F-5.0
sg6
F-2.0
sb(dp67
I00
F83.5
sI01
I-56
ss(i__main__
State
p68
(dp69
g3
F-4.0
sg4
F1.0
sg5
F4.0
sg6
F-4.0
sb(dp70
I00
F-68.7
sI01
I-88
ss(i__main__
State
p71
(dp72
g3
F5.0
sg4
F5.0
sg5
F-5.0
sg6
F8.0
sb(dp73
I00
I24
sI01
F39.86
ss(i__main__
State
p74
(dp75
g3
F8.0
sg4
F2.0
sg5
F-8.0
sg6
F-8.0
sb(dp76
I00
F-56.94
sI01
I-96
ss(i__main__
State
p77
(dp78
g3
F-3.0
sg4
F8.0
sg5
F3.0
sg6
F-8.0
sb(dp79
I00
F29.190000000000005
sI01
F0.0
ss(i__main__
State
p80
(dp81
g3
F-6.0
sg4
F9.0
sg5
F6.0
sg6
F-6.0
sb(dp82
I00
F10.0
sI01
F0.0
ss(i__main__
State
p83
(dp84
g3
F2.0
sg4
F0.0
sg5
F-2.0
sg6
F4.0
sb(dp85
I00
I-31
sI01
F-16.1
ss(i__main__
State
p86
(dp87
g3
F7.0
sg4
F5.0
sg5
F-7.0
sg6
F-2.0
sb(dp88
I00
F78.45
sI01
I65
ss(i__main__
State
p89
(dp90
g3
F-6.0
sg4
F1.0
sg5
F6.0
sg6
F-2.0
sb(dp91
I00
F29.4
sI01
I-100
ss(i__main__
State
p92
(dp93
g3
F5.0
sg4
F7.0
sg5
F-5.0
sg6
F6.0
sb(dp94
I00
F18.9
sI01
F58.08
ss(i__main__
State
p95
(dp96
g3
F2.0
sg4
F6.0
sg5
F-2.0
sg6
F4.0
sb(dp97
I00
F83.018
sI01
F89.7
ss(i__main__
State
p98
(dp99
g3
F4.0
sg4
F10.0
sg5
F-4.0
sg6
F-2.0
sb(dp100
I00
F20.0
sI01
F0.0
ss(i__main__
State
p101
(dp102
g3
F3.0
sg4
F1.0
sg5
F-3.0
sg6
F0.0
sb(dp103
I00
F-26.54
sI01
I-92
ss(i__main__
State
p104
(dp105
g3
F8.0
sg4
F4.0
sg5
F-8.0
sg6
F-8.0
sb(dp106
I00
F21.8
sI01
I21
ss(i__main__
State
p107
(dp108
g3
F-1.0
sg4
F10.0
sg5
F1.0
sg6
F-8.0
sb(dp109
I00
F19.71
sI01
F0.0
ss(i__main__
State
p110
(dp111
g3
F-6.0
sg4
F0.0
sg5
F6.0
sg6
F-4.0
sb(dp112
I00
F1.1999999999999993
sI01
I-91
ss(i__main__
State
p113
(dp114
g3
F-8.0
sg4
F1.0
sg5
F8.0
sg6
F-2.0
sb(dp115
I00
I-86
sI01
F-31.0
ss(i__main__
State
p116
(dp117
g3
F6.0
sg4
F4.0
sg5
F-6.0
sg6
F2.0
sb(dp118
I00
I-93
sI01
F93.9
ss(i__main__
State
p119
(dp120
g3
F3.0
sg4
F7.0
sg5
F-3.0
sg6
F0.0
sb(dp121
I00
I-64
sI01
F-1.932999999999999
ss(i__main__
State
p122
(dp123
g3
F-2.0
sg4
F9.0
sg5
F2.0
sg6
F-4.0
sb(dp124
I00
F20.9
sI01
F11.0
ss(i__main__
State
p125
(dp126
g3
F6.0
sg4
F2.0
sg5
F-6.0
sg6
F-6.0
sb(dp127
I00
F68.5
sI01
I1
ss(i__main__
State
p128
(dp129
g3
F4.0
sg4
F7.0
sg5
F-4.0
sg6
F8.0
sb(dp130
I00
F52.36
sI01
I27
ss(i__main__
State
p131
(dp132
g3
F-6.0
sg4
F8.0
sg5
F6.0
sg6
F-8.0
sb(dp133
I00
F40.0
sI01
F0.0
ss(i__main__
State
p134
(dp135
g3
F0.0
sg4
F10.0
sg5
F0.0
sg6
F-8.0
sb(dp136
I00
F-1000.0
sI01
F-993.8000000000001
ss(i__main__
State
p137
(dp138
g3
F-3.0
sg4
F0.0
sg5
F3.0
sg6
F2.0
sb(dp139
I00
F-59.099999999999994
sI01
I-36
ss(i__main__
State
p140
(dp141
g3
F-1.0
sg4
F1.0
sg5
F1.0
sg6
F-4.0
sb(dp142
I00
F62.274
sI01
I-66
ss(i__main__
State
p143
(dp144
g3
F-3.0
sg4
F6.0
sg5
F3.0
sg6
F2.0
sb(dp145
I00
F70.4
sI01
F87.1
ss(i__main__
State
p146
(dp147
g3
F-4.0
sg4
F4.0
sg5
F4.0
sg6
F-4.0
sb(dp148
I00
F-38.880700000000004
sI01
I-91
ss(i__main__
State
p149
(dp150
g3
F1.0
sg4
F0.0
sg5
F-1.0
sg6
F-6.0
sb(dp151
I00
F71.3
sI01
I-9
ss(i__main__
State
p152
(dp153
g3
F-8.0
sg4
F6.0
sg5
F8.0
sg6
F6.0
sb(dp154
I00
I3
sI01
F77.8
ss(i__main__
State
p155
(dp156
g3
F0.0
sg4
F5.0
sg5
F0.0
sg6
F8.0
sb(dp157
I00
I9
sI01
F86.22099999999999
ss(i__main__
State
p158
(dp159
g3
F0.0
sg4
F8.0
sg5
F0.0
sg6
F2.0
sb(dp160
I00
F-1899.0
sI01
F-1000.0
ss(i__main__
State
p161
(dp162
g3
F-5.0
sg4
F7.0
sg5
F5.0
sg6
F2.0
sb(dp163
I00
F46.2836
sI01
I44
ss(i__main__
State
p164
(dp165
g3
F2.0
sg4
F3.0
sg5
F-2.0
sg6
F6.0
sb(dp166
I00
F29.413
sI01
I-32
ss(i__main__
State
p167
(dp168
g3
F-7.0
sg4
F10.0
sg5
F7.0
sg6
F-6.0
sb(dp169
I00
F50.00074
sI01
F0.0
ss(i__main__
State
p170
(dp171
g3
F-6.0
sg4
F0.0
sg5
F6.0
sg6
F8.0
sb(dp172
I00
F48.478359999999995
sI01
I20
ss(i__main__
State
p173
(dp174
g3
F4.0
sg4
F7.0
sg5
F-4.0
sg6
F-2.0
sb(dp175
I00
F45.794
sI01
I-58
ss(i__main__
State
p176
(dp177
g3
F3.0
sg4
F7.0
sg5
F-3.0
sg6
F-8.0
sb(dp178
I00
F-16.869999999999997
sI01
I-88
ss(i__main__
State
p179
(dp180
g3
F1.0
sg4
F5.0
sg5
F-1.0
sg6
F-8.0
sb(dp181
I00
I-53
sI01
F27.4
ss(i__main__
State
p182
(dp183
g3
F-1.0
sg4
F10.0
sg5
F1.0
sg6
F4.0
sb(dp184
I00
F20.0
sI01
F0.0
ss(i__main__
State
p185
(dp186
g3
F-8.0
sg4
F0.0
sg5
F8.0
sg6
F2.0
sb(dp187
I00
F59.163
sI01
I9
ss(i__main__
State
p188
(dp189
g3
F-3.0
sg4
F0.0
sg5
F3.0
sg6
F8.0
sb(dp190
I00
F67.151
sI01
I31
ss(i__main__
State
p191
(dp192
g3
F-7.0
sg4
F5.0
sg5
F7.0
sg6
F-8.0
sb(dp193
I00
I61
sI01
F65.0
ss(i__main__
State
p194
(dp195
g3
F-4.0
sg4
F8.0
sg5
F4.0
sg6
F-8.0
sb(dp196
I00
F0.0
sI01
F31.9
ss(i__main__
State
p197
(dp198
g3
F1.0
sg4
F2.0
sg5
F-1.0
sg6
F2.0
sb(dp199
I00
F18.5
sI01
F80.6
ss(i__main__
State
p200
(dp201
g3
F6.0
sg4
F5.0
sg5
F-6.0
sg6
F0.0
sb(dp202
I00
F93.41
sI01
I61
ss(i__main__
State
p203
(dp204
g3
F-8.0
sg4
F4.0
sg5
F8.0
sg6
F6.0
sb(dp205
I00
F27.88
sI01
I12
ss(i__main__
State
p206
(dp207
g3
F-2.0
sg4
F1.0
sg5
F2.0
sg6
F-6.0
sb(dp208
I00
I-15
sI01
F77.78999999999999
ss(i__main__
State
p209
(dp210
g3
F3.0
sg4
F6.0
sg5
F-3.0
sg6
F-8.0
sb(dp211
I00
I8
sI01
F58.09
ss(i__main__
State
p212
(dp213
g3
F5.0
sg4
F3.0
sg5
F-5.0
sg6
F0.0
sb(dp214
I00
F-78.2
sI01
F-4.6
ss(i__main__
State
p215
(dp216
g3
F3.0
sg4
F1.0
sg5
F-3.0
sg6
F8.0
sb(dp217
I00
I47
sI01
F47.2
ss(i__main__
State
p218
(dp219
g3
F-2.0
sg4
F7.0
sg5
F2.0
sg6
F-8.0
sb(dp220
I00
I-50
sI01
F-0.96
ss(i__main__
State
p221
(dp222
g3
F1.0
sg4
F5.0
sg5
F-1.0
sg6
F4.0
sb(dp223
I00
I57
sI01
F54.510000000000005
ss(i__main__
State
p224
(dp225
g3
F7.0
sg4
F9.0
sg5
F-7.0
sg6
F-2.0
sb(dp226
I00
F10.0
sI01
F0.0
ss(i__main__
State
p227
(dp228
g3
F-7.0
sg4
F1.0
sg5
F7.0
sg6
F2.0
sb(dp229
I00
I69
sI01
F-33.4
ss(i__main__
State
p230
(dp231
g3
F-2.0
sg4
F8.0
sg5
F2.0
sg6
F2.0
sb(dp232
I00
F30.009999999999998
sI01
F0.0
ss(i__main__
State
p233
(dp234
g3
F-6.0
sg4
F0.0
sg5
F6.0
sg6
F0.0
sb(dp235
I00
F95.0
sI01
F-54.3
ss(i__main__
State
p236
(dp237
g3
F4.0
sg4
F8.0
sg5
F-4.0
sg6
F0.0
sb(dp238
I00
F10.0
sI01
F0.0
ss(i__main__
State
p239
(dp240
g3
F2.0
sg4
F10.0
sg5
F-2.0
sg6
F-4.0
sb(dp241
I00
F36.91
sI01
F0.0
ss(i__main__
State
p242
(dp243
g3
F-2.0
sg4
F9.0
sg5
F2.0
sg6
F6.0
sb(dp244
I00
F10.0
sI01
F23.895000000000003
ss(i__main__
State
p245
(dp246
g3
F5.0
sg4
F4.0
sg5
F-5.0
sg6
F-6.0
sb(dp247
I00
I-62
sI01
F26.5
ss(i__main__
State
p248
(dp249
g3
F2.0
sg4
F0.0
sg5
F-2.0
sg6
F6.0
sb(dp250
I00
F42.6
sI01
I0
ss(i__main__
State
p251
(dp252
g3
F-7.0
sg4
F0.0
sg5
F7.0
sg6
F2.0
sb(dp253
I00
F89.9
sI01
I86
ss(i__main__
State
p254
(dp255
g3
F-5.0
sg4
F9.0
sg5
F5.0
sg6
F2.0
sb(dp256
I00
F21.9018
sI01
F10.0
ss(i__main__
State
p257
(dp258
g3
F3.0
sg4
F0.0
sg5
F-3.0
sg6
F8.0
sb(dp259
I00
I-59
sI01
F59.6534
ss(i__main__
State
p260
(dp261
g3
F4.0
sg4
F9.0
sg5
F-4.0
sg6
F8.0
sb(dp262
I00
F51.644110000000005
sI01
F0.0
ss(i__main__
State
p263
(dp264
g3
F0.0
sg4
F9.0
sg5
F0.0
sg6
F2.0
sb(dp265
I00
F21.9
sI01
F11.0
ss(i__main__
State
p266
(dp267
g3
F0.0
sg4
F9.0
sg5
F0.0
sg6
F4.0
sb(dp268
I00
F11.200000000000001
sI01
F0.0
ss(i__main__
State
p269
(dp270
g3
F-8.0
sg4
F1.0
sg5
F8.0
sg6
F8.0
sb(dp271
I00
F27.7
sI01
I-82
ss(i__main__
State
p272
(dp273
g3
F-1.0
sg4
F2.0
sg5
F1.0
sg6
F-2.0
sb(dp274
I00
F48.9
sI01
I2
ss(i__main__
State
p275
(dp276
g3
F-3.0
sg4
F10.0
sg5
F3.0
sg6
F0.0
sb(dp277
I00
F20.39
sI01
F17.7
ss(i__main__
State
p278
(dp279
g3
F7.0
sg4
F3.0
sg5
F-7.0
sg6
F4.0
sb(dp280
I00
I-58
sI01
F15.141
ss(i__main__
State
p281
(dp282
g3
F1.0
sg4
F1.0
sg5
F-1.0
sg6
F-2.0
sb(dp283
I00
F-14.375
sI01
I-35
ss(i__main__
State
p284
(dp285
g3
F-8.0
sg4
F7.0
sg5
F8.0
sg6
F-8.0
sb(dp286
I00
I77
sI01
F86.5
ss(i__main__
State
p287
(dp288
g3
F-2.0
sg4
F5.0
sg5
F2.0
sg6
F8.0
sb(dp289
I00
I27
sI01
F-16.7
ss(i__main__
State
p290
(dp291
g3
F-5.0
sg4
F10.0
sg5
F5.0
sg6
F-2.0
sb(dp292
I00
F10.0
sI01
F0.0
ss(i__main__
State
p293
(dp294
g3
F-4.0
sg4
F8.0
sg5
F4.0
sg6
F2.0
sb(dp295
I00
F0.0
sI01
F42.71
ss(i__main__
State
p296
(dp297
g3
F-2.0
sg4
F2.0
sg5
F2.0
sg6
F-6.0
sb(dp298
I00
F8.58
sI01
I1
ss(i__main__
State
p299
(dp300
g3
F0.0
sg4
F1.0
sg5
F0.0
sg6
F-8.0
sb(dp301
I00
F18.5
sI01
I-53
ss(i__main__
State
p302
(dp303
g3
F-1.0
sg4
F6.0
sg5
F1.0
sg6
F0.0
sb(dp304
I00
F35.2
sI01
I-28
ss(i__main__
State
p305
(dp306
g3
F-7.0
sg4
F8.0
sg5
F7.0
sg6
F-2.0
sb(dp307
I00
F20.1
sI01
F0.0
ss(i__main__
State
p308
(dp309
g3
F-1.0
sg4
F0.0
sg5
F1.0
sg6
F6.0
sb(dp310
I00
I-70
sI01
F-2.0
ss(i__main__
State
p311
(dp312
g3
F5.0
sg4
F5.0
sg5
F-5.0
sg6
F6.0
sb(dp313
I00
I-27
sI01
F49.7
ss(i__main__
State
p314
(dp315
g3
F-2.0
sg4
F2.0
sg5
F2.0
sg6
F-8.0
sb(dp316
I00
I-5
sI01
F34.32
ss(i__main__
State
p317
(dp318
g3
F-3.0
sg4
F0.0
sg5
F3.0
sg6
F0.0
sb(dp319
I00
F77.0
sI01
F75.37
ss(i__main__
State
p320
(dp321
g3
F-2.0
sg4
F3.0
sg5
F2.0
sg6
F-8.0
sb(dp322
I00
F81.7592
sI01
I-95
ss(i__main__
State
p323
(dp324
g3
F3.0
sg4
F7.0
sg5
F-3.0
sg6
F6.0
sb(dp325
I00
F-25.181999999999995
sI01
I-94
ss(i__main__
State
p326
(dp327
g3
F-8.0
sg4
F0.0
sg5
F8.0
sg6
F4.0
sb(dp328
I00
F42.209999999999994
sI01
I-29
ss(i__main__
State
p329
(dp330
g3
F-5.0
sg4
F10.0
sg5
F5.0
sg6
F-4.0
sb(dp331
I00
F20.0
sI01
F6.6000000000000005
ss(i__main__
State
p332
(dp333
g3
F5.0
sg4
F5.0
sg5
F-5.0
sg6
F4.0
sb(dp334
I00
I25
sI01
F66.941
ss(i__main__
State
p335
(dp336
g3
F6.0
sg4
F9.0
sg5
F-6.0
sg6
F6.0
sb(dp337
I00
F38.417
sI01
F10.0
ss(i__main__
State
p338
(dp339
g3
F7.0
sg4
F10.0
sg5
F-7.0
sg6
F4.0
sb(dp340
I00
F38.587
sI01
F0.0
ss(i__main__
State
p341
(dp342
g3
F7.0
sg4
F5.0
sg5
F-7.0
sg6
F4.0
sb(dp343
I00
I-32
sI01
F42.0
ss(i__main__
State
p344
(dp345
g3
F-5.0
sg4
F9.0
sg5
F5.0
sg6
F-8.0
sb(dp346
I00
F10.0
sI01
F0.0
ss(i__main__
State
p347
(dp348
g3
F-3.0
sg4
F10.0
sg5
F3.0
sg6
F2.0
sb(dp349
I00
F40.20649
sI01
F0.0
ss(i__main__
State
p350
(dp351
g3
F2.0
sg4
F7.0
sg5
F-2.0
sg6
F-2.0
sb(dp352
I00
F72.03
sI01
I-20
ss(i__main__
State
p353
(dp354
g3
F5.0
sg4
F9.0
sg5
F-5.0
sg6
F4.0
sb(dp355
I00
F30.0
sI01
F0.0
ss(i__main__
State
p356
(dp357
g3
F7.0
sg4
F2.0
sg5
F-7.0
sg6
F-4.0
sb(dp358
I00
F98.24
sI01
I92
ss(i__main__
State
p359
(dp360
g3
F-4.0
sg4
F3.0
sg5
F4.0
sg6
F-6.0
sb(dp361
I00
F19.997
sI01
I87
ss(i__main__
State
p362
(dp363
g3
F2.0
sg4
F5.0
sg5
F-2.0
sg6
F-6.0
sb(dp364
I00
I71
sI01
F-50.4
ss(i__main__
State
p365
(dp366
g3
F7.0
sg4
F4.0
sg5
F-7.0
sg6
F2.0
sb(dp367
I00
F-17.56
sI01
F-50.5
ss(i__main__
State
p368
(dp369
g3
F1.0
sg4
F10.0
sg5
F-1.0
sg6
F-2.0
sb(dp370
I00
F-154.394
sI01
F0.0
ss(i__main__
State
p371
(dp372
g3
F-8.0
sg4
F10.0
sg5
F8.0
sg6
F-4.0
sb(dp373
I00
F49.92072
sI01
F0.0
ss(i__main__
State
p374
(dp375
g3
F-7.0
sg4
F10.0
sg5
F7.0
sg6
F2.0
sb(dp376
I00
F68.18965
sI01
F14.280000000000001
ss(i__main__
State
p377
(dp378
g3
F5.0
sg4
F1.0
sg5
F-5.0
sg6
F-8.0
sb(dp379
I00
F1.42
sI01
I-99
ss(i__main__
State
p380
(dp381
g3
F-5.0
sg4
F4.0
sg5
F5.0
sg6
F8.0
sb(dp382
I00
F54.2
sI01
I4
ss(i__main__
State
p383
(dp384
g3
F-3.0
sg4
F9.0
sg5
F3.0
sg6
F-2.0
sb(dp385
I00
F-155.52000000000004
sI01
F0.0
ss(i__main__
State
p386
(dp387
g3
F6.0
sg4
F6.0
sg5
F-6.0
sg6
F-6.0
sb(dp388
I00
I-78
sI01
F-7.63
ss(i__main__
State
p389
(dp390
g3
F4.0
sg4
F9.0
sg5
F-4.0
sg6
F-8.0
sb(dp391
I00
F0.0
sI01
F31.999000000000002
ss(i__main__
State
p392
(dp393
g3
F3.0
sg4
F7.0
sg5
F-3.0
sg6
F-2.0
sb(dp394
I00
F-54.9
sI01
F-47.6
ss(i__main__
State
p395
(dp396
g3
F-8.0
sg4
F6.0
sg5
F8.0
sg6
F0.0
sb(dp397
I00
I-3
sI01
F-65.4
ss(i__main__
State
p398
(dp399
g3
F-1.0
sg4
F7.0
sg5
F1.0
sg6
F2.0
sb(dp400
I00
I-16
sI01
F-79.2
ss(i__main__
State
p401
(dp402
g3
F-6.0
sg4
F2.0
sg5
F6.0
sg6
F-8.0
sb(dp403
I00
I12
sI01
F24.683752
ss(i__main__
State
p404
(dp405
g3
F0.0
sg4
F0.0
sg5
F0.0
sg6
F6.0
sb(dp406
I00
F34.8937
sI01
I-55
ss(i__main__
State
p407
(dp408
g3
F3.0
sg4
F1.0
sg5
F-3.0
sg6
F-2.0
sb(dp409
I00
F6.16
sI01
F-9.9
ss(i__main__
State
p410
(dp411
g3
F4.0
sg4
F9.0
sg5
F-4.0
sg6
F6.0
sb(dp412
I00
F30.0
sI01
F0.0
ss(i__main__
State
p413
(dp414
g3
F-8.0
sg4
F4.0
sg5
F8.0
sg6
F-4.0
sb(dp415
I00
F36.07116
sI01
I-79
ss(i__main__
State
p416
(dp417
g3
F4.0
sg4
F7.0
sg5
F-4.0
sg6
F6.0
sb(dp418
I00
F81.7
sI01
I72
ss(i__main__
State
p419
(dp420
g3
F2.0
sg4
F9.0
sg5
F-2.0
sg6
F-2.0
sb(dp421
I00
F10.0
sI01
F0.0
ss(i__main__
State
p422
(dp423
g3
F3.0
sg4
F6.0
sg5
F-3.0
sg6
F4.0
sb(dp424
I00
I-81
sI01
F45.0728
ss(i__main__
State
p425
(dp426
g3
F5.0
sg4
F7.0
sg5
F-5.0
sg6
F-8.0
sb(dp427
I00
F72.52300000000001
sI01
I-43
ss(i__main__
State
p428
(dp429
g3
F7.0
sg4
F5.0
sg5
F-7.0
sg6
F0.0
sb(dp430
I00
F73.8378
sI01
F-35.71
ss(i__main__
State
p431
(dp432
g3
F6.0
sg4
F10.0
sg5
F-6.0
sg6
F6.0
sb(dp433
I00
F0.0
sI01
F28.2756
ss(i__main__
State
p434
(dp435
g3
F-8.0
sg4
F10.0
sg5
F8.0
sg6
F0.0
sb(dp436
I00
F32.7078
sI01
F0.0
ss(i__main__
State
p437
(dp438
g3
F1.0
sg4
F10.0
sg5
F-1.0
sg6
F0.0
sb(dp439
I00
F19.0
sI01
F0.0
ss(i__main__
State
p440
(dp441
g3
F6.0
sg4
F4.0
sg5
F-6.0
sg6
F6.0
sb(dp442
I00
F-6.9399999999999995
sI01
F-73.9
ss(i__main__
State
p443
(dp444
g3
F2.0
sg4
F5.0
sg5
F-2.0
sg6
F4.0
sb(dp445
I00
I-24
sI01
F78.6242
ss(i__main__
State
p446
(dp447
g3
F-3.0
sg4
F2.0
sg5
F3.0
sg6
F-2.0
sb(dp448
I00
F40.8
sI01
I-24
ss(i__main__
State
p449
(dp450
g3
F-5.0
sg4
F8.0
sg5
F5.0
sg6
F-6.0
sb(dp451
I00
F30.0
sI01
F13.881
ss(i__main__
State
p452
(dp453
g3
F-8.0
sg4
F2.0
sg5
F8.0
sg6
F0.0
sb(dp454
I00
F-77.31
sI01
F54.49
ss(i__main__
State
p455
(dp456
g3
F2.0
sg4
F7.0
sg5
F-2.0
sg6
F0.0
sb(dp457
I00
F33.4
sI01
I-23
ss(i__main__
State
p458
(dp459
g3
F0.0
sg4
F10.0
sg5
F0.0
sg6
F2.0
sb(dp460
I00
F-1000.0
sI01
F-991.3000000000001
ss(i__main__
State
p461
(dp462
g3
F2.0
sg4
F9.0
sg5
F-2.0
sg6
F8.0
sb(dp463
I00
F10.0
sI01
F30.1551
ss(i__main__
State
p464
(dp465
g3
F-5.0
sg4
F6.0
sg5
F5.0
sg6
F2.0
sb(dp466
I00
I-35
sI01
F-85.5016
ss(i__main__
State
p467
(dp468
g3
F0.0
sg4
F0.0
sg5
F0.0
sg6
F8.0
sb(dp469
I00
I-45
sI01
F-5.299999999999999
ss(i__main__
State
p470
(dp471
g3
F-4.0
sg4
F4.0
sg5
F4.0
sg6
F-6.0
sb(dp472
I00
I-68
sI01
F50.55
ss(i__main__
State
p473
(dp474
g3
F8.0
sg4
F10.0
sg5
F-8.0
sg6
F-2.0
sb(dp475
I00
F39.140600000000006
sI01
F17.3
ss(i__main__
State
p476
(dp477
g3
F0.0
sg4
F6.0
sg5
F0.0
sg6
F-2.0
sb(dp478
I00
F45.3
sI01
I1
ss(i__main__
State
p479
(dp480
g3
F-7.0
sg4
F7.0
sg5
F7.0
sg6
F8.0
sb(dp481
I00
I-97
sI01
F8.29
ss(i__main__
State
p482
(dp483
g3
F-2.0
sg4
F3.0
sg5
F2.0
sg6
F6.0
sb(dp484
I00
I-88
sI01
F97.4
ss(i__main__
State
p485
(dp486
g3
F-7.0
sg4
F10.0
sg5
F7.0
sg6
F0.0
sb(dp487
I00
F0.0
sI01
F41.926
ss(i__main__
State
p488
(dp489
g3
F-1.0
sg4
F8.0
sg5
F1.0
sg6
F0.0
sb(dp490
I00
F20.0
sI01
F0.0
ss(i__main__
State
p491
(dp492
g3
F1.0
sg4
F8.0
sg5
F-1.0
sg6
F-6.0
sb(dp493
I00
F0.0
sI01
F20.1
ss(i__main__
State
p494
(dp495
g3
F8.0
sg4
F8.0
sg5
F-8.0
sg6
F-4.0
sb(dp496
I00
F40.0
sI01
F0.0
ss(i__main__
State
p497
(dp498
g3
F7.0
sg4
F5.0
sg5
F-7.0
sg6
F8.0
sb(dp499
I00
F-42.0145
sI01
F-71.2
ss(i__main__
State
p500
(dp501
g3
F-1.0
sg4
F1.0
sg5
F1.0
sg6
F8.0
sb(dp502
I00
I100
sI01
F0.6000000000000001
ss(i__main__
State
p503
(dp504
g3
F-8.0
sg4
F9.0
sg5
F8.0
sg6
F-8.0
sb(dp505
I00
F50.52230900000001
sI01
F0.0
ss(i__main__
State
p506
(dp507
g3
F-6.0
sg4
F3.0
sg5
F6.0
sg6
F6.0
sb(dp508
I00
F-71.44999999999999
sI01
I80
ss(i__main__
State
p509
(dp510
g3
F-8.0
sg4
F4.0
sg5
F8.0
sg6
F-2.0
sb(dp511
I00
F68.6
sI01
F72.915
ss(i__main__
State
p512
(dp513
g3
F-3.0
sg4
F9.0
sg5
F3.0
sg6
F6.0
sb(dp514
I00
F10.0
sI01
F0.0
ss(i__main__
State
p515
(dp516
g3
F0.0
sg4
F1.0
sg5
F0.0
sg6
F6.0
sb(dp517
I00
F35.2
sI01
I41
ss(i__main__
State
p518
(dp519
g3
F2.0
sg4
F8.0
sg5
F-2.0
sg6
F4.0
sb(dp520
I00
F10.0
sI01
F0.0
ss(i__main__
State
p521
(dp522
g3
F-4.0
sg4
F8.0
sg5
F4.0
sg6
F-2.0
sb(dp523
I00
F75.752305
sI01
F0.0
ss(i__main__
State
p524
(dp525
g3
F0.0
sg4
F7.0
sg5
F0.0
sg6
F4.0
sb(dp526
I00
F40.2
sI01
I-39
ss(i__main__
State
p527
(dp528
g3
F1.0
sg4
F3.0
sg5
F-1.0
sg6
F-6.0
sb(dp529
I00
F70.1
sI01
I-96
ss(i__main__
State
p530
(dp531
g3
F-2.0
sg4
F5.0
sg5
F2.0
sg6
F-4.0
sb(dp532
I00
F-9.1
sI01
F8.4
ss(i__main__
State
p533
(dp534
g3
F8.0
sg4
F1.0
sg5
F-8.0
sg6
F-8.0
sb(dp535
I00
I7
sI01
F44.7
ss(i__main__
State
p536
(dp537
g3
F-8.0
sg4
F7.0
sg5
F8.0
sg6
F6.0
sb(dp538
I00
I23
sI01
F60.32
ss(i__main__
State
p539
(dp540
g3
F4.0
sg4
F4.0
sg5
F-4.0
sg6
F6.0
sb(dp541
I00
F-8.09
sI01
I-25
ss(i__main__
State
p542
(dp543
g3
F-6.0
sg4
F2.0
sg5
F6.0
sg6
F4.0
sb(dp544
I00
F35.6
sI01
I-53
ss(i__main__
State
p545
(dp546
g3
F-1.0
sg4
F4.0
sg5
F1.0
sg6
F4.0
sb(dp547
I00
I-23
sI01
F19.81
ss(i__main__
State
p548
(dp549
g3
F0.0
sg4
F9.0
sg5
F0.0
sg6
F-6.0
sb(dp550
I00
F0.0
sI01
F10.0
ss(i__main__
State
p551
(dp552
g3
F-7.0
sg4
F7.0
sg5
F7.0
sg6
F0.0
sb(dp553
I00
F66.34599999999999
sI01
I46
ss(i__main__
State
p554
(dp555
g3
F-2.0
sg4
F6.0
sg5
F2.0
sg6
F-4.0
sb(dp556
I00
F35.83
sI01
I-82
ss(i__main__
State
p557
(dp558
g3
F-6.0
sg4
F3.0
sg5
F6.0
sg6
F-8.0
sb(dp559
I00
F63.2
sI01
I-77
ss(i__main__
State
p560
(dp561
g3
F-7.0
sg4
F10.0
sg5
F7.0
sg6
F4.0
sb(dp562
I00
F59.0
sI01
F0.0
ss(i__main__
State
p563
(dp564
g3
F-1.0
sg4
F8.0
sg5
F1.0
sg6
F8.0
sb(dp565
I00
F20.0
sI01
F0.0
ss(i__main__
State
p566
(dp567
g3
F2.0
sg4
F2.0
sg5
F-2.0
sg6
F4.0
sb(dp568
I00
I-72
sI01
F-34.2
ss(i__main__
State
p569
(dp570
g3
F-3.0
sg4
F5.0
sg5
F3.0
sg6
F-4.0
sb(dp571
I00
F33.78
sI01
F-82.7
ss(i__main__
State
p572
(dp573
g3
F-4.0
sg4
F2.0
sg5
F4.0
sg6
F-4.0
sb(dp574
I00
F66.1
sI01
I-36
ss(i__main__
State
p575
(dp576
g3
F-3.0
sg4
F5.0
sg5
F3.0
sg6
F2.0
sb(dp577
I00
F52.5
sI01
I-94
ss(i__main__
State
p578
(dp579
g3
F-5.0
sg4
F8.0
sg5
F5.0
sg6
F-4.0
sb(dp580
I00
F0.0
sI01
F38.062
ss(i__main__
State
p581
(dp582
g3
F-2.0
sg4
F4.0
sg5
F2.0
sg6
F0.0
sb(dp583
I00
I45
sI01
F64.0
ss(i__main__
State
p584
(dp585
g3
F-7.0
sg4
F7.0
sg5
F7.0
sg6
F-2.0
sb(dp586
I00
F25.9
sI01
F-39.5
ss(i__main__
State
p587
(dp588
g3
F-2.0
sg4
F9.0
sg5
F2.0
sg6
F-8.0
sb(dp589
I00
F30.18
sI01
F0.0
ss(i__main__
State
p590
(dp591
g3
F-1.0
sg4
F4.0
sg5
F1.0
sg6
F-6.0
sb(dp592
I00
F84.7056
sI01
F77.57
ss(i__main__
State
p593
(dp594
g3
F1.0
sg4
F3.0
sg5
F-1.0
sg6
F8.0
sb(dp595
I00
I-90
sI01
F-17.47515
ss(i__main__
State
p596
(dp597
g3
F-8.0
sg4
F5.0
sg5
F8.0
sg6
F6.0
sb(dp598
I00
F-13.5
sI01
I-49
ss(i__main__
State
p599
(dp600
g3
F5.0
sg4
F0.0
sg5
F-5.0
sg6
F-8.0
sb(dp601
I00
I-88
sI01
F17.71
ss(i__main__
State
p602
(dp603
g3
F2.0
sg4
F8.0
sg5
F-2.0
sg6
F-2.0
sb(dp604
I00
F38.81
sI01
F0.0
ss(i__main__
State
p605
(dp606
g3
F5.0
sg4
F10.0
sg5
F-5.0
sg6
F-6.0
sb(dp607
I00
F50.0
sI01
F17.15
ss(i__main__
State
p608
(dp609
g3
F-1.0
sg4
F9.0
sg5
F1.0
sg6
F-4.0
sb(dp610
I00
F10.0
sI01
F11.0
ss(i__main__
State
p611
(dp612
g3
F2.0
sg4
F1.0
sg5
F-2.0
sg6
F-8.0
sb(dp613
I00
F67.955
sI01
F6.3999999999999995
ss(i__main__
State
p614
(dp615
g3
F-2.0
sg4
F1.0
sg5
F2.0
sg6
F4.0
sb(dp616
I00
I8
sI01
F33.0
ss(i__main__
State
p617
(dp618
g3
F0.0
sg4
F6.0
sg5
F0.0
sg6
F6.0
sb(dp619
I00
F17.32
sI01
I-60
ss(i__main__
State
p620
(dp621
g3
F-3.0
sg4
F0.0
sg5
F3.0
sg6
F6.0
sb(dp622
I00
F61.5
sI01
I-41
ss(i__main__
State
p623
(dp624
g3
F6.0
sg4
F1.0
sg5
F-6.0
sg6
F8.0
sb(dp625
I00
F24.91
sI01
I-94
ss(i__main__
State
p626
(dp627
g3
F4.0
sg4
F9.0
sg5
F-4.0
sg6
F-2.0
sb(dp628
I00
F-72.80000000000001
sI01
F12.1921
ss(i__main__
State
p629
(dp630
g3
F-8.0
sg4
F2.0
sg5
F8.0
sg6
F-2.0
sb(dp631
I00
I0
sI01
F19.020000000000003
ss(i__main__
State
p632
(dp633
g3
F5.0
sg4
F3.0
sg5
F-5.0
sg6
F-8.0
sb(dp634
I00
F31.63
sI01
F-81.2
ss(i__main__
State
p635
(dp636
g3
F0.0
sg4
F6.0
sg5
F0.0
sg6
F-8.0
sb(dp637
I00
F49.45
sI01
I-46
ss(i__main__
State
p638
(dp639
g3
F0.0
sg4
F8.0
sg5
F0.0
sg6
F-2.0
sb(dp640
I00
F-1899.0
sI01
F-2000.0
ss(i__main__
State
p641
(dp642
g3
F-5.0
sg4
F6.0
sg5
F5.0
sg6
F-6.0
sb(dp643
I00
F-6.059999999999997
sI01
I-98
ss(i__main__
State
p644
(dp645
g3
F-1.0
sg4
F8.0
sg5
F1.0
sg6
F-2.0
sb(dp646
I00
F20.0
sI01
F0.0
ss(i__main__
State
p647
(dp648
g3
F-6.0
sg4
F8.0
sg5
F6.0
sg6
F-4.0
sb(dp649
I00
F20.0
sI01
F12.01
ss(i__main__
State
p650
(dp651
g3
F-3.0
sg4
F8.0
sg5
F3.0
sg6
F6.0
sb(dp652
I00
F10.0
sI01
F0.0
ss(i__main__
State
p653
(dp654
g3
F-4.0
sg4
F6.0
sg5
F4.0
sg6
F4.0
sb(dp655
I00
I-11
sI01
F39.6
ss(i__main__
State
p656
(dp657
g3
F-5.0
sg4
F7.0
sg5
F5.0
sg6
F-6.0
sb(dp658
I00
F-10.3
sI01
I-67
ss(i__main__
State
p659
(dp660
g3
F7.0
sg4
F10.0
sg5
F-7.0
sg6
F-2.0
sb(dp661
I00
F20.0
sI01
F0.0
ss(i__main__
State
p662
(dp663
g3
F3.0
sg4
F3.0
sg5
F-3.0
sg6
F0.0
sb(dp664
I00
I-67
sI01
F-23.379999999999995
ss(i__main__
State
p665
(dp666
g3
F-6.0
sg4
F7.0
sg5
F6.0
sg6
F4.0
sb(dp667
I00
F2.6327
sI01
I-38
ss(i__main__
State
p668
(dp669
g3
F5.0
sg4
F9.0
sg5
F-5.0
sg6
F-2.0
sb(dp670
I00
F10.0
sI01
F30.81
ss(i__main__
State
p671
(dp672
g3
F-4.0
sg4
F2.0
sg5
F4.0
sg6
F8.0
sb(dp673
I00
F69.884
sI01
I-81
ss(i__main__
State
p674
(dp675
g3
F3.0
sg4
F6.0
sg5
F-3.0
sg6
F-6.0
sb(dp676
I00
F75.6
sI01
I-81
ss(i__main__
State
p677
(dp678
g3
F-8.0
sg4
F6.0
sg5
F8.0
sg6
F-2.0
sb(dp679
I00
F74.20400000000001
sI01
I70
ss(i__main__
State
p680
(dp681
g3
F2.0
sg4
F5.0
sg5
F-2.0
sg6
F8.0
sb(dp682
I00
F-23.1
sI01
I-29
ss(i__main__
State
p683
(dp684
g3
F-2.0
sg4
F10.0
sg5
F2.0
sg6
F-8.0
sb(dp685
I00
F10.0
sI01
F0.0
ss(i__main__
State
p686
(dp687
g3
F3.0
sg4
F2.0
sg5
F-3.0
sg6
F2.0
sb(dp688
I00
F67.2
sI01
I13
ss(i__main__
State
p689
(dp690
g3
F-5.0
sg4
F10.0
sg5
F5.0
sg6
F4.0
sb(dp691
I00
F10.0
sI01
F0.0
ss(i__main__
State
p692
(dp693
g3
F-7.0
sg4
F4.0
sg5
F7.0
sg6
F-6.0
sb(dp694
I00
F-71.81
sI01
I35
ss(i__main__
State
p695
(dp696
g3
F6.0
sg4
F1.0
sg5
F-6.0
sg6
F0.0
sb(dp697
I00
I2
sI01
F41.6986
ss(i__main__
State
p698
(dp699
g3
F8.0
sg4
F9.0
sg5
F-8.0
sg6
F-4.0
sb(dp700
I00
F10.0
sI01
F0.0
ss(i__main__
State
p701
(dp702
g3
F-5.0
sg4
F8.0
sg5
F5.0
sg6
F2.0
sb(dp703
I00
F10.0
sI01
F21.9
ss(i__main__
State
p704
(dp705
g3
F5.0
sg4
F9.0
sg5
F-5.0
sg6
F2.0
sb(dp706
I00
F21.1
sI01
F0.0
ss(i__main__
State
p707
(dp708
g3
F1.0
sg4
F10.0
sg5
F-1.0
sg6
F-4.0
sb(dp709
I00
F-90.0
sI01
F0.0
ss(i__main__
State
p710
(dp711
g3
F0.0
sg4
F2.0
sg5
F0.0
sg6
F4.0
sb(dp712
I00
F63.2
sI01
I-15
ss(i__main__
State
p713
(dp714
g3
F-6.0
sg4
F0.0
sg5
F6.0
sg6
F-2.0
sb(dp715
I00
F-31.8
sI01
I-45
ss(i__main__
State
p716
(dp717
g3
F-5.0
sg4
F5.0
sg5
F5.0
sg6
F-8.0
sb(dp718
I00
F45.540000000000006
sI01
F14.9187
ss(i__main__
State
p719
(dp720
g3
F8.0
sg4
F8.0
sg5
F-8.0
sg6
F0.0
sb(dp721
I00
F12.011000000000001
sI01
F0.0
ss(i__main__
State
p722
(dp723
g3
F6.0
sg4
F10.0
sg5
F-6.0
sg6
F-8.0
sb(dp724
I00
F64.0049
sI01
F0.0
ss(i__main__
State
p725
(dp726
g3
F6.0
sg4
F1.0
sg5
F-6.0
sg6
F-6.0
sb(dp727
I00
I-59
sI01
F22.1
ss(i__main__
State
p728
(dp729
g3
F6.0
sg4
F4.0
sg5
F-6.0
sg6
F-8.0
sb(dp730
I00
F54.7
sI01
I-27
ss(i__main__
State
p731
(dp732
g3
F-8.0
sg4
F1.0
sg5
F8.0
sg6
F0.0
sb(dp733
I00
I-91
sI01
F-10.399999999999999
ss(i__main__
State
p734
(dp735
g3
F4.0
sg4
F3.0
sg5
F-4.0
sg6
F-2.0
sb(dp736
I00
F-81.03
sI01
I-33
ss(i__main__
State
p737
(dp738
g3
F-5.0
sg4
F0.0
sg5
F5.0
sg6
F6.0
sb(dp739
I00
F29.52471
sI01
I-93
ss(i__main__
State
p740
(dp741
g3
F5.0
sg4
F3.0
sg5
F-5.0
sg6
F4.0
sb(dp742
I00
I-3
sI01
F30.4
ss(i__main__
State
p743
(dp744
g3
F7.0
sg4
F4.0
sg5
F-7.0
sg6
F-6.0
sb(dp745
I00
I-17
sI01
F29.8
ss(i__main__
State
p746
(dp747
g3
F-4.0
sg4
F2.0
sg5
F4.0
sg6
F0.0
sb(dp748
I00
F73.3
sI01
I-82
ss(i__main__
State
p749
(dp750
g3
F-5.0
sg4
F5.0
sg5
F5.0
sg6
F-4.0
sb(dp751
I00
I-71
sI01
F53.589999999999996
ss(i__main__
State
p752
(dp753
g3
F-8.0
sg4
F8.0
sg5
F8.0
sg6
F0.0
sb(dp754
I00
F20.1
sI01
F11.0
ss(i__main__
State
p755
(dp756
g3
F-6.0
sg4
F7.0
sg5
F6.0
sg6
F2.0
sb(dp757
I00
F59.4
sI01
I15
ss(i__main__
State
p758
(dp759
g3
F3.0
sg4
F3.0
sg5
F-3.0
sg6
F4.0
sb(dp760
I00
F8.100000000000001
sI01
I-20
ss(i__main__
State
p761
(dp762
g3
F-6.0
sg4
F8.0
sg5
F6.0
sg6
F4.0
sb(dp763
I00
F10.0
sI01
F0.0
ss(i__main__
State
p764
(dp765
g3
F-6.0
sg4
F9.0
sg5
F6.0
sg6
F4.0
sb(dp766
I00
F38.12939
sI01
F0.0
ss(i__main__
State
p767
(dp768
g3
F8.0
sg4
F7.0
sg5
F-8.0
sg6
F-4.0
sb(dp769
I00
F-66.9
sI01
I30
ss(i__main__
State
p770
(dp771
g3
F-7.0
sg4
F8.0
sg5
F7.0
sg6
F6.0
sb(dp772
I00
F10.0
sI01
F0.0
ss(i__main__
State
p773
(dp774
g3
F8.0
sg4
F2.0
sg5
F-8.0
sg6
F4.0
sb(dp775
I00
I-68
sI01
F-28.68
ss(i__main__
State
p776
(dp777
g3
F-8.0
sg4
F7.0
sg5
F8.0
sg6
F8.0
sb(dp778
I00
F14.149000000000001
sI01
F-71.1
ss(i__main__
State
p779
(dp780
g3
F-4.0
sg4
F1.0
sg5
F4.0
sg6
F2.0
sb(dp781
I00
F13.185
sI01
I-9
ss(i__main__
State
p782
(dp783
g3
F-4.0
sg4
F0.0
sg5
F4.0
sg6
F-4.0
sb(dp784
I00
F-32.53
sI01
I40
ss(i__main__
State
p785
(dp786
g3
F-5.0
sg4
F9.0
sg5
F5.0
sg6
F6.0
sb(dp787
I00
F20.0
sI01
F0.0
ss(i__main__
State
p788
(dp789
g3
F8.0
sg4
F8.0
sg5
F-8.0
sg6
F8.0
sb(dp790
I00
F0.0
sI01
F41.0
ss(i__main__
State
p791
(dp792
g3
F4.0
sg4
F5.0
sg5
F-4.0
sg6
F-4.0
sb(dp793
I00
I-100
sI01
F-29.6
ss(i__main__
State
p794
(dp795
g3
F-1.0
sg4
F1.0
sg5
F1.0
sg6
F-6.0
sb(dp796
I00
F-31.4
sI01
I59
ss(i__main__
State
p797
(dp798
g3
F-8.0
sg4
F10.0
sg5
F8.0
sg6
F-6.0
sb(dp799
I00
F20.0
sI01
F0.0
ss(i__main__
State
p800
(dp801
g3
F7.0
sg4
F1.0
sg5
F-7.0
sg6
F-6.0
sb(dp802
I00
F50.554410000000004
sI01
F-4.9
ss(i__main__
State
p803
(dp804
g3
F2.0
sg4
F9.0
sg5
F-2.0
sg6
F2.0
sb(dp805
I00
F10.0
sI01
F0.0
ss(i__main__
State
p806
(dp807
g3
F1.0
sg4
F4.0
sg5
F-1.0
sg6
F0.0
sb(dp808
I00
F23.71
sI01
F-14.294
ss(i__main__
State
p809
(dp810
g3
F-3.0
sg4
F0.0
sg5
F3.0
sg6
F-4.0
sb(dp811
I00
F-10.479999999999999
sI01
I-88
ss(i__main__
State
p812
(dp813
g3
F8.0
sg4
F3.0
sg5
F-8.0
sg6
F0.0
sb(dp814
I00
I-96
sI01
F2.2199999999999998
ss(i__main__
State
p815
(dp816
g3
F2.0
sg4
F10.0
sg5
F-2.0
sg6
F6.0
sb(dp817
I00
F20.0
sI01
F0.0
ss(i__main__
State
p818
(dp819
g3
F7.0
sg4
F9.0
sg5
F-7.0
sg6
F4.0
sb(dp820
I00
F47.22
sI01
F0.0
ss(i__main__
State
p821
(dp822
g3
F-8.0
sg4
F10.0
sg5
F8.0
sg6
F2.0
sb(dp823
I00
F11.0
sI01
F0.0
ss(i__main__
State
p824
(dp825
g3
F6.0
sg4
F8.0
sg5
F-6.0
sg6
F-4.0
sb(dp826
I00
F10.0
sI01
F40.243
ss(i__main__
State
p827
(dp828
g3
F8.0
sg4
F7.0
sg5
F-8.0
sg6
F-8.0
sb(dp829
I00
F61.3
sI01
F55.650999999999996
ss(i__main__
State
p830
(dp831
g3
F1.0
sg4
F7.0
sg5
F-1.0
sg6
F6.0
sb(dp832
I00
F85.9
sI01
F66.6
ss(i__main__
State
p833
(dp834
g3
F-5.0
sg4
F4.0
sg5
F5.0
sg6
F-2.0
sb(dp835
I00
F6.888999999999999
sI01
I-88
ss(i__main__
State
p836
(dp837
g3
F0.0
sg4
F8.0
sg5
F0.0
sg6
F-6.0
sb(dp838
I00
F-2707.1
sI01
F-1899.0
ss(i__main__
State
p839
(dp840
g3
F5.0
sg4
F5.0
sg5
F-5.0
sg6
F2.0
sb(dp841
I00
I-77
sI01
F69.78999999999999
ss(i__main__
State
p842
(dp843
g3
F-2.0
sg4
F1.0
sg5
F2.0
sg6
F2.0
sb(dp844
I00
I-5
sI01
F75.1
ss(i__main__
State
p845
(dp846
g3
F2.0
sg4
F0.0
sg5
F-2.0
sg6
F-4.0
sb(dp847
I00
I22
sI01
F50.75
ss(i__main__
State
p848
(dp849
g3
F-5.0
sg4
F2.0
sg5
F5.0
sg6
F-8.0
sb(dp850
I00
I-90
sI01
F74.181
ss(i__main__
State
p851
(dp852
g3
F-6.0
sg4
F3.0
sg5
F6.0
sg6
F2.0
sb(dp853
I00
I-3
sI01
F47.4
ss(i__main__
State
p854
(dp855
g3
F6.0
sg4
F10.0
sg5
F-6.0
sg6
F0.0
sb(dp856
I00
F20.0
sI01
F0.0
ss(i__main__
State
p857
(dp858
g3
F-6.0
sg4
F2.0
sg5
F6.0
sg6
F2.0
sb(dp859
I00
F65.14
sI01
I-20
ss(i__main__
State
p860
(dp861
g3
F-8.0
sg4
F4.0
sg5
F8.0
sg6
F4.0
sb(dp862
I00
F64.47428
sI01
I-49
ss(i__main__
State
p863
(dp864
g3
F8.0
sg4
F10.0
sg5
F-8.0
sg6
F2.0
sb(dp865
I00
F39.9116
sI01
F0.0
ss(i__main__
State
p866
(dp867
g3
F-4.0
sg4
F3.0
sg5
F4.0
sg6
F2.0
sb(dp868
I00
F-6.76
sI01
I-41
ss(i__main__
State
p869
(dp870
g3
F-2.0
sg4
F9.0
sg5
F2.0
sg6
F-2.0
sb(dp871
I00
F10.0
sI01
F0.0
ss(i__main__
State
p872
(dp873
g3
F0.0
sg4
F4.0
sg5
F0.0
sg6
F8.0
sb(dp874
I00
F23.601
sI01
I-72
ss(i__main__
State
p875
(dp876
g3
F-7.0
sg4
F8.0
sg5
F7.0
sg6
F-8.0
sb(dp877
I00
F20.200000000000003
sI01
F10.0
ss(i__main__
State
p878
(dp879
g3
F-5.0
sg4
F9.0
sg5
F5.0
sg6
F-4.0
sb(dp880
I00
F11.152000000000001
sI01
F0.0
ss(i__main__
State
p881
(dp882
g3
F4.0
sg4
F0.0
sg5
F-4.0
sg6
F-8.0
sb(dp883
I00
F-33.59
sI01
I-58
ss(i__main__
State
p884
(dp885
g3
F4.0
sg4
F3.0
sg5
F-4.0
sg6
F-6.0
sb(dp886
I00
F-6.800000000000001
sI01
F-19.299999999999997
ss(i__main__
State
p887
(dp888
g3
F1.0
sg4
F9.0
sg5
F-1.0
sg6
F-6.0
sb(dp889
I00
F0.0
sI01
F19.0
ss(i__main__
State
p890
(dp891
g3
F-3.0
sg4
F3.0
sg5
F3.0
sg6
F-8.0
sb(dp892
I00
F27.6
sI01
I3
ss(i__main__
State
p893
(dp894
g3
F-7.0
sg4
F8.0
sg5
F7.0
sg6
F-6.0
sb(dp895
I00
F40.0
sI01
F0.0
ss(i__main__
State
p896
(dp897
g3
F-2.0
sg4
F10.0
sg5
F2.0
sg6
F-2.0
sb(dp898
I00
F30.039
sI01
F0.0
ss(i__main__
State
p899
(dp900
g3
F-7.0
sg4
F1.0
sg5
F7.0
sg6
F-4.0
sb(dp901
I00
F1.2999999999999998
sI01
F25.1
ss(i__main__
State
p902
(dp903
g3
F3.0
sg4
F2.0
sg5
F-3.0
sg6
F4.0
sb(dp904
I00
I-43
sI01
F17.1357
ss(i__main__
State
p905
(dp906
g3
F-7.0
sg4
F3.0
sg5
F7.0
sg6
F-6.0
sb(dp907
I00
F-45.5
sI01
F35.02648
ss(i__main__
State
p908
(dp909
g3
F1.0
sg4
F8.0
sg5
F-1.0
sg6
F-8.0
sb(dp910
I00
F-81.0
sI01
F0.0
ss(i__main__
State
p911
(dp912
g3
F4.0
sg4
F8.0
sg5
F-4.0
sg6
F2.0
sb(dp913
I00
F10.0
sI01
F10.0
ss(i__main__
State
p914
(dp915
g3
F-8.0
sg4
F3.0
sg5
F8.0
sg6
F2.0
sb(dp916
I00
I-23
sI01
F-26.2
ss(i__main__
State
p917
(dp918
g3
F8.0
sg4
F9.0
sg5
F-8.0
sg6
F-6.0
sb(dp919
I00
F0.0
sI01
F55.47920200000001
ss(i__main__
State
p920
(dp921
g3
F2.0
sg4
F6.0
sg5
F-2.0
sg6
F2.0
sb(dp922
I00
I-63
sI01
F51.1
ss(i__main__
State
p923
(dp924
g3
F6.0
sg4
F9.0
sg5
F-6.0
sg6
F2.0
sb(dp925
I00
F30.0
sI01
F11.547080000000001
ss(i__main__
State
p926
(dp927
g3
F6.0
sg4
F4.0
sg5
F-6.0
sg6
F4.0
sb(dp928
I00
F20.060000000000002
sI01
F-52.8
ss(i__main__
State
p929
(dp930
g3
F-1.0
sg4
F10.0
sg5
F1.0
sg6
F-6.0
sb(dp931
I00
F10.0
sI01
F0.0
ss(i__main__
State
p932
(dp933
g3
F3.0
sg4
F3.0
sg5
F-3.0
sg6
F6.0
sb(dp934
I00
I44
sI01
F44.082
ss(i__main__
State
p935
(dp936
g3
F-6.0
sg4
F9.0
sg5
F6.0
sg6
F-4.0
sb(dp937
I00
F45.929
sI01
F0.0
ss(i__main__
State
p938
(dp939
g3
F8.0
sg4
F7.0
sg5
F-8.0
sg6
F4.0
sb(dp940
I00
F74.05400000000002
sI01
I39
ss(i__main__
State
p941
(dp942
g3
F-4.0
sg4
F6.0
sg5
F4.0
sg6
F-2.0
sb(dp943
I00
I-70
sI01
F-14.5
ss(i__main__
State
p944
(dp945
g3
F3.0
sg4
F9.0
sg5
F-3.0
sg6
F6.0
sb(dp946
I00
F20.0
sI01
F0.0
ss(i__main__
State
p947
(dp948
g3
F6.0
sg4
F2.0
sg5
F-6.0
sg6
F-8.0
sb(dp949
I00
F-34.7
sI01
I-22
ss(i__main__
State
p950
(dp951
g3
F-7.0
sg4
F4.0
sg5
F7.0
sg6
F6.0
sb(dp952
I00
F66.0
sI01
I95
ss(i__main__
State
p953
(dp954
g3
F-8.0
sg4
F9.0
sg5
F8.0
sg6
F2.0
sb(dp955
I00
F0.0
sI01
F21.0
ss(i__main__
State
p956
(dp957
g3
F2.0
sg4
F6.0
sg5
F-2.0
sg6
F-4.0
sb(dp958
I00
I-67
sI01
F-7.6
ss(i__main__
State
p959
(dp960
g3
F-7.0
sg4
F10.0
sg5
F7.0
sg6
F6.0
sb(dp961
I00
F29.654089
sI01
F0.0
ss(i__main__
State
p962
(dp963
g3
F6.0
sg4
F1.0
sg5
F-6.0
sg6
F-4.0
sb(dp964
I00
F-66.9
sI01
F18.206711000000002
ss(i__main__
State
p965
(dp966
g3
F8.0
sg4
F1.0
sg5
F-8.0
sg6
F-2.0
sb(dp967
I00
I38
sI01
F-44.3
ss(i__main__
State
p968
(dp969
g3
F-8.0
sg4
F1.0
sg5
F8.0
sg6
F2.0
sb(dp970
I00
F19.2
sI01
F-76.63
ss(i__main__
State
p971
(dp972
g3
F-4.0
sg4
F10.0
sg5
F4.0
sg6
F2.0
sb(dp973
I00
F10.0
sI01
F13.9
ss(i__main__
State
p974
(dp975
g3
F-4.0
sg4
F5.0
sg5
F4.0
sg6
F4.0
sb(dp976
I00
F29.65
sI01
I-36
ss(i__main__
State
p977
(dp978
g3
F-3.0
sg4
F6.0
sg5
F3.0
sg6
F-2.0
sb(dp979
I00
F88.337
sI01
F86.85
ss(i__main__
State
p980
(dp981
g3
F0.0
sg4
F8.0
sg5
F0.0
sg6
F4.0
sb(dp982
I00
F-1899.0
sI01
F-1897.63
ss(i__main__
State
p983
(dp984
g3
F-5.0
sg4
F7.0
sg5
F5.0
sg6
F0.0
sb(dp985
I00
F14.8
sI01
I-89
ss(i__main__
State
p986
(dp987
g3
F4.0
sg4
F6.0
sg5
F-4.0
sg6
F-8.0
sb(dp988
I00
I-52
sI01
F10.350000000000001
ss(i__main__
State
p989
(dp990
g3
F2.0
sg4
F3.0
sg5
F-2.0
sg6
F0.0
sb(dp991
I00
F91.7
sI01
I-21
ss(i__main__
State
p992
(dp993
g3
F-4.0
sg4
F7.0
sg5
F4.0
sg6
F4.0
sb(dp994
I00
F43.56
sI01
I-59
ss(i__main__
State
p995
(dp996
g3
F-4.0
sg4
F9.0
sg5
F4.0
sg6
F0.0
sb(dp997
I00
F-1898.1
sI01
F-1897.81
ss(i__main__
State
p998
(dp999
g3
F8.0
sg4
F9.0
sg5
F-8.0
sg6
F0.0
sb(dp1000
I00
F-1000.0
sI01
F0.0
ss(i__main__
State
p1001
(dp1002
g3
F8.0
sg4
F8.0
sg5
F-8.0
sg6
F-8.0
sb(dp1003
I00
F21.9
sI01
F0.0
ss(i__main__
State
p1004
(dp1005
g3
F4.0
sg4
F10.0
sg5
F-4.0
sg6
F4.0
sb(dp1006
I00
F20.0
sI01
F0.0
ss(i__main__
State
p1007
(dp1008
g3
F4.0
sg4
F2.0
sg5
F-4.0
sg6
F2.0
sb(dp1009
I00
F-5.699999999999999
sI01
F87.7
ss(i__main__
State
p1010
(dp1011
g3
F-1.0
sg4
F10.0
sg5
F1.0
sg6
F6.0
sb(dp1012
I00
F20.0
sI01
F15.9
ss(i__main__
State
p1013
(dp1014
g3
F6.0
sg4
F3.0
sg5
F-6.0
sg6
F-4.0
sb(dp1015
I00
I-79
sI01
F-4.879999999999999
ss(i__main__
State
p1016
(dp1017
g3
F4.0
sg4
F9.0
sg5
F-4.0
sg6
F4.0
sb(dp1018
I00
F20.0
sI01
F12.0
ss(i__main__
State
p1019
(dp1020
g3
F1.0
sg4
F2.0
sg5
F-1.0
sg6
F4.0
sb(dp1021
I00
F50.636
sI01
I49
ss(i__main__
State
p1022
(dp1023
g3
F3.0
sg4
F10.0
sg5
F-3.0
sg6
F0.0
sb(dp1024
I00
F33.592800000000004
sI01
F0.0
ss(i__main__
State
p1025
(dp1026
g3
F-3.0
sg4
F9.0
sg5
F3.0
sg6
F0.0
sb(dp1027
I00
F-1000.0
sI01
F0.0
ss(i__main__
State
p1028
(dp1029
g3
F3.0
sg4
F0.0
sg5
F-3.0
sg6
F4.0
sb(dp1030
I00
F-22.2
sI01
I-65
ss(i__main__
State
p1031
(dp1032
g3
F-2.0
sg4
F0.0
sg5
F2.0
sg6
F8.0
sb(dp1033
I00
I1
sI01
F53.2
ss(i__main__
State
p1034
(dp1035
g3
F7.0
sg4
F2.0
sg5
F-7.0
sg6
F0.0
sb(dp1036
I00
I-56
sI01
F4.8
ss(i__main__
State
p1037
(dp1038
g3
F-2.0
sg4
F10.0
sg5
F2.0
sg6
F2.0
sb(dp1039
I00
F43.539100000000005
sI01
F18.1
ss(i__main__
State
p1040
(dp1041
g3
F2.0
sg4
F1.0
sg5
F-2.0
sg6
F4.0
sb(dp1042
I00
I-34
sI01
F24.2
ss(i__main__
State
p1043
(dp1044
g3
F1.0
sg4
F5.0
sg5
F-1.0
sg6
F6.0
sb(dp1045
I00
F73.71
sI01
F1.3
ss(i__main__
State
p1046
(dp1047
g3
F4.0
sg4
F5.0
sg5
F-4.0
sg6
F-8.0
sb(dp1048
I00
F-87.1
sI01
F-8.5
ss(i__main__
State
p1049
(dp1050
g3
F1.0
sg4
F0.0
sg5
F-1.0
sg6
F8.0
sb(dp1051
I00
I-19
sI01
F68.9
ss(i__main__
State
p1052
(dp1053
g3
F6.0
sg4
F0.0
sg5
F-6.0
sg6
F2.0
sb(dp1054
I00
F-67.666
sI01
I52
ss(i__main__
State
p1055
(dp1056
g3
F-4.0
sg4
F10.0
sg5
F4.0
sg6
F-6.0
sb(dp1057
I00
F29.0
sI01
F17.6
ss(i__main__
State
p1058
(dp1059
g3
F-5.0
sg4
F8.0
sg5
F5.0
sg6
F6.0
sb(dp1060
I00
F12.0
sI01
F0.0
ss(i__main__
State
p1061
(dp1062
g3
F3.0
sg4
F2.0
sg5
F-3.0
sg6
F-2.0
sb(dp1063
I00
F-64.7635
sI01
I-43
ss(i__main__
State
p1064
(dp1065
g3
F-5.0
sg4
F4.0
sg5
F5.0
sg6
F-8.0
sb(dp1066
I00
I-5
sI01
F7.5600000000000005
ss(i__main__
State
p1067
(dp1068
g3
F-3.0
sg4
F6.0
sg5
F3.0
sg6
F6.0
sb(dp1069
I00
F-9.5
sI01
I52
ss(i__main__
State
p1070
(dp1071
g3
F-6.0
sg4
F0.0
sg5
F6.0
sg6
F4.0
sb(dp1072
I00
F73.5
sI01
I-46
ss(i__main__
State
p1073
(dp1074
g3
F4.0
sg4
F4.0
sg5
F-4.0
sg6
F0.0
sb(dp1075
I00
I-11
sI01
F33.48
ss(i__main__
State
p1076
(dp1077
g3
F-6.0
sg4
F2.0
sg5
F6.0
sg6
F-2.0
sb(dp1078
I00
F20.2
sI01
I11
ss(i__main__
State
p1079
(dp1080
g3
F1.0
sg4
F8.0
sg5
F-1.0
sg6
F4.0
sb(dp1081
I00
F-65.51000000000002
sI01
F0.0
ss(i__main__
State
p1082
(dp1083
g3
F4.0
sg4
F3.0
sg5
F-4.0
sg6
F-4.0
sb(dp1084
I00
F13.6
sI01
I-79
ss(i__main__
State
p1085
(dp1086
g3
F-3.0
sg4
F1.0
sg5
F3.0
sg6
F2.0
sb(dp1087
I00
I14
sI01
F35.388
ss(i__main__
State
p1088
(dp1089
g3
F3.0
sg4
F10.0
sg5
F-3.0
sg6
F-6.0
sb(dp1090
I00
F39.99
sI01
F30.490000000000002
ss(i__main__
State
p1091
(dp1092
g3
F-8.0
sg4
F4.0
sg5
F8.0
sg6
F8.0
sb(dp1093
I00
F21.0
sI01
I-20
ss(i__main__
State
p1094
(dp1095
g3
F5.0
sg4
F6.0
sg5
F-5.0
sg6
F4.0
sb(dp1096
I00
F62.776849999999996
sI01
I-86
ss(i__main__
State
p1097
(dp1098
g3
F2.0
sg4
F1.0
sg5
F-2.0
sg6
F2.0
sb(dp1099
I00
F-54.1
sI01
F70.443
ss(i__main__
State
p1100
(dp1101
g3
F-8.0
sg4
F5.0
sg5
F8.0
sg6
F-2.0
sb(dp1102
I00
I-73
sI01
F52.5
ss(i__main__
State
p1103
(dp1104
g3
F4.0
sg4
F8.0
sg5
F-4.0
sg6
F4.0
sb(dp1105
I00
F39.0
sI01
F0.0
ss(i__main__
State
p1106
(dp1107
g3
F5.0
sg4
F6.0
sg5
F-5.0
sg6
F-6.0
sb(dp1108
I00
F49.167
sI01
F63.4
ss(i__main__
State
p1109
(dp1110
g3
F1.0
sg4
F1.0
sg5
F-1.0
sg6
F6.0
sb(dp1111
I00
I-64
sI01
F-46.1
ss(i__main__
State
p1112
(dp1113
g3
F8.0
sg4
F8.0
sg5
F-8.0
sg6
F-6.0
sb(dp1114
I00
F20.0
sI01
F10.0
ss(i__main__
State
p1115
(dp1116
g3
F-1.0
sg4
F0.0
sg5
F1.0
sg6
F4.0
sb(dp1117
I00
F84.1
sI01
I-92
ss(i__main__
State
p1118
(dp1119
g3
F-2.0
sg4
F4.0
sg5
F2.0
sg6
F-6.0
sb(dp1120
I00
I6
sI01
F23.163999999999998
ss(i__main__
State
p1121
(dp1122
g3
F-6.0
sg4
F1.0
sg5
F6.0
sg6
F-6.0
sb(dp1123
I00
F52.847
sI01
I-96
ss(i__main__
State
p1124
(dp1125
g3
F6.0
sg4
F7.0
sg5
F-6.0
sg6
F-6.0
sb(dp1126
I00
F63.3
sI01
I-17
ss(i__main__
State
p1127
(dp1128
g3
F1.0
sg4
F6.0
sg5
F-1.0
sg6
F-4.0
sb(dp1129
I00
F93.7
sI01
I97
ss(i__main__
State
p1130
(dp1131
g3
F2.0
sg4
F10.0
sg5
F-2.0
sg6
F-8.0
sb(dp1132
I00
F0.0
sI01
F17.5
ss(i__main__
State
p1133
(dp1134
g3
F-2.0
sg4
F6.0
sg5
F2.0
sg6
F6.0
sb(dp1135
I00
I51
sI01
F68.18769999999999
ss(i__main__
State
p1136
(dp1137
g3
F0.0
sg4
F6.0
sg5
F0.0
sg6
F4.0
sb(dp1138
I00
F61.7
sI01
I-100
ss(i__main__
State
p1139
(dp1140
g3
F3.0
sg4
F9.0
sg5
F-3.0
sg6
F0.0
sb(dp1141
I00
F-1000.0
sI01
F-1897.1
ss(i__main__
State
p1142
(dp1143
g3
F5.0
sg4
F10.0
sg5
F-5.0
sg6
F-2.0
sb(dp1144
I00
F22.0
sI01
F0.0
ss(i__main__
State
p1145
(dp1146
g3
F-1.0
sg4
F2.0
sg5
F1.0
sg6
F-8.0
sb(dp1147
I00
F56.4
sI01
I62
ss(i__main__
State
p1148
(dp1149
g3
F6.0
sg4
F9.0
sg5
F-6.0
sg6
F4.0
sb(dp1150
I00
F20.0
sI01
F0.0
ss(i__main__
State
p1151
(dp1152
g3
F-2.0
sg4
F10.0
sg5
F2.0
sg6
F4.0
sb(dp1153
I00
F20.914
sI01
F0.0
ss(i__main__
State
p1154
(dp1155
g3
F8.0
sg4
F4.0
sg5
F-8.0
sg6
F-2.0
sb(dp1156
I00
F-74.5
sI01
F60.33294000000001
ss(i__main__
State
p1157
(dp1158
g3
F3.0
sg4
F10.0
sg5
F-3.0
sg6
F-4.0
sb(dp1159
I00
F29.0
sI01
F0.0
ss(i__main__
State
p1160
(dp1161
g3
F-5.0
sg4
F9.0
sg5
F5.0
sg6
F-6.0
sb(dp1162
I00
F39.99
sI01
F0.0
ss(i__main__
State
p1163
(dp1164
g3
F-8.0
sg4
F9.0
sg5
F8.0
sg6
F-6.0
sb(dp1165
I00
F10.0
sI01
F0.0
ss(i__main__
State
p1166
(dp1167
g3
F0.0
sg4
F7.0
sg5
F0.0
sg6
F-4.0
sb(dp1168
I00
I-83
sI01
F87.4
ss(i__main__
State
p1169
(dp1170
g3
F-7.0
sg4
F2.0
sg5
F7.0
sg6
F8.0
sb(dp1171
I00
F65.06
sI01
F38.1842
ss(i__main__
State
p1172
(dp1173
g3
F5.0
sg4
F9.0
sg5
F-5.0
sg6
F6.0
sb(dp1174
I00
F20.0
sI01
F0.0
ss(i__main__
State
p1175
(dp1176
g3
F-2.0
sg4
F8.0
sg5
F2.0
sg6
F-2.0
sb(dp1177
I00
F30.0
sI01
F0.0
ss(i__main__
State
p1178
(dp1179
g3
F-3.0
sg4
F6.0
sg5
F3.0
sg6
F-8.0
sb(dp1180
I00
I-5
sI01
F75.78
ss(i__main__
State
p1181
(dp1182
g3
F2.0
sg4
F5.0
sg5
F-2.0
sg6
F-8.0
sb(dp1183
I00
F87.39
sI01
I-21
ss(i__main__
State
p1184
(dp1185
g3
F-5.0
sg4
F0.0
sg5
F5.0
sg6
F-4.0
sb(dp1186
I00
I48
sI01
F70.7
ss(i__main__
State
p1187
(dp1188
g3
F1.0
sg4
F9.0
sg5
F-1.0
sg6
F4.0
sb(dp1189
I00
F10.0
sI01
F0.0
ss(i__main__
State
p1190
(dp1191
g3
F5.0
sg4
F1.0
sg5
F-5.0
sg6
F-6.0
sb(dp1192
I00
F-44.4
sI01
F45.769999999999996
ss(i__main__
State
p1193
(dp1194
g3
F0.0
sg4
F10.0
sg5
F0.0
sg6
F8.0
sb(dp1195
I00
F-1000.0
sI01
F-993.1
ss(i__main__
State
p1196
(dp1197
g3
F3.0
sg4
F5.0
sg5
F-3.0
sg6
F4.0
sb(dp1198
I00
F-10.79
sI01
I-65
ss(i__main__
State
p1199
(dp1200
g3
F4.0
sg4
F9.0
sg5
F-4.0
sg6
F0.0
sb(dp1201
I00
F-1000.0
sI01
F0.0
ss(i__main__
State
p1202
(dp1203
g3
F-8.0
sg4
F2.0
sg5
F8.0
sg6
F8.0
sb(dp1204
I00
F-40.2
sI01
I2
ss(i__main__
State
p1205
(dp1206
g3
F7.0
sg4
F2.0
sg5
F-7.0
sg6
F-6.0
sb(dp1207
I00
I-52
sI01
F45.07
ss(i__main__
State
p1208
(dp1209
g3
F3.0
sg4
F9.0
sg5
F-3.0
sg6
F8.0
sb(dp1210
I00
F20.0
sI01
F10.0
ss(i__main__
State
p1211
(dp1212
g3
F8.0
sg4
F1.0
sg5
F-8.0
sg6
F4.0
sb(dp1213
I00
I-35
sI01
F35.7
ss(i__main__
State
p1214
(dp1215
g3
F-4.0
sg4
F2.0
sg5
F4.0
sg6
F4.0
sb(dp1216
I00
F78.553
sI01
F65.5
ss(i__main__
State
p1217
(dp1218
g3
F3.0
sg4
F5.0
sg5
F-3.0
sg6
F-8.0
sb(dp1219
I00
F44.9
sI01
I-18
ss(i__main__
State
p1220
(dp1221
g3
F3.0
sg4
F6.0
sg5
F-3.0
sg6
F8.0
sb(dp1222
I00
I25
sI01
F50.37111
ss(i__main__
State
p1223
(dp1224
g3
F2.0
sg4
F4.0
sg5
F-2.0
sg6
F0.0
sb(dp1225
I00
I44
sI01
F91.6
ss(i__main__
State
p1226
(dp1227
g3
F-2.0
sg4
F7.0
sg5
F2.0
sg6
F6.0
sb(dp1228
I00
F-27.3
sI01
F-29.5
ss(i__main__
State
p1229
(dp1230
g3
F2.0
sg4
F7.0
sg5
F-2.0
sg6
F-8.0
sb(dp1231
I00
F43.8506
sI01
F56.08
ss(i__main__
State
p1232
(dp1233
g3
F-7.0
sg4
F2.0
sg5
F7.0
sg6
F0.0
sb(dp1234
I00
F-18.2
sI01
I-65
ss(i__main__
State
p1235
(dp1236
g3
F-7.0
sg4
F9.0
sg5
F7.0
sg6
F-2.0
sb(dp1237
I00
F-72.9
sI01
F30.28
ss(i__main__
State
p1238
(dp1239
g3
F-4.0
sg4
F0.0
sg5
F4.0
sg6
F-8.0
sb(dp1240
I00
F78.59899999999999
sI01
F27.9
ss(i__main__
State
p1241
(dp1242
g3
F1.0
sg4
F10.0
sg5
F-1.0
sg6
F2.0
sb(dp1243
I00
F-59.259
sI01
F0.0
ss(i__main__
State
p1244
(dp1245
g3
F8.0
sg4
F9.0
sg5
F-8.0
sg6
F2.0
sb(dp1246
I00
F32.711
sI01
F0.0
ss(i__main__
State
p1247
(dp1248
g3
F-4.0
sg4
F0.0
sg5
F4.0
sg6
F4.0
sb(dp1249
I00
F84.75
sI01
I-77
ss(i__main__
State
p1250
(dp1251
g3
F-4.0
sg4
F3.0
sg5
F4.0
sg6
F6.0
sb(dp1252
I00
I15
sI01
F91.4
ss(i__main__
State
p1253
(dp1254
g3
F-5.0
sg4
F8.0
sg5
F5.0
sg6
F-8.0
sb(dp1255
I00
F10.0
sI01
F0.0
ss(i__main__
State
p1256
(dp1257
g3
F2.0
sg4
F7.0
sg5
F-2.0
sg6
F2.0
sb(dp1258
I00
I80
sI01
F41.4
ss(i__main__
State
p1259
(dp1260
g3
F0.0
sg4
F10.0
sg5
F0.0
sg6
F0.0
sb(dp1261
I00
F-2706.056
sI01
F-993.6
ss(i__main__
State
p1262
(dp1263
g3
F-7.0
sg4
F3.0
sg5
F7.0
sg6
F2.0
sb(dp1264
I00
F34.55
sI01
I-68
ss(i__main__
State
p1265
(dp1266
g3
F7.0
sg4
F1.0
sg5
F-7.0
sg6
F-2.0
sb(dp1267
I00
F8.042000000000002
sI01
F77.27
ss(i__main__
State
p1268
(dp1269
g3
F3.0
sg4
F9.0
sg5
F-3.0
sg6
F-4.0
sb(dp1270
I00
F10.0
sI01
F0.0
ss(i__main__
State
p1271
(dp1272
g3
F-5.0
sg4
F0.0
sg5
F5.0
sg6
F2.0
sb(dp1273
I00
F92.9
sI01
I-77
ss(i__main__
State
p1274
(dp1275
g3
F-7.0
sg4
F9.0
sg5
F7.0
sg6
F2.0
sb(dp1276
I00
F0.0
sI01
F21.9
ss(i__main__
State
p1277
(dp1278
g3
F6.0
sg4
F8.0
sg5
F-6.0
sg6
F0.0
sb(dp1279
I00
F40.0
sI01
F10.0
ss(i__main__
State
p1280
(dp1281
g3
F3.0
sg4
F3.0
sg5
F-3.0
sg6
F-4.0
sb(dp1282
I00
I-63
sI01
F-47.9
ss(i__main__
State
p1283
(dp1284
g3
F2.0
sg4
F2.0
sg5
F-2.0
sg6
F-4.0
sb(dp1285
I00
I-31
sI01
F64.55
ss(i__main__
State
p1286
(dp1287
g3
F-6.0
sg4
F9.0
sg5
F6.0
sg6
F0.0
sb(dp1288
I00
F-1898.9
sI01
F-1000.0
ss(i__main__
State
p1289
(dp1290
g3
F0.0
sg4
F0.0
sg5
F0.0
sg6
F-6.0
sb(dp1291
I00
I-38
sI01
F0.20999999999999996
ss(i__main__
State
p1292
(dp1293
g3
F7.0
sg4
F8.0
sg5
F-7.0
sg6
F2.0
sb(dp1294
I00
F30.317
sI01
F11.0
ss(i__main__
State
p1295
(dp1296
g3
F6.0
sg4
F4.0
sg5
F-6.0
sg6
F-2.0
sb(dp1297
I00
F61.41
sI01
F35.244099999999996
ss(i__main__
State
p1298
(dp1299
g3
F2.0
sg4
F8.0
sg5
F-2.0
sg6
F6.0
sb(dp1300
I00
F20.0
sI01
F0.0
ss(i__main__
State
p1301
(dp1302
g3
F1.0
sg4
F0.0
sg5
F-1.0
sg6
F0.0
sb(dp1303
I00
I-92
sI01
F-30.299999999999997
ss(i__main__
State
p1304
(dp1305
g3
F3.0
sg4
F4.0
sg5
F-3.0
sg6
F-4.0
sb(dp1306
I00
I-20
sI01
F51.638999999999996
ss(i__main__
State
p1307
(dp1308
g3
F-8.0
sg4
F9.0
sg5
F8.0
sg6
F-2.0
sb(dp1309
I00
F10.0
sI01
F0.0
ss(i__main__
State
p1310
(dp1311
g3
F-3.0
sg4
F7.0
sg5
F3.0
sg6
F4.0
sb(dp1312
I00
F12.96
sI01
I9
ss(i__main__
State
p1313
(dp1314
g3
F-1.0
sg4
F7.0
sg5
F1.0
sg6
F-8.0
sb(dp1315
I00
F8.921
sI01
F13.753006
ss(i__main__
State
p1316
(dp1317
g3
F-2.0
sg4
F2.0
sg5
F2.0
sg6
F8.0
sb(dp1318
I00
I21
sI01
F-41.1
ss(i__main__
State
p1319
(dp1320
g3
F0.0
sg4
F7.0
sg5
F0.0
sg6
F6.0
sb(dp1321
I00
F-51.1
sI01
I-100
ss(i__main__
State
p1322
(dp1323
g3
F-8.0
sg4
F7.0
sg5
F8.0
sg6
F0.0
sb(dp1324
I00
F86.76
sI01
I13
ss(i__main__
State
p1325
(dp1326
g3
F8.0
sg4
F10.0
sg5
F-8.0
sg6
F6.0
sb(dp1327
I00
F69.9144
sI01
F13.8
ss(i__main__
State
p1328
(dp1329
g3
F7.0
sg4
F5.0
sg5
F-7.0
sg6
F6.0
sb(dp1330
I00
F79.8492
sI01
I-76
ss(i__main__
State
p1331
(dp1332
g3
F-2.0
sg4
F4.0
sg5
F2.0
sg6
F-4.0
sb(dp1333
I00
I-87
sI01
F51.251760000000004
ss(i__main__
State
p1334
(dp1335
g3
F8.0
sg4
F2.0
sg5
F-8.0
sg6
F0.0
sb(dp1336
I00
I-97
sI01
F-11.5
ss(i__main__
State
p1337
(dp1338
g3
F0.0
sg4
F9.0
sg5
F0.0
sg6
F-8.0
sb(dp1339
I00
F12.0
sI01
F0.0
ss(i__main__
State
p1340
(dp1341
g3
F-7.0
sg4
F0.0
sg5
F7.0
sg6
F-2.0
sb(dp1342
I00
I-87
sI01
F-85.5
ss(i__main__
State
p1343
(dp1344
g3
F-6.0
sg4
F9.0
sg5
F6.0
sg6
F8.0
sb(dp1345
I00
F20.0
sI01
F0.0
ss(i__main__
State
p1346
(dp1347
g3
F3.0
sg4
F8.0
sg5
F-3.0
sg6
F-8.0
sb(dp1348
I00
F39.99
sI01
F10.0
ss(i__main__
State
p1349
(dp1350
g3
F-3.0
sg4
F1.0
sg5
F3.0
sg6
F4.0
sb(dp1351
I00
I19
sI01
F30.849999999999998
ss(i__main__
State
p1352
(dp1353
g3
F1.0
sg4
F6.0
sg5
F-1.0
sg6
F6.0
sb(dp1354
I00
F40.6188
sI01
I-11
ss(i__main__
State
p1355
(dp1356
g3
F-1.0
sg4
F7.0
sg5
F1.0
sg6
F8.0
sb(dp1357
I00
F-23.0
sI01
I-49
ss(i__main__
State
p1358
(dp1359
g3
F1.0
sg4
F7.0
sg5
F-1.0
sg6
F-4.0
sb(dp1360
I00
F45.43
sI01
F-55.0
ss(i__main__
State
p1361
(dp1362
g3
F-3.0
sg4
F8.0
sg5
F3.0
sg6
F0.0
sb(dp1363
I00
F31.19
sI01
F0.0
ss(i__main__
State
p1364
(dp1365
g3
F5.0
sg4
F2.0
sg5
F-5.0
sg6
F4.0
sb(dp1366
I00
I39
sI01
F78.2
ss(i__main__
State
p1367
(dp1368
g3
F4.0
sg4
F0.0
sg5
F-4.0
sg6
F-2.0
sb(dp1369
I00
F28.67
sI01
F67.886
ss(i__main__
State
p1370
(dp1371
g3
F-6.0
sg4
F10.0
sg5
F6.0
sg6
F6.0
sb(dp1372
I00
F10.0
sI01
F0.0
ss(i__main__
State
p1373
(dp1374
g3
F-1.0
sg4
F4.0
sg5
F1.0
sg6
F-8.0
sb(dp1375
I00
F14.344
sI01
I7
ss(i__main__
State
p1376
(dp1377
g3
F-2.0
sg4
F2.0
sg5
F2.0
sg6
F0.0
sb(dp1378
I00
I-72
sI01
F-25.42
ss(i__main__
State
p1379
(dp1380
g3
F-5.0
sg4
F2.0
sg5
F5.0
sg6
F-4.0
sb(dp1381
I00
I4
sI01
F46.853
ss(i__main__
State
p1382
(dp1383
g3
F-6.0
sg4
F3.0
sg5
F6.0
sg6
F-2.0
sb(dp1384
I00
F35.8498
sI01
I-84
ss(i__main__
State
p1385
(dp1386
g3
F-8.0
sg4
F8.0
sg5
F8.0
sg6
F-6.0
sb(dp1387
I00
F23.8
sI01
F0.0
ss(i__main__
State
p1388
(dp1389
g3
F-2.0
sg4
F8.0
sg5
F2.0
sg6
F-8.0
sb(dp1390
I00
F20.1
sI01
F0.0
ss(i__main__
State
p1391
(dp1392
g3
F-6.0
sg4
F6.0
sg5
F6.0
sg6
F-4.0
sb(dp1393
I00
F-11.0
sI01
F88.3
ss(i__main__
State
p1394
(dp1395
g3
F0.0
sg4
F5.0
sg5
F0.0
sg6
F-4.0
sb(dp1396
I00
F10.84
sI01
I-15
ss(i__main__
State
p1397
(dp1398
g3
F-3.0
sg4
F9.0
sg5
F3.0
sg6
F8.0
sb(dp1399
I00
F10.0
sI01
F0.0
ss(i__main__
State
p1400
(dp1401
g3
F-5.0
sg4
F1.0
sg5
F5.0
sg6
F-8.0
sb(dp1402
I00
F73.97
sI01
I-23
ss(i__main__
State
p1403
(dp1404
g3
F-1.0
sg4
F4.0
sg5
F1.0
sg6
F2.0
sb(dp1405
I00
F-40.3
sI01
F18.228099999999998
ss(i__main__
State
p1406
(dp1407
g3
F-6.0
sg4
F4.0
sg5
F6.0
sg6
F0.0
sb(dp1408
I00
F-14.897100000000004
sI01
I-49
ss(i__main__
State
p1409
(dp1410
g3
F-3.0
sg4
F7.0
sg5
F3.0
sg6
F-2.0
sb(dp1411
I00
I60
sI01
F56.8
ss(i__main__
State
p1412
(dp1413
g3
F2.0
sg4
F4.0
sg5
F-2.0
sg6
F6.0
sb(dp1414
I00
I-94
sI01
F78.19
ss(i__main__
State
p1415
(dp1416
g3
F1.0
sg4
F2.0
sg5
F-1.0
sg6
F-2.0
sb(dp1417
I00
I-92
sI01
F10.626790000000002
ss(i__main__
State
p1418
(dp1419
g3
F3.0
sg4
F4.0
sg5
F-3.0
sg6
F4.0
sb(dp1420
I00
F16.4
sI01
F69.4
ss(i__main__
State
p1421
(dp1422
g3
F-2.0
sg4
F7.0
sg5
F2.0
sg6
F2.0
sb(dp1423
I00
F-81.0
sI01
I-73
ss(i__main__
State
p1424
(dp1425
g3
F-4.0
sg4
F6.0
sg5
F4.0
sg6
F-6.0
sb(dp1426
I00
F-77.9
sI01
I-93
ss(i__main__
State
p1427
(dp1428
g3
F-1.0
sg4
F7.0
sg5
F1.0
sg6
F0.0
sb(dp1429
I00
F-43.3
sI01
F32.6
ss(i__main__
State
p1430
(dp1431
g3
F-1.0
sg4
F8.0
sg5
F1.0
sg6
F-4.0
sb(dp1432
I00
F30.0
sI01
F0.0
ss(i__main__
State
p1433
(dp1434
g3
F-3.0
sg4
F8.0
sg5
F3.0
sg6
F8.0
sb(dp1435
I00
F30.1
sI01
F0.0
ss(i__main__
State
p1436
(dp1437
g3
F-6.0
sg4
F8.0
sg5
F6.0
sg6
F8.0
sb(dp1438
I00
F29.0
sI01
F0.0
ss(i__main__
State
p1439
(dp1440
g3
F4.0
sg4
F1.0
sg5
F-4.0
sg6
F-8.0
sb(dp1441
I00
F-4.399999999999999
sI01
F20.580000000000002
ss(i__main__
State
p1442
(dp1443
g3
F3.0
sg4
F1.0
sg5
F-3.0
sg6
F-6.0
sb(dp1444
I00
F76.98
sI01
I21
ss(i__main__
State
p1445
(dp1446
g3
F-8.0
sg4
F8.0
sg5
F8.0
sg6
F-2.0
sb(dp1447
I00
F10.0
sI01
F0.0
ss(i__main__
State
p1448
(dp1449
g3
F7.0
sg4
F7.0
sg5
F-7.0
sg6
F-8.0
sb(dp1450
I00
F48.0
sI01
I-58
ss(i__main__
State
p1451
(dp1452
g3
F-4.0
sg4
F10.0
sg5
F4.0
sg6
F6.0
sb(dp1453
I00
F50.037
sI01
F0.0
ss(i__main__
State
p1454
(dp1455
g3
F-1.0
sg4
F6.0
sg5
F1.0
sg6
F8.0
sb(dp1456
I00
F62.5
sI01
F-8.45
ss(i__main__
State
p1457
(dp1458
g3
F-8.0
sg4
F3.0
sg5
F8.0
sg6
F6.0
sb(dp1459
I00
I-2
sI01
F51.606
ss(i__main__
State
p1460
(dp1461
g3
F-1.0
sg4
F0.0
sg5
F1.0
sg6
F-8.0
sb(dp1462
I00
I-74
sI01
F71.0
ss(i__main__
State
p1463
(dp1464
g3
F-2.0
sg4
F3.0
sg5
F2.0
sg6
F8.0
sb(dp1465
I00
I-2
sI01
F10.82
ss(i__main__
State
p1466
(dp1467
g3
F4.0
sg4
F0.0
sg5
F-4.0
sg6
F6.0
sb(dp1468
I00
F55.110299999999995
sI01
F-25.799999999999997
ss(i__main__
State
p1469
(dp1470
g3
F-1.0
sg4
F9.0
sg5
F1.0
sg6
F6.0
sb(dp1471
I00
F0.0
sI01
F35.14
ss(i__main__
State
p1472
(dp1473
g3
F7.0
sg4
F6.0
sg5
F-7.0
sg6
F2.0
sb(dp1474
I00
F76.89599999999999
sI01
I-4
ss(i__main__
State
p1475
(dp1476
g3
F1.0
sg4
F10.0
sg5
F-1.0
sg6
F-8.0
sb(dp1477
I00
F-64.77000000000001
sI01
F17.080000000000002
ss(i__main__
State
p1478
(dp1479
g3
F-6.0
sg4
F9.0
sg5
F6.0
sg6
F-8.0
sb(dp1480
I00
F0.0
sI01
F11.0
ss(i__main__
State
p1481
(dp1482
g3
F-1.0
sg4
F6.0
sg5
F1.0
sg6
F-8.0
sb(dp1483
I00
I-49
sI01
F58.5579
ss(i__main__
State
p1484
(dp1485
g3
F8.0
sg4
F7.0
sg5
F-8.0
sg6
F0.0
sb(dp1486
I00
F-81.11777000000001
sI01
F24.781
ss(i__main__
State
p1487
(dp1488
g3
F-5.0
sg4
F0.0
sg5
F5.0
sg6
F-6.0
sb(dp1489
I00
F88.4
sI01
F-39.160000000000004
ss(i__main__
State
p1490
(dp1491
g3
F3.0
sg4
F3.0
sg5
F-3.0
sg6
F-6.0
sb(dp1492
I00
F49.6
sI01
I-53
ss(i__main__
State
p1493
(dp1494
g3
F-2.0
sg4
F2.0
sg5
F2.0
sg6
F4.0
sb(dp1495
I00
I-26
sI01
F-96.1
ss(i__main__
State
p1496
(dp1497
g3
F4.0
sg4
F10.0
sg5
F-4.0
sg6
F-4.0
sb(dp1498
I00
F49.999
sI01
F0.0
ss(i__main__
State
p1499
(dp1500
g3
F6.0
sg4
F1.0
sg5
F-6.0
sg6
F-8.0
sb(dp1501
I00
F-19.696
sI01
I-95
ss(i__main__
State
p1502
(dp1503
g3
F-4.0
sg4
F9.0
sg5
F4.0
sg6
F-2.0
sb(dp1504
I00
F10.0
sI01
F0.0
ss(i__main__
State
p1505
(dp1506
g3
F1.0
sg4
F3.0
sg5
F-1.0
sg6
F2.0
sb(dp1507
I00
F67.8235
sI01
I-34
ss(i__main__
State
p1508
(dp1509
g3
F5.0
sg4
F0.0
sg5
F-5.0
sg6
F4.0
sb(dp1510
I00
F68.752
sI01
I32
ss(i__main__
State
p1511
(dp1512
g3
F4.0
sg4
F5.0
sg5
F-4.0
sg6
F8.0
sb(dp1513
I00
I-62
sI01
F36.2
ss(i__main__
State
p1514
(dp1515
g3
F4.0
sg4
F3.0
sg5
F-4.0
sg6
F6.0
sb(dp1516
I00
I-84
sI01
F-31.5
ss(i__main__
State
p1517
(dp1518
g3
F0.0
sg4
F8.0
sg5
F0.0
sg6
F-8.0
sb(dp1519
I00
F-2707.1
sI01
F-1899.0
ss(i__main__
State
p1520
(dp1521
g3
F-6.0
sg4
F8.0
sg5
F6.0
sg6
F-6.0
sb(dp1522
I00
F10.0
sI01
F0.0
ss(i__main__
State
p1523
(dp1524
g3
F6.0
sg4
F6.0
sg5
F-6.0
sg6
F4.0
sb(dp1525
I00
I-64
sI01
F47.501999999999995
ss(i__main__
State
p1526
(dp1527
g3
F-4.0
sg4
F7.0
sg5
F4.0
sg6
F0.0
sb(dp1528
I00
I-45
sI01
F52.94
ss(i__main__
State
p1529
(dp1530
g3
F-3.0
sg4
F2.0
sg5
F3.0
sg6
F-4.0
sb(dp1531
I00
F-11.07
sI01
F31.8
ss(i__main__
State
p1532
(dp1533
g3
F0.0
sg4
F3.0
sg5
F0.0
sg6
F8.0
sb(dp1534
I00
I-81
sI01
F12.1
ss(i__main__
State
p1535
(dp1536
g3
F8.0
sg4
F7.0
sg5
F-8.0
sg6
F8.0
sb(dp1537
I00
F81.0
sI01
I3
ss(i__main__
State
p1538
(dp1539
g3
F-4.0
sg4
F1.0
sg5
F4.0
sg6
F0.0
sb(dp1540
I00
F37.3
sI01
I8
ss(i__main__
State
p1541
(dp1542
g3
F-4.0
sg4
F0.0
sg5
F4.0
sg6
F-2.0
sb(dp1543
I00
I25
sI01
F67.09
ss(i__main__
State
p1544
(dp1545
g3
F1.0
sg4
F7.0
sg5
F-1.0
sg6
F-8.0
sb(dp1546
I00
I-32
sI01
F-220.122
ss(i__main__
State
p1547
(dp1548
g3
F8.0
sg4
F1.0
sg5
F-8.0
sg6
F-4.0
sb(dp1549
I00
F0.8294000000000015
sI01
I-99
ss(i__main__
State
p1550
(dp1551
g3
F-7.0
sg4
F9.0
sg5
F7.0
sg6
F4.0
sb(dp1552
I00
F20.0
sI01
F0.0
ss(i__main__
State
p1553
(dp1554
g3
F4.0
sg4
F4.0
sg5
F-4.0
sg6
F8.0
sb(dp1555
I00
I-89
sI01
F-64.2
ss(i__main__
State
p1556
(dp1557
g3
F4.0
sg4
F2.0
sg5
F-4.0
sg6
F0.0
sb(dp1558
I00
I-51
sI01
F6.299099999999999
ss(i__main__
State
p1559
(dp1560
g3
F-5.0
sg4
F1.0
sg5
F5.0
sg6
F2.0
sb(dp1561
I00
I26
sI01
F87.8
ss(i__main__
State
p1562
(dp1563
g3
F-2.0
sg4
F0.0
sg5
F2.0
sg6
F-2.0
sb(dp1564
I00
F82.41799999999999
sI01
I-60
ss(i__main__
State
p1565
(dp1566
g3
F-3.0
sg4
F4.0
sg5
F3.0
sg6
F6.0
sb(dp1567
I00
F-5.9399999999999995
sI01
I-34
ss(i__main__
State
p1568
(dp1569
g3
F-7.0
sg4
F0.0
sg5
F7.0
sg6
F-6.0
sb(dp1570
I00
I-85
sI01
F-66.1
ss(i__main__
State
p1571
(dp1572
g3
F-6.0
sg4
F1.0
sg5
F6.0
sg6
F6.0
sb(dp1573
I00
I-98
sI01
F63.1
ss(i__main__
State
p1574
(dp1575
g3
F-7.0
sg4
F0.0
sg5
F7.0
sg6
F8.0
sb(dp1576
I00
F-10.88
sI01
I-96
ss(i__main__
State
p1577
(dp1578
g3
F1.0
sg4
F4.0
sg5
F-1.0
sg6
F6.0
sb(dp1579
I00
F-28.128999999999998
sI01
F8.3
ss(i__main__
State
p1580
(dp1581
g3
F2.0
sg4
F10.0
sg5
F-2.0
sg6
F4.0
sb(dp1582
I00
F20.0
sI01
F16.0
ss(i__main__
State
p1583
(dp1584
g3
F4.0
sg4
F8.0
sg5
F-4.0
sg6
F-6.0
sb(dp1585
I00
F0.0
sI01
F10.0
ss(i__main__
State
p1586
(dp1587
g3
F-1.0
sg4
F9.0
sg5
F1.0
sg6
F0.0
sb(dp1588
I00
F-1899.0
sI01
F-1000.0
ss(i__main__
State
p1589
(dp1590
g3
F1.0
sg4
F7.0
sg5
F-1.0
sg6
F4.0
sb(dp1591
I00
F-7.2
sI01
I-8
ss(i__main__
State
p1592
(dp1593
g3
F0.0
sg4
F3.0
sg5
F0.0
sg6
F0.0
sb(dp1594
I00
I-12
sI01
F7.3632100000000005
ss(i__main__
State
p1595
(dp1596
g3
F-1.0
sg4
F1.0
sg5
F1.0
sg6
F2.0
sb(dp1597
I00
F5.2
sI01
F76.6
ss(i__main__
State
p1598
(dp1599
g3
F5.0
sg4
F4.0
sg5
F-5.0
sg6
F-4.0
sb(dp1600
I00
I54
sI01
F72.9
ss(i__main__
State
p1601
(dp1602
g3
F-5.0
sg4
F10.0
sg5
F5.0
sg6
F8.0
sb(dp1603
I00
F50.523
sI01
F0.0
ss(i__main__
State
p1604
(dp1605
g3
F-2.0
sg4
F7.0
sg5
F2.0
sg6
F-6.0
sb(dp1606
I00
I37
sI01
F43.4858
ss(i__main__
State
p1607
(dp1608
g3
F5.0
sg4
F2.0
sg5
F-5.0
sg6
F2.0
sb(dp1609
I00
I-49
sI01
F30.621399999999998
ss(i__main__
State
p1610
(dp1611
g3
F7.0
sg4
F9.0
sg5
F-7.0
sg6
F-8.0
sb(dp1612
I00
F58.099000000000004
sI01
F0.0
ss(i__main__
State
p1613
(dp1614
g3
F8.0
sg4
F0.0
sg5
F-8.0
sg6
F4.0
sb(dp1615
I00
F78.36699999999999
sI01
I-32
ss(i__main__
State
p1616
(dp1617
g3
F1.0
sg4
F5.0
sg5
F-1.0
sg6
F-6.0
sb(dp1618
I00
F30.13
sI01
I24
ss(i__main__
State
p1619
(dp1620
g3
F-5.0
sg4
F2.0
sg5
F5.0
sg6
F4.0
sb(dp1621
I00
F68.851
sI01
I61
ss(i__main__
State
p1622
(dp1623
g3
F-5.0
sg4
F3.0
sg5
F5.0
sg6
F-8.0
sb(dp1624
I00
F48.18
sI01
I-53
ss(i__main__
State
p1625
(dp1626
g3
F5.0
sg4
F2.0
sg5
F-5.0
sg6
F-6.0
sb(dp1627
I00
I-5
sI01
F-14.7
ss(i__main__
State
p1628
(dp1629
g3
F-5.0
sg4
F1.0
sg5
F5.0
sg6
F8.0
sb(dp1630
I00
I37
sI01
F60.435856
ss(i__main__
State
p1631
(dp1632
g3
F-3.0
sg4
F8.0
sg5
F3.0
sg6
F-2.0
sb(dp1633
I00
F10.0
sI01
F0.0
ss(i__main__
State
p1634
(dp1635
g3
F-1.0
sg4
F2.0
sg5
F1.0
sg6
F2.0
sb(dp1636
I00
I-62
sI01
F39.1
ss(i__main__
State
p1637
(dp1638
g3
F2.0
sg4
F6.0
sg5
F-2.0
sg6
F8.0
sb(dp1639
I00
I11
sI01
F-7.1
ss(i__main__
State
p1640
(dp1641
g3
F-3.0
sg4
F1.0
sg5
F3.0
sg6
F-8.0
sb(dp1642
I00
F-52.4
sI01
I1
ss(i__main__
State
p1643
(dp1644
g3
F3.0
sg4
F8.0
sg5
F-3.0
sg6
F6.0
sb(dp1645
I00
F20.0
sI01
F22.2878
ss(i__main__
State
p1646
(dp1647
g3
F7.0
sg4
F0.0
sg5
F-7.0
sg6
F0.0
sb(dp1648
I00
I-60
sI01
F71.8
ss(i__main__
State
p1649
(dp1650
g3
F-1.0
sg4
F5.0
sg5
F1.0
sg6
F4.0
sb(dp1651
I00
F-59.15
sI01
I-71
ss(i__main__
State
p1652
(dp1653
g3
F-5.0
sg4
F9.0
sg5
F5.0
sg6
F-2.0
sb(dp1654
I00
F-81.0
sI01
F55.554749
ss(i__main__
State
p1655
(dp1656
g3
F5.0
sg4
F3.0
sg5
F-5.0
sg6
F8.0
sb(dp1657
I00
F32.3
sI01
I0
ss(i__main__
State
p1658
(dp1659
g3
F-8.0
sg4
F5.0
sg5
F8.0
sg6
F-6.0
sb(dp1660
I00
F-4.389999999999999
sI01
F-62.099999999999994
ss(i__main__
State
p1661
(dp1662
g3
F-1.0
sg4
F9.0
sg5
F1.0
sg6
F8.0
sb(dp1663
I00
F30.0
sI01
F0.0
ss(i__main__
State
p1664
(dp1665
g3
F-8.0
sg4
F8.0
sg5
F8.0
sg6
F-4.0
sb(dp1666
I00
F40.0
sI01
F0.0
ss(i__main__
State
p1667
(dp1668
g3
F-4.0
sg4
F0.0
sg5
F4.0
sg6
F8.0
sb(dp1669
I00
F36.5
sI01
F89.82000000000001
ss(i__main__
State
p1670
(dp1671
g3
F7.0
sg4
F3.0
sg5
F-7.0
sg6
F2.0
sb(dp1672
I00
I-49
sI01
F76.706
ss(i__main__
State
p1673
(dp1674
g3
F5.0
sg4
F1.0
sg5
F-5.0
sg6
F-2.0
sb(dp1675
I00
F52.4
sI01
I46
ss(i__main__
State
p1676
(dp1677
g3
F3.0
sg4
F0.0
sg5
F-3.0
sg6
F-6.0
sb(dp1678
I00
I-42
sI01
F8.67
ss(i__main__
State
p1679
(dp1680
g3
F0.0
sg4
F3.0
sg5
F0.0
sg6
F-4.0
sb(dp1681
I00
I-99
sI01
F67.3
ss(i__main__
State
p1682
(dp1683
g3
F7.0
sg4
F9.0
sg5
F-7.0
sg6
F2.0
sb(dp1684
I00
F10.0
sI01
F0.0
ss(i__main__
State
p1685
(dp1686
g3
F-5.0
sg4
F1.0
sg5
F5.0
sg6
F0.0
sb(dp1687
I00
I-8
sI01
F59.199999999999996
ss(i__main__
State
p1688
(dp1689
g3
F3.0
sg4
F4.0
sg5
F-3.0
sg6
F2.0
sb(dp1690
I00
I-96
sI01
F1.4100000000000001
ss(i__main__
State
p1691
(dp1692
g3
F-5.0
sg4
F3.0
sg5
F5.0
sg6
F4.0
sb(dp1693
I00
F76.76
sI01
I-26
ss(i__main__
State
p1694
(dp1695
g3
F-8.0
sg4
F3.0
sg5
F8.0
sg6
F4.0
sb(dp1696
I00
F30.6
sI01
F65.6896
ss(i__main__
State
p1697
(dp1698
g3
F1.0
sg4
F3.0
sg5
F-1.0
sg6
F6.0
sb(dp1699
I00
I-73
sI01
F10.7
ss(i__main__
State
p1700
(dp1701
g3
F3.0
sg4
F10.0
sg5
F-3.0
sg6
F2.0
sb(dp1702
I00
F30.0
sI01
F8.8
ss(i__main__
State
p1703
(dp1704
g3
F4.0
sg4
F10.0
sg5
F-4.0
sg6
F-6.0
sb(dp1705
I00
F30.0
sI01
F0.0
ss(i__main__
State
p1706
(dp1707
g3
F6.0
sg4
F9.0
sg5
F-6.0
sg6
F0.0
sb(dp1708
I00
F-998.9000000000001
sI01
F0.0
ss(i__main__
State
p1709
(dp1710
g3
F0.0
sg4
F4.0
sg5
F0.0
sg6
F2.0
sb(dp1711
I00
F63.980000000000004
sI01
I7
ss(i__main__
State
p1712
(dp1713
g3
F-1.0
sg4
F10.0
sg5
F1.0
sg6
F-4.0
sb(dp1714
I00
F21.0
sI01
F18.3
ss(i__main__
State
p1715
(dp1716
g3
F-3.0
sg4
F8.0
sg5
F3.0
sg6
F-4.0
sb(dp1717
I00
F79.11426499999999
sI01
F0.0
ss(i__main__
State
p1718
(dp1719
g3
F1.0
sg4
F9.0
sg5
F-1.0
sg6
F-4.0
sb(dp1720
I00
F31.700166000000003
sI01
F-73.47000000000001
ss(i__main__
State
p1721
(dp1722
g3
F5.0
sg4
F0.0
sg5
F-5.0
sg6
F-4.0
sb(dp1723
I00
F96.934
sI01
I74
ss(i__main__
State
p1724
(dp1725
g3
F4.0
sg4
F6.0
sg5
F-4.0
sg6
F6.0
sb(dp1726
I00
F67.77486
sI01
I-69
ss(i__main__
State
p1727
(dp1728
g3
F-7.0
sg4
F3.0
sg5
F7.0
sg6
F-2.0
sb(dp1729
I00
I-62
sI01
F53.2
ss(i__main__
State
p1730
(dp1731
g3
F-4.0
sg4
F0.0
sg5
F4.0
sg6
F0.0
sb(dp1732
I00
F-55.3
sI01
I-83
ss(i__main__
State
p1733
(dp1734
g3
F7.0
sg4
F8.0
sg5
F-7.0
sg6
F-4.0
sb(dp1735
I00
F20.0
sI01
F0.0
ss(i__main__
State
p1736
(dp1737
g3
F5.0
sg4
F8.0
sg5
F-5.0
sg6
F6.0
sb(dp1738
I00
F44.078
sI01
F35.504599999999996
ss(i__main__
State
p1739
(dp1740
g3
F-4.0
sg4
F9.0
sg5
F4.0
sg6
F-8.0
sb(dp1741
I00
F11.0
sI01
F0.0
ss(i__main__
State
p1742
(dp1743
g3
F-4.0
sg4
F10.0
sg5
F4.0
sg6
F0.0
sb(dp1744
I00
F11.100000000000001
sI01
F0.0
ss(i__main__
State
p1745
(dp1746
g3
F1.0
sg4
F8.0
sg5
F-1.0
sg6
F-2.0
sb(dp1747
I00
F10.0
sI01
F10.0
ss(i__main__
State
p1748
(dp1749
g3
F-7.0
sg4
F9.0
sg5
F7.0
sg6
F6.0
sb(dp1750
I00
F10.0
sI01
F29.61862
ss(i__main__
State
p1751
(dp1752
g3
F-7.0
sg4
F2.0
sg5
F7.0
sg6
F-2.0
sb(dp1753
I00
F94.5
sI01
I85
ss(i__main__
State
p1754
(dp1755
g3
F5.0
sg4
F2.0
sg5
F-5.0
sg6
F-4.0
sb(dp1756
I00
F19.0
sI01
F-80.7
ss(i__main__
State
p1757
(dp1758
g3
F6.0
sg4
F8.0
sg5
F-6.0
sg6
F4.0
sb(dp1759
I00
F61.303677000000015
sI01
F0.0
ss(i__main__
State
p1760
(dp1761
g3
F0.0
sg4
F8.0
sg5
F0.0
sg6
F6.0
sb(dp1762
I00
F-1899.0
sI01
F-1897.1
ss(i__main__
State
p1763
(dp1764
g3
F6.0
sg4
F2.0
sg5
F-6.0
sg6
F6.0
sb(dp1765
I00
I-39
sI01
F-10.6
ss(i__main__
State
p1766
(dp1767
g3
F-1.0
sg4
F9.0
sg5
F1.0
sg6
F-2.0
sb(dp1768
I00
F-72.80000000000001
sI01
F11.0
ss(i__main__
State
p1769
(dp1770
g3
F3.0
sg4
F1.0
sg5
F-3.0
sg6
F4.0
sb(dp1771
I00
I-38
sI01
F42.177
ss(i__main__
State
p1772
(dp1773
g3
F-4.0
sg4
F7.0
sg5
F4.0
sg6
F6.0
sb(dp1774
I00
I-92
sI01
F-26.159999999999997
ss(i__main__
State
p1775
(dp1776
g3
F-4.0
sg4
F9.0
sg5
F4.0
sg6
F2.0
sb(dp1777
I00
F11.0
sI01
F0.0
ss(i__main__
State
p1778
(dp1779
g3
F4.0
sg4
F7.0
sg5
F-4.0
sg6
F-6.0
sb(dp1780
I00
I-24
sI01
F56.117000000000004
ss(i__main__
State
p1781
(dp1782
g3
F6.0
sg4
F4.0
sg5
F-6.0
sg6
F-6.0
sb(dp1783
I00
F64.62
sI01
I-77
ss(i__main__
State
p1784
(dp1785
g3
F-7.0
sg4
F2.0
sg5
F7.0
sg6
F4.0
sb(dp1786
I00
I-95
sI01
F90.88
ss(i__main__
State
p1787
(dp1788
g3
F3.0
sg4
F7.0
sg5
F-3.0
sg6
F-4.0
sb(dp1789
I00
F79.32
sI01
F65.9
ss(i__main__
State
p1790
(dp1791
g3
F3.0
sg4
F8.0
sg5
F-3.0
sg6
F4.0
sb(dp1792
I00
F20.0
sI01
F0.0
ss(i__main__
State
p1793
(dp1794
g3
F0.0
sg4
F2.0
sg5
F0.0
sg6
F-4.0
sb(dp1795
I00
F18.490000000000002
sI01
I-59
ss(i__main__
State
p1796
(dp1797
g3
F-5.0
sg4
F4.0
sg5
F5.0
sg6
F6.0
sb(dp1798
I00
F68.6
sI01
I-79
ss(i__main__
State
p1799
(dp1800
g3
F-8.0
sg4
F9.0
sg5
F8.0
sg6
F8.0
sb(dp1801
I00
F10.0
sI01
F0.0
ss(i__main__
State
p1802
(dp1803
g3
F1.0
sg4
F2.0
sg5
F-1.0
sg6
F6.0
sb(dp1804
I00
I-78
sI01
F-15.9
ss(i__main__
State
p1805
(dp1806
g3
F0.0
sg4
F9.0
sg5
F0.0
sg6
F0.0
sb(dp1807
I00
F0.0
sI01
F-996.1384
ss(i__main__
State
p1808
(dp1809
g3
F-8.0
sg4
F4.0
sg5
F8.0
sg6
F2.0
sb(dp1810
I00
F3.6647000000000003
sI01
I-29
ss(i__main__
State
p1811
(dp1812
g3
F-2.0
sg4
F7.0
sg5
F2.0
sg6
F-4.0
sb(dp1813
I00
F71.9
sI01
I-61
ss(i__main__
State
p1814
(dp1815
g3
F8.0
sg4
F4.0
sg5
F-8.0
sg6
F-6.0
sb(dp1816
I00
F50.7027
sI01
I-41
ss(i__main__
State
p1817
(dp1818
g3
F6.0
sg4
F5.0
sg5
F-6.0
sg6
F8.0
sb(dp1819
I00
I18
sI01
F54.93219999999999
ss(i__main__
State
p1820
(dp1821
g3
F7.0
sg4
F8.0
sg5
F-7.0
sg6
F-2.0
sb(dp1822
I00
F40.0
sI01
F0.0
ss(i__main__
State
p1823
(dp1824
g3
F8.0
sg4
F5.0
sg5
F-8.0
sg6
F-6.0
sb(dp1825
I00
F30.0
sI01
I-51
ss(i__main__
State
p1826
(dp1827
g3
F-2.0
sg4
F6.0
sg5
F2.0
sg6
F0.0
sb(dp1828
I00
F71.75
sI01
I67
ss(i__main__
State
p1829
(dp1830
g3
F-2.0
sg4
F9.0
sg5
F2.0
sg6
F2.0
sb(dp1831
I00
F10.0
sI01
F10.0
ss(i__main__
State
p1832
(dp1833
g3
F8.0
sg4
F10.0
sg5
F-8.0
sg6
F-4.0
sb(dp1834
I00
F20.0
sI01
F0.0
ss(i__main__
State
p1835
(dp1836
g3
F-1.0
sg4
F10.0
sg5
F1.0
sg6
F0.0
sb(dp1837
I00
F42.207800000000006
sI01
F28.766
ss(i__main__
State
p1838
(dp1839
g3
F0.0
sg4
F7.0
sg5
F0.0
sg6
F8.0
sb(dp1840
I00
F69.39
sI01
I-62
ss(i__main__
State
p1841
(dp1842
g3
F-8.0
sg4
F9.0
sg5
F8.0
sg6
F6.0
sb(dp1843
I00
F20.3
sI01
F0.0
ss(i__main__
State
p1844
(dp1845
g3
F-8.0
sg4
F2.0
sg5
F8.0
sg6
F2.0
sb(dp1846
I00
F-55.1
sI01
I-98
ss(i__main__
State
p1847
(dp1848
g3
F8.0
sg4
F4.0
sg5
F-8.0
sg6
F6.0
sb(dp1849
I00
I-74
sI01
F5.81897
ss(i__main__
State
p1850
(dp1851
g3
F0.0
sg4
F9.0
sg5
F0.0
sg6
F8.0
sb(dp1852
I00
F0.0
sI01
F11.0
ss(i__main__
State
p1853
(dp1854
g3
F8.0
sg4
F8.0
sg5
F-8.0
sg6
F-2.0
sb(dp1855
I00
F40.0
sI01
F0.0
ss(i__main__
State
p1856
(dp1857
g3
F-2.0
sg4
F1.0
sg5
F2.0
sg6
F-2.0
sb(dp1858
I00
I-20
sI01
F64.056
ss(i__main__
State
p1859
(dp1860
g3
F-2.0
sg4
F0.0
sg5
F2.0
sg6
F6.0
sb(dp1861
I00
I11
sI01
F57.2
ss(i__main__
State
p1862
(dp1863
g3
F8.0
sg4
F6.0
sg5
F-8.0
sg6
F0.0
sb(dp1864
I00
I-71
sI01
F-14.506376
ss(i__main__
State
p1865
(dp1866
g3
F-5.0
sg4
F1.0
sg5
F5.0
sg6
F-4.0
sb(dp1867
I00
I-92
sI01
F-44.4
ss(i__main__
State
p1868
(dp1869
g3
F1.0
sg4
F5.0
sg5
F-1.0
sg6
F0.0
sb(dp1870
I00
F13.309000000000001
sI01
I-83
ss(i__main__
State
p1871
(dp1872
g3
F1.0
sg4
F1.0
sg5
F-1.0
sg6
F-6.0
sb(dp1873
I00
F5.680000000000001
sI01
F4.4
ss(i__main__
State
p1874
(dp1875
g3
F-8.0
sg4
F0.0
sg5
F8.0
sg6
F-6.0
sb(dp1876
I00
F-37.9
sI01
F-40.0478
ss(i__main__
State
p1877
(dp1878
g3
F-2.0
sg4
F5.0
sg5
F2.0
sg6
F6.0
sb(dp1879
I00
F-60.5
sI01
F-46.21
ss(i__main__
State
p1880
(dp1881
g3
F7.0
sg4
F8.0
sg5
F-7.0
sg6
F-6.0
sb(dp1882
I00
F40.027
sI01
F0.0
ss(i__main__
State
p1883
(dp1884
g3
F3.0
sg4
F4.0
sg5
F-3.0
sg6
F6.0
sb(dp1885
I00
I-24
sI01
F-83.0
ss(i__main__
State
p1886
(dp1887
g3
F5.0
sg4
F10.0
sg5
F-5.0
sg6
F8.0
sb(dp1888
I00
F10.0
sI01
F0.0
ss(i__main__
State
p1889
(dp1890
g3
F0.0
sg4
F1.0
sg5
F0.0
sg6
F-4.0
sb(dp1891
I00
F3.5100000000000002
sI01
I-45
ss(i__main__
State
p1892
(dp1893
g3
F-6.0
sg4
F10.0
sg5
F6.0
sg6
F-8.0
sb(dp1894
I00
F42.71
sI01
F1.8
ss(i__main__
State
p1895
(dp1896
g3
F-3.0
sg4
F10.0
sg5
F3.0
sg6
F4.0
sb(dp1897
I00
F41.001
sI01
F16.958
ss(i__main__
State
p1898
(dp1899
g3
F-1.0
sg4
F0.0
sg5
F1.0
sg6
F2.0
sb(dp1900
I00
F61.6
sI01
I-17
ss(i__main__
State
p1901
(dp1902
g3
F-1.0
sg4
F10.0
sg5
F1.0
sg6
F8.0
sb(dp1903
I00
F10.0
sI01
F0.0
ss(i__main__
State
p1904
(dp1905
g3
F2.0
sg4
F8.0
sg5
F-2.0
sg6
F-4.0
sb(dp1906
I00
F20.0
sI01
F0.0
ss(i__main__
State
p1907
(dp1908
g3
F1.0
sg4
F6.0
sg5
F-1.0
sg6
F-2.0
sb(dp1909
I00
F-76.7
sI01
I8
ss(i__main__
State
p1910
(dp1911
g3
F-7.0
sg4
F7.0
sg5
F7.0
sg6
F6.0
sb(dp1912
I00
F24.7149
sI01
F-73.59
ss(i__main__
State
p1913
(dp1914
g3
F3.0
sg4
F0.0
sg5
F-3.0
sg6
F0.0
sb(dp1915
I00
I-54
sI01
F15.796
ss(i__main__
State
p1916
(dp1917
g3
F-6.0
sg4
F3.0
sg5
F6.0
sg6
F-6.0
sb(dp1918
I00
F66.43100000000001
sI01
F13.04
ss(i__main__
State
p1919
(dp1920
g3
F6.0
sg4
F5.0
sg5
F-6.0
sg6
F-4.0
sb(dp1921
I00
I21
sI01
F41.5
ss(i__main__
State
p1922
(dp1923
g3
F5.0
sg4
F4.0
sg5
F-5.0
sg6
F6.0
sb(dp1924
I00
F11.299999999999999
sI01
F75.4
ss(i__main__
State
p1925
(dp1926
g3
F-3.0
sg4
F5.0
sg5
F3.0
sg6
F-2.0
sb(dp1927
I00
F-51.2
sI01
F-20.0844
ss(i__main__
State
p1928
(dp1929
g3
F1.0
sg4
F5.0
sg5
F-1.0
sg6
F8.0
sb(dp1930
I00
F40.71
sI01
F-27.5
ss(i__main__
State
p1931
(dp1932
g3
F-6.0
sg4
F1.0
sg5
F6.0
sg6
F-4.0
sb(dp1933
I00
F-38.43
sI01
I-75
ss(i__main__
State
p1934
(dp1935
g3
F3.0
sg4
F5.0
sg5
F-3.0
sg6
F0.0
sb(dp1936
I00
I63
sI01
F-77.1
ss(i__main__
State
p1937
(dp1938
g3
F-3.0
sg4
F6.0
sg5
F3.0
sg6
F8.0
sb(dp1939
I00
I-59
sI01
F77.04
ss(i__main__
State
p1940
(dp1941
g3
F0.0
sg4
F7.0
sg5
F0.0
sg6
F-2.0
sb(dp1942
I00
F30.619999999999997
sI01
I-54
ss(i__main__
State
p1943
(dp1944
g3
F-8.0
sg4
F2.0
sg5
F8.0
sg6
F-8.0
sb(dp1945
I00
I-50
sI01
F10.530000000000001
ss(i__main__
State
p1946
(dp1947
g3
F7.0
sg4
F5.0
sg5
F-7.0
sg6
F-4.0
sb(dp1948
I00
F-47.0
sI01
I-100
ss(i__main__
State
p1949
(dp1950
g3
F-3.0
sg4
F1.0
sg5
F3.0
sg6
F-2.0
sb(dp1951
I00
F24.7
sI01
I17
ss(i__main__
State
p1952
(dp1953
g3
F2.0
sg4
F5.0
sg5
F-2.0
sg6
F-2.0
sb(dp1954
I00
F-46.938
sI01
I-69
ss(i__main__
State
p1955
(dp1956
g3
F-3.0
sg4
F2.0
sg5
F3.0
sg6
F4.0
sb(dp1957
I00
I-93
sI01
F53.6
ss(i__main__
State
p1958
(dp1959
g3
F-8.0
sg4
F10.0
sg5
F8.0
sg6
F-8.0
sb(dp1960
I00
F10.0
sI01
F0.0
ss(i__main__
State
p1961
(dp1962
g3
F-4.0
sg4
F1.0
sg5
F4.0
sg6
F-6.0
sb(dp1963
I00
I15
sI01
F67.9
ss(i__main__
State
p1964
(dp1965
g3
F6.0
sg4
F8.0
sg5
F-6.0
sg6
F-2.0
sb(dp1966
I00
F20.0
sI01
F0.0
ss(i__main__
State
p1967
(dp1968
g3
F-6.0
sg4
F2.0
sg5
F6.0
sg6
F6.0
sb(dp1969
I00
F10.565000000000001
sI01
I-58
ss(i__main__
State
p1970
(dp1971
g3
F-3.0
sg4
F9.0
sg5
F3.0
sg6
F-6.0
sb(dp1972
I00
F33.251000000000005
sI01
F0.0
ss(i__main__
State
p1973
(dp1974
g3
F-3.0
sg4
F0.0
sg5
F3.0
sg6
F4.0
sb(dp1975
I00
F78.78
sI01
I3
ss(i__main__
State
p1976
(dp1977
g3
F-1.0
sg4
F5.0
sg5
F1.0
sg6
F-4.0
sb(dp1978
I00
F-45.8
sI01
I-97
ss(i__main__
State
p1979
(dp1980
g3
F5.0
sg4
F0.0
sg5
F-5.0
sg6
F8.0
sb(dp1981
I00
F-71.3
sI01
F-12.018
ss(i__main__
State
p1982
(dp1983
g3
F3.0
sg4
F7.0
sg5
F-3.0
sg6
F2.0
sb(dp1984
I00
F-2.5999999999999996
sI01
I-82
ss(i__main__
State
p1985
(dp1986
g3
F-1.0
sg4
F6.0
sg5
F1.0
sg6
F6.0
sb(dp1987
I00
F-2.0999999999999996
sI01
I-25
ss(i__main__
State
p1988
(dp1989
g3
F-1.0
sg4
F6.0
sg5
F1.0
sg6
F4.0
sb(dp1990
I00
F29.1411
sI01
F-48.63
ss(i__main__
State
p1991
(dp1992
g3
F-8.0
sg4
F4.0
sg5
F8.0
sg6
F-8.0
sb(dp1993
I00
I-80
sI01
F-19.4
ss(i__main__
State
p1994
(dp1995
g3
F4.0
sg4
F7.0
sg5
F-4.0
sg6
F2.0
sb(dp1996
I00
I48
sI01
F56.8
ss(i__main__
State
p1997
(dp1998
g3
F2.0
sg4
F9.0
sg5
F-2.0
sg6
F-6.0
sb(dp1999
I00
F52.702180000000006
sI01
F10.0
ss(i__main__
State
p2000
(dp2001
g3
F3.0
sg4
F6.0
sg5
F-3.0
sg6
F0.0
sb(dp2002
I00
I-66
sI01
F12.5
ss(i__main__
State
p2003
(dp2004
g3
F2.0
sg4
F7.0
sg5
F-2.0
sg6
F-6.0
sb(dp2005
I00
F64.19999999999999
sI01
F47.0
ss(i__main__
State
p2006
(dp2007
g3
F6.0
sg4
F10.0
sg5
F-6.0
sg6
F8.0
sb(dp2008
I00
F30.0
sI01
F0.0
ss(i__main__
State
p2009
(dp2010
g3
F-4.0
sg4
F0.0
sg5
F4.0
sg6
F-6.0
sb(dp2011
I00
I-31
sI01
F-10.600000000000001
ss(i__main__
State
p2012
(dp2013
g3
F1.0
sg4
F10.0
sg5
F-1.0
sg6
F4.0
sb(dp2014
I00
F10.0
sI01
F44.0252
ss(i__main__
State
p2015
(dp2016
g3
F-4.0
sg4
F0.0
sg5
F4.0
sg6
F6.0
sb(dp2017
I00
I-16
sI01
F69.0756
ss(i__main__
State
p2018
(dp2019
g3
F7.0
sg4
F10.0
sg5
F-7.0
sg6
F-8.0
sb(dp2020
I00
F40.794
sI01
F0.0
ss(i__main__
State
p2021
(dp2022
g3
F2.0
sg4
F7.0
sg5
F-2.0
sg6
F4.0
sb(dp2023
I00
F-27.409999999999997
sI01
I100
ss(i__main__
State
p2024
(dp2025
g3
F2.0
sg4
F9.0
sg5
F-2.0
sg6
F4.0
sb(dp2026
I00
F10.0
sI01
F0.0
ss(i__main__
State
p2027
(dp2028
g3
F7.0
sg4
F4.0
sg5
F-7.0
sg6
F-8.0
sb(dp2029
I00
F3.1399999999999997
sI01
F-68.3
ss(i__main__
State
p2030
(dp2031
g3
F4.0
sg4
F7.0
sg5
F-4.0
sg6
F-4.0
sb(dp2032
I00
F39.34
sI01
F-1.8
ss(i__main__
State
p2033
(dp2034
g3
F-8.0
sg4
F4.0
sg5
F8.0
sg6
F0.0
sb(dp2035
I00
I-53
sI01
F-86.5
ss(i__main__
State
p2036
(dp2037
g3
F5.0
sg4
F0.0
sg5
F-5.0
sg6
F0.0
sb(dp2038
I00
F29.653599999999994
sI01
I-65
ss(i__main__
State
p2039
(dp2040
g3
F3.0
sg4
F7.0
sg5
F-3.0
sg6
F-6.0
sb(dp2041
I00
I-24
sI01
F73.08999999999999
ss(i__main__
State
p2042
(dp2043
g3
F-4.0
sg4
F2.0
sg5
F4.0
sg6
F-6.0
sb(dp2044
I00
F69.59
sI01
I-77
ss(i__main__
State
p2045
(dp2046
g3
F-7.0
sg4
F6.0
sg5
F7.0
sg6
F-8.0
sb(dp2047
I00
I-51
sI01
F-44.6
ss(i__main__
State
p2048
(dp2049
g3
F-4.0
sg4
F5.0
sg5
F4.0
sg6
F-2.0
sb(dp2050
I00
F-43.22
sI01
I-85
ss(i__main__
State
p2051
(dp2052
g3
F4.0
sg4
F9.0
sg5
F-4.0
sg6
F2.0
sb(dp2053
I00
F11.0
sI01
F0.0
ss(i__main__
State
p2054
(dp2055
g3
F0.0
sg4
F0.0
sg5
F0.0
sg6
F-4.0
sb(dp2056
I00
I-9
sI01
F35.187
ss(i__main__
State
p2057
(dp2058
g3
F5.0
sg4
F6.0
sg5
F-5.0
sg6
F-4.0
sb(dp2059
I00
I-37
sI01
F-20.961
ss(i__main__
State
p2060
(dp2061
g3
F-3.0
sg4
F3.0
sg5
F3.0
sg6
F2.0
sb(dp2062
I00
I-56
sI01
F46.22
ss(i__main__
State
p2063
(dp2064
g3
F-8.0
sg4
F10.0
sg5
F8.0
sg6
F4.0
sb(dp2065
I00
F79.9873
sI01
F0.0
ss(i__main__
State
p2066
(dp2067
g3
F7.0
sg4
F9.0
sg5
F-7.0
sg6
F-4.0
sb(dp2068
I00
F10.0
sI01
F0.0
ss(i__main__
State
p2069
(dp2070
g3
F-3.0
sg4
F9.0
sg5
F3.0
sg6
F2.0
sb(dp2071
I00
F10.0
sI01
F0.0
ss(i__main__
State
p2072
(dp2073
g3
F3.0
sg4
F2.0
sg5
F-3.0
sg6
F-6.0
sb(dp2074
I00
F74.06
sI01
I45
ss(i__main__
State
p2075
(dp2076
g3
F5.0
sg4
F1.0
sg5
F-5.0
sg6
F0.0
sb(dp2077
I00
I-19
sI01
F97.69
ss(i__main__
State
p2078
(dp2079
g3
F-2.0
sg4
F8.0
sg5
F2.0
sg6
F0.0
sb(dp2080
I00
F20.0
sI01
F0.0
ss(i__main__
State
p2081
(dp2082
g3
F-5.0
sg4
F3.0
sg5
F5.0
sg6
F-4.0
sb(dp2083
I00
F-35.8593
sI01
I-88
ss(i__main__
State
p2084
(dp2085
g3
F-6.0
sg4
F0.0
sg5
F6.0
sg6
F6.0
sb(dp2086
I00
F26.25
sI01
I27
ss(i__main__
State
p2087
(dp2088
g3
F0.0
sg4
F10.0
sg5
F0.0
sg6
F6.0
sb(dp2089
I00
F-1000.0
sI01
F0.0
ss(i__main__
State
p2090
(dp2091
g3
F7.0
sg4
F8.0
sg5
F-7.0
sg6
F4.0
sb(dp2092
I00
F20.0
sI01
F0.0
ss(i__main__
State
p2093
(dp2094
g3
F0.0
sg4
F10.0
sg5
F0.0
sg6
F-6.0
sb(dp2095
I00
F-1897.0
sI01
F-1884.04
ss(i__main__
State
p2096
(dp2097
g3
F8.0
sg4
F2.0
sg5
F-8.0
sg6
F2.0
sb(dp2098
I00
F-36.7
sI01
F54.9
ss(i__main__
State
p2099
(dp2100
g3
F-7.0
sg4
F8.0
sg5
F7.0
sg6
F-4.0
sb(dp2101
I00
F10.0
sI01
F0.0
ss(i__main__
State
p2102
(dp2103
g3
F-5.0
sg4
F2.0
sg5
F5.0
sg6
F8.0
sb(dp2104
I00
F-23.875799999999998
sI01
F-32.1
ss(i__main__
State
p2105
(dp2106
g3
F2.0
sg4
F4.0
sg5
F-2.0
sg6
F-2.0
sb(dp2107
I00
I-23
sI01
F47.1
ss(i__main__
State
p2108
(dp2109
g3
F-4.0
sg4
F6.0
sg5
F4.0
sg6
F2.0
sb(dp2110
I00
F31.707
sI01
I-26
ss(i__main__
State
p2111
(dp2112
g3
F4.0
sg4
F6.0
sg5
F-4.0
sg6
F8.0
sb(dp2113
I00
F64.22
sI01
I51
ss(i__main__
State
p2114
(dp2115
g3
F-2.0
sg4
F1.0
sg5
F2.0
sg6
F8.0
sb(dp2116
I00
I44
sI01
F65.95
ss(i__main__
State
p2117
(dp2118
g3
F0.0
sg4
F9.0
sg5
F0.0
sg6
F-2.0
sb(dp2119
I00
F10.0
sI01
F44.720113999999995
ss(i__main__
State
p2120
(dp2121
g3
F-8.0
sg4
F0.0
sg5
F8.0
sg6
F-8.0
sb(dp2122
I00
I-27
sI01
F16.57
ss(i__main__
State
p2123
(dp2124
g3
F-2.0
sg4
F6.0
sg5
F2.0
sg6
F-8.0
sb(dp2125
I00
I-59
sI01
F80.6
ss(i__main__
State
p2126
(dp2127
g3
F-6.0
sg4
F3.0
sg5
F6.0
sg6
F4.0
sb(dp2128
I00
I-84
sI01
F-41.8
ss(i__main__
State
p2129
(dp2130
g3
F5.0
sg4
F7.0
sg5
F-5.0
sg6
F4.0
sb(dp2131
I00
F49.4
sI01
I-72
ss(i__main__
State
p2132
(dp2133
g3
F-1.0
sg4
F8.0
sg5
F1.0
sg6
F4.0
sb(dp2134
I00
F20.0
sI01
F0.0
ss(i__main__
State
p2135
(dp2136
g3
F2.0
sg4
F8.0
sg5
F-2.0
sg6
F0.0
sb(dp2137
I00
F28.0
sI01
F0.0
ss(i__main__
State
p2138
(dp2139
g3
F-5.0
sg4
F6.0
sg5
F5.0
sg6
F-8.0
sb(dp2140
I00
F-21.361
sI01
I59
ss(i__main__
State
p2141
(dp2142
g3
F-3.0
sg4
F5.0
sg5
F3.0
sg6
F6.0
sb(dp2143
I00
F-8.501
sI01
I-94
ss(i__main__
State
p2144
(dp2145
g3
F8.0
sg4
F10.0
sg5
F-8.0
sg6
F8.0
sb(dp2146
I00
F40.0
sI01
F0.0
ss(i__main__
State
p2147
(dp2148
g3
F1.0
sg4
F0.0
sg5
F-1.0
sg6
F6.0
sb(dp2149
I00
F52.6
sI01
I-25
ss(i__main__
State
p2150
(dp2151
g3
F2.0
sg4
F4.0
sg5
F-2.0
sg6
F4.0
sb(dp2152
I00
F11.96
sI01
F20.970000000000002
ss(i__main__
State
p2153
(dp2154
g3
F-5.0
sg4
F2.0
sg5
F5.0
sg6
F6.0
sb(dp2155
I00
I-49
sI01
F14.588000000000001
ss(i__main__
State
p2156
(dp2157
g3
F7.0
sg4
F3.0
sg5
F-7.0
sg6
F6.0
sb(dp2158
I00
F47.92
sI01
I-75
ss(i__main__
State
p2159
(dp2160
g3
F-1.0
sg4
F3.0
sg5
F1.0
sg6
F8.0
sb(dp2161
I00
F-15.134999999999996
sI01
I-98
ss(i__main__
State
p2162
(dp2163
g3
F-1.0
sg4
F8.0
sg5
F1.0
sg6
F6.0
sb(dp2164
I00
F20.0
sI01
F0.0
ss(i__main__
State
p2165
(dp2166
g3
F-8.0
sg4
F8.0
sg5
F8.0
sg6
F6.0
sb(dp2167
I00
F22.9
sI01
F0.0
ss(i__main__
State
p2168
(dp2169
g3
F-1.0
sg4
F4.0
sg5
F1.0
sg6
F-2.0
sb(dp2170
I00
F-35.8
sI01
I-99
ss(i__main__
State
p2171
(dp2172
g3
F2.0
sg4
F8.0
sg5
F-2.0
sg6
F8.0
sb(dp2173
I00
F20.0
sI01
F0.0
ss(i__main__
State
p2174
(dp2175
g3
F-3.0
sg4
F10.0
sg5
F3.0
sg6
F-2.0
sb(dp2176
I00
F10.0
sI01
F2.8000000000000003
ss(i__main__
State
p2177
(dp2178
g3
F5.0
sg4
F2.0
sg5
F-5.0
sg6
F-2.0
sb(dp2179
I00
F54.9233
sI01
F-51.84
ss(i__main__
State
p2180
(dp2181
g3
F-5.0
sg4
F1.0
sg5
F5.0
sg6
F4.0
sb(dp2182
I00
F87.75
sI01
F30.3
ss(i__main__
State
p2183
(dp2184
g3
F1.0
sg4
F3.0
sg5
F-1.0
sg6
F-2.0
sb(dp2185
I00
F5.163
sI01
I-6
ss(i__main__
State
p2186
(dp2187
g3
F7.0
sg4
F4.0
sg5
F-7.0
sg6
F0.0
sb(dp2188
I00
F11.5
sI01
I0
ss(i__main__
State
p2189
(dp2190
g3
F5.0
sg4
F4.0
sg5
F-5.0
sg6
F0.0
sb(dp2191
I00
I13
sI01
F7.58
ss(i__main__
State
p2192
(dp2193
g3
F5.0
sg4
F4.0
sg5
F-5.0
sg6
F-2.0
sb(dp2194
I00
F70.39
sI01
I-7
ss(i__main__
State
p2195
(dp2196
g3
F8.0
sg4
F3.0
sg5
F-8.0
sg6
F2.0
sb(dp2197
I00
F18.398999999999997
sI01
I-90
ss(i__main__
State
p2198
(dp2199
g3
F0.0
sg4
F5.0
sg5
F0.0
sg6
F-6.0
sb(dp2200
I00
F47.9
sI01
F96.15
ss(i__main__
State
p2201
(dp2202
g3
F-1.0
sg4
F9.0
sg5
F1.0
sg6
F-8.0
sb(dp2203
I00
F10.0
sI01
F0.0
ss(i__main__
State
p2204
(dp2205
g3
F-5.0
sg4
F1.0
sg5
F5.0
sg6
F-6.0
sb(dp2206
I00
I-12
sI01
F45.650000000000006
ss(i__main__
State
p2207
(dp2208
g3
F8.0
sg4
F6.0
sg5
F-8.0
sg6
F-4.0
sb(dp2209
I00
F21.0
sI01
I90
ss(i__main__
State
p2210
(dp2211
g3
F-2.0
sg4
F1.0
sg5
F2.0
sg6
F0.0
sb(dp2212
I00
F71.859
sI01
I1
ss(i__main__
State
p2213
(dp2214
g3
F8.0
sg4
F8.0
sg5
F-8.0
sg6
F2.0
sb(dp2215
I00
F0.0
sI01
F22.8
ss(i__main__
State
p2216
(dp2217
g3
F3.0
sg4
F0.0
sg5
F-3.0
sg6
F2.0
sb(dp2218
I00
I-52
sI01
F1.1
ss(i__main__
State
p2219
(dp2220
g3
F8.0
sg4
F5.0
sg5
F-8.0
sg6
F2.0
sb(dp2221
I00
F-37.8
sI01
I-67
ss(i__main__
State
p2222
(dp2223
g3
F-5.0
sg4
F8.0
sg5
F5.0
sg6
F0.0
sb(dp2224
I00
F20.0
sI01
F64.68559
ss(i__main__
State
p2225
(dp2226
g3
F6.0
sg4
F6.0
sg5
F-6.0
sg6
F2.0
sb(dp2227
I00
F-55.6
sI01
F-34.2
ss(i__main__
State
p2228
(dp2229
g3
F-4.0
sg4
F6.0
sg5
F4.0
sg6
F-8.0
sb(dp2230
I00
F62.7
sI01
I9
ss(i__main__
State
p2231
(dp2232
g3
F-3.0
sg4
F5.0
sg5
F3.0
sg6
F-8.0
sb(dp2233
I00
I37
sI01
F62.9
ss(i__main__
State
p2234
(dp2235
g3
F-3.0
sg4
F10.0
sg5
F3.0
sg6
F8.0
sb(dp2236
I00
F0.0
sI01
F47.712
ss(i__main__
State
p2237
(dp2238
g3
F-1.0
sg4
F8.0
sg5
F1.0
sg6
F-6.0
sb(dp2239
I00
F29.1
sI01
F0.0
ss(i__main__
State
p2240
(dp2241
g3
F-6.0
sg4
F4.0
sg5
F6.0
sg6
F8.0
sb(dp2242
I00
I-7
sI01
F-78.4
ss(i__main__
State
p2243
(dp2244
g3
F8.0
sg4
F5.0
sg5
F-8.0
sg6
F-4.0
sb(dp2245
I00
F60.480000000000004
sI01
I0
ss(i__main__
State
p2246
(dp2247
g3
F-3.0
sg4
F2.0
sg5
F3.0
sg6
F-8.0
sb(dp2248
I00
F-50.4
sI01
F-1.1999999999999993
ss(i__main__
State
p2249
(dp2250
g3
F-4.0
sg4
F10.0
sg5
F4.0
sg6
F4.0
sb(dp2251
I00
F0.0
sI01
F40.63935
ss(i__main__
State
p2252
(dp2253
g3
F-5.0
sg4
F0.0
sg5
F5.0
sg6
F-2.0
sb(dp2254
I00
F56.93
sI01
I31
ss(i__main__
State
p2255
(dp2256
g3
F5.0
sg4
F4.0
sg5
F-5.0
sg6
F8.0
sb(dp2257
I00
I19
sI01
F49.85
ss(i__main__
State
p2258
(dp2259
g3
F-6.0
sg4
F5.0
sg5
F6.0
sg6
F2.0
sb(dp2260
I00
I-96
sI01
F3.7
ss(i__main__
State
p2261
(dp2262
g3
F-4.0
sg4
F5.0
sg5
F4.0
sg6
F-8.0
sb(dp2263
I00
I-72
sI01
F73.86
ss(i__main__
State
p2264
(dp2265
g3
F-4.0
sg4
F3.0
sg5
F4.0
sg6
F-2.0
sb(dp2266
I00
I14
sI01
F51.8
ss(i__main__
State
p2267
(dp2268
g3
F2.0
sg4
F1.0
sg5
F-2.0
sg6
F-4.0
sb(dp2269
I00
F13.254999999999999
sI01
F29.7378
ss(i__main__
State
p2270
(dp2271
g3
F-2.0
sg4
F10.0
sg5
F2.0
sg6
F-4.0
sb(dp2272
I00
F10.0
sI01
F0.0
ss(i__main__
State
p2273
(dp2274
g3
F7.0
sg4
F10.0
sg5
F-7.0
sg6
F0.0
sb(dp2275
I00
F31.953000000000003
sI01
F15.200000000000001
ss(i__main__
State
p2276
(dp2277
g3
F-7.0
sg4
F1.0
sg5
F7.0
sg6
F-2.0
sb(dp2278
I00
I-79
sI01
F-18.45
ss(i__main__
State
p2279
(dp2280
g3
F-3.0
sg4
F2.0
sg5
F3.0
sg6
F6.0
sb(dp2281
I00
I-43
sI01
F24.6
ss(i__main__
State
p2282
(dp2283
g3
F-3.0
sg4
F9.0
sg5
F3.0
sg6
F-4.0
sb(dp2284
I00
F10.0
sI01
F0.0
ss(i__main__
State
p2285
(dp2286
g3
F-4.0
sg4
F8.0
sg5
F4.0
sg6
F4.0
sb(dp2287
I00
F10.0
sI01
F10.0
ss(i__main__
State
p2288
(dp2289
g3
F-5.0
sg4
F0.0
sg5
F5.0
sg6
F-8.0
sb(dp2290
I00
I-25
sI01
F-14.206999999999999
ss(i__main__
State
p2291
(dp2292
g3
F0.0
sg4
F8.0
sg5
F0.0
sg6
F8.0
sb(dp2293
I00
F-1000.0
sI01
F-1000.0
ss(i__main__
State
p2294
(dp2295
g3
F8.0
sg4
F9.0
sg5
F-8.0
sg6
F-8.0
sb(dp2296
I00
F20.0
sI01
F0.0
ss(i__main__
State
p2297
(dp2298
g3
F2.0
sg4
F7.0
sg5
F-2.0
sg6
F8.0
sb(dp2299
I00
F69.05199999999999
sI01
I69
ss(i__main__
State
p2300
(dp2301
g3
F-4.0
sg4
F6.0
sg5
F4.0
sg6
F8.0
sb(dp2302
I00
F82.4
sI01
I-49
ss(i__main__
State
p2303
(dp2304
g3
F5.0
sg4
F8.0
sg5
F-5.0
sg6
F2.0
sb(dp2305
I00
F40.0
sI01
F10.0
ss(i__main__
State
p2306
(dp2307
g3
F-7.0
sg4
F9.0
sg5
F7.0
sg6
F-4.0
sb(dp2308
I00
F10.0
sI01
F0.0
ss(i__main__
State
p2309
(dp2310
g3
F-4.0
sg4
F9.0
sg5
F4.0
sg6
F-4.0
sb(dp2311
I00
F54.85158
sI01
F0.0
ss(i__main__
State
p2312
(dp2313
g3
F-4.0
sg4
F7.0
sg5
F4.0
sg6
F-8.0
sb(dp2314
I00
F5.5
sI01
F43.319900000000004
ss(i__main__
State
p2315
(dp2316
g3
F7.0
sg4
F6.0
sg5
F-7.0
sg6
F-2.0
sb(dp2317
I00
I38
sI01
F63.3
ss(i__main__
State
p2318
(dp2319
g3
F2.0
sg4
F3.0
sg5
F-2.0
sg6
F-4.0
sb(dp2320
I00
F9.561
sI01
I-53
ss(i__main__
State
p2321
(dp2322
g3
F-7.0
sg4
F4.0
sg5
F7.0
sg6
F4.0
sb(dp2323
I00
F25.0
sI01
F-52.0
ss(i__main__
State
p2324
(dp2325
g3
F3.0
sg4
F2.0
sg5
F-3.0
sg6
F-4.0
sb(dp2326
I00
I-17
sI01
F24.722
ss(i__main__
State
p2327
(dp2328
g3
F7.0
sg4
F10.0
sg5
F-7.0
sg6
F8.0
sb(dp2329
I00
F69.0854
sI01
F0.0
ss(i__main__
State
p2330
(dp2331
g3
F1.0
sg4
F8.0
sg5
F-1.0
sg6
F0.0
sb(dp2332
I00
F19.0
sI01
F20.1
ss(i__main__
State
p2333
(dp2334
g3
F-4.0
sg4
F10.0
sg5
F4.0
sg6
F-4.0
sb(dp2335
I00
F10.0
sI01
F0.0
ss(i__main__
State
p2336
(dp2337
g3
F-3.0
sg4
F6.0
sg5
F3.0
sg6
F0.0
sb(dp2338
I00
F12.405999999999999
sI01
I-40
ss(i__main__
State
p2339
(dp2340
g3
F6.0
sg4
F7.0
sg5
F-6.0
sg6
F8.0
sb(dp2341
I00
F82.9
sI01
F66.6
ss(i__main__
State
p2342
(dp2343
g3
F7.0
sg4
F10.0
sg5
F-7.0
sg6
F6.0
sb(dp2344
I00
F30.0
sI01
F0.0
ss(i__main__
State
p2345
(dp2346
g3
F6.0
sg4
F3.0
sg5
F-6.0
sg6
F8.0
sb(dp2347
I00
F38.065
sI01
I-47
ss(i__main__
State
p2348
(dp2349
g3
F-8.0
sg4
F10.0
sg5
F8.0
sg6
F6.0
sb(dp2350
I00
F40.0
sI01
F20.66
ss(i__main__
State
p2351
(dp2352
g3
F0.0
sg4
F2.0
sg5
F0.0
sg6
F8.0
sb(dp2353
I00
F20.6
sI01
I-91
ss(i__main__
State
p2354
(dp2355
g3
F7.0
sg4
F7.0
sg5
F-7.0
sg6
F6.0
sb(dp2356
I00
F86.87800000000001
sI01
I28
ss(i__main__
State
p2357
(dp2358
g3
F8.0
sg4
F4.0
sg5
F-8.0
sg6
F4.0
sb(dp2359
I00
I-22
sI01
F39.5297
ss(i__main__
State
p2360
(dp2361
g3
F-4.0
sg4
F6.0
sg5
F4.0
sg6
F0.0
sb(dp2362
I00
I-51
sI01
F-3.0540999999999947
ss(i__main__
State
p2363
(dp2364
g3
F6.0
sg4
F10.0
sg5
F-6.0
sg6
F-6.0
sb(dp2365
I00
F10.0
sI01
F54.032
ss(i__main__
State
p2366
(dp2367
g3
F-3.0
sg4
F10.0
sg5
F3.0
sg6
F6.0
sb(dp2368
I00
F0.0
sI01
F36.208
ss(i__main__
State
p2369
(dp2370
g3
F-5.0
sg4
F6.0
sg5
F5.0
sg6
F4.0
sb(dp2371
I00
F87.28200000000001
sI01
I18
ss(i__main__
State
p2372
(dp2373
g3
F-2.0
sg4
F8.0
sg5
F2.0
sg6
F6.0
sb(dp2374
I00
F20.0
sI01
F0.0
ss(i__main__
State
p2375
(dp2376
g3
F-6.0
sg4
F2.0
sg5
F6.0
sg6
F0.0
sb(dp2377
I00
I-71
sI01
F-39.7
ss(i__main__
State
p2378
(dp2379
g3
F6.0
sg4
F9.0
sg5
F-6.0
sg6
F-2.0
sb(dp2380
I00
F10.0
sI01
F0.0
ss(i__main__
State
p2381
(dp2382
g3
F-3.0
sg4
F9.0
sg5
F3.0
sg6
F4.0
sb(dp2383
I00
F0.0
sI01
F13.0
ss(i__main__
State
p2384
(dp2385
g3
F-6.0
sg4
F6.0
sg5
F6.0
sg6
F6.0
sb(dp2386
I00
F31.4
sI01
F77.76
ss(i__main__
State
p2387
(dp2388
g3
F-4.0
sg4
F4.0
sg5
F4.0
sg6
F8.0
sb(dp2389
I00
F80.1
sI01
F-25.479999999999997
ss(i__main__
State
p2390
(dp2391
g3
F1.0
sg4
F8.0
sg5
F-1.0
sg6
F8.0
sb(dp2392
I00
F-81.0
sI01
F10.0
ss(i__main__
State
p2393
(dp2394
g3
F-1.0
sg4
F9.0
sg5
F1.0
sg6
F2.0
sb(dp2395
I00
F0.0
sI01
F11.0
ss(i__main__
State
p2396
(dp2397
g3
F-2.0
sg4
F5.0
sg5
F2.0
sg6
F-2.0
sb(dp2398
I00
I-2
sI01
F82.995
ss(i__main__
State
p2399
(dp2400
g3
F5.0
sg4
F10.0
sg5
F-5.0
sg6
F4.0
sb(dp2401
I00
F0.0
sI01
F29.39452
ss(i__main__
State
p2402
(dp2403
g3
F-1.0
sg4
F6.0
sg5
F1.0
sg6
F-6.0
sb(dp2404
I00
F51.13
sI01
F-82.7
ss(i__main__
State
p2405
(dp2406
g3
F6.0
sg4
F7.0
sg5
F-6.0
sg6
F0.0
sb(dp2407
I00
I39
sI01
F22.6
ss(i__main__
State
p2408
(dp2409
g3
F-1.0
sg4
F0.0
sg5
F1.0
sg6
F-6.0
sb(dp2410
I00
I62
sI01
F20.7
ss(i__main__
State
p2411
(dp2412
g3
F-2.0
sg4
F10.0
sg5
F2.0
sg6
F0.0
sb(dp2413
I00
F22.010910000000003
sI01
F6.4
ss(i__main__
State
p2414
(dp2415
g3
F4.0
sg4
F4.0
sg5
F-4.0
sg6
F4.0
sb(dp2416
I00
I-12
sI01
F69.3
ss(i__main__
State
p2417
(dp2418
g3
F-2.0
sg4
F4.0
sg5
F2.0
sg6
F8.0
sb(dp2419
I00
I80
sI01
F92.6
ss(i__main__
State
p2420
(dp2421
g3
F-5.0
sg4
F4.0
sg5
F5.0
sg6
F0.0
sb(dp2422
I00
F86.0
sI01
I51
ss(i__main__
State
p2423
(dp2424
g3
F-2.0
sg4
F0.0
sg5
F2.0
sg6
F-8.0
sb(dp2425
I00
F-2.5040000000000004
sI01
F-72.7
ss(i__main__
State
p2426
(dp2427
g3
F-2.0
sg4
F6.0
sg5
F2.0
sg6
F-2.0
sb(dp2428
I00
F44.03
sI01
I-24
ss(i__main__
State
p2429
(dp2430
g3
F-1.0
sg4
F1.0
sg5
F1.0
sg6
F-2.0
sb(dp2431
I00
F16.536
sI01
I-100
ss(i__main__
State
p2432
(dp2433
g3
F-1.0
sg4
F2.0
sg5
F1.0
sg6
F4.0
sb(dp2434
I00
I-96
sI01
F62.9
ss(i__main__
State
p2435
(dp2436
g3
F-8.0
sg4
F1.0
sg5
F8.0
sg6
F-4.0
sb(dp2437
I00
F73.1
sI01
I-85
ss(i__main__
State
p2438
(dp2439
g3
F4.0
sg4
F1.0
sg5
F-4.0
sg6
F0.0
sb(dp2440
I00
I-51
sI01
F66.4
ss(i__main__
State
p2441
(dp2442
g3
F-7.0
sg4
F7.0
sg5
F7.0
sg6
F-8.0
sb(dp2443
I00
F26.55
sI01
I29
ss(i__main__
State
p2444
(dp2445
g3
F-2.0
sg4
F9.0
sg5
F2.0
sg6
F-6.0
sb(dp2446
I00
F10.0
sI01
F0.0
ss(i__main__
State
p2447
(dp2448
g3
F2.0
sg4
F10.0
sg5
F-2.0
sg6
F2.0
sb(dp2449
I00
F48.190200000000004
sI01
F0.0
ss(i__main__
State
p2450
(dp2451
g3
F-6.0
sg4
F2.0
sg5
F6.0
sg6
F-4.0
sb(dp2452
I00
F-62.2
sI01
F85.7
ss(i__main__
State
p2453
(dp2454
g3
F3.0
sg4
F6.0
sg5
F-3.0
sg6
F-2.0
sb(dp2455
I00
F76.37
sI01
I-39
ss(i__main__
State
p2456
(dp2457
g3
F-1.0
sg4
F0.0
sg5
F1.0
sg6
F-4.0
sb(dp2458
I00
F51.502
sI01
F83.8
ss(i__main__
State
p2459
(dp2460
g3
F6.0
sg4
F0.0
sg5
F-6.0
sg6
F-2.0
sb(dp2461
I00
F50.952299999999994
sI01
F2.59
ss(i__main__
State
p2462
(dp2463
g3
F7.0
sg4
F5.0
sg5
F-7.0
sg6
F-8.0
sb(dp2464
I00
I-86
sI01
F55.3
ss(i__main__
State
p2465
(dp2466
g3
F1.0
sg4
F7.0
sg5
F-1.0
sg6
F2.0
sb(dp2467
I00
F13.2
sI01
F-30.340000000000003
ss(i__main__
State
p2468
(dp2469
g3
F7.0
sg4
F0.0
sg5
F-7.0
sg6
F-2.0
sb(dp2470
I00
I63
sI01
F40.62
ss(i__main__
State
p2471
(dp2472
g3
F-2.0
sg4
F0.0
sg5
F2.0
sg6
F2.0
sb(dp2473
I00
F-66.72
sI01
F49.25
ss(i__main__
State
p2474
(dp2475
g3
F7.0
sg4
F1.0
sg5
F-7.0
sg6
F8.0
sb(dp2476
I00
F58.00000000000001
sI01
I-35
ss(i__main__
State
p2477
(dp2478
g3
F8.0
sg4
F0.0
sg5
F-8.0
sg6
F-4.0
sb(dp2479
I00
F94.5
sI01
I84
ss(i__main__
State
p2480
(dp2481
g3
F-2.0
sg4
F10.0
sg5
F2.0
sg6
F8.0
sb(dp2482
I00
F47.266000000000005
sI01
F0.0
ss(i__main__
State
p2483
(dp2484
g3
F7.0
sg4
F2.0
sg5
F-7.0
sg6
F8.0
sb(dp2485
I00
F13.1
sI01
I-63
ss(i__main__
State
p2486
(dp2487
g3
F-5.0
sg4
F0.0
sg5
F5.0
sg6
F4.0
sb(dp2488
I00
F37.900000000000006
sI01
I-40
ss(i__main__
State
p2489
(dp2490
g3
F7.0
sg4
F0.0
sg5
F-7.0
sg6
F8.0
sb(dp2491
I00
I-99
sI01
F31.486
ss(i__main__
State
p2492
(dp2493
g3
F5.0
sg4
F9.0
sg5
F-5.0
sg6
F0.0
sb(dp2494
I00
F-1000.0
sI01
F0.0
ss(i__main__
State
p2495
(dp2496
g3
F-3.0
sg4
F3.0
sg5
F3.0
sg6
F-6.0
sb(dp2497
I00
I26
sI01
F28.398799999999994
ss(i__main__
State
p2498
(dp2499
g3
F-3.0
sg4
F5.0
sg5
F3.0
sg6
F8.0
sb(dp2500
I00
I-62
sI01
F54.1
ss(i__main__
State
p2501
(dp2502
g3
F1.0
sg4
F4.0
sg5
F-1.0
sg6
F-8.0
sb(dp2503
I00
I29
sI01
F65.775
ss(i__main__
State
p2504
(dp2505
g3
F2.0
sg4
F4.0
sg5
F-2.0
sg6
F2.0
sb(dp2506
I00
I-14
sI01
F89.53
ss(i__main__
State
p2507
(dp2508
g3
F-7.0
sg4
F4.0
sg5
F7.0
sg6
F-8.0
sb(dp2509
I00
I13
sI01
F22.584
ss(i__main__
State
p2510
(dp2511
g3
F-7.0
sg4
F0.0
sg5
F7.0
sg6
F6.0
sb(dp2512
I00
F70.6
sI01
F55.7
ss(i__main__
State
p2513
(dp2514
g3
F-1.0
sg4
F10.0
sg5
F1.0
sg6
F-2.0
sb(dp2515
I00
F20.0
sI01
F0.0
ss(i__main__
State
p2516
(dp2517
g3
F3.0
sg4
F3.0
sg5
F-3.0
sg6
F2.0
sb(dp2518
I00
I-21
sI01
F5.742000000000001
ss(i__main__
State
p2519
(dp2520
g3
F4.0
sg4
F6.0
sg5
F-4.0
sg6
F0.0
sb(dp2521
I00
I-37
sI01
F85.9
ss(i__main__
State
p2522
(dp2523
g3
F4.0
sg4
F2.0
sg5
F-4.0
sg6
F-4.0
sb(dp2524
I00
F24.5
sI01
F-58.379999999999995
ss(i__main__
State
p2525
(dp2526
g3
F3.0
sg4
F9.0
sg5
F-3.0
sg6
F2.0
sb(dp2527
I00
F10.0
sI01
F0.0
ss(i__main__
State
p2528
(dp2529
g3
F-5.0
sg4
F6.0
sg5
F5.0
sg6
F-4.0
sb(dp2530
I00
F33.93
sI01
I7
ss(i__main__
State
p2531
(dp2532
g3
F-4.0
sg4
F0.0
sg5
F4.0
sg6
F2.0
sb(dp2533
I00
F73.17
sI01
F-72.84
ss(i__main__
State
p2534
(dp2535
g3
F6.0
sg4
F5.0
sg5
F-6.0
sg6
F-8.0
sb(dp2536
I00
I-5
sI01
F30.9901
ss(i__main__
State
p2537
(dp2538
g3
F-2.0
sg4
F10.0
sg5
F2.0
sg6
F-6.0
sb(dp2539
I00
F0.0
sI01
F14.470000000000002
ss(i__main__
State
p2540
(dp2541
g3
F-3.0
sg4
F2.0
sg5
F3.0
sg6
F0.0
sb(dp2542
I00
F22.36
sI01
F-89.8
ss(i__main__
State
p2543
(dp2544
g3
F1.0
sg4
F8.0
sg5
F-1.0
sg6
F-4.0
sb(dp2545
I00
F-72.9
sI01
F22.32114
ss(i__main__
State
p2546
(dp2547
g3
F6.0
sg4
F8.0
sg5
F-6.0
sg6
F6.0
sb(dp2548
I00
F20.0
sI01
F0.0
ss(i__main__
State
p2549
(dp2550
g3
F-4.0
sg4
F2.0
sg5
F4.0
sg6
F-2.0
sb(dp2551
I00
I-85
sI01
F-31.59
ss(i__main__
State
p2552
(dp2553
g3
F8.0
sg4
F9.0
sg5
F-8.0
sg6
F8.0
sb(dp2554
I00
F26.6
sI01
F0.0
ss(i__main__
State
p2555
(dp2556
g3
F4.0
sg4
F6.0
sg5
F-4.0
sg6
F-4.0
sb(dp2557
I00
F-51.019999999999996
sI01
F-26.19
ss(i__main__
State
p2558
(dp2559
g3
F-7.0
sg4
F4.0
sg5
F7.0
sg6
F-4.0
sb(dp2560
I00
F-11.079999999999998
sI01
F11.600000000000001
ss(i__main__
State
p2561
(dp2562
g3
F5.0
sg4
F8.0
sg5
F-5.0
sg6
F-2.0
sb(dp2563
I00
F10.0
sI01
F0.0
ss(i__main__
State
p2564
(dp2565
g3
F3.0
sg4
F5.0
sg5
F-3.0
sg6
F6.0
sb(dp2566
I00
I-91
sI01
F-79.9
ss(i__main__
State
p2567
(dp2568
g3
F6.0
sg4
F0.0
sg5
F-6.0
sg6
F8.0
sb(dp2569
I00
F79.6
sI01
I-93
ss(i__main__
State
p2570
(dp2571
g3
F6.0
sg4
F2.0
sg5
F-6.0
sg6
F-4.0
sb(dp2572
I00
F-12.52
sI01
I-77
ss(i__main__
State
p2573
(dp2574
g3
F6.0
sg4
F5.0
sg5
F-6.0
sg6
F4.0
sb(dp2575
I00
I-35
sI01
F88.0
ss(i__main__
State
p2576
(dp2577
g3
F-6.0
sg4
F4.0
sg5
F6.0
sg6
F-8.0
sb(dp2578
I00
F13.4
sI01
I-96
ss(i__main__
State
p2579
(dp2580
g3
F4.0
sg4
F10.0
sg5
F-4.0
sg6
F0.0
sb(dp2581
I00
F40.0
sI01
F9.8
ss(i__main__
State
p2582
(dp2583
g3
F-5.0
sg4
F8.0
sg5
F5.0
sg6
F8.0
sb(dp2584
I00
F40.0
sI01
F10.0
ss(i__main__
State
p2585
(dp2586
g3
F3.0
sg4
F5.0
sg5
F-3.0
sg6
F-6.0
sb(dp2587
I00
F7.9
sI01
I-81
ss(i__main__
State
p2588
(dp2589
g3
F0.0
sg4
F6.0
sg5
F0.0
sg6
F-6.0
sb(dp2590
I00
F10.51
sI01
I-84
ss(i__main__
State
p2591
(dp2592
g3
F7.0
sg4
F10.0
sg5
F-7.0
sg6
F-4.0
sb(dp2593
I00
F0.0
sI01
F71.912879
ss(i__main__
State
p2594
(dp2595
g3
F1.0
sg4
F8.0
sg5
F-1.0
sg6
F2.0
sb(dp2596
I00
F-81.0
sI01
F10.0
ss(i__main__
State
p2597
(dp2598
g3
F-6.0
sg4
F9.0
sg5
F6.0
sg6
F6.0
sb(dp2599
I00
F50.00053
sI01
F0.0
ss(i__main__
State
p2600
(dp2601
g3
F7.0
sg4
F4.0
sg5
F-7.0
sg6
F-4.0
sb(dp2602
I00
F87.1842
sI01
I-85
ss(i__main__
State
p2603
(dp2604
g3
F8.0
sg4
F2.0
sg5
F-8.0
sg6
F6.0
sb(dp2605
I00
F53.0
sI01
I57
ss(i__main__
State
p2606
(dp2607
g3
F-7.0
sg4
F9.0
sg5
F7.0
sg6
F-8.0
sb(dp2608
I00
F0.0
sI01
F20.0
ss(i__main__
State
p2609
(dp2610
g3
F-2.0
sg4
F10.0
sg5
F2.0
sg6
F6.0
sb(dp2611
I00
F10.0
sI01
F16.6
ss(i__main__
State
p2612
(dp2613
g3
F2.0
sg4
F1.0
sg5
F-2.0
sg6
F0.0
sb(dp2614
I00
I-97
sI01
F57.83
ss(i__main__
State
p2615
(dp2616
g3
F0.0
sg4
F8.0
sg5
F0.0
sg6
F0.0
sb(dp2617
I00
F-1000.0
sI01
F-1000.0
ss(i__main__
State
p2618
(dp2619
g3
F2.0
sg4
F4.0
sg5
F-2.0
sg6
F8.0
sb(dp2620
I00
F40.665
sI01
I-92
ss(i__main__
State
p2621
(dp2622
g3
F4.0
sg4
F5.0
sg5
F-4.0
sg6
F-2.0
sb(dp2623
I00
F79.2
sI01
F52.7
ss(i__main__
State
p2624
(dp2625
g3
F1.0
sg4
F9.0
sg5
F-1.0
sg6
F6.0
sb(dp2626
I00
F10.0
sI01
F0.0
ss(i__main__
State
p2627
(dp2628
g3
F-7.0
sg4
F3.0
sg5
F7.0
sg6
F0.0
sb(dp2629
I00
F-86.0
sI01
F24.7747
ss(i__main__
State
p2630
(dp2631
g3
F-7.0
sg4
F10.0
sg5
F7.0
sg6
F8.0
sb(dp2632
I00
F10.0
sI01
F0.0
ss(i__main__
State
p2633
(dp2634
g3
F7.0
sg4
F1.0
sg5
F-7.0
sg6
F-8.0
sb(dp2635
I00
F-65.2
sI01
F-37.6
ss(i__main__
State
p2636
(dp2637
g3
F-1.0
sg4
F0.0
sg5
F1.0
sg6
F8.0
sb(dp2638
I00
F47.35960000000001
sI01
I18
ss(i__main__
State
p2639
(dp2640
g3
F-6.0
sg4
F8.0
sg5
F6.0
sg6
F2.0
sb(dp2641
I00
F10.0
sI01
F10.0
ss(i__main__
State
p2642
(dp2643
g3
F-1.0
sg4
F10.0
sg5
F1.0
sg6
F2.0
sb(dp2644
I00
F10.0
sI01
F38.616
ss(i__main__
State
p2645
(dp2646
g3
F8.0
sg4
F5.0
sg5
F-8.0
sg6
F8.0
sb(dp2647
I00
F14.3
sI01
I-16
ss(i__main__
State
p2648
(dp2649
g3
F-3.0
sg4
F0.0
sg5
F3.0
sg6
F-6.0
sb(dp2650
I00
F-20.75
sI01
F-25.2
ss(i__main__
State
p2651
(dp2652
g3
F6.0
sg4
F10.0
sg5
F-6.0
sg6
F-4.0
sb(dp2653
I00
F20.0
sI01
F0.0
ss(i__main__
State
p2654
(dp2655
g3
F-7.0
sg4
F2.0
sg5
F7.0
sg6
F6.0
sb(dp2656
I00
F61.4
sI01
I18
ss(i__main__
State
p2657
(dp2658
g3
F3.0
sg4
F10.0
sg5
F-3.0
sg6
F-2.0
sb(dp2659
I00
F49.953
sI01
F0.0
ss(i__main__
State
p2660
(dp2661
g3
F5.0
sg4
F3.0
sg5
F-5.0
sg6
F2.0
sb(dp2662
I00
F-27.79
sI01
F-57.9
ss(i__main__
State
p2663
(dp2664
g3
F-5.0
sg4
F1.0
sg5
F5.0
sg6
F-2.0
sb(dp2665
I00
I-39
sI01
F-92.9
ss(i__main__
State
p2666
(dp2667
g3
F1.0
sg4
F5.0
sg5
F-1.0
sg6
F2.0
sb(dp2668
I00
I62
sI01
F94.3
ss(i__main__
State
p2669
(dp2670
g3
F0.0
sg4
F5.0
sg5
F0.0
sg6
F2.0
sb(dp2671
I00
F-93.2
sI01
F35.714
ss(i__main__
State
p2672
(dp2673
g3
F-8.0
sg4
F3.0
sg5
F8.0
sg6
F-8.0
sb(dp2674
I00
I-62
sI01
F-12.1591
ss(i__main__
State
p2675
(dp2676
g3
F1.0
sg4
F7.0
sg5
F-1.0
sg6
F-2.0
sb(dp2677
I00
I86
sI01
F-26.1
ss(i__main__
State
p2678
(dp2679
g3
F-6.0
sg4
F3.0
sg5
F6.0
sg6
F0.0
sb(dp2680
I00
F24.65
sI01
I95
ss(i__main__
State
p2681
(dp2682
g3
F-7.0
sg4
F3.0
sg5
F7.0
sg6
F8.0
sb(dp2683
I00
F-61.03
sI01
F-38.6
ss(i__main__
State
p2684
(dp2685
g3
F8.0
sg4
F4.0
sg5
F-8.0
sg6
F0.0
sb(dp2686
I00
F-16.5
sI01
I-19
ss(i__main__
State
p2687
(dp2688
g3
F-8.0
sg4
F10.0
sg5
F8.0
sg6
F8.0
sb(dp2689
I00
F0.0
sI01
F27.092060999999998
ss(i__main__
State
p2690
(dp2691
g3
F3.0
sg4
F5.0
sg5
F-3.0
sg6
F2.0
sb(dp2692
I00
I-11
sI01
F39.75
ss(i__main__
State
p2693
(dp2694
g3
F8.0
sg4
F10.0
sg5
F-8.0
sg6
F4.0
sb(dp2695
I00
F30.0
sI01
F0.0
ss(i__main__
State
p2696
(dp2697
g3
F4.0
sg4
F4.0
sg5
F-4.0
sg6
F2.0
sb(dp2698
I00
F-1.6999999999999993
sI01
I-22
ss(i__main__
State
p2699
(dp2700
g3
F-1.0
sg4
F0.0
sg5
F1.0
sg6
F0.0
sb(dp2701
I00
F-70.2
sI01
F-43.5
ss(i__main__
State
p2702
(dp2703
g3
F-5.0
sg4
F9.0
sg5
F5.0
sg6
F0.0
sb(dp2704
I00
F-1000.0
sI01
F0.0
ss(i__main__
State
p2705
(dp2706
g3
F-4.0
sg4
F8.0
sg5
F4.0
sg6
F-6.0
sb(dp2707
I00
F22.89
sI01
F10.0
ss(i__main__
State
p2708
(dp2709
g3
F8.0
sg4
F3.0
sg5
F-8.0
sg6
F6.0
sb(dp2710
I00
F-60.0
sI01
I27
ss(i__main__
State
p2711
(dp2712
g3
F-4.0
sg4
F2.0
sg5
F4.0
sg6
F2.0
sb(dp2713
I00
F-23.0
sI01
F67.0
ss(i__main__
State
p2714
(dp2715
g3
F4.0
sg4
F3.0
sg5
F-4.0
sg6
F-8.0
sb(dp2716
I00
F61.2
sI01
I-9
ss(i__main__
State
p2717
(dp2718
g3
F-2.0
sg4
F6.0
sg5
F2.0
sg6
F2.0
sb(dp2719
I00
I-57
sI01
F3.3000000000000003
ss(i__main__
State
p2720
(dp2721
g3
F-3.0
sg4
F1.0
sg5
F3.0
sg6
F6.0
sb(dp2722
I00
I25
sI01
F65.281
ss(i__main__
State
p2723
(dp2724
g3
F0.0
sg4
F9.0
sg5
F0.0
sg6
F6.0
sb(dp2725
I00
F10.0
sI01
F0.0
ss(i__main__
State
p2726
(dp2727
g3
F-2.0
sg4
F0.0
sg5
F2.0
sg6
F4.0
sb(dp2728
I00
F33.7
sI01
F46.623000000000005
ss(i__main__
State
p2729
(dp2730
g3
F8.0
sg4
F3.0
sg5
F-8.0
sg6
F-6.0
sb(dp2731
I00
F14.100000000000001
sI01
F90.0
ss(i__main__
State
p2732
(dp2733
g3
F-4.0
sg4
F9.0
sg5
F4.0
sg6
F8.0
sb(dp2734
I00
F10.0
sI01
F0.0
ss(i__main__
State
p2735
(dp2736
g3
F-5.0
sg4
F3.0
sg5
F5.0
sg6
F6.0
sb(dp2737
I00
F62.4
sI01
I-46
ss(i__main__
State
p2738
(dp2739
g3
F-8.0
sg4
F7.0
sg5
F8.0
sg6
F-2.0
sb(dp2740
I00
F71.45859999999999
sI01
I42
ss(i__main__
State
p2741
(dp2742
g3
F-6.0
sg4
F10.0
sg5
F6.0
sg6
F4.0
sb(dp2743
I00
F29.9518
sI01
F16.900000000000002
ss(i__main__
State
p2744
(dp2745
g3
F5.0
sg4
F10.0
sg5
F-5.0
sg6
F2.0
sb(dp2746
I00
F20.0
sI01
F0.0
ss(i__main__
State
p2747
(dp2748
g3
F-6.0
sg4
F3.0
sg5
F6.0
sg6
F8.0
sb(dp2749
I00
I-50
sI01
F4.085000000000001
ss(i__main__
State
p2750
(dp2751
g3
F-4.0
sg4
F8.0
sg5
F4.0
sg6
F0.0
sb(dp2752
I00
F11.0
sI01
F10.0
ss(i__main__
State
p2753
(dp2754
g3
F-3.0
sg4
F1.0
sg5
F3.0
sg6
F-6.0
sb(dp2755
I00
I-61
sI01
F58.1
ss(i__main__
State
p2756
(dp2757
g3
F-2.0
sg4
F8.0
sg5
F2.0
sg6
F-6.0
sb(dp2758
I00
F49.917733999999996
sI01
F0.0
ss(i__main__
State
p2759
(dp2760
g3
F-6.0
sg4
F6.0
sg5
F6.0
sg6
F-6.0
sb(dp2761
I00
F9.94726
sI01
I-38
ss(i__main__
State
p2762
(dp2763
g3
F2.0
sg4
F5.0
sg5
F-2.0
sg6
F-4.0
sb(dp2764
I00
I-20
sI01
F-46.9
ss(i__main__
State
p2765
(dp2766
g3
F-8.0
sg4
F9.0
sg5
F8.0
sg6
F0.0
sb(dp2767
I00
F-1897.9
sI01
F-1000.0
ss(i__main__
State
p2768
(dp2769
g3
F-7.0
sg4
F5.0
sg5
F7.0
sg6
F4.0
sb(dp2770
I00
I75
sI01
F77.0
ss(i__main__
State
p2771
(dp2772
g3
F-7.0
sg4
F6.0
sg5
F7.0
sg6
F4.0
sb(dp2773
I00
I28
sI01
F17.82
ss(i__main__
State
p2774
(dp2775
g3
F-6.0
sg4
F4.0
sg5
F6.0
sg6
F2.0
sb(dp2776
I00
F4.300000000000001
sI01
F85.1
ss(i__main__
State
p2777
(dp2778
g3
F-5.0
sg4
F10.0
sg5
F5.0
sg6
F2.0
sb(dp2779
I00
F31.71
sI01
F0.0
ss(i__main__
State
p2780
(dp2781
g3
F-7.0
sg4
F6.0
sg5
F7.0
sg6
F-4.0
sb(dp2782
I00
F-50.032
sI01
F52.7896
ss(i__main__
State
p2783
(dp2784
g3
F-6.0
sg4
F9.0
sg5
F6.0
sg6
F-2.0
sb(dp2785
I00
F-72.9
sI01
F24.5606
ss(i__main__
State
p2786
(dp2787
g3
F-1.0
sg4
F3.0
sg5
F1.0
sg6
F6.0
sb(dp2788
I00
F-0.9099999999999999
sI01
F-13.1
ss(i__main__
State
p2789
(dp2790
g3
F0.0
sg4
F6.0
sg5
F0.0
sg6
F0.0
sb(dp2791
I00
I-43
sI01
F53.3
ss(i__main__
State
p2792
(dp2793
g3
F3.0
sg4
F9.0
sg5
F-3.0
sg6
F4.0
sb(dp2794
I00
F0.0
sI01
F20.0
ss(i__main__
State
p2795
(dp2796
g3
F-4.0
sg4
F4.0
sg5
F4.0
sg6
F4.0
sb(dp2797
I00
F77.0
sI01
F4.8
ss(i__main__
State
p2798
(dp2799
g3
F-7.0
sg4
F1.0
sg5
F7.0
sg6
F0.0
sb(dp2800
I00
F80.1
sI01
I26
ss(i__main__
State
p2801
(dp2802
g3
F7.0
sg4
F7.0
sg5
F-7.0
sg6
F-2.0
sb(dp2803
I00
I-58
sI01
F-49.3
ss(i__main__
State
p2804
(dp2805
g3
F0.0
sg4
F10.0
sg5
F0.0
sg6
F-2.0
sb(dp2806
I00
F-1898.8899999999999
sI01
F-1910.83
ss(i__main__
State
p2807
(dp2808
g3
F2.0
sg4
F9.0
sg5
F-2.0
sg6
F-8.0
sb(dp2809
I00
F20.0
sI01
F0.0
ss(i__main__
State
p2810
(dp2811
g3
F0.0
sg4
F10.0
sg5
F0.0
sg6
F-4.0
sb(dp2812
I00
F-1899.0
sI01
F0.0
ss(i__main__
State
p2813
(dp2814
g3
F4.0
sg4
F8.0
sg5
F-4.0
sg6
F8.0
sb(dp2815
I00
F47.290000000000006
sI01
F14.2249
ss(i__main__
State
p2816
(dp2817
g3
F4.0
sg4
F0.0
sg5
F-4.0
sg6
F-4.0
sb(dp2818
I00
I-32
sI01
F-8.48
ss(i__main__
State
p2819
(dp2820
g3
F1.0
sg4
F10.0
sg5
F-1.0
sg6
F6.0
sb(dp2821
I00
F19.0
sI01
F0.0
ss(i__main__
State
p2822
(dp2823
g3
F7.0
sg4
F3.0
sg5
F-7.0
sg6
F-4.0
sb(dp2824
I00
I-57
sI01
F60.65
ss(i__main__
State
p2825
(dp2826
g3
F7.0
sg4
F7.0
sg5
F-7.0
sg6
F2.0
sb(dp2827
I00
F-27.4
sI01
F37.301269
ss(i__main__
State
p2828
(dp2829
g3
F4.0
sg4
F6.0
sg5
F-4.0
sg6
F-6.0
sb(dp2830
I00
I54
sI01
F76.179
ss(i__main__
State
p2831
(dp2832
g3
F-5.0
sg4
F2.0
sg5
F5.0
sg6
F2.0
sb(dp2833
I00
I58
sI01
F14.1
ss(i__main__
State
p2834
(dp2835
g3
F-8.0
sg4
F2.0
sg5
F8.0
sg6
F4.0
sb(dp2836
I00
F69.6
sI01
I-55
ss(i__main__
State
p2837
(dp2838
g3
F2.0
sg4
F7.0
sg5
F-2.0
sg6
F6.0
sb(dp2839
I00
F22.805
sI01
F-39.6
ss(i__main__
State
p2840
(dp2841
g3
F-5.0
sg4
F5.0
sg5
F5.0
sg6
F0.0
sb(dp2842
I00
F75.25
sI01
I-83
ss(i__main__
State
p2843
(dp2844
g3
F5.0
sg4
F6.0
sg5
F-5.0
sg6
F8.0
sb(dp2845
I00
F-1.6
sI01
I-99
ss(i__main__
State
p2846
(dp2847
g3
F2.0
sg4
F6.0
sg5
F-2.0
sg6
F0.0
sb(dp2848
I00
I82
sI01
F89.19
ss(i__main__
State
p2849
(dp2850
g3
F3.0
sg4
F9.0
sg5
F-3.0
sg6
F-8.0
sb(dp2851
I00
F61.16169
sI01
F0.0
ss(i__main__
State
p2852
(dp2853
g3
F8.0
sg4
F7.0
sg5
F-8.0
sg6
F2.0
sb(dp2854
I00
I27
sI01
F69.03999999999999
ss(i__main__
State
p2855
(dp2856
g3
F0.0
sg4
F6.0
sg5
F0.0
sg6
F8.0
sb(dp2857
I00
F-12.72
sI01
F12.37991
ss(i__main__
State
p2858
(dp2859
g3
F-7.0
sg4
F9.0
sg5
F7.0
sg6
F8.0
sb(dp2860
I00
F50.02348
sI01
F0.0
ss(i__main__
State
p2861
(dp2862
g3
F8.0
sg4
F1.0
sg5
F-8.0
sg6
F-6.0
sb(dp2863
I00
I17
sI01
F34.35
ss(i__main__
State
p2864
(dp2865
g3
F-3.0
sg4
F1.0
sg5
F3.0
sg6
F8.0
sb(dp2866
I00
F52.9
sI01
I-12
ss(i__main__
State
p2867
(dp2868
g3
F-7.0
sg4
F8.0
sg5
F7.0
sg6
F4.0
sb(dp2869
I00
F11.100000000000001
sI01
F0.0
ss(i__main__
State
p2870
(dp2871
g3
F-8.0
sg4
F6.0
sg5
F8.0
sg6
F-6.0
sb(dp2872
I00
I-10
sI01
F12.9
ss(i__main__
State
p2873
(dp2874
g3
F5.0
sg4
F7.0
sg5
F-5.0
sg6
F-6.0
sb(dp2875
I00
F-73.4
sI01
I-97
ss(i__main__
State
p2876
(dp2877
g3
F6.0
sg4
F2.0
sg5
F-6.0
sg6
F-2.0
sb(dp2878
I00
I-97
sI01
F76.94
ss(i__main__
State
p2879
(dp2880
g3
F-3.0
sg4
F7.0
sg5
F3.0
sg6
F8.0
sb(dp2881
I00
F-21.7087
sI01
I-92
ss(i__main__
State
p2882
(dp2883
g3
F2.0
sg4
F5.0
sg5
F-2.0
sg6
F6.0
sb(dp2884
I00
F35.980000000000004
sI01
I-96
ss(i__main__
State
p2885
(dp2886
g3
F-7.0
sg4
F6.0
sg5
F7.0
sg6
F-2.0
sb(dp2887
I00
F-10.2
sI01
I-13
ss(i__main__
State
p2888
(dp2889
g3
F0.0
sg4
F7.0
sg5
F0.0
sg6
F2.0
sb(dp2890
I00
F-17.0
sI01
I-60
ss(i__main__
State
p2891
(dp2892
g3
F0.0
sg4
F10.0
sg5
F0.0
sg6
F4.0
sb(dp2893
I00
F-2707.1
sI01
F-1902.94
ss(i__main__
State
p2894
(dp2895
g3
F5.0
sg4
F6.0
sg5
F-5.0
sg6
F0.0
sb(dp2896
I00
I7
sI01
F17.0
ss(i__main__
State
p2897
(dp2898
g3
F-4.0
sg4
F1.0
sg5
F4.0
sg6
F-8.0
sb(dp2899
I00
F75.22
sI01
I35
ss(i__main__
State
p2900
(dp2901
g3
F6.0
sg4
F9.0
sg5
F-6.0
sg6
F-6.0
sb(dp2902
I00
F39.99
sI01
F21.9
ss(i__main__
State
p2903
(dp2904
g3
F5.0
sg4
F8.0
sg5
F-5.0
sg6
F-8.0
sb(dp2905
I00
F10.0
sI01
F0.0
ss(i__main__
State
p2906
(dp2907
g3
F-3.0
sg4
F3.0
sg5
F3.0
sg6
F6.0
sb(dp2908
I00
F-51.769999999999996
sI01
I-89
ss(i__main__
State
p2909
(dp2910
g3
F-5.0
sg4
F7.0
sg5
F5.0
sg6
F6.0
sb(dp2911
I00
I-41
sI01
F44.74
ss(i__main__
State
p2912
(dp2913
g3
F0.0
sg4
F9.0
sg5
F0.0
sg6
F-4.0
sb(dp2914
I00
F19.9
sI01
F0.0
ss(i__main__
State
p2915
(dp2916
g3
F2.0
sg4
F2.0
sg5
F-2.0
sg6
F-8.0
sb(dp2917
I00
I-60
sI01
F-30.0
ss(i__main__
State
p2918
(dp2919
g3
F5.0
sg4
F10.0
sg5
F-5.0
sg6
F-4.0
sb(dp2920
I00
F20.0
sI01
F17.96
ss(i__main__
State
p2921
(dp2922
g3
F-1.0
sg4
F8.0
sg5
F1.0
sg6
F2.0
sb(dp2923
I00
F11.0
sI01
F0.0
ss(i__main__
State
p2924
(dp2925
g3
F-3.0
sg4
F10.0
sg5
F3.0
sg6
F-8.0
sb(dp2926
I00
F38.784
sI01
F9.4
ss(i__main__
State
p2927
(dp2928
g3
F6.0
sg4
F7.0
sg5
F-6.0
sg6
F4.0
sb(dp2929
I00
I-38
sI01
F20.7
ss(i__main__
State
p2930
(dp2931
g3
F8.0
sg4
F0.0
sg5
F-8.0
sg6
F-8.0
sb(dp2932
I00
I-96
sI01
F-2.930997000000004
ss(i__main__
State
p2933
(dp2934
g3
F-3.0
sg4
F4.0
sg5
F3.0
sg6
F-8.0
sb(dp2935
I00
F8.36
sI01
I-89
ss(i__main__
State
p2936
(dp2937
g3
F7.0
sg4
F0.0
sg5
F-7.0
sg6
F6.0
sb(dp2938
I00
F77.1
sI01
F73.84
ss(i__main__
State
p2939
(dp2940
g3
F-3.0
sg4
F7.0
sg5
F3.0
sg6
F0.0
sb(dp2941
I00
I-47
sI01
F12.9
ss(i__main__
State
p2942
(dp2943
g3
F0.0
sg4
F1.0
sg5
F0.0
sg6
F0.0
sb(dp2944
I00
F-27.830000000000005
sI01
F-73.8
ss(i__main__
State
p2945
(dp2946
g3
F1.0
sg4
F10.0
sg5
F-1.0
sg6
F8.0
sb(dp2947
I00
F19.0
sI01
F0.0
ss(i__main__
State
p2948
(dp2949
g3
F-7.0
sg4
F5.0
sg5
F7.0
sg6
F-4.0
sb(dp2950
I00
I-57
sI01
F76.3
ss(i__main__
State
p2951
(dp2952
g3
F-4.0
sg4
F8.0
sg5
F4.0
sg6
F-4.0
sb(dp2953
I00
F10.0
sI01
F13.330700000000002
ss(i__main__
State
p2954
(dp2955
g3
F2.0
sg4
F2.0
sg5
F-2.0
sg6
F0.0
sb(dp2956
I00
I-83
sI01
F-0.597999999999999
ss(i__main__
State
p2957
(dp2958
g3
F-8.0
sg4
F0.0
sg5
F8.0
sg6
F8.0
sb(dp2959
I00
F75.567646
sI01
I-24
ss(i__main__
State
p2960
(dp2961
g3
F2.0
sg4
F8.0
sg5
F-2.0
sg6
F2.0
sb(dp2962
I00
F32.33
sI01
F0.0
ss(i__main__
State
p2963
(dp2964
g3
F0.0
sg4
F5.0
sg5
F0.0
sg6
F-8.0
sb(dp2965
I00
I-27
sI01
F89.05
ss(i__main__
State
p2966
(dp2967
g3
F-1.0
sg4
F9.0
sg5
F1.0
sg6
F-6.0
sb(dp2968
I00
F30.090000000000003
sI01
F0.0
ss(i__main__
State
p2969
(dp2970
g3
F7.0
sg4
F2.0
sg5
F-7.0
sg6
F4.0
sb(dp2971
I00
F-15.9
sI01
I-25
ss(i__main__
State
p2972
(dp2973
g3
F-1.0
sg4
F1.0
sg5
F1.0
sg6
F-8.0
sb(dp2974
I00
F74.01
sI01
I14
ss(i__main__
State
p2975
(dp2976
g3
F7.0
sg4
F9.0
sg5
F-7.0
sg6
F-6.0
sb(dp2977
I00
F0.0
sI01
F20.0
ss(i__main__
State
p2978
(dp2979
g3
F8.0
sg4
F0.0
sg5
F-8.0
sg6
F6.0
sb(dp2980
I00
I-66
sI01
F40.05
ss(i__main__
State
p2981
(dp2982
g3
F-1.0
sg4
F4.0
sg5
F1.0
sg6
F6.0
sb(dp2983
I00
I-19
sI01
F30.6
ss(i__main__
State
p2984
(dp2985
g3
F1.0
sg4
F9.0
sg5
F-1.0
sg6
F0.0
sb(dp2986
I00
F-997.8100000000001
sI01
F0.0
ss(i__main__
State
p2987
(dp2988
g3
F4.0
sg4
F3.0
sg5
F-4.0
sg6
F2.0
sb(dp2989
I00
I-66
sI01
F48.34
ss(i__main__
State
p2990
(dp2991
g3
F3.0
sg4
F8.0
sg5
F-3.0
sg6
F-4.0
sb(dp2992
I00
F30.990000000000002
sI01
F0.0
ss(i__main__
State
p2993
(dp2994
g3
F2.0
sg4
F2.0
sg5
F-2.0
sg6
F6.0
sb(dp2995
I00
I-55
sI01
F5.698589999999999
ss(i__main__
State
p2996
(dp2997
g3
F-1.0
sg4
F7.0
sg5
F1.0
sg6
F4.0
sb(dp2998
I00
F63.2
sI01
I-89
ss(i__main__
State
p2999
(dp3000
g3
F-2.0
sg4
F6.0
sg5
F2.0
sg6
F8.0
sb(dp3001
I00
F94.03
sI01
I-3
ss(i__main__
State
p3002
(dp3003
g3
F-2.0
sg4
F8.0
sg5
F2.0
sg6
F4.0
sb(dp3004
I00
F10.0
sI01
F10.0
ss(i__main__
State
p3005
(dp3006
g3
F-1.0
sg4
F8.0
sg5
F1.0
sg6
F-8.0
sb(dp3007
I00
F11.0
sI01
F0.0
ss(i__main__
State
p3008
(dp3009
g3
F-3.0
sg4
F8.0
sg5
F3.0
sg6
F4.0
sb(dp3010
I00
F30.180000000000003
sI01
F0.0
ss(i__main__
State
p3011
(dp3012
g3
F4.0
sg4
F1.0
sg5
F-4.0
sg6
F-4.0
sb(dp3013
I00
F-58.784
sI01
I-88
ss(i__main__
State
p3014
(dp3015
g3
F7.0
sg4
F8.0
sg5
F-7.0
sg6
F0.0
sb(dp3016
I00
F0.0
sI01
F39.0
ss(i__main__
State
p3017
(dp3018
g3
F6.0
sg4
F6.0
sg5
F-6.0
sg6
F-8.0
sb(dp3019
I00
I62
sI01
F1.1999999999999993
ss(i__main__
State
p3020
(dp3021
g3
F4.0
sg4
F4.0
sg5
F-4.0
sg6
F-6.0
sb(dp3022
I00
F12.629999999999999
sI01
I-17
ss(i__main__
State
p3023
(dp3024
g3
F-2.0
sg4
F9.0
sg5
F2.0
sg6
F0.0
sb(dp3025
I00
F-1000.0
sI01
F-1897.098
ss(i__main__
State
p3026
(dp3027
g3
F-2.0
sg4
F8.0
sg5
F2.0
sg6
F-4.0
sb(dp3028
I00
F10.0
sI01
F19.9
ss(i__main__
State
p3029
(dp3030
g3
F-2.0
sg4
F3.0
sg5
F2.0
sg6
F4.0
sb(dp3031
I00
I67
sI01
F-30.35
ss(i__main__
State
p3032
(dp3033
g3
F5.0
sg4
F10.0
sg5
F-5.0
sg6
F-8.0
sb(dp3034
I00
F30.0
sI01
F0.0
ss(i__main__
State
p3035
(dp3036
g3
F-4.0
sg4
F2.0
sg5
F4.0
sg6
F6.0
sb(dp3037
I00
F32.559999999999995
sI01
I35
ss(i__main__
State
p3038
(dp3039
g3
F6.0
sg4
F2.0
sg5
F-6.0
sg6
F0.0
sb(dp3040
I00
I-26
sI01
F2.929999999999999
ss(i__main__
State
p3041
(dp3042
g3
F-5.0
sg4
F3.0
sg5
F5.0
sg6
F0.0
sb(dp3043
I00
F-44.5
sI01
F8.51
ss(i__main__
State
p3044
(dp3045
g3
F-3.0
sg4
F7.0
sg5
F3.0
sg6
F-6.0
sb(dp3046
I00
I-85
sI01
F37.9
ss(i__main__
State
p3047
(dp3048
g3
F-3.0
sg4
F8.0
sg5
F3.0
sg6
F2.0
sb(dp3049
I00
F20.0
sI01
F0.0
ss(i__main__
State
p3050
(dp3051
g3
F1.0
sg4
F2.0
sg5
F-1.0
sg6
F-6.0
sb(dp3052
I00
F-38.19
sI01
I-82
ss(i__main__
State
p3053
(dp3054
g3
F-4.0
sg4
F8.0
sg5
F4.0
sg6
F6.0
sb(dp3055
I00
F30.81
sI01
F0.0
ss(i__main__
State
p3056
(dp3057
g3
F-4.0
sg4
F8.0
sg5
F4.0
sg6
F8.0
sb(dp3058
I00
F10.0
sI01
F0.0
ss(i__main__
State
p3059
(dp3060
g3
F6.0
sg4
F3.0
sg5
F-6.0
sg6
F2.0
sb(dp3061
I00
F-9.899999999999999
sI01
I-20
ss(i__main__
State
p3062
(dp3063
g3
F5.0
sg4
F6.0
sg5
F-5.0
sg6
F-8.0
sb(dp3064
I00
F0.030000000000001137
sI01
F-56.43
ss(i__main__
State
p3065
(dp3066
g3
F4.0
sg4
F10.0
sg5
F-4.0
sg6
F-8.0
sb(dp3067
I00
F33.52
sI01
F10.3
ss(i__main__
State
p3068
(dp3069
g3
F1.0
sg4
F1.0
sg5
F-1.0
sg6
F4.0
sb(dp3070
I00
F84.2
sI01
I31
ss(i__main__
State
p3071
(dp3072
g3
F5.0
sg4
F8.0
sg5
F-5.0
sg6
F0.0
sb(dp3073
I00
F20.0
sI01
F0.0
ss(i__main__
State
p3074
(dp3075
g3
F-8.0
sg4
F8.0
sg5
F8.0
sg6
F8.0
sb(dp3076
I00
F11.100000000000001
sI01
F11.0
ss(i__main__
State
p3077
(dp3078
g3
F-4.0
sg4
F7.0
sg5
F4.0
sg6
F-6.0
sb(dp3079
I00
I63
sI01
F65.99
ss(i__main__
State
p3080
(dp3081
g3
F5.0
sg4
F9.0
sg5
F-5.0
sg6
F-4.0
sb(dp3082
I00
F36.91
sI01
F0.0
ss(i__main__
State
p3083
(dp3084
g3
F2.0
sg4
F3.0
sg5
F-2.0
sg6
F-2.0
sb(dp3085
I00
I-66
sI01
F43.024
ss(i__main__
State
p3086
(dp3087
g3
F4.0
sg4
F6.0
sg5
F-4.0
sg6
F4.0
sb(dp3088
I00
I60
sI01
F56.61
ss(i__main__
State
p3089
(dp3090
g3
F0.0
sg4
F8.0
sg5
F0.0
sg6
F-4.0
sb(dp3091
I00
F-1000.0
sI01
F-1898.1
ss(i__main__
State
p3092
(dp3093
g3
F-7.0
sg4
F3.0
sg5
F7.0
sg6
F-4.0
sb(dp3094
I00
I-64
sI01
F48.48
ss(i__main__
State
p3095
(dp3096
g3
F4.0
sg4
F0.0
sg5
F-4.0
sg6
F2.0
sb(dp3097
I00
F-89.3
sI01
F-22.495999999999995
ss(i__main__
State
p3098
(dp3099
g3
F7.0
sg4
F3.0
sg5
F-7.0
sg6
F8.0
sb(dp3100
I00
I-14
sI01
F8.4
ss(i__main__
State
p3101
(dp3102
g3
F-6.0
sg4
F10.0
sg5
F6.0
sg6
F0.0
sb(dp3103
I00
F65.839651
sI01
F0.0
ss(i__main__
State
p3104
(dp3105
g3
F-4.0
sg4
F9.0
sg5
F4.0
sg6
F4.0
sb(dp3106
I00
F11.0
sI01
F0.0
ss(i__main__
State
p3107
(dp3108
g3
F-6.0
sg4
F7.0
sg5
F6.0
sg6
F-4.0
sb(dp3109
I00
F-36.8
sI01
I-31
ss(i__main__
State
p3110
(dp3111
g3
F-2.0
sg4
F4.0
sg5
F2.0
sg6
F4.0
sb(dp3112
I00
F-9.0
sI01
I-58
ss(i__main__
State
p3113
(dp3114
g3
F3.0
sg4
F4.0
sg5
F-3.0
sg6
F8.0
sb(dp3115
I00
I52
sI01
F98.53999999999999
ss(i__main__
State
p3116
(dp3117
g3
F-7.0
sg4
F9.0
sg5
F7.0
sg6
F0.0
sb(dp3118
I00
F-1899.0
sI01
F-1000.0
ss(i__main__
State
p3119
(dp3120
g3
F-3.0
sg4
F10.0
sg5
F3.0
sg6
F-6.0
sb(dp3121
I00
F10.0
sI01
F0.0
ss(i__main__
State
p3122
(dp3123
g3
F3.0
sg4
F3.0
sg5
F-3.0
sg6
F-2.0
sb(dp3124
I00
F10.200000000000001
sI01
F-63.8
ss(i__main__
State
p3125
(dp3126
g3
F0.0
sg4
F2.0
sg5
F0.0
sg6
F6.0
sb(dp3127
I00
I-71
sI01
F29.529
ss(i__main__
State
p3128
(dp3129
g3
F-6.0
sg4
F5.0
sg5
F6.0
sg6
F-6.0
sb(dp3130
I00
F-19.6
sI01
F0.15390000000000104
ss(i__main__
State
p3131
(dp3132
g3
F-5.0
sg4
F8.0
sg5
F5.0
sg6
F-2.0
sb(dp3133
I00
F0.0
sI01
F10.0
ss(i__main__
State
p3134
(dp3135
g3
F5.0
sg4
F8.0
sg5
F-5.0
sg6
F8.0
sb(dp3136
I00
F0.0
sI01
F21.0
ss(i__main__
State
p3137
(dp3138
g3
F-6.0
sg4
F9.0
sg5
F6.0
sg6
F2.0
sb(dp3139
I00
F11.0
sI01
F60.0
ss(i__main__
State
p3140
(dp3141
g3
F2.0
sg4
F10.0
sg5
F-2.0
sg6
F-2.0
sb(dp3142
I00
F20.0
sI01
F6.1000000000000005
ss(i__main__
State
p3143
(dp3144
g3
F-5.0
sg4
F5.0
sg5
F5.0
sg6
F6.0
sb(dp3145
I00
I-24
sI01
F30.2
ss(i__main__
State
p3146
(dp3147
g3
F5.0
sg4
F6.0
sg5
F-5.0
sg6
F6.0
sb(dp3148
I00
I-28
sI01
F4.3100000000000005
ss(i__main__
State
p3149
(dp3150
g3
F0.0
sg4
F4.0
sg5
F0.0
sg6
F-8.0
sb(dp3151
I00
F54.74006
sI01
I-75
ss(i__main__
State
p3152
(dp3153
g3
F-8.0
sg4
F7.0
sg5
F8.0
sg6
F2.0
sb(dp3154
I00
F74.632
sI01
I45
ss(i__main__
State
p3155
(dp3156
g3
F7.0
sg4
F2.0
sg5
F-7.0
sg6
F6.0
sb(dp3157
I00
I-26
sI01
F82.178
ss(i__main__
State
p3158
(dp3159
g3
F8.0
sg4
F0.0
sg5
F-8.0
sg6
F8.0
sb(dp3160
I00
I-92
sI01
F0.21999999999999975
ss(i__main__
State
p3161
(dp3162
g3
F4.0
sg4
F3.0
sg5
F-4.0
sg6
F0.0
sb(dp3163
I00
I-92
sI01
F20.299999999999997
ss(i__main__
State
p3164
(dp3165
g3
F6.0
sg4
F1.0
sg5
F-6.0
sg6
F2.0
sb(dp3166
I00
I-28
sI01
F64.1
ss(i__main__
State
p3167
(dp3168
g3
F-4.0
sg4
F5.0
sg5
F4.0
sg6
F0.0
sb(dp3169
I00
I-89
sI01
F-10.7
ss(i__main__
State
p3170
(dp3171
g3
F-3.0
sg4
F4.0
sg5
F3.0
sg6
F8.0
sb(dp3172
I00
I53
sI01
F91.2
ss(i__main__
State
p3173
(dp3174
g3
F-8.0
sg4
F3.0
sg5
F8.0
sg6
F-4.0
sb(dp3175
I00
I35
sI01
F49.98324
ss(i__main__
State
p3176
(dp3177
g3
F3.0
sg4
F8.0
sg5
F-3.0
sg6
F-2.0
sb(dp3178
I00
F12.0
sI01
F0.0
ss(i__main__
State
p3179
(dp3180
g3
F1.0
sg4
F8.0
sg5
F-1.0
sg6
F6.0
sb(dp3181
I00
F10.0
sI01
F0.0
ss(i__main__
State
p3182
(dp3183
g3
F4.0
sg4
F2.0
sg5
F-4.0
sg6
F-2.0
sb(dp3184
I00
I-40
sI01
F52.5
ss(i__main__
State
p3185
(dp3186
g3
F1.0
sg4
F7.0
sg5
F-1.0
sg6
F8.0
sb(dp3187
I00
I-50
sI01
F-223.038
ss(i__main__
State
p3188
(dp3189
g3
F0.0
sg4
F3.0
sg5
F0.0
sg6
F4.0
sb(dp3190
I00
F29.127999999999997
sI01
F-63.5
ss(i__main__
State
p3191
(dp3192
g3
F5.0
sg4
F7.0
sg5
F-5.0
sg6
F-4.0
sb(dp3193
I00
F-22.389999999999997
sI01
I-47
ss(i__main__
State
p3194
(dp3195
g3
F0.0
sg4
F1.0
sg5
F0.0
sg6
F2.0
sb(dp3196
I00
I-67
sI01
F49.1
ss(i__main__
State
p3197
(dp3198
g3
F5.0
sg4
F9.0
sg5
F-5.0
sg6
F8.0
sb(dp3199
I00
F11.0
sI01
F31.432000000000002
ss(i__main__
State
p3200
(dp3201
g3
F-2.0
sg4
F7.0
sg5
F2.0
sg6
F-2.0
sb(dp3202
I00
F-61.8
sI01
I-74
ss(i__main__
State
p3203
(dp3204
g3
F-5.0
sg4
F9.0
sg5
F5.0
sg6
F4.0
sb(dp3205
I00
F50.0
sI01
F0.0
ss(i__main__
State
p3206
(dp3207
g3
F-2.0
sg4
F8.0
sg5
F2.0
sg6
F8.0
sb(dp3208
I00
F30.009999999999998
sI01
F0.0
ss(i__main__
State
p3209
(dp3210
g3
F-6.0
sg4
F6.0
sg5
F6.0
sg6
F8.0
sb(dp3211
I00
F63.5
sI01
F18.3
ss(i__main__
State
p3212
(dp3213
g3
F-4.0
sg4
F3.0
sg5
F4.0
sg6
F8.0
sb(dp3214
I00
F32.759
sI01
I-18
ss(i__main__
State
p3215
(dp3216
g3
F-7.0
sg4
F4.0
sg5
F7.0
sg6
F2.0
sb(dp3217
I00
F68.96189999999999
sI01
I12
ss(i__main__
State
p3218
(dp3219
g3
F4.0
sg4
F3.0
sg5
F-4.0
sg6
F4.0
sb(dp3220
I00
F75.08699999999999
sI01
F-78.0
ss(i__main__
State
p3221
(dp3222
g3
F-3.0
sg4
F8.0
sg5
F3.0
sg6
F-6.0
sb(dp3223
I00
F10.0
sI01
F34.1999
ss(i__main__
State
p3224
(dp3225
g3
F-1.0
sg4
F2.0
sg5
F1.0
sg6
F6.0
sb(dp3226
I00
F20.1
sI01
I17
ss(i__main__
State
p3227
(dp3228
g3
F-5.0
sg4
F2.0
sg5
F5.0
sg6
F-2.0
sb(dp3229
I00
I-66
sI01
F-19.299999999999997
ss(i__main__
State
p3230
(dp3231
g3
F8.0
sg4
F5.0
sg5
F-8.0
sg6
F0.0
sb(dp3232
I00
I-68
sI01
F30.847
ss(i__main__
State
p3233
(dp3234
g3
F3.0
sg4
F8.0
sg5
F-3.0
sg6
F2.0
sb(dp3235
I00
F10.0
sI01
F0.0
ss(i__main__
State
p3236
(dp3237
g3
F8.0
sg4
F4.0
sg5
F-8.0
sg6
F8.0
sb(dp3238
I00
F-22.042
sI01
I-67
ss(i__main__
State
p3239
(dp3240
g3
F8.0
sg4
F10.0
sg5
F-8.0
sg6
F-6.0
sb(dp3241
I00
F14.1631
sI01
F0.0
ss(i__main__
State
p3242
(dp3243
g3
F-4.0
sg4
F5.0
sg5
F4.0
sg6
F8.0
sb(dp3244
I00
F42.174
sI01
F-30.1
ss(i__main__
State
p3245
(dp3246
g3
F2.0
sg4
F10.0
sg5
F-2.0
sg6
F0.0
sb(dp3247
I00
F49.096999999999994
sI01
F0.0
ss(i__main__
State
p3248
(dp3249
g3
F-1.0
sg4
F5.0
sg5
F1.0
sg6
F-2.0
sb(dp3250
I00
I-71
sI01
F25.94
ss(i__main__
State
p3251
(dp3252
g3
F6.0
sg4
F6.0
sg5
F-6.0
sg6
F6.0
sb(dp3253
I00
F86.3
sI01
I49
ss(i__main__
State
p3254
(dp3255
g3
F-1.0
sg4
F7.0
sg5
F1.0
sg6
F6.0
sb(dp3256
I00
I21
sI01
F23.6
ss(i__main__
State
p3257
(dp3258
g3
F6.0
sg4
F5.0
sg5
F-6.0
sg6
F2.0
sb(dp3259
I00
I-32
sI01
F53.61658
ss(i__main__
State
p3260
(dp3261
g3
F-1.0
sg4
F9.0
sg5
F1.0
sg6
F4.0
sb(dp3262
I00
F29.174
sI01
F0.0
ss(i__main__
State
p3263
(dp3264
g3
F1.0
sg4
F7.0
sg5
F-1.0
sg6
F0.0
sb(dp3265
I00
F16.2
sI01
F-166.60000000000002
ss(i__main__
State
p3266
(dp3267
g3
F-1.0
sg4
F6.0
sg5
F1.0
sg6
F-4.0
sb(dp3268
I00
F66.97
sI01
F68.6
ss(i__main__
State
p3269
(dp3270
g3
F-6.0
sg4
F6.0
sg5
F6.0
sg6
F-2.0
sb(dp3271
I00
I-34
sI01
F-4.4399999999999995
ss(i__main__
State
p3272
(dp3273
g3
F-2.0
sg4
F1.0
sg5
F2.0
sg6
F-4.0
sb(dp3274
I00
F-70.5
sI01
F-53.0
ss(i__main__
State
p3275
(dp3276
g3
F2.0
sg4
F8.0
sg5
F-2.0
sg6
F-6.0
sb(dp3277
I00
F36.91
sI01
F0.0
ss.