(dp0
(i__main__
State
p1
(dp2
S'y1'
p3
F8.0
sS'x'
p4
F3.0
sS'y3'
p5
F-3.0
sS'y2'
p6
F-6.0
sb(dp7
I00
F113.47570450538977
sI01
F30.073415483069276
ss(i__main__
State
p8
(dp9
g3
F4.0
sg4
F7.0
sg5
F-7.0
sg6
F7.0
sb(dp10
I00
F219.2471000613849
sI01
F1124.2349552052074
ss(i__main__
State
p11
(dp12
g3
F-7.0
sg4
F5.0
sg5
F-1.0
sg6
F-4.0
sb(dp13
I00
F89.86053296494991
sI01
F-27.246914801606934
ss(i__main__
State
p14
(dp15
g3
F-5.0
sg4
F2.0
sg5
F1.0
sg6
F-2.0
sb(dp16
I00
F17.862248487112655
sI01
F539.5121960136375
ss(i__main__
State
p17
(dp18
g3
F7.0
sg4
F6.0
sg5
F-4.0
sg6
F-7.0
sb(dp19
I00
F71.00244579613556
sI01
F-26.63072834460059
ss(i__main__
State
p20
(dp21
g3
F0.0
sg4
F7.0
sg5
F6.0
sg6
F3.0
sb(dp22
I00
F542.7501075309556
sI01
F1111.4421841138585
ss(i__main__
State
p23
(dp24
g3
F-1.0
sg4
F3.0
sg5
F5.0
sg6
F2.0
sb(dp25
I00
F383.73064476477856
sI01
F1181.702873149481
ss(i__main__
State
p26
(dp27
g3
F1.0
sg4
F4.0
sg5
F7.0
sg6
F4.0
sb(dp28
I00
F604.3855756826802
sI01
F343.47955670577096
ss(i__main__
State
p29
(dp30
g3
F-1.0
sg4
F7.0
sg5
F5.0
sg6
F2.0
sb(dp31
I00
F313.3368587366635
sI01
F-2859.776340348772
ss(i__main__
State
p32
(dp33
g3
F2.0
sg4
F7.0
sg5
F8.0
sg6
F5.0
sb(dp34
I00
F456.8297235062351
sI01
F224.01634763575345
ss(i__main__
State
p35
(dp36
g3
F-6.0
sg4
F5.0
sg5
F0.0
sg6
F-3.0
sb(dp37
I00
F112.48615957487054
sI01
F32.010278987288665
ss(i__main__
State
p38
(dp39
g3
F-2.0
sg4
F8.0
sg5
F4.0
sg6
F1.0
sb(dp40
I00
F130.20197849484632
sI01
F8.165095944752805
ss(i__main__
State
p41
(dp42
g3
F6.0
sg4
F0.0
sg5
F-5.0
sg6
F-8.0
sb(dp43
I00
F192.62409911554988
sI01
F32.77019127835894
ss(i__main__
State
p44
(dp45
g3
F0.0
sg4
F1.0
sg5
F6.0
sg6
F3.0
sb(dp46
I00
F22.562580693089885
sI01
F-18.950930538089622
ss(i__main__
State
p47
(dp48
g3
F-4.0
sg4
F7.0
sg5
F2.0
sg6
F-1.0
sb(dp49
I00
F92.03644715079245
sI01
F-291.08816176852037
ss(i__main__
State
p50
(dp51
g3
F-3.0
sg4
F2.0
sg5
F3.0
sg6
F0.0
sb(dp52
I00
F759.3054208372763
sI01
F1113.783438011288
ss(i__main__
State
p53
(dp54
g3
F5.0
sg4
F0.0
sg5
F-6.0
sg6
F8.0
sb(dp55
I00
F34.125367291580744
sI01
F88.64946377977472
ss(i__main__
State
p56
(dp57
g3
F3.0
sg4
F2.0
sg5
F-8.0
sg6
F6.0
sb(dp58
I00
F33.69804314121022
sI01
F0.25692751102526534
ss(i__main__
State
p59
(dp60
g3
F3.0
sg4
F3.0
sg5
F-8.0
sg6
F6.0
sb(dp61
I00
F32.19691684076618
sI01
F-10.860371855459087
ss(i__main__
State
p62
(dp63
g3
F-5.0
sg4
F8.0
sg5
F1.0
sg6
F-2.0
sb(dp64
I00
F216.76580242835112
sI01
F45.11613087725066
ss(i__main__
State
p65
(dp66
g3
F2.0
sg4
F0.0
sg5
F8.0
sg6
F5.0
sb(dp67
I00
F-13.453606284866327
sI01
F33.576704849872506
ss(i__main__
State
p68
(dp69
g3
F4.0
sg4
F4.0
sg5
F-7.0
sg6
F7.0
sb(dp70
I00
F13.413175712111181
sI01
F150.3611105110273
ss(i__main__
State
p71
(dp72
g3
F-2.0
sg4
F2.0
sg5
F4.0
sg6
F1.0
sb(dp73
I00
F160.01516492249817
sI01
F1048.2698569171578
ss(i__main__
State
p74
(dp75
g3
F-4.0
sg4
F2.0
sg5
F2.0
sg6
F-1.0
sb(dp76
I00
F961.5727656854615
sI01
F242.31291777953214
ss(i__main__
State
p77
(dp78
g3
F-6.0
sg4
F3.0
sg5
F0.0
sg6
F-3.0
sb(dp79
I00
F540.6313952197158
sI01
F46.46184389781734
ss(i__main__
State
p80
(dp81
g3
F2.0
sg4
F8.0
sg5
F8.0
sg6
F5.0
sb(dp82
I00
F1293.206052707927
sI01
F98.72672164724796
ss(i__main__
State
p83
(dp84
g3
F-7.0
sg4
F3.0
sg5
F-1.0
sg6
F-4.0
sb(dp85
I00
F158.68140352298582
sI01
F366.2830652170875
ss(i__main__
State
p86
(dp87
g3
F5.0
sg4
F6.0
sg5
F-6.0
sg6
F8.0
sb(dp88
I00
F606.5850615549122
sI01
F980.7910266760161
ss(i__main__
State
p89
(dp90
g3
F8.0
sg4
F1.0
sg5
F-3.0
sg6
F-6.0
sb(dp91
I00
F-25.582241478384617
sI01
F143.0526490236173
ss(i__main__
State
p92
(dp93
g3
F-2.0
sg4
F5.0
sg5
F4.0
sg6
F1.0
sb(dp94
I00
F177.06885593449005
sI01
F912.2402947330029
ss(i__main__
State
p95
(dp96
g3
F-5.0
sg4
F5.0
sg5
F1.0
sg6
F-2.0
sb(dp97
I00
F49.340394446095964
sI01
F123.40425650779551
ss(i__main__
State
p98
(dp99
g3
F-2.0
sg4
F1.0
sg5
F4.0
sg6
F1.0
sb(dp100
I00
F-25.12592632588533
sI01
F233.38175014715586
ss(i__main__
State
p101
(dp102
g3
F7.0
sg4
F5.0
sg5
F-4.0
sg6
F-7.0
sb(dp103
I00
F48.407213326022244
sI01
F-46.11199057906642
ss(i__main__
State
p104
(dp105
g3
F-6.0
sg4
F0.0
sg5
F0.0
sg6
F-3.0
sb(dp106
I00
F625.6716482827527
sI01
F979.4829270427417
ss(i__main__
State
p107
(dp108
g3
F3.0
sg4
F6.0
sg5
F-8.0
sg6
F6.0
sb(dp109
I00
F133.4777389962265
sI01
F914.5845591069184
ss(i__main__
State
p110
(dp111
g3
F8.0
sg4
F7.0
sg5
F-3.0
sg6
F-6.0
sb(dp112
I00
F188.92920182174976
sI01
F20.72805065143172
ss(i__main__
State
p113
(dp114
g3
F8.0
sg4
F4.0
sg5
F-3.0
sg6
F-6.0
sb(dp115
I00
F98.601286378725
sI01
F14.419011637586655
ss(i__main__
State
p116
(dp117
g3
F6.0
sg4
F3.0
sg5
F-5.0
sg6
F-8.0
sb(dp118
I00
F59.8503089156173
sI01
F23.785725384010767
ss(i__main__
State
p119
(dp120
g3
F8.0
sg4
F8.0
sg5
F-3.0
sg6
F-6.0
sb(dp121
I00
F1068.4626040493051
sI01
F670.51407151261
ss(i__main__
State
p122
(dp123
g3
F7.0
sg4
F8.0
sg5
F-4.0
sg6
F-7.0
sb(dp124
I00
F1126.5116020142007
sI01
F320.7164062155142
ss(i__main__
State
p125
(dp126
g3
F-7.0
sg4
F8.0
sg5
F-1.0
sg6
F-4.0
sb(dp127
I00
F-2478.6151440035683
sI01
F891.8120300172487
ss(i__main__
State
p128
(dp129
g3
F-6.0
sg4
F8.0
sg5
F0.0
sg6
F-3.0
sb(dp130
I00
F-5137.519777922412
sI01
F-5460.053418661193
ss(i__main__
State
p131
(dp132
g3
F8.0
sg4
F2.0
sg5
F-3.0
sg6
F-6.0
sb(dp133
I00
F206.42000768197562
sI01
F-6.041588557475976
ss(i__main__
State
p134
(dp135
g3
F-5.0
sg4
F3.0
sg5
F1.0
sg6
F-2.0
sb(dp136
I00
F792.5786375599758
sI01
F336.5152998545739
ss(i__main__
State
p137
(dp138
g3
F6.0
sg4
F6.0
sg5
F-5.0
sg6
F-8.0
sb(dp139
I00
F41.363598395557865
sI01
F808.6515022039544
ss(i__main__
State
p140
(dp141
g3
F-8.0
sg4
F6.0
sg5
F-2.0
sg6
F-5.0
sb(dp142
I00
F110.19682612746372
sI01
F-61.380145558531055
ss(i__main__
State
p143
(dp144
g3
F8.0
sg4
F5.0
sg5
F-3.0
sg6
F-6.0
sb(dp145
I00
F54.31506321367418
sI01
F-44.62901096164209
ss(i__main__
State
p146
(dp147
g3
F1.0
sg4
F3.0
sg5
F7.0
sg6
F4.0
sb(dp148
I00
F216.75541912807597
sI01
F622.3758352352254
ss(i__main__
State
p149
(dp150
g3
F1.0
sg4
F1.0
sg5
F7.0
sg6
F4.0
sb(dp151
I00
F24.86333487432475
sI01
F27.142229166633964
ss(i__main__
State
p152
(dp153
g3
F2.0
sg4
F5.0
sg5
F8.0
sg6
F5.0
sb(dp154
I00
F676.2194562028719
sI01
F241.92818959977166
ss(i__main__
State
p155
(dp156
g3
F0.0
sg4
F2.0
sg5
F6.0
sg6
F3.0
sb(dp157
I00
F58.160547555654276
sI01
F439.0388000607078
ss(i__main__
State
p158
(dp159
g3
F-1.0
sg4
F4.0
sg5
F5.0
sg6
F2.0
sb(dp160
I00
F1063.003648660963
sI01
F134.66627534224725
ss(i__main__
State
p161
(dp162
g3
F2.0
sg4
F6.0
sg5
F8.0
sg6
F5.0
sb(dp163
I00
F697.7063404565007
sI01
F1256.98201539576
ss(i__main__
State
p164
(dp165
g3
F-1.0
sg4
F1.0
sg5
F5.0
sg6
F2.0
sb(dp166
I00
F15.809486863579368
sI01
F-40.857125396586916
ss(i__main__
State
p167
(dp168
g3
F-1.0
sg4
F5.0
sg5
F5.0
sg6
F2.0
sb(dp169
I00
F-4.19780081547864
sI01
F401.28507768353836
ss(i__main__
State
p170
(dp171
g3
F-7.0
sg4
F1.0
sg5
F-1.0
sg6
F-4.0
sb(dp172
I00
F259.2110905885471
sI01
F563.169343592612
ss(i__main__
State
p173
(dp174
g3
F-5.0
sg4
F6.0
sg5
F1.0
sg6
F-2.0
sb(dp175
I00
F-30.05558391199848
sI01
F50.931789644945354
ss(i__main__
State
p176
(dp177
g3
F-6.0
sg4
F7.0
sg5
F0.0
sg6
F-3.0
sb(dp178
I00
F10.996552429366037
sI01
F184.7294561259568
ss(i__main__
State
p179
(dp180
g3
F3.0
sg4
F4.0
sg5
F-8.0
sg6
F6.0
sb(dp181
I00
F64.34198708095495
sI01
F843.543947328274
ss(i__main__
State
p182
(dp183
g3
F4.0
sg4
F1.0
sg5
F-7.0
sg6
F7.0
sb(dp184
I00
F34.981190022294534
sI01
I2
ss(i__main__
State
p185
(dp186
g3
F1.0
sg4
F7.0
sg5
F7.0
sg6
F4.0
sb(dp187
I00
F121.25567610585775
sI01
F989.6319890445805
ss(i__main__
State
p188
(dp189
g3
F1.0
sg4
F5.0
sg5
F7.0
sg6
F4.0
sb(dp190
I00
F533.7561634092599
sI01
F1230.7031655060384
ss(i__main__
State
p191
(dp192
g3
F-3.0
sg4
F0.0
sg5
F3.0
sg6
F0.0
sb(dp193
I00
F-2.74816198903862
sI01
F114.08510775203781
ss(i__main__
State
p194
(dp195
g3
F-8.0
sg4
F4.0
sg5
F-2.0
sg6
F-5.0
sb(dp196
I00
F180.5260910823756
sI01
F32.4711109167281
ss(i__main__
State
p197
(dp198
g3
F1.0
sg4
F2.0
sg5
F7.0
sg6
F4.0
sb(dp199
I00
F28.340397436495227
sI01
F129.82472050959407
ss(i__main__
State
p200
(dp201
g3
F5.0
sg4
F4.0
sg5
F-6.0
sg6
F8.0
sb(dp202
I00
F8.571278325893763
sI01
F20.475422565370835
ss(i__main__
State
p203
(dp204
g3
F7.0
sg4
F2.0
sg5
F-4.0
sg6
F-7.0
sb(dp205
I00
F148.99581390438104
sI01
F58.56638514645091
ss(i__main__
State
p206
(dp207
g3
F-8.0
sg4
F2.0
sg5
F-2.0
sg6
F-5.0
sb(dp208
I00
F94.34190716928782
sI01
F272.3622278204975
ss(i__main__
State
p209
(dp210
g3
F-8.0
sg4
F7.0
sg5
F-2.0
sg6
F-5.0
sb(dp211
I00
F40.48265126100405
sI01
F550.4981042721176
ss(i__main__
State
p212
(dp213
g3
F1.0
sg4
F8.0
sg5
F7.0
sg6
F4.0
sb(dp214
I00
F1234.5697674263313
sI01
F132.21958093367834
ss(i__main__
State
p215
(dp216
g3
F0.0
sg4
F5.0
sg5
F6.0
sg6
F3.0
sb(dp217
I00
F406.35134440655077
sI01
F30.74173819831911
ss(i__main__
State
p218
(dp219
g3
F-4.0
sg4
F3.0
sg5
F2.0
sg6
F-1.0
sb(dp220
I00
F875.6341838349285
sI01
F579.6552670756217
ss(i__main__
State
p221
(dp222
g3
F-8.0
sg4
F5.0
sg5
F-2.0
sg6
F-5.0
sb(dp223
I00
F69.51829224383437
sI01
F10.086535123613611
ss(i__main__
State
p224
(dp225
g3
F-3.0
sg4
F6.0
sg5
F3.0
sg6
F0.0
sb(dp226
I00
F237.2891326383563
sI01
F129.21876947722618
ss(i__main__
State
p227
(dp228
g3
F7.0
sg4
F3.0
sg5
F-4.0
sg6
F-7.0
sb(dp229
I00
F70.07670673329982
sI01
F49.476591667157734
ss(i__main__
State
p230
(dp231
g3
F5.0
sg4
F5.0
sg5
F-6.0
sg6
F8.0
sb(dp232
I00
F3.158737907856125
sI01
F549.4073367141561
ss(i__main__
State
p233
(dp234
g3
F-5.0
sg4
F7.0
sg5
F1.0
sg6
F-2.0
sb(dp235
I00
F65.72503893433061
sI01
I33
ss(i__main__
State
p236
(dp237
g3
F-4.0
sg4
F4.0
sg5
F2.0
sg6
F-1.0
sb(dp238
I00
F715.836504438429
sI01
F46.36590282546956
ss(i__main__
State
p239
(dp240
g3
F3.0
sg4
F7.0
sg5
F-8.0
sg6
F6.0
sb(dp241
I00
F851.50921484572
sI01
F1282.2425892798644
ss(i__main__
State
p242
(dp243
g3
F7.0
sg4
F0.0
sg5
F-4.0
sg6
F-7.0
sb(dp244
I00
F302.22130366574265
sI01
F75.08522231546095
ss(i__main__
State
p245
(dp246
g3
F-6.0
sg4
F6.0
sg5
F0.0
sg6
F-3.0
sb(dp247
I00
F-12.428072708050589
sI01
I-65
ss(i__main__
State
p248
(dp249
g3
F5.0
sg4
F8.0
sg5
F-6.0
sg6
F8.0
sb(dp250
I00
F1234.7936490463799
sI01
F218.22985061689502
ss(i__main__
State
p251
(dp252
g3
F-8.0
sg4
F0.0
sg5
F-2.0
sg6
F-5.0
sb(dp253
I00
F774.4579321242243
sI01
F73.1830023046688
ss(i__main__
State
p254
(dp255
g3
F-3.0
sg4
F3.0
sg5
F3.0
sg6
F0.0
sb(dp256
I00
F974.1612848833046
sI01
F300.789034776751
ss(i__main__
State
p257
(dp258
g3
F0.0
sg4
F0.0
sg5
F6.0
sg6
F3.0
sb(dp259
I00
F27.561994057847375
sI01
F27.040815711940507
ss(i__main__
State
p260
(dp261
g3
F5.0
sg4
F2.0
sg5
F-6.0
sg6
F8.0
sb(dp262
I00
F-0.03336428553887627
sI01
F27.57765782027311
ss(i__main__
State
p263
(dp264
g3
F-8.0
sg4
F3.0
sg5
F-2.0
sg6
F-5.0
sb(dp265
I00
F94.84630322867574
sI01
F186.4411467947791
ss(i__main__
State
p266
(dp267
g3
F-2.0
sg4
F7.0
sg5
F4.0
sg6
F1.0
sb(dp268
I00
F73.4144152997557
sI01
F128.6819498985319
ss(i__main__
State
p269
(dp270
g3
F0.0
sg4
F6.0
sg5
F6.0
sg6
F3.0
sb(dp271
I00
F15.273361840985016
sI01
F665.4035069862412
ss(i__main__
State
p272
(dp273
g3
F-4.0
sg4
F8.0
sg5
F2.0
sg6
F-1.0
sb(dp274
I00
F-1141.59951440348
sI01
F150.03667917164452
ss(i__main__
State
p275
(dp276
g3
F-8.0
sg4
F1.0
sg5
F-2.0
sg6
F-5.0
sb(dp277
I00
F455.1588853581407
sI01
F80.79803918595601
ss(i__main__
State
p278
(dp279
g3
F-3.0
sg4
F1.0
sg5
F3.0
sg6
F0.0
sb(dp280
I00
F138.7829845657422
sI01
F860.9986686206929
ss(i__main__
State
p281
(dp282
g3
F7.0
sg4
F7.0
sg5
F-4.0
sg6
F-7.0
sb(dp283
I00
F71.44563940012083
sI01
F944.4689578143091
ss(i__main__
State
p284
(dp285
g3
F-3.0
sg4
F7.0
sg5
F3.0
sg6
F0.0
sb(dp286
I00
F121.48674832195096
sI01
F50.60111271317044
ss(i__main__
State
p287
(dp288
g3
F4.0
sg4
F5.0
sg5
F-7.0
sg6
F7.0
sb(dp289
I00
F391.2497369612963
sI01
F925.8576544667163
ss(i__main__
State
p290
(dp291
g3
F7.0
sg4
F4.0
sg5
F-4.0
sg6
F-7.0
sb(dp292
I00
F38.27776774498794
sI01
F-1.7451804156656436
ss(i__main__
State
p293
(dp294
g3
F-5.0
sg4
F4.0
sg5
F1.0
sg6
F-2.0
sb(dp295
I00
F597.4342789448326
sI01
F92.1926339615518
ss(i__main__
State
p296
(dp297
g3
F-3.0
sg4
F8.0
sg5
F3.0
sg6
F0.0
sb(dp298
I00
F-4075.1242048176655
sI01
F-4102.849544482932
ss(i__main__
State
p299
(dp300
g3
F0.0
sg4
F8.0
sg5
F6.0
sg6
F3.0
sb(dp301
I00
F-7255.322895285346
sI01
F-7437.489023090994
ss(i__main__
State
p302
(dp303
g3
F-5.0
sg4
F0.0
sg5
F1.0
sg6
F-2.0
sb(dp304
I00
F35.32040992643918
sI01
F848.4087844665507
ss(i__main__
State
p305
(dp306
g3
F8.0
sg4
F0.0
sg5
F-3.0
sg6
F-6.0
sb(dp307
I00
F312.0643137080781
sI01
F370.5771595042433
ss(i__main__
State
p308
(dp309
g3
F5.0
sg4
F3.0
sg5
F-6.0
sg6
F8.0
sb(dp310
I00
F51.775903758915035
sI01
F29.452189145912783
ss(i__main__
State
p311
(dp312
g3
F-1.0
sg4
F6.0
sg5
F5.0
sg6
F2.0
sb(dp313
I00
F195.7064616721886
sI01
F1013.8566073846064
ss(i__main__
State
p314
(dp315
g3
F-7.0
sg4
F7.0
sg5
F-1.0
sg6
F-4.0
sb(dp316
I00
F34.19636166972535
sI01
F-355.88384640000004
ss(i__main__
State
p317
(dp318
g3
F-7.0
sg4
F4.0
sg5
F-1.0
sg6
F-4.0
sb(dp319
I00
F333.0279320868494
sI01
F59.24201399440352
ss(i__main__
State
p320
(dp321
g3
F-4.0
sg4
F1.0
sg5
F2.0
sg6
F-1.0
sb(dp322
I00
F644.2528400260952
sI01
F1057.130176356484
ss(i__main__
State
p323
(dp324
g3
F1.0
sg4
F0.0
sg5
F7.0
sg6
F4.0
sb(dp325
I00
F-16.343560343929365
sI01
F28.17820780389933
ss(i__main__
State
p326
(dp327
g3
F6.0
sg4
F7.0
sg5
F-5.0
sg6
F-8.0
sb(dp328
I00
F586.6301614932866
sI01
F1048.7111128001595
ss(i__main__
State
p329
(dp330
g3
F3.0
sg4
F0.0
sg5
F-8.0
sg6
F6.0
sb(dp331
I00
F14.984210947392576
sI01
F-0.49480472656919794
ss(i__main__
State
p332
(dp333
g3
F7.0
sg4
F1.0
sg5
F-4.0
sg6
F-7.0
sb(dp334
I00
F67.81980491655582
sI01
F47.979749480635576
ss(i__main__
State
p335
(dp336
g3
F4.0
sg4
F2.0
sg5
F-7.0
sg6
F7.0
sb(dp337
I00
F-18.459514155203987
sI01
F44.69086083690121
ss(i__main__
State
p338
(dp339
g3
F-6.0
sg4
F4.0
sg5
F0.0
sg6
F-3.0
sb(dp340
I00
F501.1404998390931
sI01
F88.41412796689161
ss(i__main__
State
p341
(dp342
g3
F-4.0
sg4
F5.0
sg5
F2.0
sg6
F-1.0
sb(dp343
I00
F3.53029849258587
sI01
F125.85541403798402
ss(i__main__
State
p344
(dp345
g3
F-3.0
sg4
F4.0
sg5
F3.0
sg6
F0.0
sb(dp346
I00
F300.928654798045
sI01
F826.9762261862136
ss(i__main__
State
p347
(dp348
g3
F0.0
sg4
F3.0
sg5
F6.0
sg6
F3.0
sb(dp349
I00
F479.7205690299245
sI01
F213.53923562861058
ss(i__main__
State
p350
(dp351
g3
F4.0
sg4
F3.0
sg5
F-7.0
sg6
F7.0
sb(dp352
I00
F37.45261911897265
sI01
F0.09682223785459088
ss(i__main__
State
p353
(dp354
g3
F-4.0
sg4
F6.0
sg5
F2.0
sg6
F-1.0
sb(dp355
I00
F130.74326156489875
sI01
F54.47093111628622
ss(i__main__
State
p356
(dp357
g3
F-6.0
sg4
F2.0
sg5
F0.0
sg6
F-3.0
sb(dp358
I00
F209.51816964585566
sI01
F677.8920750399443
ss(i__main__
State
p359
(dp360
g3
F-7.0
sg4
F6.0
sg5
F-1.0
sg6
F-4.0
sb(dp361
I00
I-54
sI01
F150.1275521937447
ss(i__main__
State
p362
(dp363
g3
F6.0
sg4
F2.0
sg5
F-5.0
sg6
F-8.0
sb(dp364
I00
F-13.182225551623901
sI01
F-52.434450218730305
ss(i__main__
State
p365
(dp366
g3
F3.0
sg4
F5.0
sg5
F-8.0
sg6
F6.0
sb(dp367
I00
F805.242346356399
sI01
F217.33459134138647
ss(i__main__
State
p368
(dp369
g3
F-8.0
sg4
F8.0
sg5
F-2.0
sg6
F-5.0
sb(dp370
I00
F796.0342808130114
sI01
F1001.3464578523349
ss(i__main__
State
p371
(dp372
g3
F4.0
sg4
F0.0
sg5
F-7.0
sg6
F7.0
sb(dp373
I00
F46.16517127840546
sI01
F-8.64549777707343
ss(i__main__
State
p374
(dp375
g3
F-2.0
sg4
F0.0
sg5
F4.0
sg6
F1.0
sb(dp376
I00
F-53.39327794476217
sI01
F-0.32252499075967656
ss(i__main__
State
p377
(dp378
g3
F6.0
sg4
F8.0
sg5
F-5.0
sg6
F-8.0
sb(dp379
I00
F1166.434311144363
sI01
F293.82069035826186
ss(i__main__
State
p380
(dp381
g3
F5.0
sg4
F1.0
sg5
F-6.0
sg6
F8.0
sb(dp382
I00
F36.987534925593145
sI01
F16.557930740305537
ss(i__main__
State
p383
(dp384
g3
F-2.0
sg4
F4.0
sg5
F4.0
sg6
F1.0
sb(dp385
I00
F689.9342718092128
sI01
F77.13501866089393
ss(i__main__
State
p386
(dp387
g3
F-7.0
sg4
F2.0
sg5
F-1.0
sg6
F-4.0
sb(dp388
I00
F181.0067637416005
sI01
F251.94382957781693
ss(i__main__
State
p389
(dp390
g3
F2.0
sg4
F4.0
sg5
F8.0
sg6
F5.0
sb(dp391
I00
F753.9428741068027
sI01
F467.0296775147293
ss(i__main__
State
p392
(dp393
g3
F-2.0
sg4
F3.0
sg5
F4.0
sg6
F1.0
sb(dp394
I00
F1149.7200756594261
sI01
F823.4331262840286
ss(i__main__
State
p395
(dp396
g3
F6.0
sg4
F4.0
sg5
F-5.0
sg6
F-8.0
sb(dp397
I00
F-55.35544682576911
sI01
F41.6058665822562
ss(i__main__
State
p398
(dp399
g3
F-4.0
sg4
F0.0
sg5
F2.0
sg6
F-1.0
sb(dp400
I00
F-59.99786951035441
sI01
F157.82541678163923
ss(i__main__
State
p401
(dp402
g3
F3.0
sg4
F1.0
sg5
F-8.0
sg6
F6.0
sb(dp403
I00
F27.54118268311537
sI01
F37.57963581389539
ss(i__main__
State
p404
(dp405
g3
F-2.0
sg4
F6.0
sg5
F4.0
sg6
F1.0
sb(dp406
I00
F635.5432388103837
sI01
F49.0831494560226
ss(i__main__
State
p407
(dp408
g3
F-6.0
sg4
F1.0
sg5
F0.0
sg6
F-3.0
sb(dp409
I00
F817.4179143435733
sI01
F139.2061551103161
ss(i__main__
State
p410
(dp411
g3
F2.0
sg4
F1.0
sg5
F8.0
sg6
F5.0
sb(dp412
I00
F10.758746152306802
sI01
F29.68832253002966
ss(i__main__
State
p413
(dp414
g3
F4.0
sg4
F8.0
sg5
F-7.0
sg6
F7.0
sb(dp415
I00
F1308.3428147809711
sI01
F167.12838260269967
ss(i__main__
State
p416
(dp417
g3
F6.0
sg4
F5.0
sg5
F-5.0
sg6
F-8.0
sb(dp418
I00
F-3.964173263106149
sI01
F37.19757500580192
ss(i__main__
State
p419
(dp420
g3
F2.0
sg4
F3.0
sg5
F8.0
sg6
F5.0
sb(dp421
I00
F4.1336409660467845
sI01
F408.66231371970355
ss(i__main__
State
p422
(dp423
g3
F0.0
sg4
F4.0
sg5
F6.0
sg6
F3.0
sb(dp424
I00
F484.0659850307732
sI01
F1206.506605450987
ss(i__main__
State
p425
(dp426
g3
F-1.0
sg4
F8.0
sg5
F5.0
sg6
F2.0
sb(dp427
I00
F-4218.619838756346
sI01
F127.77026582132625
ss(i__main__
State
p428
(dp429
g3
F8.0
sg4
F6.0
sg5
F-3.0
sg6
F-6.0
sb(dp430
I00
F71.54413972210467
sI01
F194.05552948279026
ss(i__main__
State
p431
(dp432
g3
F5.0
sg4
F7.0
sg5
F-6.0
sg6
F8.0
sb(dp433
I00
F459.2379857649859
sI01
F167.50652431346745
ss(i__main__
State
p434
(dp435
g3
F2.0
sg4
F2.0
sg5
F8.0
sg6
F5.0
sb(dp436
I00
F25.581300941445782
sI01
F28.965966882062435
ss(i__main__
State
p437
(dp438
g3
F6.0
sg4
F1.0
sg5
F-5.0
sg6
F-8.0
sb(dp439
I00
F36.22930458021785
sI01
F113.90775575320995
ss(i__main__
State
p440
(dp441
g3
F-5.0
sg4
F1.0
sg5
F1.0
sg6
F-2.0
sb(dp442
I00
F1012.5710042081333
sI01
F760.9507263047017
ss(i__main__
State
p443
(dp444
g3
F-1.0
sg4
F0.0
sg5
F5.0
sg6
F2.0
sb(dp445
I00
F-13.420837877305999
sI01
I-86
ss(i__main__
State
p446
(dp447
g3
F4.0
sg4
F6.0
sg5
F-7.0
sg6
F7.0
sb(dp448
I00
F551.4304296359952
sI01
F8.287135016670934
ss(i__main__
State
p449
(dp450
g3
F-3.0
sg4
F5.0
sg5
F3.0
sg6
F0.0
sb(dp451
I00
F43.96012733553963
sI01
F218.55671272211137
ss(i__main__
State
p452
(dp453
g3
F1.0
sg4
F6.0
sg5
F7.0
sg6
F4.0
sb(dp454
I00
F281.3892103860471
sI01
F106.2548253789278
ss(i__main__
State
p455
(dp456
g3
F-1.0
sg4
F2.0
sg5
F5.0
sg6
F2.0
sb(dp457
I00
F336.9054936290404
sI01
F167.18645850428254
ss(i__main__
State
p458
(dp459
g3
F3.0
sg4
F8.0
sg5
F-8.0
sg6
F6.0
sb(dp460
I00
F1297.3841599944421
sI01
F99.68277905426085
ss(i__main__
State
p461
(dp462
g3
F-7.0
sg4
F0.0
sg5
F-1.0
sg6
F-4.0
sb(dp463
I00
F940.2838708657716
sI01
F621.7339924753661
ss.