(dp0
(i__main__
State
p1
(dp2
S'v1'
p3
I2
sS'v2'
p4
I3
sS'v3'
p5
I2
sS'y1'
p6
F-2.0
sS'x'
p7
F1.0
sS'y3'
p8
F2.0
sS'y2'
p9
F-8.0
sb(dp10
I00
I-3
sI01
F73.18
ss(i__main__
State
p11
(dp12
g3
I2
sg4
I3
sg5
I2
sg6
F-8.0
sg7
F5.0
sg8
F8.0
sg9
F-2.0
sb(dp13
I00
I85
sI01
F79.81474
ss(i__main__
State
p14
(dp15
g3
I2
sg4
I3
sg5
I2
sg6
F6.0
sg7
F10.0
sg8
F-6.0
sg9
F-2.0
sb(dp16
I00
F49.381870986288995
sI01
F0.0
ss(i__main__
State
p17
(dp18
g3
I2
sg4
I3
sg5
I2
sg6
F6.0
sg7
F7.0
sg8
F-6.0
sg9
F-5.0
sb(dp19
I00
I11
sI01
F35.7631219
ss(i__main__
State
p20
(dp21
g3
I2
sg4
I3
sg5
I2
sg6
F-2.0
sg7
F2.0
sg8
F2.0
sg9
F-8.0
sb(dp22
I00
I-87
sI01
F-20.6
ss(i__main__
State
p23
(dp24
g3
I2
sg4
I3
sg5
I2
sg6
F0.0
sg7
F8.0
sg8
F0.0
sg9
F7.0
sb(dp25
I00
F-1000.0
sI01
F-1894.3000000000002
ss(i__main__
State
p26
(dp27
g3
I2
sg4
I3
sg5
I2
sg6
F-5.0
sg7
F0.0
sg8
F5.0
sg9
F3.0
sb(dp28
I00
F74.6
sI01
I4
ss(i__main__
State
p29
(dp30
g3
I2
sg4
I3
sg5
I2
sg6
F4.0
sg7
F4.0
sg8
F-4.0
sg9
F-8.0
sb(dp31
I00
I-69
sI01
F68.22134
ss(i__main__
State
p32
(dp33
g3
I2
sg4
I3
sg5
I2
sg6
F6.0
sg7
F4.0
sg8
F-6.0
sg9
F-2.0
sb(dp34
I00
F9.95480426
sI01
I-94
ss(i__main__
State
p35
(dp36
g3
I2
sg4
I3
sg5
I2
sg6
F2.0
sg7
F9.0
sg8
F-2.0
sg9
F1.0
sb(dp37
I00
F-3432.30323
sI01
F-3628.415
ss(i__main__
State
p38
(dp39
g3
I2
sg4
I3
sg5
I2
sg6
F-6.0
sg7
F10.0
sg8
F6.0
sg9
F-2.0
sb(dp40
I00
F74.64227930000001
sI01
F13.6781
ss(i__main__
State
p41
(dp42
g3
I2
sg4
I3
sg5
I2
sg6
F2.0
sg7
F0.0
sg8
F-2.0
sg9
F-8.0
sb(dp43
I00
F50.48
sI01
I-3
ss(i__main__
State
p44
(dp45
g3
I2
sg4
I3
sg5
I2
sg6
F-6.0
sg7
F6.0
sg8
F6.0
sg9
F4.0
sb(dp46
I00
I11
sI01
F28.91
ss(i__main__
State
p47
(dp48
g3
I2
sg4
I3
sg5
I2
sg6
F-4.0
sg7
F6.0
sg8
F4.0
sg9
F1.0
sb(dp49
I00
F58.43
sI01
I-32
ss(i__main__
State
p50
(dp51
g3
I2
sg4
I3
sg5
I2
sg6
F-8.0
sg7
F3.0
sg8
F8.0
sg9
F1.0
sb(dp52
I00
I35
sI01
F48.3
ss(i__main__
State
p53
(dp54
g3
I2
sg4
I3
sg5
I2
sg6
F2.0
sg7
F10.0
sg8
F-2.0
sg9
F-5.0
sb(dp55
I00
F-80.5
sI01
F9.6447
ss(i__main__
State
p56
(dp57
g3
I2
sg4
I3
sg5
I2
sg6
F8.0
sg7
F6.0
sg8
F-8.0
sg9
F-2.0
sb(dp58
I00
I-33
sI01
F74.63715
ss(i__main__
State
p59
(dp60
g3
I2
sg4
I3
sg5
I2
sg6
F-4.0
sg7
F1.0
sg8
F4.0
sg9
F-8.0
sb(dp61
I00
F34.391045480399995
sI01
I-100
ss(i__main__
State
p62
(dp63
g3
I2
sg4
I3
sg5
I2
sg6
F8.0
sg7
F4.0
sg8
F-8.0
sg9
F1.0
sb(dp64
I00
F-17.42
sI01
I-88
ss(i__main__
State
p65
(dp66
g3
I2
sg4
I3
sg5
I2
sg6
F-4.0
sg7
F1.0
sg8
F4.0
sg9
F10.0
sb(dp67
I00
F-78.15
sI01
F63.812999999999995
ss(i__main__
State
p68
(dp69
g3
I2
sg4
I3
sg5
I2
sg6
F0.0
sg7
F10.0
sg8
F0.0
sg9
F-2.0
sb(dp70
I00
F-1899.0
sI01
F-1891.27
ss(i__main__
State
p71
(dp72
g3
I2
sg4
I3
sg5
I2
sg6
F-2.0
sg7
F0.0
sg8
F2.0
sg9
F1.0
sb(dp73
I00
F25.590467559999997
sI01
I-22
ss(i__main__
State
p74
(dp75
g3
I2
sg4
I3
sg5
I2
sg6
F4.0
sg7
F10.0
sg8
F-4.0
sg9
F10.0
sb(dp76
I00
F10.0
sI01
F15.600000000000001
ss(i__main__
State
p77
(dp78
g3
I2
sg4
I3
sg5
I2
sg6
F2.0
sg7
F9.0
sg8
F-2.0
sg9
F7.0
sb(dp79
I00
F10.0
sI01
F-252.935
ss(i__main__
State
p80
(dp81
g3
I2
sg4
I3
sg5
I2
sg6
F-4.0
sg7
F7.0
sg8
F4.0
sg9
F-8.0
sb(dp82
I00
F23.29
sI01
I84
ss(i__main__
State
p83
(dp84
g3
I2
sg4
I3
sg5
I2
sg6
F2.0
sg7
F6.0
sg8
F-2.0
sg9
F4.0
sb(dp85
I00
I53
sI01
F69.77375906
ss(i__main__
State
p86
(dp87
g3
I2
sg4
I3
sg5
I2
sg6
F-4.0
sg7
F2.0
sg8
F4.0
sg9
F-2.0
sb(dp88
I00
F-11.299999999999999
sI01
F74.4717
ss(i__main__
State
p89
(dp90
g3
I2
sg4
I3
sg5
I2
sg6
F0.0
sg7
F1.0
sg8
F0.0
sg9
F10.0
sb(dp91
I00
F65.98
sI01
I40
ss(i__main__
State
p92
(dp93
g3
I2
sg4
I3
sg5
I2
sg6
F8.0
sg7
F10.0
sg8
F-8.0
sg9
F4.0
sb(dp94
I00
F48.12180000000001
sI01
F34.726200000000006
ss(i__main__
State
p95
(dp96
g3
I2
sg4
I3
sg5
I2
sg6
F4.0
sg7
F1.0
sg8
F-4.0
sg9
F7.0
sb(dp97
I00
F63.479
sI01
I30
ss(i__main__
State
p98
(dp99
g3
I2
sg4
I3
sg5
I2
sg6
F0.0
sg7
F3.0
sg8
F0.0
sg9
F-8.0
sb(dp100
I00
F-47.4
sI01
F60.475899999999996
ss(i__main__
State
p101
(dp102
g3
I2
sg4
I3
sg5
I2
sg6
F-2.0
sg7
F0.0
sg8
F2.0
sg9
F-2.0
sb(dp103
I00
F38.55
sI01
F-23.5
ss(i__main__
State
p104
(dp105
g3
I2
sg4
I3
sg5
I2
sg6
F-8.0
sg7
F0.0
sg8
F8.0
sg9
F-5.0
sb(dp106
I00
F62.62
sI01
F69.94
ss(i__main__
State
p107
(dp108
g3
I2
sg4
I3
sg5
I2
sg6
F6.0
sg7
F4.0
sg8
F-6.0
sg9
F10.0
sb(dp109
I00
I-8
sI01
F38.85054
ss(i__main__
State
p110
(dp111
g3
I2
sg4
I3
sg5
I2
sg6
F-4.0
sg7
F1.0
sg8
F4.0
sg9
F7.0
sb(dp112
I00
F-22.9
sI01
I-53
ss(i__main__
State
p113
(dp114
g3
I2
sg4
I3
sg5
I2
sg6
F8.0
sg7
F7.0
sg8
F-8.0
sg9
F10.0
sb(dp115
I00
I-47
sI01
F55.132347900000006
ss(i__main__
State
p116
(dp117
g3
I2
sg4
I3
sg5
I2
sg6
F0.0
sg7
F4.0
sg8
F0.0
sg9
F10.0
sb(dp118
I00
F88.1859067588
sI01
F-21.72
ss(i__main__
State
p119
(dp120
g3
I2
sg4
I3
sg5
I2
sg6
F6.0
sg7
F2.0
sg8
F-6.0
sg9
F10.0
sb(dp121
I00
I-23
sI01
F86.62
ss(i__main__
State
p122
(dp123
g3
I2
sg4
I3
sg5
I2
sg6
F4.0
sg7
F8.0
sg8
F-4.0
sg9
F7.0
sb(dp124
I00
F22.460900000000002
sI01
F94.32869907557142
ss(i__main__
State
p125
(dp126
g3
I2
sg4
I3
sg5
I2
sg6
F-8.0
sg7
F5.0
sg8
F8.0
sg9
F-8.0
sb(dp127
I00
F63.331
sI01
I-39
ss(i__main__
State
p128
(dp129
g3
I2
sg4
I3
sg5
I2
sg6
F-6.0
sg7
F6.0
sg8
F6.0
sg9
F-5.0
sb(dp130
I00
F69.70030999999999
sI01
I-50
ss(i__main__
State
p131
(dp132
g3
I2
sg4
I3
sg5
I2
sg6
F-8.0
sg7
F9.0
sg8
F8.0
sg9
F7.0
sb(dp133
I00
F10.0
sI01
F0.0
ss(i__main__
State
p134
(dp135
g3
I2
sg4
I3
sg5
I2
sg6
F0.0
sg7
F8.0
sg8
F0.0
sg9
F1.0
sb(dp136
I00
F-1897.7729
sI01
F-2704.37
ss(i__main__
State
p137
(dp138
g3
I2
sg4
I3
sg5
I2
sg6
F-2.0
sg7
F7.0
sg8
F2.0
sg9
F-8.0
sb(dp139
I00
F2.17302
sI01
I-98
ss(i__main__
State
p140
(dp141
g3
I2
sg4
I3
sg5
I2
sg6
F4.0
sg7
F9.0
sg8
F-4.0
sg9
F10.0
sb(dp142
I00
F58.805540018604006
sI01
F0.0
ss(i__main__
State
p143
(dp144
g3
I2
sg4
I3
sg5
I2
sg6
F8.0
sg7
F7.0
sg8
F-8.0
sg9
F1.0
sb(dp145
I00
F-23.436948504138897
sI01
F-45.130518885629996
ss(i__main__
State
p146
(dp147
g3
I2
sg4
I3
sg5
I2
sg6
F6.0
sg7
F9.0
sg8
F-6.0
sg9
F1.0
sb(dp148
I00
F-1899.0
sI01
F-2704.59
ss(i__main__
State
p149
(dp150
g3
I2
sg4
I3
sg5
I2
sg6
F4.0
sg7
F3.0
sg8
F-4.0
sg9
F10.0
sb(dp151
I00
F-48.568
sI01
I-86
ss(i__main__
State
p152
(dp153
g3
I2
sg4
I3
sg5
I2
sg6
F-2.0
sg7
F2.0
sg8
F2.0
sg9
F7.0
sb(dp154
I00
F67.82207000000001
sI01
F63.3
ss(i__main__
State
p155
(dp156
g3
I2
sg4
I3
sg5
I2
sg6
F2.0
sg7
F5.0
sg8
F-2.0
sg9
F-2.0
sb(dp157
I00
F53.87283
sI01
F30.1
ss(i__main__
State
p158
(dp159
g3
I2
sg4
I3
sg5
I2
sg6
F-6.0
sg7
F8.0
sg8
F6.0
sg9
F-5.0
sb(dp160
I00
F74.4934055372
sI01
F11.11
ss(i__main__
State
p161
(dp162
g3
I2
sg4
I3
sg5
I2
sg6
F4.0
sg7
F1.0
sg8
F-4.0
sg9
F-2.0
sb(dp163
I00
F75.12619906299999
sI01
F-25.07504
ss(i__main__
State
p164
(dp165
g3
I2
sg4
I3
sg5
I2
sg6
F-4.0
sg7
F8.0
sg8
F4.0
sg9
F1.0
sb(dp166
I00
F30.0
sI01
F0.0
ss(i__main__
State
p167
(dp168
g3
I2
sg4
I3
sg5
I2
sg6
F6.0
sg7
F6.0
sg8
F-6.0
sg9
F-2.0
sb(dp169
I00
F81.28
sI01
I46
ss(i__main__
State
p170
(dp171
g3
I2
sg4
I3
sg5
I2
sg6
F-2.0
sg7
F1.0
sg8
F2.0
sg9
F7.0
sb(dp172
I00
F59.233
sI01
F66.942570601
ss(i__main__
State
p173
(dp174
g3
I2
sg4
I3
sg5
I2
sg6
F0.0
sg7
F0.0
sg8
F0.0
sg9
F-5.0
sb(dp175
I00
F5.200000000000001
sI01
I-43
ss(i__main__
State
p176
(dp177
g3
I2
sg4
I3
sg5
I2
sg6
F4.0
sg7
F3.0
sg8
F-4.0
sg9
F1.0
sb(dp178
I00
I-20
sI01
F58.61379
ss(i__main__
State
p179
(dp180
g3
I2
sg4
I3
sg5
I2
sg6
F-6.0
sg7
F7.0
sg8
F6.0
sg9
F10.0
sb(dp181
I00
F88.1929
sI01
F-1.7
ss(i__main__
State
p182
(dp183
g3
I2
sg4
I3
sg5
I2
sg6
F6.0
sg7
F7.0
sg8
F-6.0
sg9
F1.0
sb(dp184
I00
I-95
sI01
F30.111449999999998
ss(i__main__
State
p185
(dp186
g3
I2
sg4
I3
sg5
I2
sg6
F8.0
sg7
F9.0
sg8
F-8.0
sg9
F1.0
sb(dp187
I00
F-1899.0
sI01
F-1896.9791500000001
ss(i__main__
State
p188
(dp189
g3
I2
sg4
I3
sg5
I2
sg6
F-6.0
sg7
F6.0
sg8
F6.0
sg9
F-2.0
sb(dp190
I00
F-32.8
sI01
F39.83392249244
ss(i__main__
State
p191
(dp192
g3
I2
sg4
I3
sg5
I2
sg6
F-6.0
sg7
F10.0
sg8
F6.0
sg9
F4.0
sb(dp193
I00
F83.83784
sI01
F36.82770000000001
ss(i__main__
State
p194
(dp195
g3
I2
sg4
I3
sg5
I2
sg6
F-8.0
sg7
F7.0
sg8
F8.0
sg9
F-8.0
sb(dp196
I00
F66.3788
sI01
F-9.7
ss(i__main__
State
p197
(dp198
g3
I2
sg4
I3
sg5
I2
sg6
F6.0
sg7
F1.0
sg8
F-6.0
sg9
F-8.0
sb(dp199
I00
I33
sI01
F80.0
ss(i__main__
State
p200
(dp201
g3
I2
sg4
I3
sg5
I2
sg6
F6.0
sg7
F8.0
sg8
F-6.0
sg9
F-2.0
sb(dp202
I00
F39.0
sI01
F-162.62
ss(i__main__
State
p203
(dp204
g3
I2
sg4
I3
sg5
I2
sg6
F-8.0
sg7
F10.0
sg8
F8.0
sg9
F10.0
sb(dp205
I00
F38.996111600000006
sI01
F0.0
ss(i__main__
State
p206
(dp207
g3
I2
sg4
I3
sg5
I2
sg6
F-6.0
sg7
F0.0
sg8
F6.0
sg9
F7.0
sb(dp208
I00
F60.65185449999999
sI01
I-13
ss(i__main__
State
p209
(dp210
g3
I2
sg4
I3
sg5
I2
sg6
F0.0
sg7
F2.0
sg8
F0.0
sg9
F7.0
sb(dp211
I00
I-68
sI01
F-52.0
ss(i__main__
State
p212
(dp213
g3
I2
sg4
I3
sg5
I2
sg6
F-8.0
sg7
F0.0
sg8
F8.0
sg9
F4.0
sb(dp214
I00
I3
sI01
F20.774218599999998
ss(i__main__
State
p215
(dp216
g3
I2
sg4
I3
sg5
I2
sg6
F2.0
sg7
F10.0
sg8
F-2.0
sg9
F-8.0
sb(dp217
I00
F0.0
sI01
F9.5
ss(i__main__
State
p218
(dp219
g3
I2
sg4
I3
sg5
I2
sg6
F4.0
sg7
F9.0
sg8
F-4.0
sg9
F4.0
sb(dp220
I00
F20.0
sI01
F0.0
ss(i__main__
State
p221
(dp222
g3
I2
sg4
I3
sg5
I2
sg6
F2.0
sg7
F4.0
sg8
F-2.0
sg9
F10.0
sb(dp223
I00
F-13.964629799999997
sI01
F-38.9
ss(i__main__
State
p224
(dp225
g3
I2
sg4
I3
sg5
I2
sg6
F-4.0
sg7
F3.0
sg8
F4.0
sg9
F4.0
sb(dp226
I00
F35.563738
sI01
F35.386
ss(i__main__
State
p227
(dp228
g3
I2
sg4
I3
sg5
I2
sg6
F8.0
sg7
F1.0
sg8
F-8.0
sg9
F10.0
sb(dp229
I00
I-100
sI01
F-76.1
ss(i__main__
State
p230
(dp231
g3
I2
sg4
I3
sg5
I2
sg6
F-4.0
sg7
F8.0
sg8
F4.0
sg9
F4.0
sb(dp232
I00
F0.0
sI01
F30.0
ss(i__main__
State
p233
(dp234
g3
I2
sg4
I3
sg5
I2
sg6
F-6.0
sg7
F7.0
sg8
F6.0
sg9
F4.0
sb(dp235
I00
F-26.826
sI01
F12.8
ss(i__main__
State
p236
(dp237
g3
I2
sg4
I3
sg5
I2
sg6
F-8.0
sg7
F1.0
sg8
F8.0
sg9
F7.0
sb(dp238
I00
I-59
sI01
F73.99122
ss(i__main__
State
p239
(dp240
g3
I2
sg4
I3
sg5
I2
sg6
F-8.0
sg7
F3.0
sg8
F8.0
sg9
F4.0
sb(dp241
I00
I53
sI01
F59.26704
ss(i__main__
State
p242
(dp243
g3
I2
sg4
I3
sg5
I2
sg6
F-2.0
sg7
F8.0
sg8
F2.0
sg9
F-5.0
sb(dp244
I00
F0.0
sI01
F19.224609931110603
ss(i__main__
State
p245
(dp246
g3
I2
sg4
I3
sg5
I2
sg6
F4.0
sg7
F10.0
sg8
F-4.0
sg9
F1.0
sb(dp247
I00
F85.104438249726
sI01
F0.0
ss(i__main__
State
p248
(dp249
g3
I2
sg4
I3
sg5
I2
sg6
F-2.0
sg7
F1.0
sg8
F2.0
sg9
F-5.0
sb(dp250
I00
F-28.7079
sI01
F15.481200000000001
ss(i__main__
State
p251
(dp252
g3
I2
sg4
I3
sg5
I2
sg6
F-2.0
sg7
F5.0
sg8
F2.0
sg9
F4.0
sb(dp253
I00
F2.345
sI01
I-42
ss(i__main__
State
p254
(dp255
g3
I2
sg4
I3
sg5
I2
sg6
F8.0
sg7
F6.0
sg8
F-8.0
sg9
F-8.0
sb(dp256
I00
I-40
sI01
F6.585826700000002
ss(i__main__
State
p257
(dp258
g3
I2
sg4
I3
sg5
I2
sg6
F-6.0
sg7
F0.0
sg8
F6.0
sg9
F4.0
sb(dp259
I00
I-98
sI01
F53.75
ss(i__main__
State
p260
(dp261
g3
I2
sg4
I3
sg5
I2
sg6
F8.0
sg7
F8.0
sg8
F-8.0
sg9
F-5.0
sb(dp262
I00
F38.2
sI01
F10.0
ss(i__main__
State
p263
(dp264
g3
I2
sg4
I3
sg5
I2
sg6
F4.0
sg7
F0.0
sg8
F-4.0
sg9
F10.0
sb(dp265
I00
I3
sI01
F13.920252999999999
ss(i__main__
State
p266
(dp267
g3
I2
sg4
I3
sg5
I2
sg6
F2.0
sg7
F7.0
sg8
F-2.0
sg9
F7.0
sb(dp268
I00
I-86
sI01
F-175.56580000000002
ss(i__main__
State
p269
(dp270
g3
I2
sg4
I3
sg5
I2
sg6
F8.0
sg7
F5.0
sg8
F-8.0
sg9
F7.0
sb(dp271
I00
F-31.402967
sI01
I-96
ss(i__main__
State
p272
(dp273
g3
I2
sg4
I3
sg5
I2
sg6
F-4.0
sg7
F6.0
sg8
F4.0
sg9
F4.0
sb(dp274
I00
F9.835800000000003
sI01
F-82.5
ss(i__main__
State
p275
(dp276
g3
I2
sg4
I3
sg5
I2
sg6
F-8.0
sg7
F10.0
sg8
F8.0
sg9
F4.0
sb(dp277
I00
F40.001
sI01
F73.685318258
ss(i__main__
State
p278
(dp279
g3
I2
sg4
I3
sg5
I2
sg6
F2.0
sg7
F2.0
sg8
F-2.0
sg9
F1.0
sb(dp280
I00
F42.49489
sI01
F-11.4
ss(i__main__
State
p281
(dp282
g3
I2
sg4
I3
sg5
I2
sg6
F-6.0
sg7
F7.0
sg8
F6.0
sg9
F7.0
sb(dp283
I00
F40.855963
sI01
F-27.617999999999995
ss(i__main__
State
p284
(dp285
g3
I2
sg4
I3
sg5
I2
sg6
F6.0
sg7
F2.0
sg8
F-6.0
sg9
F7.0
sb(dp286
I00
F90.52
sI01
F76.3
ss(i__main__
State
p287
(dp288
g3
I2
sg4
I3
sg5
I2
sg6
F6.0
sg7
F5.0
sg8
F-6.0
sg9
F-2.0
sb(dp289
I00
F18.541999999999998
sI01
F27.433591400000005
ss(i__main__
State
p290
(dp291
g3
I2
sg4
I3
sg5
I2
sg6
F-2.0
sg7
F8.0
sg8
F2.0
sg9
F-8.0
sb(dp292
I00
F10.0
sI01
F30.0
ss(i__main__
State
p293
(dp294
g3
I2
sg4
I3
sg5
I2
sg6
F2.0
sg7
F6.0
sg8
F-2.0
sg9
F10.0
sb(dp295
I00
F-6.559999999999999
sI01
I-100
ss(i__main__
State
p296
(dp297
g3
I2
sg4
I3
sg5
I2
sg6
F6.0
sg7
F6.0
sg8
F-6.0
sg9
F1.0
sb(dp298
I00
F28.0422
sI01
I-71
ss(i__main__
State
p299
(dp300
g3
I2
sg4
I3
sg5
I2
sg6
F8.0
sg7
F2.0
sg8
F-8.0
sg9
F-8.0
sb(dp301
I00
F-84.96
sI01
I-100
ss(i__main__
State
p302
(dp303
g3
I2
sg4
I3
sg5
I2
sg6
F0.0
sg7
F9.0
sg8
F0.0
sg9
F-8.0
sb(dp304
I00
F131.91379246512082
sI01
F11.0
ss(i__main__
State
p305
(dp306
g3
I2
sg4
I3
sg5
I2
sg6
F0.0
sg7
F9.0
sg8
F0.0
sg9
F4.0
sb(dp307
I00
F40.8677
sI01
F20.560843
ss(i__main__
State
p308
(dp309
g3
I2
sg4
I3
sg5
I2
sg6
F2.0
sg7
F7.0
sg8
F-2.0
sg9
F1.0
sb(dp310
I00
I94
sI01
F-188.10000000000002
ss(i__main__
State
p311
(dp312
g3
I2
sg4
I3
sg5
I2
sg6
F-4.0
sg7
F9.0
sg8
F4.0
sg9
F-2.0
sb(dp313
I00
F-155.47320000000002
sI01
F112.42648002990806
ss(i__main__
State
p314
(dp315
g3
I2
sg4
I3
sg5
I2
sg6
F-8.0
sg7
F10.0
sg8
F8.0
sg9
F1.0
sb(dp316
I00
F60.880750000000006
sI01
F29.861
ss(i__main__
State
p317
(dp318
g3
I2
sg4
I3
sg5
I2
sg6
F6.0
sg7
F2.0
sg8
F-6.0
sg9
F-5.0
sb(dp319
I00
F30.3
sI01
F26.029999999999998
ss(i__main__
State
p320
(dp321
g3
I2
sg4
I3
sg5
I2
sg6
F8.0
sg7
F2.0
sg8
F-8.0
sg9
F10.0
sb(dp322
I00
I-14
sI01
F21.372303000000002
ss(i__main__
State
p323
(dp324
g3
I2
sg4
I3
sg5
I2
sg6
F2.0
sg7
F8.0
sg8
F-2.0
sg9
F7.0
sb(dp325
I00
F-81.0
sI01
F33.69770324
ss(i__main__
State
p326
(dp327
g3
I2
sg4
I3
sg5
I2
sg6
F2.0
sg7
F8.0
sg8
F-2.0
sg9
F-2.0
sb(dp328
I00
F-319.67800000000005
sI01
F-260.59180000000003
ss(i__main__
State
p329
(dp330
g3
I2
sg4
I3
sg5
I2
sg6
F6.0
sg7
F5.0
sg8
F-6.0
sg9
F1.0
sb(dp331
I00
F-72.6
sI01
I-70
ss(i__main__
State
p332
(dp333
g3
I2
sg4
I3
sg5
I2
sg6
F2.0
sg7
F4.0
sg8
F-2.0
sg9
F4.0
sb(dp334
I00
F86.6379
sI01
F68.089
ss(i__main__
State
p335
(dp336
g3
I2
sg4
I3
sg5
I2
sg6
F2.0
sg7
F2.0
sg8
F-2.0
sg9
F-2.0
sb(dp337
I00
F39.27857
sI01
I7
ss(i__main__
State
p338
(dp339
g3
I2
sg4
I3
sg5
I2
sg6
F-8.0
sg7
F6.0
sg8
F8.0
sg9
F10.0
sb(dp340
I00
F47.25595639999999
sI01
I-57
ss(i__main__
State
p341
(dp342
g3
I2
sg4
I3
sg5
I2
sg6
F2.0
sg7
F7.0
sg8
F-2.0
sg9
F-8.0
sb(dp343
I00
F-64.6
sI01
F-103.14
ss(i__main__
State
p344
(dp345
g3
I2
sg4
I3
sg5
I2
sg6
F8.0
sg7
F8.0
sg8
F-8.0
sg9
F4.0
sb(dp346
I00
F56.64723000000001
sI01
F11.247962000000001
ss(i__main__
State
p347
(dp348
g3
I2
sg4
I3
sg5
I2
sg6
F6.0
sg7
F0.0
sg8
F-6.0
sg9
F-5.0
sb(dp349
I00
F-27.840000000000003
sI01
F4.841910000000001
ss(i__main__
State
p350
(dp351
g3
I2
sg4
I3
sg5
I2
sg6
F-2.0
sg7
F2.0
sg8
F2.0
sg9
F-2.0
sb(dp352
I00
F-79.3
sI01
F24.2739803711
ss(i__main__
State
p353
(dp354
g3
I2
sg4
I3
sg5
I2
sg6
F-8.0
sg7
F2.0
sg8
F8.0
sg9
F10.0
sb(dp355
I00
F37.9
sI01
I45
ss(i__main__
State
p356
(dp357
g3
I2
sg4
I3
sg5
I2
sg6
F8.0
sg7
F9.0
sg8
F-8.0
sg9
F7.0
sb(dp358
I00
F10.0
sI01
F26.58271
ss(i__main__
State
p359
(dp360
g3
I2
sg4
I3
sg5
I2
sg6
F6.0
sg7
F1.0
sg8
F-6.0
sg9
F-5.0
sb(dp361
I00
F61.509127356
sI01
I0
ss(i__main__
State
p362
(dp363
g3
I2
sg4
I3
sg5
I2
sg6
F0.0
sg7
F2.0
sg8
F0.0
sg9
F-5.0
sb(dp364
I00
F69.13793346409999
sI01
I34
ss(i__main__
State
p365
(dp366
g3
I2
sg4
I3
sg5
I2
sg6
F-8.0
sg7
F6.0
sg8
F8.0
sg9
F-2.0
sb(dp367
I00
I-90
sI01
F18.46145
ss(i__main__
State
p368
(dp369
g3
I2
sg4
I3
sg5
I2
sg6
F-6.0
sg7
F6.0
sg8
F6.0
sg9
F-8.0
sb(dp370
I00
I-87
sI01
F38.2
ss(i__main__
State
p371
(dp372
g3
I2
sg4
I3
sg5
I2
sg6
F6.0
sg7
F1.0
sg8
F-6.0
sg9
F4.0
sb(dp373
I00
F27.218
sI01
I1
ss(i__main__
State
p374
(dp375
g3
I2
sg4
I3
sg5
I2
sg6
F-6.0
sg7
F8.0
sg8
F6.0
sg9
F-8.0
sb(dp376
I00
F49.682
sI01
F0.0
ss(i__main__
State
p377
(dp378
g3
I2
sg4
I3
sg5
I2
sg6
F-2.0
sg7
F2.0
sg8
F2.0
sg9
F4.0
sb(dp379
I00
F88.62014124
sI01
I-73
ss(i__main__
State
p380
(dp381
g3
I2
sg4
I3
sg5
I2
sg6
F-6.0
sg7
F1.0
sg8
F6.0
sg9
F-8.0
sb(dp382
I00
I-59
sI01
F2.917233344000003
ss(i__main__
State
p383
(dp384
g3
I2
sg4
I3
sg5
I2
sg6
F0.0
sg7
F4.0
sg8
F0.0
sg9
F7.0
sb(dp385
I00
I-85
sI01
F76.44190300000001
ss(i__main__
State
p386
(dp387
g3
I2
sg4
I3
sg5
I2
sg6
F-4.0
sg7
F0.0
sg8
F4.0
sg9
F7.0
sb(dp388
I00
I-29
sI01
F21.758063
ss(i__main__
State
p389
(dp390
g3
I2
sg4
I3
sg5
I2
sg6
F8.0
sg7
F4.0
sg8
F-8.0
sg9
F10.0
sb(dp391
I00
F38.07987
sI01
F65.74904462999999
ss(i__main__
State
p392
(dp393
g3
I2
sg4
I3
sg5
I2
sg6
F-4.0
sg7
F10.0
sg8
F4.0
sg9
F-8.0
sb(dp394
I00
F0.0
sI01
F26.67
ss(i__main__
State
p395
(dp396
g3
I2
sg4
I3
sg5
I2
sg6
F-2.0
sg7
F9.0
sg8
F2.0
sg9
F1.0
sb(dp397
I00
F-1898.896
sI01
F-999.0
ss(i__main__
State
p398
(dp399
g3
I2
sg4
I3
sg5
I2
sg6
F-4.0
sg7
F5.0
sg8
F4.0
sg9
F-2.0
sb(dp400
I00
F17.8796349
sI01
F-59.0
ss(i__main__
State
p401
(dp402
g3
I2
sg4
I3
sg5
I2
sg6
F-6.0
sg7
F1.0
sg8
F6.0
sg9
F-2.0
sb(dp403
I00
F80.6
sI01
I81
ss(i__main__
State
p404
(dp405
g3
I2
sg4
I3
sg5
I2
sg6
F4.0
sg7
F6.0
sg8
F-4.0
sg9
F10.0
sb(dp406
I00
F-44.019999999999996
sI01
I26
ss(i__main__
State
p407
(dp408
g3
I2
sg4
I3
sg5
I2
sg6
F0.0
sg7
F7.0
sg8
F0.0
sg9
F1.0
sb(dp409
I00
F5.5320122795796
sI01
F-65.6
ss(i__main__
State
p410
(dp411
g3
I2
sg4
I3
sg5
I2
sg6
F-2.0
sg7
F3.0
sg8
F2.0
sg9
F10.0
sb(dp412
I00
I29
sI01
F-37.97
ss(i__main__
State
p413
(dp414
g3
I2
sg4
I3
sg5
I2
sg6
F2.0
sg7
F5.0
sg8
F-2.0
sg9
F1.0
sb(dp415
I00
F48.91
sI01
F63.622
ss(i__main__
State
p416
(dp417
g3
I2
sg4
I3
sg5
I2
sg6
F0.0
sg7
F4.0
sg8
F0.0
sg9
F-2.0
sb(dp418
I00
F87.266
sI01
I-70
ss(i__main__
State
p419
(dp420
g3
I2
sg4
I3
sg5
I2
sg6
F2.0
sg7
F8.0
sg8
F-2.0
sg9
F1.0
sb(dp421
I00
F-72.9
sI01
F25.875240000000005
ss(i__main__
State
p422
(dp423
g3
I2
sg4
I3
sg5
I2
sg6
F6.0
sg7
F2.0
sg8
F-6.0
sg9
F4.0
sb(dp424
I00
F41.86
sI01
F80.43810645999999
ss(i__main__
State
p425
(dp426
g3
I2
sg4
I3
sg5
I2
sg6
F6.0
sg7
F9.0
sg8
F-6.0
sg9
F-2.0
sb(dp427
I00
F-252.71
sI01
F67.82639290516
ss(i__main__
State
p428
(dp429
g3
I2
sg4
I3
sg5
I2
sg6
F-4.0
sg7
F3.0
sg8
F4.0
sg9
F1.0
sb(dp430
I00
F0.9277818338000028
sI01
I-59
ss(i__main__
State
p431
(dp432
g3
I2
sg4
I3
sg5
I2
sg6
F-6.0
sg7
F7.0
sg8
F6.0
sg9
F1.0
sb(dp433
I00
I-81
sI01
F47.980000000000004
ss(i__main__
State
p434
(dp435
g3
I2
sg4
I3
sg5
I2
sg6
F-8.0
sg7
F5.0
sg8
F8.0
sg9
F4.0
sb(dp436
I00
F-77.5803
sI01
F-64.65968000000001
ss(i__main__
State
p437
(dp438
g3
I2
sg4
I3
sg5
I2
sg6
F2.0
sg7
F8.0
sg8
F-2.0
sg9
F4.0
sb(dp439
I00
F-72.7
sI01
F0.0
ss(i__main__
State
p440
(dp441
g3
I2
sg4
I3
sg5
I2
sg6
F2.0
sg7
F7.0
sg8
F-2.0
sg9
F-2.0
sb(dp442
I00
F-10.86495
sI01
I-41
ss(i__main__
State
p443
(dp444
g3
I2
sg4
I3
sg5
I2
sg6
F-2.0
sg7
F1.0
sg8
F2.0
sg9
F10.0
sb(dp445
I00
F18.10021619115
sI01
F-65.6
ss(i__main__
State
p446
(dp447
g3
I2
sg4
I3
sg5
I2
sg6
F0.0
sg7
F5.0
sg8
F0.0
sg9
F1.0
sb(dp448
I00
F-26.8
sI01
F31.8235077
ss(i__main__
State
p449
(dp450
g3
I2
sg4
I3
sg5
I2
sg6
F-6.0
sg7
F4.0
sg8
F6.0
sg9
F-5.0
sb(dp451
I00
I25
sI01
F39.53
ss(i__main__
State
p452
(dp453
g3
I2
sg4
I3
sg5
I2
sg6
F8.0
sg7
F2.0
sg8
F-8.0
sg9
F7.0
sb(dp454
I00
F-60.7
sI01
F36.399
ss(i__main__
State
p455
(dp456
g3
I2
sg4
I3
sg5
I2
sg6
F-2.0
sg7
F8.0
sg8
F2.0
sg9
F10.0
sb(dp457
I00
F14.0
sI01
F0.0
ss(i__main__
State
p458
(dp459
g3
I2
sg4
I3
sg5
I2
sg6
F-2.0
sg7
F6.0
sg8
F2.0
sg9
F7.0
sb(dp460
I00
F-66.95
sI01
F-43.730000000000004
ss(i__main__
State
p461
(dp462
g3
I2
sg4
I3
sg5
I2
sg6
F-4.0
sg7
F8.0
sg8
F4.0
sg9
F-8.0
sb(dp463
I00
F78.754041
sI01
F12.0
ss(i__main__
State
p464
(dp465
g3
I2
sg4
I3
sg5
I2
sg6
F-6.0
sg7
F9.0
sg8
F6.0
sg9
F4.0
sb(dp466
I00
F10.0
sI01
F13.0
ss(i__main__
State
p467
(dp468
g3
I2
sg4
I3
sg5
I2
sg6
F2.0
sg7
F3.0
sg8
F-2.0
sg9
F4.0
sb(dp469
I00
F-81.7
sI01
F94.45275000000001
ss(i__main__
State
p470
(dp471
g3
I2
sg4
I3
sg5
I2
sg6
F-8.0
sg7
F10.0
sg8
F8.0
sg9
F-2.0
sb(dp472
I00
F22.3771115
sI01
F0.0
ss(i__main__
State
p473
(dp474
g3
I2
sg4
I3
sg5
I2
sg6
F8.0
sg7
F2.0
sg8
F-8.0
sg9
F1.0
sb(dp475
I00
F81.844876903
sI01
I1
ss(i__main__
State
p476
(dp477
g3
I2
sg4
I3
sg5
I2
sg6
F-2.0
sg7
F5.0
sg8
F2.0
sg9
F7.0
sb(dp478
I00
F-59.9
sI01
F58.4
ss(i__main__
State
p479
(dp480
g3
I2
sg4
I3
sg5
I2
sg6
F-2.0
sg7
F3.0
sg8
F2.0
sg9
F-5.0
sb(dp481
I00
F54.196
sI01
F11.2
ss(i__main__
State
p482
(dp483
g3
I2
sg4
I3
sg5
I2
sg6
F6.0
sg7
F1.0
sg8
F-6.0
sg9
F1.0
sb(dp484
I00
F26.448
sI01
I-6
ss(i__main__
State
p485
(dp486
g3
I2
sg4
I3
sg5
I2
sg6
F8.0
sg7
F5.0
sg8
F-8.0
sg9
F-8.0
sb(dp487
I00
I-14
sI01
F2.1000000000000014
ss(i__main__
State
p488
(dp489
g3
I2
sg4
I3
sg5
I2
sg6
F-6.0
sg7
F4.0
sg8
F6.0
sg9
F-8.0
sb(dp490
I00
I-74
sI01
F43.9029
ss(i__main__
State
p491
(dp492
g3
I2
sg4
I3
sg5
I2
sg6
F8.0
sg7
F6.0
sg8
F-8.0
sg9
F7.0
sb(dp493
I00
F4.279690000000004
sI01
F-55.7
ss(i__main__
State
p494
(dp495
g3
I2
sg4
I3
sg5
I2
sg6
F0.0
sg7
F5.0
sg8
F0.0
sg9
F7.0
sb(dp496
I00
F-21.63351
sI01
I-74
ss(i__main__
State
p497
(dp498
g3
I2
sg4
I3
sg5
I2
sg6
F-8.0
sg7
F4.0
sg8
F8.0
sg9
F4.0
sb(dp499
I00
I-53
sI01
F-44.367876
ss(i__main__
State
p500
(dp501
g3
I2
sg4
I3
sg5
I2
sg6
F0.0
sg7
F6.0
sg8
F0.0
sg9
F-8.0
sb(dp502
I00
F66.973
sI01
I-17
ss(i__main__
State
p503
(dp504
g3
I2
sg4
I3
sg5
I2
sg6
F8.0
sg7
F5.0
sg8
F-8.0
sg9
F-2.0
sb(dp505
I00
F-62.8
sI01
F-10.442699999999999
ss(i__main__
State
p506
(dp507
g3
I2
sg4
I3
sg5
I2
sg6
F-4.0
sg7
F9.0
sg8
F4.0
sg9
F-5.0
sb(dp508
I00
F20.0
sI01
F78.53623465
ss(i__main__
State
p509
(dp510
g3
I2
sg4
I3
sg5
I2
sg6
F-6.0
sg7
F9.0
sg8
F6.0
sg9
F1.0
sb(dp511
I00
F-1899.0
sI01
F-1895.839
ss(i__main__
State
p512
(dp513
g3
I2
sg4
I3
sg5
I2
sg6
F-8.0
sg7
F4.0
sg8
F8.0
sg9
F-5.0
sb(dp514
I00
F-3.8999999999999995
sI01
F20.43049
ss(i__main__
State
p515
(dp516
g3
I2
sg4
I3
sg5
I2
sg6
F-6.0
sg7
F8.0
sg8
F6.0
sg9
F1.0
sb(dp517
I00
F12.0
sI01
F0.0
ss(i__main__
State
p518
(dp519
g3
I2
sg4
I3
sg5
I2
sg6
F-2.0
sg7
F1.0
sg8
F2.0
sg9
F-2.0
sb(dp520
I00
I-75
sI01
F54.8
ss(i__main__
State
p521
(dp522
g3
I2
sg4
I3
sg5
I2
sg6
F4.0
sg7
F9.0
sg8
F-4.0
sg9
F-5.0
sb(dp523
I00
F20.0
sI01
F0.0
ss(i__main__
State
p524
(dp525
g3
I2
sg4
I3
sg5
I2
sg6
F2.0
sg7
F10.0
sg8
F-2.0
sg9
F7.0
sb(dp526
I00
F-81.0
sI01
F24.358722
ss(i__main__
State
p527
(dp528
g3
I2
sg4
I3
sg5
I2
sg6
F6.0
sg7
F8.0
sg8
F-6.0
sg9
F1.0
sb(dp529
I00
F21.9
sI01
F0.0
ss(i__main__
State
p530
(dp531
g3
I2
sg4
I3
sg5
I2
sg6
F6.0
sg7
F1.0
sg8
F-6.0
sg9
F7.0
sb(dp532
I00
F-55.0039
sI01
F-1.7598999999999982
ss(i__main__
State
p533
(dp534
g3
I2
sg4
I3
sg5
I2
sg6
F2.0
sg7
F9.0
sg8
F-2.0
sg9
F-2.0
sb(dp535
I00
F-72.9
sI01
F-90.0
ss(i__main__
State
p536
(dp537
g3
I2
sg4
I3
sg5
I2
sg6
F4.0
sg7
F4.0
sg8
F-4.0
sg9
F7.0
sb(dp538
I00
I-99
sI01
F23.66
ss(i__main__
State
p539
(dp540
g3
I2
sg4
I3
sg5
I2
sg6
F6.0
sg7
F0.0
sg8
F-6.0
sg9
F10.0
sb(dp541
I00
I-61
sI01
F-50.854434
ss(i__main__
State
p542
(dp543
g3
I2
sg4
I3
sg5
I2
sg6
F-2.0
sg7
F7.0
sg8
F2.0
sg9
F1.0
sb(dp544
I00
F16.939972000000004
sI01
I-19
ss(i__main__
State
p545
(dp546
g3
I2
sg4
I3
sg5
I2
sg6
F-2.0
sg7
F4.0
sg8
F2.0
sg9
F-2.0
sb(dp547
I00
F31.5
sI01
F78.2
ss(i__main__
State
p548
(dp549
g3
I2
sg4
I3
sg5
I2
sg6
F6.0
sg7
F7.0
sg8
F-6.0
sg9
F-2.0
sb(dp550
I00
I-75
sI01
F60.59
ss(i__main__
State
p551
(dp552
g3
I2
sg4
I3
sg5
I2
sg6
F6.0
sg7
F10.0
sg8
F-6.0
sg9
F1.0
sb(dp553
I00
F10.0
sI01
F52.265100000000004
ss(i__main__
State
p554
(dp555
g3
I2
sg4
I3
sg5
I2
sg6
F4.0
sg7
F3.0
sg8
F-4.0
sg9
F-2.0
sb(dp556
I00
I-100
sI01
F-19.08
ss(i__main__
State
p557
(dp558
g3
I2
sg4
I3
sg5
I2
sg6
F-4.0
sg7
F1.0
sg8
F4.0
sg9
F1.0
sb(dp559
I00
F60.72
sI01
I98
ss(i__main__
State
p560
(dp561
g3
I2
sg4
I3
sg5
I2
sg6
F-6.0
sg7
F5.0
sg8
F6.0
sg9
F1.0
sb(dp562
I00
F-15.342847100000006
sI01
F-85.1
ss(i__main__
State
p563
(dp564
g3
I2
sg4
I3
sg5
I2
sg6
F-6.0
sg7
F8.0
sg8
F6.0
sg9
F10.0
sb(dp565
I00
F31.9
sI01
F0.0
ss(i__main__
State
p566
(dp567
g3
I2
sg4
I3
sg5
I2
sg6
F-8.0
sg7
F2.0
sg8
F8.0
sg9
F4.0
sb(dp568
I00
F72.03900000000002
sI01
I6
ss(i__main__
State
p569
(dp570
g3
I2
sg4
I3
sg5
I2
sg6
F8.0
sg7
F3.0
sg8
F-8.0
sg9
F-5.0
sb(dp571
I00
F-6.3708497999999985
sI01
F-15.8
ss(i__main__
State
p572
(dp573
g3
I2
sg4
I3
sg5
I2
sg6
F8.0
sg7
F9.0
sg8
F-8.0
sg9
F10.0
sb(dp574
I00
F10.0
sI01
F0.0
ss(i__main__
State
p575
(dp576
g3
I2
sg4
I3
sg5
I2
sg6
F-8.0
sg7
F4.0
sg8
F8.0
sg9
F7.0
sb(dp577
I00
F57.608242193
sI01
I37
ss(i__main__
State
p578
(dp579
g3
I2
sg4
I3
sg5
I2
sg6
F-2.0
sg7
F0.0
sg8
F2.0
sg9
F7.0
sb(dp580
I00
I-83
sI01
F68.62899999999999
ss(i__main__
State
p581
(dp582
g3
I2
sg4
I3
sg5
I2
sg6
F8.0
sg7
F7.0
sg8
F-8.0
sg9
F-2.0
sb(dp583
I00
F53.2657
sI01
F66.8
ss(i__main__
State
p584
(dp585
g3
I2
sg4
I3
sg5
I2
sg6
F-3.0
sg7
F0.0
sg8
F3.0
sg9
F0.0
sb(dp586
I00
F-9.0
sI01
I-75
ss(i__main__
State
p587
(dp588
g3
I2
sg4
I3
sg5
I2
sg6
F8.0
sg7
F9.0
sg8
F-8.0
sg9
F-2.0
sb(dp589
I00
F-90.0
sI01
F0.0
ss(i__main__
State
p590
(dp591
g3
I2
sg4
I3
sg5
I2
sg6
F-8.0
sg7
F8.0
sg8
F8.0
sg9
F1.0
sb(dp592
I00
F59.82476000000001
sI01
F11.0
ss(i__main__
State
p593
(dp594
g3
I2
sg4
I3
sg5
I2
sg6
F-4.0
sg7
F2.0
sg8
F4.0
sg9
F7.0
sb(dp595
I00
F34.29694153799999
sI01
I-50
ss(i__main__
State
p596
(dp597
g3
I2
sg4
I3
sg5
I2
sg6
F8.0
sg7
F4.0
sg8
F-8.0
sg9
F7.0
sb(dp598
I00
F38.004540000000006
sI01
I-83
ss(i__main__
State
p599
(dp600
g3
I2
sg4
I3
sg5
I2
sg6
F-4.0
sg7
F5.0
sg8
F4.0
sg9
F-5.0
sb(dp601
I00
F34.0
sI01
F58.290314971799994
ss(i__main__
State
p602
(dp603
g3
I2
sg4
I3
sg5
I2
sg6
F-6.0
sg7
F1.0
sg8
F6.0
sg9
F-5.0
sb(dp604
I00
F59.49993954969999
sI01
F-63.9655137
ss(i__main__
State
p605
(dp606
g3
I2
sg4
I3
sg5
I2
sg6
F-6.0
sg7
F5.0
sg8
F6.0
sg9
F4.0
sb(dp607
I00
I-94
sI01
F13.404990000000002
ss(i__main__
State
p608
(dp609
g3
I2
sg4
I3
sg5
I2
sg6
F-2.0
sg7
F0.0
sg8
F2.0
sg9
F4.0
sb(dp610
I00
F-32.2
sI01
F48.9
ss(i__main__
State
p611
(dp612
g3
I2
sg4
I3
sg5
I2
sg6
F-2.0
sg7
F10.0
sg8
F2.0
sg9
F-5.0
sb(dp613
I00
F20.0
sI01
F0.0
ss(i__main__
State
p614
(dp615
g3
I2
sg4
I3
sg5
I2
sg6
F6.0
sg7
F7.0
sg8
F-6.0
sg9
F7.0
sb(dp616
I00
F-55.66
sI01
F25.151741773999998
ss(i__main__
State
p617
(dp618
g3
I2
sg4
I3
sg5
I2
sg6
F2.0
sg7
F3.0
sg8
F-2.0
sg9
F-8.0
sb(dp619
I00
F11.076999999999998
sI01
F-65.5
ss(i__main__
State
p620
(dp621
g3
I2
sg4
I3
sg5
I2
sg6
F4.0
sg7
F1.0
sg8
F-4.0
sg9
F-8.0
sb(dp622
I00
F-6.014524171999998
sI01
I-98
ss(i__main__
State
p623
(dp624
g3
I2
sg4
I3
sg5
I2
sg6
F2.0
sg7
F1.0
sg8
F-2.0
sg9
F10.0
sb(dp625
I00
I8
sI01
F66.832
ss(i__main__
State
p626
(dp627
g3
I2
sg4
I3
sg5
I2
sg6
F8.0
sg7
F10.0
sg8
F-8.0
sg9
F-5.0
sb(dp628
I00
F31.510318132200002
sI01
F0.0
ss(i__main__
State
p629
(dp630
g3
I2
sg4
I3
sg5
I2
sg6
F6.0
sg7
F6.0
sg8
F-6.0
sg9
F10.0
sb(dp631
I00
I-51
sI01
F52.18471
ss(i__main__
State
p632
(dp633
g3
I2
sg4
I3
sg5
I2
sg6
F-4.0
sg7
F6.0
sg8
F4.0
sg9
F7.0
sb(dp634
I00
F-46.4
sI01
F-0.016000000000000014
ss(i__main__
State
p635
(dp636
g3
I2
sg4
I3
sg5
I2
sg6
F6.0
sg7
F8.0
sg8
F-6.0
sg9
F-8.0
sb(dp637
I00
F79.28317210000002
sI01
F0.0
ss(i__main__
State
p638
(dp639
g3
I2
sg4
I3
sg5
I2
sg6
F-8.0
sg7
F6.0
sg8
F8.0
sg9
F1.0
sb(dp640
I00
F55.39
sI01
I-10
ss(i__main__
State
p641
(dp642
g3
I2
sg4
I3
sg5
I2
sg6
F0.0
sg7
F10.0
sg8
F0.0
sg9
F4.0
sb(dp643
I00
F-1899.203
sI01
F-1887.306
ss(i__main__
State
p644
(dp645
g3
I2
sg4
I3
sg5
I2
sg6
F2.0
sg7
F6.0
sg8
F-2.0
sg9
F-5.0
sb(dp646
I00
F44.90998
sI01
F19.27
ss(i__main__
State
p647
(dp648
g3
I2
sg4
I3
sg5
I2
sg6
F4.0
sg7
F3.0
sg8
F-4.0
sg9
F4.0
sb(dp649
I00
I-24
sI01
F86.62412
ss(i__main__
State
p650
(dp651
g3
I2
sg4
I3
sg5
I2
sg6
F2.0
sg7
F9.0
sg8
F-2.0
sg9
F-8.0
sb(dp652
I00
F107.54871010352001
sI01
F19.0
ss(i__main__
State
p653
(dp654
g3
I2
sg4
I3
sg5
I2
sg6
F-6.0
sg7
F4.0
sg8
F6.0
sg9
F-2.0
sb(dp655
I00
I74
sI01
F-37.5
ss(i__main__
State
p656
(dp657
g3
I2
sg4
I3
sg5
I2
sg6
F-4.0
sg7
F4.0
sg8
F4.0
sg9
F-5.0
sb(dp658
I00
I-20
sI01
F11.5
ss(i__main__
State
p659
(dp660
g3
I2
sg4
I3
sg5
I2
sg6
F-9.0
sg7
F1.0
sg8
F9.0
sg9
F9.0
sb(dp661
I00
F48.1
sI01
I-54
ss(i__main__
State
p662
(dp663
g3
I2
sg4
I3
sg5
I2
sg6
F8.0
sg7
F0.0
sg8
F-8.0
sg9
F10.0
sb(dp664
I00
F82.0668
sI01
F-60.6
ss(i__main__
State
p665
(dp666
g3
I2
sg4
I3
sg5
I2
sg6
F8.0
sg7
F10.0
sg8
F-8.0
sg9
F10.0
sb(dp667
I00
F75.20565
sI01
F0.0
ss(i__main__
State
p668
(dp669
g3
I2
sg4
I3
sg5
I2
sg6
F-8.0
sg7
F3.0
sg8
F8.0
sg9
F-5.0
sb(dp670
I00
F3.080557487150001
sI01
F88.5188869
ss(i__main__
State
p671
(dp672
g3
I2
sg4
I3
sg5
I2
sg6
F4.0
sg7
F2.0
sg8
F-4.0
sg9
F10.0
sb(dp673
I00
F50.070800000000006
sI01
F67.412
ss(i__main__
State
p674
(dp675
g3
I2
sg4
I3
sg5
I2
sg6
F2.0
sg7
F10.0
sg8
F-2.0
sg9
F4.0
sb(dp676
I00
F-72.08000000000001
sI01
F54.457112827774004
ss(i__main__
State
p677
(dp678
g3
I2
sg4
I3
sg5
I2
sg6
F-2.0
sg7
F1.0
sg8
F2.0
sg9
F4.0
sb(dp679
I00
I-85
sI01
F87.94069999999999
ss(i__main__
State
p680
(dp681
g3
I2
sg4
I3
sg5
I2
sg6
F0.0
sg7
F8.0
sg8
F0.0
sg9
F4.0
sb(dp682
I00
F-1898.0
sI01
F-1897.1
ss(i__main__
State
p683
(dp684
g3
I2
sg4
I3
sg5
I2
sg6
F-2.0
sg7
F6.0
sg8
F2.0
sg9
F4.0
sb(dp685
I00
F55.63729999999999
sI01
F55.453
ss(i__main__
State
p686
(dp687
g3
I2
sg4
I3
sg5
I2
sg6
F-6.0
sg7
F9.0
sg8
F6.0
sg9
F7.0
sb(dp688
I00
F0.0
sI01
F30.9486238
ss(i__main__
State
p689
(dp690
g3
I2
sg4
I3
sg5
I2
sg6
F-4.0
sg7
F7.0
sg8
F4.0
sg9
F-2.0
sb(dp691
I00
I-95
sI01
F5.4
ss(i__main__
State
p692
(dp693
g3
I2
sg4
I3
sg5
I2
sg6
F0.0
sg7
F7.0
sg8
F0.0
sg9
F4.0
sb(dp694
I00
F-57.5
sI01
F27.2
ss(i__main__
State
p695
(dp696
g3
I2
sg4
I3
sg5
I2
sg6
F6.0
sg7
F4.0
sg8
F-6.0
sg9
F1.0
sb(dp697
I00
F37.948122753199996
sI01
F-52.78
ss(i__main__
State
p698
(dp699
g3
I2
sg4
I3
sg5
I2
sg6
F-4.0
sg7
F0.0
sg8
F4.0
sg9
F-5.0
sb(dp700
I00
F35.303751
sI01
F-12.299999999999999
ss(i__main__
State
p701
(dp702
g3
I2
sg4
I3
sg5
I2
sg6
F0.0
sg7
F4.0
sg8
F0.0
sg9
F-5.0
sb(dp703
I00
I-84
sI01
F10.9
ss(i__main__
State
p704
(dp705
g3
I2
sg4
I3
sg5
I2
sg6
F-4.0
sg7
F4.0
sg8
F4.0
sg9
F1.0
sb(dp706
I00
I90
sI01
F-50.87
ss(i__main__
State
p707
(dp708
g3
I2
sg4
I3
sg5
I2
sg6
F4.0
sg7
F10.0
sg8
F-4.0
sg9
F7.0
sb(dp709
I00
F69.4579535
sI01
F0.0
ss(i__main__
State
p710
(dp711
g3
I2
sg4
I3
sg5
I2
sg6
F4.0
sg7
F8.0
sg8
F-4.0
sg9
F4.0
sb(dp712
I00
F44.91681489
sI01
F20.0
ss(i__main__
State
p713
(dp714
g3
I2
sg4
I3
sg5
I2
sg6
F8.0
sg7
F1.0
sg8
F-8.0
sg9
F4.0
sb(dp715
I00
F44.76101
sI01
F69.202
ss(i__main__
State
p716
(dp717
g3
I2
sg4
I3
sg5
I2
sg6
F2.0
sg7
F7.0
sg8
F-2.0
sg9
F-5.0
sb(dp718
I00
F72.53999999999999
sI01
I40
ss(i__main__
State
p719
(dp720
g3
I2
sg4
I3
sg5
I2
sg6
F0.0
sg7
F8.0
sg8
F0.0
sg9
F10.0
sb(dp721
I00
F-3434.39
sI01
F-1897.68163
ss(i__main__
State
p722
(dp723
g3
I2
sg4
I3
sg5
I2
sg6
F-2.0
sg7
F6.0
sg8
F2.0
sg9
F10.0
sb(dp724
I00
F-60.4
sI01
I-93
ss(i__main__
State
p725
(dp726
g3
I2
sg4
I3
sg5
I2
sg6
F-4.0
sg7
F7.0
sg8
F4.0
sg9
F-5.0
sb(dp727
I00
F-65.88
sI01
F56.301899999999996
ss(i__main__
State
p728
(dp729
g3
I2
sg4
I3
sg5
I2
sg6
F0.0
sg7
F3.0
sg8
F0.0
sg9
F4.0
sb(dp730
I00
I-92
sI01
F-73.91
ss(i__main__
State
p731
(dp732
g3
I2
sg4
I3
sg5
I2
sg6
F6.0
sg7
F1.0
sg8
F-6.0
sg9
F10.0
sb(dp733
I00
F-70.91936588600001
sI01
F-16.41942186
ss(i__main__
State
p734
(dp735
g3
I2
sg4
I3
sg5
I2
sg6
F-8.0
sg7
F5.0
sg8
F8.0
sg9
F1.0
sb(dp736
I00
I-90
sI01
F68.20151741774
ss(i__main__
State
p737
(dp738
g3
I2
sg4
I3
sg5
I2
sg6
F-4.0
sg7
F8.0
sg8
F4.0
sg9
F10.0
sb(dp739
I00
F10.0
sI01
F32.81
ss(i__main__
State
p740
(dp741
g3
I2
sg4
I3
sg5
I2
sg6
F0.0
sg7
F2.0
sg8
F0.0
sg9
F10.0
sb(dp742
I00
F11.549999999999999
sI01
I-86
ss(i__main__
State
p743
(dp744
g3
I2
sg4
I3
sg5
I2
sg6
F0.0
sg7
F3.0
sg8
F0.0
sg9
F-5.0
sb(dp745
I00
I-98
sI01
F-40.079
ss(i__main__
State
p746
(dp747
g3
I2
sg4
I3
sg5
I2
sg6
F-8.0
sg7
F6.0
sg8
F8.0
sg9
F7.0
sb(dp748
I00
I-34
sI01
F52.32945900000001
ss(i__main__
State
p749
(dp750
g3
I2
sg4
I3
sg5
I2
sg6
F-8.0
sg7
F3.0
sg8
F8.0
sg9
F-8.0
sb(dp751
I00
I26
sI01
F29.0018
ss(i__main__
State
p752
(dp753
g3
I2
sg4
I3
sg5
I2
sg6
F4.0
sg7
F0.0
sg8
F-4.0
sg9
F-5.0
sb(dp754
I00
F-82.4
sI01
F14.9171
ss(i__main__
State
p755
(dp756
g3
I2
sg4
I3
sg5
I2
sg6
F2.0
sg7
F6.0
sg8
F-2.0
sg9
F-2.0
sb(dp757
I00
I-44
sI01
F32.735669
ss(i__main__
State
p758
(dp759
g3
I2
sg4
I3
sg5
I2
sg6
F-2.0
sg7
F7.0
sg8
F2.0
sg9
F4.0
sb(dp760
I00
F-17.43019
sI01
F57.995912795796
ss(i__main__
State
p761
(dp762
g3
I2
sg4
I3
sg5
I2
sg6
F0.0
sg7
F5.0
sg8
F0.0
sg9
F10.0
sb(dp763
I00
I-97
sI01
F-14.456039999999994
ss(i__main__
State
p764
(dp765
g3
I2
sg4
I3
sg5
I2
sg6
F8.0
sg7
F3.0
sg8
F-8.0
sg9
F1.0
sb(dp766
I00
I-64
sI01
F-68.6
ss(i__main__
State
p767
(dp768
g3
I2
sg4
I3
sg5
I2
sg6
F6.0
sg7
F0.0
sg8
F-6.0
sg9
F1.0
sb(dp769
I00
F53.822
sI01
F1.2999999999999998
ss(i__main__
State
p770
(dp771
g3
I2
sg4
I3
sg5
I2
sg6
F-8.0
sg7
F9.0
sg8
F8.0
sg9
F-8.0
sb(dp772
I00
F86.3244368509
sI01
F0.0
ss(i__main__
State
p773
(dp774
g3
I2
sg4
I3
sg5
I2
sg6
F-2.0
sg7
F5.0
sg8
F2.0
sg9
F1.0
sb(dp775
I00
I49
sI01
F82.7
ss(i__main__
State
p776
(dp777
g3
I2
sg4
I3
sg5
I2
sg6
F2.0
sg7
F8.0
sg8
F-2.0
sg9
F-5.0
sb(dp778
I00
F0.0
sI01
F29.9
ss(i__main__
State
p779
(dp780
g3
I2
sg4
I3
sg5
I2
sg6
F6.0
sg7
F6.0
sg8
F-6.0
sg9
F-5.0
sb(dp781
I00
F91.76859999999999
sI01
I38
ss(i__main__
State
p782
(dp783
g3
I2
sg4
I3
sg5
I2
sg6
F-2.0
sg7
F6.0
sg8
F2.0
sg9
F-2.0
sb(dp784
I00
F-22.58
sI01
F53.49
ss(i__main__
State
p785
(dp786
g3
I2
sg4
I3
sg5
I2
sg6
F8.0
sg7
F4.0
sg8
F-8.0
sg9
F-2.0
sb(dp787
I00
F50.29833647
sI01
I-80
ss(i__main__
State
p788
(dp789
g3
I2
sg4
I3
sg5
I2
sg6
F-4.0
sg7
F10.0
sg8
F4.0
sg9
F-5.0
sb(dp790
I00
F20.0
sI01
F0.0
ss(i__main__
State
p791
(dp792
g3
I2
sg4
I3
sg5
I2
sg6
F4.0
sg7
F1.0
sg8
F-4.0
sg9
F10.0
sb(dp793
I00
F-28.106208447
sI01
F-81.484706
ss(i__main__
State
p794
(dp795
g3
I2
sg4
I3
sg5
I2
sg6
F2.0
sg7
F4.0
sg8
F-2.0
sg9
F1.0
sb(dp796
I00
F90.9
sI01
F-20.97
ss(i__main__
State
p797
(dp798
g3
I2
sg4
I3
sg5
I2
sg6
F-4.0
sg7
F10.0
sg8
F4.0
sg9
F10.0
sb(dp799
I00
F20.200000000000003
sI01
F49.717
ss(i__main__
State
p800
(dp801
g3
I2
sg4
I3
sg5
I2
sg6
F2.0
sg7
F6.0
sg8
F-2.0
sg9
F-8.0
sb(dp802
I00
F43.285
sI01
F-67.2
ss(i__main__
State
p803
(dp804
g3
I2
sg4
I3
sg5
I2
sg6
F-8.0
sg7
F7.0
sg8
F8.0
sg9
F7.0
sb(dp805
I00
I47
sI01
F62.266
ss(i__main__
State
p806
(dp807
g3
I2
sg4
I3
sg5
I2
sg6
F-6.0
sg7
F2.0
sg8
F6.0
sg9
F1.0
sb(dp808
I00
F76.8999
sI01
I8
ss(i__main__
State
p809
(dp810
g3
I2
sg4
I3
sg5
I2
sg6
F2.0
sg7
F9.0
sg8
F-2.0
sg9
F-5.0
sb(dp811
I00
F10.0
sI01
F-81.0
ss(i__main__
State
p812
(dp813
g3
I2
sg4
I3
sg5
I2
sg6
F4.0
sg7
F5.0
sg8
F-4.0
sg9
F-8.0
sb(dp814
I00
F52.3296501
sI01
I-83
ss(i__main__
State
p815
(dp816
g3
I2
sg4
I3
sg5
I2
sg6
F0.0
sg7
F6.0
sg8
F0.0
sg9
F1.0
sb(dp817
I00
I85
sI01
F70.175
ss(i__main__
State
p818
(dp819
g3
I2
sg4
I3
sg5
I2
sg6
F-8.0
sg7
F8.0
sg8
F8.0
sg9
F4.0
sb(dp820
I00
F20.0
sI01
F11.399090000000001
ss(i__main__
State
p821
(dp822
g3
I2
sg4
I3
sg5
I2
sg6
F-6.0
sg7
F3.0
sg8
F6.0
sg9
F-8.0
sb(dp823
I00
F48.55088869
sI01
F40.733086
ss(i__main__
State
p824
(dp825
g3
I2
sg4
I3
sg5
I2
sg6
F-8.0
sg7
F2.0
sg8
F8.0
sg9
F-5.0
sb(dp826
I00
I-4
sI01
F58.6133353316
ss(i__main__
State
p827
(dp828
g3
I2
sg4
I3
sg5
I2
sg6
F-6.0
sg7
F8.0
sg8
F6.0
sg9
F-2.0
sb(dp829
I00
F54.10518000000001
sI01
F0.0
ss(i__main__
State
p830
(dp831
g3
I2
sg4
I3
sg5
I2
sg6
F-2.0
sg7
F7.0
sg8
F2.0
sg9
F10.0
sb(dp832
I00
F-16.44
sI01
F50.03968686000001
ss(i__main__
State
p833
(dp834
g3
I2
sg4
I3
sg5
I2
sg6
F0.0
sg7
F0.0
sg8
F0.0
sg9
F-8.0
sb(dp835
I00
F4.304
sI01
F39.82422
ss(i__main__
State
p836
(dp837
g3
I2
sg4
I3
sg5
I2
sg6
F-2.0
sg7
F4.0
sg8
F2.0
sg9
F-5.0
sb(dp838
I00
F-41.09
sI01
F13.1850137
ss(i__main__
State
p839
(dp840
g3
I2
sg4
I3
sg5
I2
sg6
F0.0
sg7
F9.0
sg8
F0.0
sg9
F1.0
sb(dp841
I00
F-1899.0
sI01
F-2704.1067000000003
ss(i__main__
State
p842
(dp843
g3
I2
sg4
I3
sg5
I2
sg6
F8.0
sg7
F0.0
sg8
F-8.0
sg9
F-5.0
sb(dp844
I00
I-68
sI01
F-39.8
ss(i__main__
State
p845
(dp846
g3
I2
sg4
I3
sg5
I2
sg6
F8.0
sg7
F8.0
sg8
F-8.0
sg9
F-8.0
sb(dp847
I00
F65.29118700000001
sI01
F0.0
ss(i__main__
State
p848
(dp849
g3
I2
sg4
I3
sg5
I2
sg6
F0.0
sg7
F1.0
sg8
F0.0
sg9
F-5.0
sb(dp850
I00
F-53.5
sI01
F29.350048024999996
ss(i__main__
State
p851
(dp852
g3
I2
sg4
I3
sg5
I2
sg6
F-2.0
sg7
F4.0
sg8
F2.0
sg9
F10.0
sb(dp853
I00
F77.7
sI01
I-40
ss(i__main__
State
p854
(dp855
g3
I2
sg4
I3
sg5
I2
sg6
F-2.0
sg7
F9.0
sg8
F2.0
sg9
F4.0
sb(dp856
I00
F40.759675
sI01
F10.0
ss(i__main__
State
p857
(dp858
g3
I2
sg4
I3
sg5
I2
sg6
F-8.0
sg7
F5.0
sg8
F8.0
sg9
F10.0
sb(dp859
I00
I-56
sI01
F-63.609640999999996
ss(i__main__
State
p860
(dp861
g3
I2
sg4
I3
sg5
I2
sg6
F-2.0
sg7
F9.0
sg8
F2.0
sg9
F-8.0
sb(dp862
I00
F68.08663715
sI01
F0.0
ss(i__main__
State
p863
(dp864
g3
I2
sg4
I3
sg5
I2
sg6
F-4.0
sg7
F2.0
sg8
F4.0
sg9
F-8.0
sb(dp865
I00
I-42
sI01
F82.9
ss(i__main__
State
p866
(dp867
g3
I2
sg4
I3
sg5
I2
sg6
F0.0
sg7
F2.0
sg8
F0.0
sg9
F1.0
sb(dp868
I00
F-79.73
sI01
F-48.214299999999994
ss(i__main__
State
p869
(dp870
g3
I2
sg4
I3
sg5
I2
sg6
F6.0
sg7
F3.0
sg8
F-6.0
sg9
F1.0
sb(dp871
I00
I15
sI01
F74.39316270092999
ss(i__main__
State
p872
(dp873
g3
I2
sg4
I3
sg5
I2
sg6
F-4.0
sg7
F10.0
sg8
F4.0
sg9
F-2.0
sb(dp874
I00
F40.4605552379561
sI01
F0.0
ss(i__main__
State
p875
(dp876
g3
I2
sg4
I3
sg5
I2
sg6
F-2.0
sg7
F10.0
sg8
F2.0
sg9
F-8.0
sb(dp877
I00
F20.0
sI01
F12.95831
ss(i__main__
State
p878
(dp879
g3
I2
sg4
I3
sg5
I2
sg6
F-6.0
sg7
F3.0
sg8
F6.0
sg9
F-5.0
sb(dp880
I00
I60
sI01
F88.4
ss(i__main__
State
p881
(dp882
g3
I2
sg4
I3
sg5
I2
sg6
F-8.0
sg7
F5.0
sg8
F8.0
sg9
F-5.0
sb(dp883
I00
F51.1
sI01
F61.4909
ss(i__main__
State
p884
(dp885
g3
I2
sg4
I3
sg5
I2
sg6
F4.0
sg7
F6.0
sg8
F-4.0
sg9
F-5.0
sb(dp886
I00
F-79.1594
sI01
F15.604300000000002
ss(i__main__
State
p887
(dp888
g3
I2
sg4
I3
sg5
I2
sg6
F-4.0
sg7
F7.0
sg8
F4.0
sg9
F10.0
sb(dp889
I00
I8
sI01
F64.8165
ss(i__main__
State
p890
(dp891
g3
I2
sg4
I3
sg5
I2
sg6
F4.0
sg7
F5.0
sg8
F-4.0
sg9
F4.0
sb(dp892
I00
F28.68
sI01
I-48
ss(i__main__
State
p893
(dp894
g3
I2
sg4
I3
sg5
I2
sg6
F-2.0
sg7
F4.0
sg8
F2.0
sg9
F-8.0
sb(dp895
I00
F-34.9
sI01
F74.12206443438001
ss(i__main__
State
p896
(dp897
g3
I2
sg4
I3
sg5
I2
sg6
F-4.0
sg7
F4.0
sg8
F4.0
sg9
F-2.0
sb(dp898
I00
F73.14999999999999
sI01
I43
ss(i__main__
State
p899
(dp900
g3
I2
sg4
I3
sg5
I2
sg6
F2.0
sg7
F1.0
sg8
F-2.0
sg9
F1.0
sb(dp901
I00
F93.2686558549
sI01
F38.24185
ss(i__main__
State
p902
(dp903
g3
I2
sg4
I3
sg5
I2
sg6
F0.0
sg7
F0.0
sg8
F0.0
sg9
F-2.0
sb(dp904
I00
F-24.858911300000006
sI01
I-55
ss(i__main__
State
p905
(dp906
g3
I2
sg4
I3
sg5
I2
sg6
F6.0
sg7
F5.0
sg8
F-6.0
sg9
F-8.0
sb(dp907
I00
F-47.117943
sI01
F63.67716999999999
ss(i__main__
State
p908
(dp909
g3
I2
sg4
I3
sg5
I2
sg6
F-4.0
sg7
F3.0
sg8
F4.0
sg9
F7.0
sb(dp910
I00
F6.6361500000000015
sI01
I-7
ss(i__main__
State
p911
(dp912
g3
I2
sg4
I3
sg5
I2
sg6
F-7.0
sg7
F0.0
sg8
F7.0
sg9
F6.0
sb(dp913
I00
I0
sI01
F93.4
ss(i__main__
State
p914
(dp915
g3
I2
sg4
I3
sg5
I2
sg6
F8.0
sg7
F0.0
sg8
F-8.0
sg9
F7.0
sb(dp916
I00
F-46.9
sI01
F4.390808339999998
ss(i__main__
State
p917
(dp918
g3
I2
sg4
I3
sg5
I2
sg6
F0.0
sg7
F5.0
sg8
F0.0
sg9
F4.0
sb(dp919
I00
F43.91
sI01
F-29.8
ss(i__main__
State
p920
(dp921
g3
I2
sg4
I3
sg5
I2
sg6
F-2.0
sg7
F4.0
sg8
F2.0
sg9
F7.0
sb(dp922
I00
F44.56
sI01
I-57
ss(i__main__
State
p923
(dp924
g3
I2
sg4
I3
sg5
I2
sg6
F0.0
sg7
F6.0
sg8
F0.0
sg9
F-5.0
sb(dp925
I00
F23.935
sI01
I-43
ss(i__main__
State
p926
(dp927
g3
I2
sg4
I3
sg5
I2
sg6
F-6.0
sg7
F3.0
sg8
F6.0
sg9
F4.0
sb(dp928
I00
F-53.0
sI01
F34.64197372100001
ss(i__main__
State
p929
(dp930
g3
I2
sg4
I3
sg5
I2
sg6
F-4.0
sg7
F9.0
sg8
F4.0
sg9
F-8.0
sb(dp931
I00
F51.856700000000004
sI01
F10.0
ss(i__main__
State
p932
(dp933
g3
I2
sg4
I3
sg5
I2
sg6
F-4.0
sg7
F10.0
sg8
F4.0
sg9
F1.0
sb(dp934
I00
F96.69027742
sI01
F15.0
ss(i__main__
State
p935
(dp936
g3
I2
sg4
I3
sg5
I2
sg6
F-4.0
sg7
F5.0
sg8
F4.0
sg9
F7.0
sb(dp937
I00
F7.4990000000000006
sI01
I-48
ss(i__main__
State
p938
(dp939
g3
I2
sg4
I3
sg5
I2
sg6
F0.0
sg7
F2.0
sg8
F0.0
sg9
F-2.0
sb(dp940
I00
F56.1611618954
sI01
I-7
ss(i__main__
State
p941
(dp942
g3
I2
sg4
I3
sg5
I2
sg6
F-8.0
sg7
F7.0
sg8
F8.0
sg9
F-5.0
sb(dp943
I00
F74.81
sI01
I52
ss(i__main__
State
p944
(dp945
g3
I2
sg4
I3
sg5
I2
sg6
F-8.0
sg7
F10.0
sg8
F8.0
sg9
F-5.0
sb(dp946
I00
F40.9434
sI01
F8.1
ss(i__main__
State
p947
(dp948
g3
I2
sg4
I3
sg5
I2
sg6
F2.0
sg7
F1.0
sg8
F-2.0
sg9
F7.0
sb(dp949
I00
I-30
sI01
F17.3
ss(i__main__
State
p950
(dp951
g3
I2
sg4
I3
sg5
I2
sg6
F-2.0
sg7
F3.0
sg8
F2.0
sg9
F7.0
sb(dp952
I00
I-44
sI01
F67.81569999999999
ss(i__main__
State
p953
(dp954
g3
I2
sg4
I3
sg5
I2
sg6
F6.0
sg7
F2.0
sg8
F-6.0
sg9
F-2.0
sb(dp955
I00
F48.78399
sI01
I-83
ss(i__main__
State
p956
(dp957
g3
I2
sg4
I3
sg5
I2
sg6
F0.0
sg7
F9.0
sg8
F0.0
sg9
F-2.0
sb(dp958
I00
F-72.80000000000001
sI01
F11.0
ss(i__main__
State
p959
(dp960
g3
I2
sg4
I3
sg5
I2
sg6
F4.0
sg7
F2.0
sg8
F-4.0
sg9
F-8.0
sb(dp961
I00
F30.311234220000003
sI01
I-58
ss(i__main__
State
p962
(dp963
g3
I2
sg4
I3
sg5
I2
sg6
F-2.0
sg7
F4.0
sg8
F2.0
sg9
F4.0
sb(dp964
I00
I80
sI01
F82.26
ss(i__main__
State
p965
(dp966
g3
I2
sg4
I3
sg5
I2
sg6
F0.0
sg7
F0.0
sg8
F0.0
sg9
F7.0
sb(dp967
I00
I-86
sI01
F-3.5009765181089976
ss(i__main__
State
p968
(dp969
g3
I2
sg4
I3
sg5
I2
sg6
F-6.0
sg7
F0.0
sg8
F6.0
sg9
F-8.0
sb(dp970
I00
F82.268
sI01
I-2
ss(i__main__
State
p971
(dp972
g3
I2
sg4
I3
sg5
I2
sg6
F-2.0
sg7
F8.0
sg8
F2.0
sg9
F-2.0
sb(dp973
I00
F10.0
sI01
F0.0
ss(i__main__
State
p974
(dp975
g3
I2
sg4
I3
sg5
I2
sg6
F-6.0
sg7
F3.0
sg8
F6.0
sg9
F7.0
sb(dp976
I00
F26.555485
sI01
F-32.1
ss(i__main__
State
p977
(dp978
g3
I2
sg4
I3
sg5
I2
sg6
F-8.0
sg7
F7.0
sg8
F8.0
sg9
F1.0
sb(dp979
I00
F36.0447273224
sI01
F-46.535277
ss(i__main__
State
p980
(dp981
g3
I2
sg4
I3
sg5
I2
sg6
F-8.0
sg7
F1.0
sg8
F8.0
sg9
F-8.0
sb(dp982
I00
I50
sI01
F54.537759
ss(i__main__
State
p983
(dp984
g3
I2
sg4
I3
sg5
I2
sg6
F-6.0
sg7
F2.0
sg8
F6.0
sg9
F-2.0
sb(dp985
I00
I-21
sI01
F55.8
ss(i__main__
State
p986
(dp987
g3
I2
sg4
I3
sg5
I2
sg6
F4.0
sg7
F7.0
sg8
F-4.0
sg9
F10.0
sb(dp988
I00
F44.19
sI01
I48
ss(i__main__
State
p989
(dp990
g3
I2
sg4
I3
sg5
I2
sg6
F2.0
sg7
F2.0
sg8
F-2.0
sg9
F-5.0
sb(dp991
I00
F73.1439811556
sI01
F52.949999999999996
ss(i__main__
State
p992
(dp993
g3
I2
sg4
I3
sg5
I2
sg6
F-2.0
sg7
F6.0
sg8
F2.0
sg9
F1.0
sb(dp994
I00
F-41.95101
sI01
F-69.9869
ss(i__main__
State
p995
(dp996
g3
I2
sg4
I3
sg5
I2
sg6
F8.0
sg7
F1.0
sg8
F-8.0
sg9
F-8.0
sb(dp997
I00
F1.2200000000000006
sI01
F17.02
ss(i__main__
State
p998
(dp999
g3
I2
sg4
I3
sg5
I2
sg6
F-2.0
sg7
F5.0
sg8
F2.0
sg9
F-2.0
sb(dp1000
I00
I-92
sI01
F88.6
ss(i__main__
State
p1001
(dp1002
g3
I2
sg4
I3
sg5
I2
sg6
F4.0
sg7
F10.0
sg8
F-4.0
sg9
F-5.0
sb(dp1003
I00
F53.711099999999995
sI01
F0.0
ss(i__main__
State
p1004
(dp1005
g3
I2
sg4
I3
sg5
I2
sg6
F8.0
sg7
F3.0
sg8
F-8.0
sg9
F10.0
sb(dp1006
I00
F-5.5
sI01
F80.19
ss(i__main__
State
p1007
(dp1008
g3
I2
sg4
I3
sg5
I2
sg6
F4.0
sg7
F8.0
sg8
F-4.0
sg9
F-8.0
sb(dp1009
I00
F0.0
sI01
F28.0
ss(i__main__
State
p1010
(dp1011
g3
I2
sg4
I3
sg5
I2
sg6
F-8.0
sg7
F4.0
sg8
F8.0
sg9
F-2.0
sb(dp1012
I00
F57.0
sI01
I-53
ss(i__main__
State
p1013
(dp1014
g3
I2
sg4
I3
sg5
I2
sg6
F-2.0
sg7
F8.0
sg8
F2.0
sg9
F1.0
sb(dp1015
I00
F30.0
sI01
F0.0
ss(i__main__
State
p1016
(dp1017
g3
I2
sg4
I3
sg5
I2
sg6
F4.0
sg7
F6.0
sg8
F-4.0
sg9
F-2.0
sb(dp1018
I00
F80.68599999999999
sI01
F-41.9
ss(i__main__
State
p1019
(dp1020
g3
I2
sg4
I3
sg5
I2
sg6
F8.0
sg7
F1.0
sg8
F-8.0
sg9
F-2.0
sb(dp1021
I00
I-80
sI01
F-6.119999999999999
ss(i__main__
State
p1022
(dp1023
g3
I2
sg4
I3
sg5
I2
sg6
F4.0
sg7
F5.0
sg8
F-4.0
sg9
F1.0
sb(dp1024
I00
F-30.53582
sI01
F-79.00999999999999
ss(i__main__
State
p1025
(dp1026
g3
I2
sg4
I3
sg5
I2
sg6
F-8.0
sg7
F0.0
sg8
F8.0
sg9
F7.0
sb(dp1027
I00
F20.0586
sI01
F-34.3
ss(i__main__
State
p1028
(dp1029
g3
I2
sg4
I3
sg5
I2
sg6
F4.0
sg7
F9.0
sg8
F-4.0
sg9
F-2.0
sb(dp1030
I00
F-90.0
sI01
F10.0
ss(i__main__
State
p1031
(dp1032
g3
I2
sg4
I3
sg5
I2
sg6
F4.0
sg7
F9.0
sg8
F-4.0
sg9
F7.0
sb(dp1033
I00
F11.0
sI01
F21.57
ss(i__main__
State
p1034
(dp1035
g3
I2
sg4
I3
sg5
I2
sg6
F-4.0
sg7
F0.0
sg8
F4.0
sg9
F1.0
sb(dp1036
I00
I-45
sI01
F-7.529999999999998
ss(i__main__
State
p1037
(dp1038
g3
I2
sg4
I3
sg5
I2
sg6
F-6.0
sg7
F10.0
sg8
F6.0
sg9
F10.0
sb(dp1039
I00
F10.0
sI01
F0.0
ss(i__main__
State
p1040
(dp1041
g3
I2
sg4
I3
sg5
I2
sg6
F6.0
sg7
F7.0
sg8
F-6.0
sg9
F10.0
sb(dp1042
I00
I-55
sI01
F-6.2
ss(i__main__
State
p1043
(dp1044
g3
I2
sg4
I3
sg5
I2
sg6
F-4.0
sg7
F5.0
sg8
F4.0
sg9
F-8.0
sb(dp1045
I00
I-27
sI01
F31.17184
ss(i__main__
State
p1046
(dp1047
g3
I2
sg4
I3
sg5
I2
sg6
F6.0
sg7
F4.0
sg8
F-6.0
sg9
F-5.0
sb(dp1048
I00
I-67
sI01
F-14.089349999999998
ss(i__main__
State
p1049
(dp1050
g3
I2
sg4
I3
sg5
I2
sg6
F6.0
sg7
F3.0
sg8
F-6.0
sg9
F-8.0
sb(dp1051
I00
I-24
sI01
F53.087074
ss(i__main__
State
p1052
(dp1053
g3
I2
sg4
I3
sg5
I2
sg6
F-4.0
sg7
F9.0
sg8
F4.0
sg9
F7.0
sb(dp1054
I00
F51.169900650137805
sI01
F0.0
ss(i__main__
State
p1055
(dp1056
g3
I2
sg4
I3
sg5
I2
sg6
F6.0
sg7
F6.0
sg8
F-6.0
sg9
F7.0
sb(dp1057
I00
F-74.8
sI01
F21.87
ss(i__main__
State
p1058
(dp1059
g3
I2
sg4
I3
sg5
I2
sg6
F-4.0
sg7
F7.0
sg8
F4.0
sg9
F4.0
sb(dp1060
I00
F-5.257858999999995
sI01
I-71
ss(i__main__
State
p1061
(dp1062
g3
I2
sg4
I3
sg5
I2
sg6
F8.0
sg7
F8.0
sg8
F-8.0
sg9
F-2.0
sb(dp1063
I00
F10.0
sI01
F-245.23000000000002
ss(i__main__
State
p1064
(dp1065
g3
I2
sg4
I3
sg5
I2
sg6
F4.0
sg7
F4.0
sg8
F-4.0
sg9
F1.0
sb(dp1066
I00
F-80.8
sI01
F59.28452256
ss(i__main__
State
p1067
(dp1068
g3
I2
sg4
I3
sg5
I2
sg6
F0.0
sg7
F6.0
sg8
F0.0
sg9
F4.0
sb(dp1069
I00
F-55.691
sI01
F13.8575
ss(i__main__
State
p1070
(dp1071
g3
I2
sg4
I3
sg5
I2
sg6
F8.0
sg7
F10.0
sg8
F-8.0
sg9
F7.0
sb(dp1072
I00
F40.017
sI01
F0.0
ss(i__main__
State
p1073
(dp1074
g3
I2
sg4
I3
sg5
I2
sg6
F6.0
sg7
F1.0
sg8
F-6.0
sg9
F-2.0
sb(dp1075
I00
I7
sI01
F67.2321
ss(i__main__
State
p1076
(dp1077
g3
I2
sg4
I3
sg5
I2
sg6
F-6.0
sg7
F2.0
sg8
F6.0
sg9
F4.0
sb(dp1078
I00
F68.63
sI01
I-28
ss(i__main__
State
p1079
(dp1080
g3
I2
sg4
I3
sg5
I2
sg6
F6.0
sg7
F9.0
sg8
F-6.0
sg9
F-8.0
sb(dp1081
I00
F20.0
sI01
F0.0
ss(i__main__
State
p1082
(dp1083
g3
I2
sg4
I3
sg5
I2
sg6
F6.0
sg7
F5.0
sg8
F-6.0
sg9
F-5.0
sb(dp1084
I00
F21.8598
sI01
F13.107
ss(i__main__
State
p1085
(dp1086
g3
I2
sg4
I3
sg5
I2
sg6
F4.0
sg7
F0.0
sg8
F-4.0
sg9
F-8.0
sb(dp1087
I00
F64.96757448
sI01
I-53
ss(i__main__
State
p1088
(dp1089
g3
I2
sg4
I3
sg5
I2
sg6
F0.0
sg7
F0.0
sg8
F0.0
sg9
F1.0
sb(dp1090
I00
I-69
sI01
F77.34779999999999
ss(i__main__
State
p1091
(dp1092
g3
I2
sg4
I3
sg5
I2
sg6
F0.0
sg7
F10.0
sg8
F0.0
sg9
F7.0
sb(dp1093
I00
F-1000.0
sI01
F-1884.42
ss(i__main__
State
p1094
(dp1095
g3
I2
sg4
I3
sg5
I2
sg6
F4.0
sg7
F1.0
sg8
F-4.0
sg9
F4.0
sb(dp1096
I00
I-75
sI01
F-31.638999999999996
ss(i__main__
State
p1097
(dp1098
g3
I2
sg4
I3
sg5
I2
sg6
F6.0
sg7
F2.0
sg8
F-6.0
sg9
F-8.0
sb(dp1099
I00
I-75
sI01
F-10.7
ss(i__main__
State
p1100
(dp1101
g3
I2
sg4
I3
sg5
I2
sg6
F2.0
sg7
F5.0
sg8
F-2.0
sg9
F4.0
sb(dp1102
I00
I-76
sI01
F19.40715678
ss(i__main__
State
p1103
(dp1104
g3
I2
sg4
I3
sg5
I2
sg6
F0.0
sg7
F4.0
sg8
F0.0
sg9
F4.0
sb(dp1105
I00
F77.2
sI01
I66
ss(i__main__
State
p1106
(dp1107
g3
I2
sg4
I3
sg5
I2
sg6
F-2.0
sg7
F10.0
sg8
F2.0
sg9
F7.0
sb(dp1108
I00
F13.485
sI01
F12.00843
ss(i__main__
State
p1109
(dp1110
g3
I2
sg4
I3
sg5
I2
sg6
F-4.0
sg7
F0.0
sg8
F4.0
sg9
F4.0
sb(dp1111
I00
F18.43417912
sI01
F-58.3
ss(i__main__
State
p1112
(dp1113
g3
I2
sg4
I3
sg5
I2
sg6
F8.0
sg7
F10.0
sg8
F-8.0
sg9
F1.0
sb(dp1114
I00
F45.511491500000005
sI01
F0.0
ss(i__main__
State
p1115
(dp1116
g3
I2
sg4
I3
sg5
I2
sg6
F-2.0
sg7
F0.0
sg8
F2.0
sg9
F10.0
sb(dp1117
I00
F-58.2
sI01
F74.0
ss(i__main__
State
p1118
(dp1119
g3
I2
sg4
I3
sg5
I2
sg6
F0.0
sg7
F7.0
sg8
F0.0
sg9
F-5.0
sb(dp1120
I00
F47.35
sI01
I-5
ss(i__main__
State
p1121
(dp1122
g3
I2
sg4
I3
sg5
I2
sg6
F-6.0
sg7
F5.0
sg8
F6.0
sg9
F-8.0
sb(dp1123
I00
I-86
sI01
F-47.8
ss(i__main__
State
p1124
(dp1125
g3
I2
sg4
I3
sg5
I2
sg6
F4.0
sg7
F7.0
sg8
F-4.0
sg9
F7.0
sb(dp1126
I00
F35.0
sI01
F54.006805122474006
ss(i__main__
State
p1127
(dp1128
g3
I2
sg4
I3
sg5
I2
sg6
F-8.0
sg7
F4.0
sg8
F8.0
sg9
F-8.0
sb(dp1129
I00
I52
sI01
F58.928
ss(i__main__
State
p1130
(dp1131
g3
I2
sg4
I3
sg5
I2
sg6
F4.0
sg7
F10.0
sg8
F-4.0
sg9
F-8.0
sb(dp1132
I00
F36.49747
sI01
F10.600000000000001
ss(i__main__
State
p1133
(dp1134
g3
I2
sg4
I3
sg5
I2
sg6
F4.0
sg7
F3.0
sg8
F-4.0
sg9
F-8.0
sb(dp1135
I00
I-61
sI01
F14.579999999999998
ss(i__main__
State
p1136
(dp1137
g3
I2
sg4
I3
sg5
I2
sg6
F-2.0
sg7
F9.0
sg8
F2.0
sg9
F7.0
sb(dp1138
I00
F21.1
sI01
F40.332
ss(i__main__
State
p1139
(dp1140
g3
I2
sg4
I3
sg5
I2
sg6
F0.0
sg7
F8.0
sg8
F0.0
sg9
F-5.0
sb(dp1141
I00
F-1000.0
sI01
F-1891.27493084
ss(i__main__
State
p1142
(dp1143
g3
I2
sg4
I3
sg5
I2
sg6
F-2.0
sg7
F9.0
sg8
F2.0
sg9
F-5.0
sb(dp1144
I00
F117.86000046543124
sI01
F12.2530987
ss(i__main__
State
p1145
(dp1146
g3
I2
sg4
I3
sg5
I2
sg6
F6.0
sg7
F0.0
sg8
F-6.0
sg9
F7.0
sb(dp1147
I00
I-77
sI01
F60.96517915529999
ss(i__main__
State
p1148
(dp1149
g3
I2
sg4
I3
sg5
I2
sg6
F-8.0
sg7
F9.0
sg8
F8.0
sg9
F1.0
sb(dp1150
I00
F-1000.0
sI01
F-1000.0
ss(i__main__
State
p1151
(dp1152
g3
I2
sg4
I3
sg5
I2
sg6
F-6.0
sg7
F5.0
sg8
F6.0
sg9
F-2.0
sb(dp1153
I00
F21.55
sI01
F-47.39
ss(i__main__
State
p1154
(dp1155
g3
I2
sg4
I3
sg5
I2
sg6
F-8.0
sg7
F7.0
sg8
F8.0
sg9
F-2.0
sb(dp1156
I00
F36.356305149586106
sI01
F94.20065682
ss(i__main__
State
p1157
(dp1158
g3
I2
sg4
I3
sg5
I2
sg6
F4.0
sg7
F2.0
sg8
F-4.0
sg9
F1.0
sb(dp1159
I00
F-76.7
sI01
F47.6949
ss(i__main__
State
p1160
(dp1161
g3
I2
sg4
I3
sg5
I2
sg6
F-4.0
sg7
F4.0
sg8
F4.0
sg9
F4.0
sb(dp1162
I00
F17.9
sI01
I-86
ss(i__main__
State
p1163
(dp1164
g3
I2
sg4
I3
sg5
I2
sg6
F-6.0
sg7
F3.0
sg8
F6.0
sg9
F1.0
sb(dp1165
I00
F41.424
sI01
F-61.3487
ss(i__main__
State
p1166
(dp1167
g3
I2
sg4
I3
sg5
I2
sg6
F-8.0
sg7
F0.0
sg8
F8.0
sg9
F1.0
sb(dp1168
I00
F37.6619
sI01
I-93
ss(i__main__
State
p1169
(dp1170
g3
I2
sg4
I3
sg5
I2
sg6
F8.0
sg7
F4.0
sg8
F-8.0
sg9
F-5.0
sb(dp1171
I00
I-62
sI01
F1.6697000000000002
ss(i__main__
State
p1172
(dp1173
g3
I2
sg4
I3
sg5
I2
sg6
F2.0
sg7
F7.0
sg8
F-2.0
sg9
F10.0
sb(dp1174
I00
I-53
sI01
F-33.3
ss(i__main__
State
p1175
(dp1176
g3
I2
sg4
I3
sg5
I2
sg6
F-8.0
sg7
F6.0
sg8
F8.0
sg9
F4.0
sb(dp1177
I00
F-21.4479
sI01
I-81
ss(i__main__
State
p1178
(dp1179
g3
I2
sg4
I3
sg5
I2
sg6
F8.0
sg7
F7.0
sg8
F-8.0
sg9
F4.0
sb(dp1180
I00
F-6.068391796
sI01
F-29.492808959999998
ss(i__main__
State
p1181
(dp1182
g3
I2
sg4
I3
sg5
I2
sg6
F-4.0
sg7
F10.0
sg8
F4.0
sg9
F4.0
sb(dp1183
I00
F32.0372
sI01
F0.0
ss(i__main__
State
p1184
(dp1185
g3
I2
sg4
I3
sg5
I2
sg6
F-2.0
sg7
F9.0
sg8
F2.0
sg9
F10.0
sb(dp1186
I00
F57.5373
sI01
F0.0
ss(i__main__
State
p1187
(dp1188
g3
I2
sg4
I3
sg5
I2
sg6
F-6.0
sg7
F3.0
sg8
F6.0
sg9
F-2.0
sb(dp1189
I00
I-74
sI01
F6.835
ss(i__main__
State
p1190
(dp1191
g3
I2
sg4
I3
sg5
I2
sg6
F4.0
sg7
F8.0
sg8
F-4.0
sg9
F-2.0
sb(dp1192
I00
F44.52883
sI01
F-830.3507900000001
ss(i__main__
State
p1193
(dp1194
g3
I2
sg4
I3
sg5
I2
sg6
F-2.0
sg7
F0.0
sg8
F2.0
sg9
F-5.0
sb(dp1195
I00
I-74
sI01
F18.862
ss(i__main__
State
p1196
(dp1197
g3
I2
sg4
I3
sg5
I2
sg6
F4.0
sg7
F4.0
sg8
F-4.0
sg9
F4.0
sb(dp1198
I00
F57.166213619969994
sI01
F-59.16
ss(i__main__
State
p1199
(dp1200
g3
I2
sg4
I3
sg5
I2
sg6
F2.0
sg7
F0.0
sg8
F-2.0
sg9
F7.0
sb(dp1201
I00
F-54.629599999999996
sI01
F58.559999999999995
ss(i__main__
State
p1202
(dp1203
g3
I2
sg4
I3
sg5
I2
sg6
F6.0
sg7
F8.0
sg8
F-6.0
sg9
F4.0
sb(dp1204
I00
F98.14028762509123
sI01
F0.0
ss(i__main__
State
p1205
(dp1206
g3
I2
sg4
I3
sg5
I2
sg6
F4.0
sg7
F5.0
sg8
F-4.0
sg9
F10.0
sb(dp1207
I00
I-72
sI01
F-13.738999999999997
ss(i__main__
State
p1208
(dp1209
g3
I2
sg4
I3
sg5
I2
sg6
F-8.0
sg7
F8.0
sg8
F8.0
sg9
F7.0
sb(dp1210
I00
F42.08981
sI01
F0.0
ss(i__main__
State
p1211
(dp1212
g3
I2
sg4
I3
sg5
I2
sg6
F2.0
sg7
F10.0
sg8
F-2.0
sg9
F-2.0
sb(dp1213
I00
F-72.32000000000001
sI01
F47.0486
ss(i__main__
State
p1214
(dp1215
g3
I2
sg4
I3
sg5
I2
sg6
F0.0
sg7
F9.0
sg8
F0.0
sg9
F10.0
sb(dp1216
I00
F47.85171847000001
sI01
F0.0
ss(i__main__
State
p1217
(dp1218
g3
I2
sg4
I3
sg5
I2
sg6
F6.0
sg7
F4.0
sg8
F-6.0
sg9
F-8.0
sb(dp1219
I00
F88.65870000000001
sI01
F4.0167396
ss(i__main__
State
p1220
(dp1221
g3
I2
sg4
I3
sg5
I2
sg6
F8.0
sg7
F9.0
sg8
F-8.0
sg9
F-5.0
sb(dp1222
I00
F76.333636202394
sI01
F12.18364
ss(i__main__
State
p1223
(dp1224
g3
I2
sg4
I3
sg5
I2
sg6
F6.0
sg7
F10.0
sg8
F-6.0
sg9
F7.0
sb(dp1225
I00
F10.0
sI01
F41.30970000000001
ss(i__main__
State
p1226
(dp1227
g3
I2
sg4
I3
sg5
I2
sg6
F-8.0
sg7
F1.0
sg8
F8.0
sg9
F1.0
sb(dp1228
I00
F56.88018
sI01
F32.2
ss(i__main__
State
p1229
(dp1230
g3
I2
sg4
I3
sg5
I2
sg6
F6.0
sg7
F8.0
sg8
F-6.0
sg9
F-5.0
sb(dp1231
I00
F53.090390000000006
sI01
F19.0
ss(i__main__
State
p1232
(dp1233
g3
I2
sg4
I3
sg5
I2
sg6
F-6.0
sg7
F0.0
sg8
F6.0
sg9
F10.0
sb(dp1234
I00
F-13.299999999999999
sI01
F26.6824
ss(i__main__
State
p1235
(dp1236
g3
I2
sg4
I3
sg5
I2
sg6
F-2.0
sg7
F0.0
sg8
F2.0
sg9
F-8.0
sb(dp1237
I00
F2.3939110000000015
sI01
I-45
ss(i__main__
State
p1238
(dp1239
g3
I2
sg4
I3
sg5
I2
sg6
F-2.0
sg7
F10.0
sg8
F2.0
sg9
F-2.0
sb(dp1240
I00
F34.2068
sI01
F0.0
ss(i__main__
State
p1241
(dp1242
g3
I2
sg4
I3
sg5
I2
sg6
F6.0
sg7
F6.0
sg8
F-6.0
sg9
F4.0
sb(dp1243
I00
F-44.1
sI01
I57
ss(i__main__
State
p1244
(dp1245
g3
I2
sg4
I3
sg5
I2
sg6
F4.0
sg7
F4.0
sg8
F-4.0
sg9
F-5.0
sb(dp1246
I00
F66.92529240000002
sI01
F29.7
ss(i__main__
State
p1247
(dp1248
g3
I2
sg4
I3
sg5
I2
sg6
F0.0
sg7
F10.0
sg8
F0.0
sg9
F10.0
sb(dp1249
I00
F-2707.1
sI01
F-1902.0412000000001
ss(i__main__
State
p1250
(dp1251
g3
I2
sg4
I3
sg5
I2
sg6
F0.0
sg7
F1.0
sg8
F0.0
sg9
F4.0
sb(dp1252
I00
F85.51289097010002
sI01
F-6.485899999999999
ss(i__main__
State
p1253
(dp1254
g3
I2
sg4
I3
sg5
I2
sg6
F-8.0
sg7
F3.0
sg8
F8.0
sg9
F10.0
sb(dp1255
I00
F73.98705
sI01
F28.25
ss(i__main__
State
p1256
(dp1257
g3
I2
sg4
I3
sg5
I2
sg6
F-4.0
sg7
F1.0
sg8
F4.0
sg9
F-2.0
sb(dp1258
I00
F27.921
sI01
F-39.1
ss(i__main__
State
p1259
(dp1260
g3
I2
sg4
I3
sg5
I2
sg6
F8.0
sg7
F7.0
sg8
F-8.0
sg9
F-5.0
sb(dp1261
I00
F49.6
sI01
F58.385
ss(i__main__
State
p1262
(dp1263
g3
I2
sg4
I3
sg5
I2
sg6
F8.0
sg7
F4.0
sg8
F-8.0
sg9
F4.0
sb(dp1264
I00
I-93
sI01
F-54.676
ss(i__main__
State
p1265
(dp1266
g3
I2
sg4
I3
sg5
I2
sg6
F0.0
sg7
F6.0
sg8
F0.0
sg9
F10.0
sb(dp1267
I00
I33
sI01
F-69.7
ss(i__main__
State
p1268
(dp1269
g3
I2
sg4
I3
sg5
I2
sg6
F2.0
sg7
F0.0
sg8
F-2.0
sg9
F-2.0
sb(dp1270
I00
I-96
sI01
F10.1
ss(i__main__
State
p1271
(dp1272
g3
I2
sg4
I3
sg5
I2
sg6
F2.0
sg7
F5.0
sg8
F-2.0
sg9
F7.0
sb(dp1273
I00
F11.699999999999998
sI01
F16.8
ss(i__main__
State
p1274
(dp1275
g3
I2
sg4
I3
sg5
I2
sg6
F-2.0
sg7
F7.0
sg8
F2.0
sg9
F-2.0
sb(dp1276
I00
I-34
sI01
F-25.45
ss(i__main__
State
p1277
(dp1278
g3
I2
sg4
I3
sg5
I2
sg6
F-4.0
sg7
F7.0
sg8
F4.0
sg9
F1.0
sb(dp1279
I00
F49.339999999999996
sI01
I-39
ss(i__main__
State
p1280
(dp1281
g3
I2
sg4
I3
sg5
I2
sg6
F-6.0
sg7
F9.0
sg8
F6.0
sg9
F-8.0
sb(dp1282
I00
F20.295099999999998
sI01
F40.9
ss(i__main__
State
p1283
(dp1284
g3
I2
sg4
I3
sg5
I2
sg6
F-2.0
sg7
F6.0
sg8
F2.0
sg9
F-5.0
sb(dp1285
I00
F45.13
sI01
F-43.5
ss(i__main__
State
p1286
(dp1287
g3
I2
sg4
I3
sg5
I2
sg6
F-6.0
sg7
F9.0
sg8
F6.0
sg9
F10.0
sb(dp1288
I00
F89.528256501378
sI01
F21.9
ss(i__main__
State
p1289
(dp1290
g3
I2
sg4
I3
sg5
I2
sg6
F8.0
sg7
F2.0
sg8
F-8.0
sg9
F-5.0
sb(dp1291
I00
F-38.6641
sI01
F30.121559999999995
ss(i__main__
State
p1292
(dp1293
g3
I2
sg4
I3
sg5
I2
sg6
F6.0
sg7
F10.0
sg8
F-6.0
sg9
F10.0
sb(dp1294
I00
F48.755100000000006
sI01
F17.2
ss(i__main__
State
p1295
(dp1296
g3
I2
sg4
I3
sg5
I2
sg6
F-6.0
sg7
F10.0
sg8
F6.0
sg9
F-8.0
sb(dp1297
I00
F12.0
sI01
F18.1
ss(i__main__
State
p1298
(dp1299
g3
I2
sg4
I3
sg5
I2
sg6
F8.0
sg7
F2.0
sg8
F-8.0
sg9
F4.0
sb(dp1300
I00
F-74.5
sI01
I61
ss(i__main__
State
p1301
(dp1302
g3
I2
sg4
I3
sg5
I2
sg6
F4.0
sg7
F2.0
sg8
F-4.0
sg9
F-2.0
sb(dp1303
I00
F50.10556
sI01
I-75
ss(i__main__
State
p1304
(dp1305
g3
I2
sg4
I3
sg5
I2
sg6
F0.0
sg7
F10.0
sg8
F0.0
sg9
F-8.0
sb(dp1306
I00
F-1000.0
sI01
F-998.1
ss(i__main__
State
p1307
(dp1308
g3
I2
sg4
I3
sg5
I2
sg6
F0.0
sg7
F3.0
sg8
F0.0
sg9
F-2.0
sb(dp1309
I00
I53
sI01
F61.04
ss(i__main__
State
p1310
(dp1311
g3
I2
sg4
I3
sg5
I2
sg6
F4.0
sg7
F3.0
sg8
F-4.0
sg9
F7.0
sb(dp1312
I00
F82.393501
sI01
F-8.305
ss(i__main__
State
p1313
(dp1314
g3
I2
sg4
I3
sg5
I2
sg6
F-6.0
sg7
F9.0
sg8
F6.0
sg9
F-2.0
sb(dp1315
I00
F19.0
sI01
F0.0
ss(i__main__
State
p1316
(dp1317
g3
I2
sg4
I3
sg5
I2
sg6
F4.0
sg7
F7.0
sg8
F-4.0
sg9
F-8.0
sb(dp1318
I00
F1.8699999999999992
sI01
F37.163
ss(i__main__
State
p1319
(dp1320
g3
I2
sg4
I3
sg5
I2
sg6
F-8.0
sg7
F7.0
sg8
F8.0
sg9
F10.0
sb(dp1321
I00
I-44
sI01
F18.423417999999998
ss(i__main__
State
p1322
(dp1323
g3
I2
sg4
I3
sg5
I2
sg6
F-6.0
sg7
F4.0
sg8
F6.0
sg9
F1.0
sb(dp1324
I00
F36.254893
sI01
F-3.200000000000001
ss(i__main__
State
p1325
(dp1326
g3
I2
sg4
I3
sg5
I2
sg6
F8.0
sg7
F10.0
sg8
F-8.0
sg9
F-2.0
sb(dp1327
I00
F49.6003
sI01
F15.382200000000001
ss(i__main__
State
p1328
(dp1329
g3
I2
sg4
I3
sg5
I2
sg6
F2.0
sg7
F0.0
sg8
F-2.0
sg9
F1.0
sb(dp1330
I00
I18
sI01
F51.278250571
ss(i__main__
State
p1331
(dp1332
g3
I2
sg4
I3
sg5
I2
sg6
F-4.0
sg7
F2.0
sg8
F4.0
sg9
F4.0
sb(dp1333
I00
I-22
sI01
F58.294
ss(i__main__
State
p1334
(dp1335
g3
I2
sg4
I3
sg5
I2
sg6
F-8.0
sg7
F10.0
sg8
F8.0
sg9
F-8.0
sb(dp1336
I00
F30.0
sI01
F0.0
ss(i__main__
State
p1337
(dp1338
g3
I2
sg4
I3
sg5
I2
sg6
F0.0
sg7
F10.0
sg8
F0.0
sg9
F-5.0
sb(dp1339
I00
F-1000.0
sI01
F-996.1450000000001
ss(i__main__
State
p1340
(dp1341
g3
I2
sg4
I3
sg5
I2
sg6
F-4.0
sg7
F6.0
sg8
F4.0
sg9
F-8.0
sb(dp1342
I00
I20
sI01
F61.37
ss(i__main__
State
p1343
(dp1344
g3
I2
sg4
I3
sg5
I2
sg6
F-6.0
sg7
F4.0
sg8
F6.0
sg9
F7.0
sb(dp1345
I00
F-1.8625199999999997
sI01
F17.799999999999997
ss(i__main__
State
p1346
(dp1347
g3
I2
sg4
I3
sg5
I2
sg6
F8.0
sg7
F5.0
sg8
F-8.0
sg9
F-5.0
sb(dp1348
I00
F34.33008
sI01
F76.28
ss(i__main__
State
p1349
(dp1350
g3
I2
sg4
I3
sg5
I2
sg6
F6.0
sg7
F9.0
sg8
F-6.0
sg9
F4.0
sb(dp1351
I00
F29.190000000000005
sI01
F0.0
ss(i__main__
State
p1352
(dp1353
g3
I2
sg4
I3
sg5
I2
sg6
F8.0
sg7
F6.0
sg8
F-8.0
sg9
F4.0
sb(dp1354
I00
F-31.744
sI01
F38.5151741774
ss(i__main__
State
p1355
(dp1356
g3
I2
sg4
I3
sg5
I2
sg6
F-2.0
sg7
F3.0
sg8
F2.0
sg9
F4.0
sb(dp1357
I00
F4.132099999999999
sI01
I-25
ss(i__main__
State
p1358
(dp1359
g3
I2
sg4
I3
sg5
I2
sg6
F-8.0
sg7
F2.0
sg8
F8.0
sg9
F-2.0
sb(dp1360
I00
F65.04486299999999
sI01
F-47.8
ss(i__main__
State
p1361
(dp1362
g3
I2
sg4
I3
sg5
I2
sg6
F-2.0
sg7
F10.0
sg8
F2.0
sg9
F4.0
sb(dp1363
I00
F41.18943
sI01
F11.6705
ss(i__main__
State
p1364
(dp1365
g3
I2
sg4
I3
sg5
I2
sg6
F-6.0
sg7
F1.0
sg8
F6.0
sg9
F4.0
sb(dp1366
I00
F84.70077
sI01
F-50.8
ss(i__main__
State
p1367
(dp1368
g3
I2
sg4
I3
sg5
I2
sg6
F-4.0
sg7
F8.0
sg8
F4.0
sg9
F7.0
sb(dp1369
I00
F10.0
sI01
F77.087222944452
ss(i__main__
State
p1370
(dp1371
g3
I2
sg4
I3
sg5
I2
sg6
F-4.0
sg7
F5.0
sg8
F4.0
sg9
F4.0
sb(dp1372
I00
F-13.029999999999998
sI01
F-43.3
ss(i__main__
State
p1373
(dp1374
g3
I2
sg4
I3
sg5
I2
sg6
F-6.0
sg7
F2.0
sg8
F6.0
sg9
F-8.0
sb(dp1375
I00
F-68.159729
sI01
F13.8960007
ss(i__main__
State
p1376
(dp1377
g3
I2
sg4
I3
sg5
I2
sg6
F6.0
sg7
F10.0
sg8
F-6.0
sg9
F-8.0
sb(dp1378
I00
F59.206700000000005
sI01
F18.375
ss(i__main__
State
p1379
(dp1380
g3
I2
sg4
I3
sg5
I2
sg6
F8.0
sg7
F9.0
sg8
F-8.0
sg9
F4.0
sb(dp1381
I00
F20.1
sI01
F0.0
ss(i__main__
State
p1382
(dp1383
g3
I2
sg4
I3
sg5
I2
sg6
F6.0
sg7
F4.0
sg8
F-6.0
sg9
F4.0
sb(dp1384
I00
F-32.620000000000005
sI01
I-57
ss(i__main__
State
p1385
(dp1386
g3
I2
sg4
I3
sg5
I2
sg6
F0.0
sg7
F5.0
sg8
F0.0
sg9
F-2.0
sb(dp1387
I00
F-48.2
sI01
F28.489668000000005
ss(i__main__
State
p1388
(dp1389
g3
I2
sg4
I3
sg5
I2
sg6
F8.0
sg7
F6.0
sg8
F-8.0
sg9
F1.0
sb(dp1390
I00
F-62.7
sI01
F26.8474
ss(i__main__
State
p1391
(dp1392
g3
I2
sg4
I3
sg5
I2
sg6
F2.0
sg7
F9.0
sg8
F-2.0
sg9
F10.0
sb(dp1393
I00
F107.79989654352813
sI01
F10.0
ss(i__main__
State
p1394
(dp1395
g3
I2
sg4
I3
sg5
I2
sg6
F4.0
sg7
F9.0
sg8
F-4.0
sg9
F1.0
sb(dp1396
I00
F-2706.1
sI01
F-2706.84
ss(i__main__
State
p1397
(dp1398
g3
I2
sg4
I3
sg5
I2
sg6
F-4.0
sg7
F4.0
sg8
F4.0
sg9
F-8.0
sb(dp1399
I00
F66.71
sI01
I-67
ss(i__main__
State
p1400
(dp1401
g3
I2
sg4
I3
sg5
I2
sg6
F4.0
sg7
F5.0
sg8
F-4.0
sg9
F-2.0
sb(dp1402
I00
F23.356180000000002
sI01
F-46.32
ss(i__main__
State
p1403
(dp1404
g3
I2
sg4
I3
sg5
I2
sg6
F6.0
sg7
F10.0
sg8
F-6.0
sg9
F4.0
sb(dp1405
I00
F61.860508
sI01
F0.0
ss(i__main__
State
p1406
(dp1407
g3
I2
sg4
I3
sg5
I2
sg6
F8.0
sg7
F1.0
sg8
F-8.0
sg9
F1.0
sb(dp1408
I00
F24.227999999999998
sI01
I-22
ss(i__main__
State
p1409
(dp1410
g3
I2
sg4
I3
sg5
I2
sg6
F2.0
sg7
F3.0
sg8
F-2.0
sg9
F10.0
sb(dp1411
I00
F56.9524
sI01
F15.660800000000002
ss(i__main__
State
p1412
(dp1413
g3
I2
sg4
I3
sg5
I2
sg6
F4.0
sg7
F6.0
sg8
F-4.0
sg9
F1.0
sb(dp1414
I00
F61.5310004
sI01
I-39
ss(i__main__
State
p1415
(dp1416
g3
I2
sg4
I3
sg5
I2
sg6
F0.0
sg7
F3.0
sg8
F0.0
sg9
F10.0
sb(dp1417
I00
I-10
sI01
F48.07622937080001
ss(i__main__
State
p1418
(dp1419
g3
I2
sg4
I3
sg5
I2
sg6
F4.0
sg7
F8.0
sg8
F-4.0
sg9
F1.0
sb(dp1420
I00
F29.9
sI01
F24.700000000000003
ss(i__main__
State
p1421
(dp1422
g3
I2
sg4
I3
sg5
I2
sg6
F-6.0
sg7
F1.0
sg8
F6.0
sg9
F1.0
sb(dp1423
I00
F70.41
sI01
F19.762
ss(i__main__
State
p1424
(dp1425
g3
I2
sg4
I3
sg5
I2
sg6
F-4.0
sg7
F5.0
sg8
F4.0
sg9
F1.0
sb(dp1426
I00
F6.489000000000001
sI01
I-16
ss(i__main__
State
p1427
(dp1428
g3
I2
sg4
I3
sg5
I2
sg6
F-2.0
sg7
F9.0
sg8
F2.0
sg9
F-2.0
sb(dp1429
I00
F-155.52000000000004
sI01
F89.24364782
ss(i__main__
State
p1430
(dp1431
g3
I2
sg4
I3
sg5
I2
sg6
F2.0
sg7
F2.0
sg8
F-2.0
sg9
F7.0
sb(dp1432
I00
F-69.56
sI01
F42.2086794
ss(i__main__
State
p1433
(dp1434
g3
I2
sg4
I3
sg5
I2
sg6
F0.0
sg7
F7.0
sg8
F0.0
sg9
F7.0
sb(dp1435
I00
F32.12511828
sI01
I-18
ss(i__main__
State
p1436
(dp1437
g3
I2
sg4
I3
sg5
I2
sg6
F-4.0
sg7
F0.0
sg8
F4.0
sg9
F10.0
sb(dp1438
I00
I-99
sI01
F-46.797585657999996
ss(i__main__
State
p1439
(dp1440
g3
I2
sg4
I3
sg5
I2
sg6
F-4.0
sg7
F0.0
sg8
F4.0
sg9
F-8.0
sb(dp1441
I00
I-86
sI01
F14.7
ss(i__main__
State
p1442
(dp1443
g3
I2
sg4
I3
sg5
I2
sg6
F-2.0
sg7
F4.0
sg8
F2.0
sg9
F1.0
sb(dp1444
I00
F70.1
sI01
F61.652
ss(i__main__
State
p1445
(dp1446
g3
I2
sg4
I3
sg5
I2
sg6
F0.0
sg7
F4.0
sg8
F0.0
sg9
F-8.0
sb(dp1447
I00
F63.47042030000001
sI01
I65
ss(i__main__
State
p1448
(dp1449
g3
I2
sg4
I3
sg5
I2
sg6
F-8.0
sg7
F1.0
sg8
F8.0
sg9
F4.0
sb(dp1450
I00
F24.7
sI01
F90.3
ss(i__main__
State
p1451
(dp1452
g3
I2
sg4
I3
sg5
I2
sg6
F-2.0
sg7
F10.0
sg8
F2.0
sg9
F10.0
sb(dp1453
I00
F20.39
sI01
F0.0
ss(i__main__
State
p1454
(dp1455
g3
I2
sg4
I3
sg5
I2
sg6
F4.0
sg7
F8.0
sg8
F-4.0
sg9
F10.0
sb(dp1456
I00
F10.0
sI01
F101.9759240042
ss(i__main__
State
p1457
(dp1458
g3
I2
sg4
I3
sg5
I2
sg6
F-8.0
sg7
F9.0
sg8
F8.0
sg9
F-5.0
sb(dp1459
I00
F0.0
sI01
F26.615930000000002
ss(i__main__
State
p1460
(dp1461
g3
I2
sg4
I3
sg5
I2
sg6
F0.0
sg7
F10.0
sg8
F0.0
sg9
F1.0
sb(dp1462
I00
F-1896.8895000000002
sI01
F-1889.89
ss(i__main__
State
p1463
(dp1464
g3
I2
sg4
I3
sg5
I2
sg6
F2.0
sg7
F4.0
sg8
F-2.0
sg9
F-5.0
sb(dp1465
I00
F49.412
sI01
I-89
ss(i__main__
State
p1466
(dp1467
g3
I2
sg4
I3
sg5
I2
sg6
F6.0
sg7
F2.0
sg8
F-6.0
sg9
F1.0
sb(dp1468
I00
I-43
sI01
F77.25511
ss(i__main__
State
p1469
(dp1470
g3
I2
sg4
I3
sg5
I2
sg6
F-6.0
sg7
F5.0
sg8
F6.0
sg9
F10.0
sb(dp1471
I00
F29.545
sI01
I-72
ss(i__main__
State
p1472
(dp1473
g3
I2
sg4
I3
sg5
I2
sg6
F-8.0
sg7
F10.0
sg8
F8.0
sg9
F7.0
sb(dp1474
I00
F78.85399000000001
sI01
F18.206680000000002
ss(i__main__
State
p1475
(dp1476
g3
I2
sg4
I3
sg5
I2
sg6
F0.0
sg7
F0.0
sg8
F0.0
sg9
F10.0
sb(dp1477
I00
F22.147215999999997
sI01
I-27
ss(i__main__
State
p1478
(dp1479
g3
I2
sg4
I3
sg5
I2
sg6
F-4.0
sg7
F4.0
sg8
F4.0
sg9
F10.0
sb(dp1480
I00
F48.7736
sI01
F22.4
ss(i__main__
State
p1481
(dp1482
g3
I2
sg4
I3
sg5
I2
sg6
F-4.0
sg7
F9.0
sg8
F4.0
sg9
F4.0
sb(dp1483
I00
F0.0
sI01
F23.012
ss(i__main__
State
p1484
(dp1485
g3
I2
sg4
I3
sg5
I2
sg6
F0.0
sg7
F6.0
sg8
F0.0
sg9
F7.0
sb(dp1486
I00
F-51.4
sI01
F9.882523200000003
ss(i__main__
State
p1487
(dp1488
g3
I2
sg4
I3
sg5
I2
sg6
F-4.0
sg7
F2.0
sg8
F4.0
sg9
F10.0
sb(dp1489
I00
F-19.284
sI01
F46.24997707
ss(i__main__
State
p1490
(dp1491
g3
I2
sg4
I3
sg5
I2
sg6
F2.0
sg7
F5.0
sg8
F-2.0
sg9
F-5.0
sb(dp1492
I00
F42.523701
sI01
F7.367699999999999
ss(i__main__
State
p1493
(dp1494
g3
I2
sg4
I3
sg5
I2
sg6
F6.0
sg7
F9.0
sg8
F-6.0
sg9
F10.0
sb(dp1495
I00
F10.0
sI01
F0.0
ss(i__main__
State
p1496
(dp1497
g3
I2
sg4
I3
sg5
I2
sg6
F-8.0
sg7
F2.0
sg8
F8.0
sg9
F-8.0
sb(dp1498
I00
F-52.787844
sI01
F-20.58025536
ss(i__main__
State
p1499
(dp1500
g3
I2
sg4
I3
sg5
I2
sg6
F0.0
sg7
F5.0
sg8
F0.0
sg9
F-8.0
sb(dp1501
I00
F89.9
sI01
I-65
ss(i__main__
State
p1502
(dp1503
g3
I2
sg4
I3
sg5
I2
sg6
F-8.0
sg7
F9.0
sg8
F8.0
sg9
F-2.0
sb(dp1504
I00
F-155.61
sI01
F22.180000000000003
ss(i__main__
State
p1505
(dp1506
g3
I2
sg4
I3
sg5
I2
sg6
F8.0
sg7
F10.0
sg8
F-8.0
sg9
F-8.0
sb(dp1507
I00
F0.0
sI01
F32.6106676
ss(i__main__
State
p1508
(dp1509
g3
I2
sg4
I3
sg5
I2
sg6
F8.0
sg7
F0.0
sg8
F-8.0
sg9
F-8.0
sb(dp1510
I00
F65.287791
sI01
F71.241696288
ss(i__main__
State
p1511
(dp1512
g3
I2
sg4
I3
sg5
I2
sg6
F4.0
sg7
F6.0
sg8
F-4.0
sg9
F7.0
sb(dp1513
I00
F30.9
sI01
I-81
ss(i__main__
State
p1514
(dp1515
g3
I2
sg4
I3
sg5
I2
sg6
F-8.0
sg7
F4.0
sg8
F8.0
sg9
F10.0
sb(dp1516
I00
F2.9924399999999993
sI01
F6.4
ss(i__main__
State
p1517
(dp1518
g3
I2
sg4
I3
sg5
I2
sg6
F6.0
sg7
F9.0
sg8
F-6.0
sg9
F7.0
sb(dp1519
I00
F25.459510112028
sI01
F11.0
ss(i__main__
State
p1520
(dp1521
g3
I2
sg4
I3
sg5
I2
sg6
F6.0
sg7
F3.0
sg8
F-6.0
sg9
F10.0
sb(dp1522
I00
F28.7
sI01
F55.97
ss(i__main__
State
p1523
(dp1524
g3
I2
sg4
I3
sg5
I2
sg6
F2.0
sg7
F2.0
sg8
F-2.0
sg9
F-8.0
sb(dp1525
I00
F-21.2831826
sI01
I-98
ss(i__main__
State
p1526
(dp1527
g3
I2
sg4
I3
sg5
I2
sg6
F-2.0
sg7
F5.0
sg8
F2.0
sg9
F-8.0
sb(dp1528
I00
F37.318174
sI01
I-29
ss(i__main__
State
p1529
(dp1530
g3
I2
sg4
I3
sg5
I2
sg6
F2.0
sg7
F4.0
sg8
F-2.0
sg9
F7.0
sb(dp1531
I00
F59.126810935600005
sI01
F-74.17169999999999
ss(i__main__
State
p1532
(dp1533
g3
I2
sg4
I3
sg5
I2
sg6
F-6.0
sg7
F9.0
sg8
F6.0
sg9
F-5.0
sb(dp1534
I00
F44.32899999999999
sI01
F11.0
ss(i__main__
State
p1535
(dp1536
g3
I2
sg4
I3
sg5
I2
sg6
F8.0
sg7
F8.0
sg8
F-8.0
sg9
F1.0
sb(dp1537
I00
F89.9844960608
sI01
F12.01
ss(i__main__
State
p1538
(dp1539
g3
I2
sg4
I3
sg5
I2
sg6
F-2.0
sg7
F6.0
sg8
F2.0
sg9
F-8.0
sb(dp1540
I00
I16
sI01
F79.44171
ss(i__main__
State
p1541
(dp1542
g3
I2
sg4
I3
sg5
I2
sg6
F-4.0
sg7
F6.0
sg8
F4.0
sg9
F10.0
sb(dp1543
I00
I4
sI01
F12.25
ss(i__main__
State
p1544
(dp1545
g3
I2
sg4
I3
sg5
I2
sg6
F-4.0
sg7
F9.0
sg8
F4.0
sg9
F1.0
sb(dp1546
I00
F-1899.0
sI01
F-1897.1
ss(i__main__
State
p1547
(dp1548
g3
I2
sg4
I3
sg5
I2
sg6
F4.0
sg7
F9.0
sg8
F-4.0
sg9
F-8.0
sb(dp1549
I00
F0.0
sI01
F10.0
ss(i__main__
State
p1550
(dp1551
g3
I2
sg4
I3
sg5
I2
sg6
F-6.0
sg7
F7.0
sg8
F6.0
sg9
F-2.0
sb(dp1552
I00
I-27
sI01
F37.572476
ss(i__main__
State
p1553
(dp1554
g3
I2
sg4
I3
sg5
I2
sg6
F8.0
sg7
F8.0
sg8
F-8.0
sg9
F7.0
sb(dp1555
I00
F20.0
sI01
F0.0
ss(i__main__
State
p1556
(dp1557
g3
I2
sg4
I3
sg5
I2
sg6
F8.0
sg7
F0.0
sg8
F-8.0
sg9
F4.0
sb(dp1558
I00
F-19.65
sI01
F40.0379
ss(i__main__
State
p1559
(dp1560
g3
I2
sg4
I3
sg5
I2
sg6
F-4.0
sg7
F3.0
sg8
F4.0
sg9
F-2.0
sb(dp1561
I00
I-41
sI01
F30.598000000000003
ss(i__main__
State
p1562
(dp1563
g3
I2
sg4
I3
sg5
I2
sg6
F-8.0
sg7
F2.0
sg8
F8.0
sg9
F7.0
sb(dp1564
I00
I-45
sI01
F26.289
ss(i__main__
State
p1565
(dp1566
g3
I2
sg4
I3
sg5
I2
sg6
F8.0
sg7
F8.0
sg8
F-8.0
sg9
F10.0
sb(dp1567
I00
F62.401531
sI01
F11.0
ss(i__main__
State
p1568
(dp1569
g3
I2
sg4
I3
sg5
I2
sg6
F-2.0
sg7
F8.0
sg8
F2.0
sg9
F7.0
sb(dp1570
I00
F30.19
sI01
F11.0
ss(i__main__
State
p1571
(dp1572
g3
I2
sg4
I3
sg5
I2
sg6
F0.0
sg7
F4.0
sg8
F0.0
sg9
F1.0
sb(dp1573
I00
F-78.2
sI01
F65.0
ss(i__main__
State
p1574
(dp1575
g3
I2
sg4
I3
sg5
I2
sg6
F-6.0
sg7
F7.0
sg8
F6.0
sg9
F-8.0
sb(dp1576
I00
F0.370000000000001
sI01
F-51.01
ss(i__main__
State
p1577
(dp1578
g3
I2
sg4
I3
sg5
I2
sg6
F4.0
sg7
F10.0
sg8
F-4.0
sg9
F4.0
sb(dp1579
I00
F36.5208
sI01
F0.0
ss(i__main__
State
p1580
(dp1581
g3
I2
sg4
I3
sg5
I2
sg6
F0.0
sg7
F7.0
sg8
F0.0
sg9
F-2.0
sb(dp1582
I00
I19
sI01
F53.93
ss(i__main__
State
p1583
(dp1584
g3
I2
sg4
I3
sg5
I2
sg6
F8.0
sg7
F1.0
sg8
F-8.0
sg9
F7.0
sb(dp1585
I00
F-4.544536560000001
sI01
I-62
ss(i__main__
State
p1586
(dp1587
g3
I2
sg4
I3
sg5
I2
sg6
F-2.0
sg7
F5.0
sg8
F2.0
sg9
F10.0
sb(dp1588
I00
F44.53153
sI01
F33.64
ss(i__main__
State
p1589
(dp1590
g3
I2
sg4
I3
sg5
I2
sg6
F-8.0
sg7
F0.0
sg8
F8.0
sg9
F-8.0
sb(dp1591
I00
F69.5
sI01
I65
ss(i__main__
State
p1592
(dp1593
g3
I2
sg4
I3
sg5
I2
sg6
F-4.0
sg7
F10.0
sg8
F4.0
sg9
F7.0
sb(dp1594
I00
F10.0
sI01
F41.422610000000006
ss(i__main__
State
p1595
(dp1596
g3
I2
sg4
I3
sg5
I2
sg6
F-8.0
sg7
F6.0
sg8
F8.0
sg9
F-5.0
sb(dp1597
I00
F-25.049999999999997
sI01
I17
ss(i__main__
State
p1598
(dp1599
g3
I2
sg4
I3
sg5
I2
sg6
F-6.0
sg7
F0.0
sg8
F6.0
sg9
F-5.0
sb(dp1600
I00
I-95
sI01
F44.90853777
ss(i__main__
State
p1601
(dp1602
g3
I2
sg4
I3
sg5
I2
sg6
F0.0
sg7
F6.0
sg8
F0.0
sg9
F-2.0
sb(dp1603
I00
I-54
sI01
F71.14264899999999
ss(i__main__
State
p1604
(dp1605
g3
I2
sg4
I3
sg5
I2
sg6
F2.0
sg7
F2.0
sg8
F-2.0
sg9
F4.0
sb(dp1606
I00
F32.6
sI01
I-71
ss(i__main__
State
p1607
(dp1608
g3
I2
sg4
I3
sg5
I2
sg6
F-8.0
sg7
F9.0
sg8
F8.0
sg9
F4.0
sb(dp1609
I00
F20.0
sI01
F0.0
ss(i__main__
State
p1610
(dp1611
g3
I2
sg4
I3
sg5
I2
sg6
F-6.0
sg7
F1.0
sg8
F6.0
sg9
F7.0
sb(dp1612
I00
I-84
sI01
F-41.5
ss(i__main__
State
p1613
(dp1614
g3
I2
sg4
I3
sg5
I2
sg6
F-2.0
sg7
F8.0
sg8
F2.0
sg9
F4.0
sb(dp1615
I00
F35.45332
sI01
F0.0
ss(i__main__
State
p1616
(dp1617
g3
I2
sg4
I3
sg5
I2
sg6
F-2.0
sg7
F2.0
sg8
F2.0
sg9
F-5.0
sb(dp1618
I00
F-69.50999999999999
sI01
F65.6
ss(i__main__
State
p1619
(dp1620
g3
I2
sg4
I3
sg5
I2
sg6
F-2.0
sg7
F2.0
sg8
F2.0
sg9
F1.0
sb(dp1621
I00
F-18.7
sI01
F42.939856254999995
ss(i__main__
State
p1622
(dp1623
g3
I2
sg4
I3
sg5
I2
sg6
F-6.0
sg7
F7.0
sg8
F6.0
sg9
F-5.0
sb(dp1624
I00
F96.810065682
sI01
F-6.150999999999998
ss(i__main__
State
p1625
(dp1626
g3
I2
sg4
I3
sg5
I2
sg6
F-4.0
sg7
F8.0
sg8
F4.0
sg9
F-5.0
sb(dp1627
I00
F11.100000000000001
sI01
F0.0
ss(i__main__
State
p1628
(dp1629
g3
I2
sg4
I3
sg5
I2
sg6
F-4.0
sg7
F3.0
sg8
F4.0
sg9
F-5.0
sb(dp1630
I00
F1.9
sI01
F-36.7
ss(i__main__
State
p1631
(dp1632
g3
I2
sg4
I3
sg5
I2
sg6
F2.0
sg7
F6.0
sg8
F-2.0
sg9
F1.0
sb(dp1633
I00
F-20.6
sI01
F68.257
ss(i__main__
State
p1634
(dp1635
g3
I2
sg4
I3
sg5
I2
sg6
F4.0
sg7
F2.0
sg8
F-4.0
sg9
F7.0
sb(dp1636
I00
I-25
sI01
F79.3462
ss(i__main__
State
p1637
(dp1638
g3
I2
sg4
I3
sg5
I2
sg6
F4.0
sg7
F0.0
sg8
F-4.0
sg9
F4.0
sb(dp1639
I00
F53.3562
sI01
F1.7000000000000002
ss(i__main__
State
p1640
(dp1641
g3
I2
sg4
I3
sg5
I2
sg6
F-6.0
sg7
F6.0
sg8
F6.0
sg9
F7.0
sb(dp1642
I00
F83.0709
sI01
I-42
ss(i__main__
State
p1643
(dp1644
g3
I2
sg4
I3
sg5
I2
sg6
F6.0
sg7
F0.0
sg8
F-6.0
sg9
F-8.0
sb(dp1645
I00
F50.269200000000005
sI01
I23
ss(i__main__
State
p1646
(dp1647
g3
I2
sg4
I3
sg5
I2
sg6
F0.0
sg7
F2.0
sg8
F0.0
sg9
F4.0
sb(dp1648
I00
F46.4485
sI01
F-6.785
ss(i__main__
State
p1649
(dp1650
g3
I2
sg4
I3
sg5
I2
sg6
F4.0
sg7
F2.0
sg8
F-4.0
sg9
F-5.0
sb(dp1651
I00
F93.1
sI01
I-62
ss(i__main__
State
p1652
(dp1653
g3
I2
sg4
I3
sg5
I2
sg6
F2.0
sg7
F1.0
sg8
F-2.0
sg9
F-8.0
sb(dp1654
I00
F2.592127109
sI01
F-32.214925
ss(i__main__
State
p1655
(dp1656
g3
I2
sg4
I3
sg5
I2
sg6
F-4.0
sg7
F9.0
sg8
F4.0
sg9
F10.0
sb(dp1657
I00
F32.99
sI01
F0.0
ss(i__main__
State
p1658
(dp1659
g3
I2
sg4
I3
sg5
I2
sg6
F2.0
sg7
F8.0
sg8
F-2.0
sg9
F10.0
sb(dp1660
I00
F0.0
sI01
F76.017978971985
ss(i__main__
State
p1661
(dp1662
g3
I2
sg4
I3
sg5
I2
sg6
F-6.0
sg7
F6.0
sg8
F6.0
sg9
F1.0
sb(dp1663
I00
F-14.8
sI01
I-15
ss(i__main__
State
p1664
(dp1665
g3
I2
sg4
I3
sg5
I2
sg6
F-6.0
sg7
F1.0
sg8
F6.0
sg9
F10.0
sb(dp1666
I00
F66.237134
sI01
I-80
ss(i__main__
State
p1667
(dp1668
g3
I2
sg4
I3
sg5
I2
sg6
F2.0
sg7
F8.0
sg8
F-2.0
sg9
F-8.0
sb(dp1669
I00
F10.0
sI01
F0.0
ss(i__main__
State
p1670
(dp1671
g3
I2
sg4
I3
sg5
I2
sg6
F-4.0
sg7
F3.0
sg8
F4.0
sg9
F10.0
sb(dp1672
I00
I30
sI01
F-19.47
ss(i__main__
State
p1673
(dp1674
g3
I2
sg4
I3
sg5
I2
sg6
F-8.0
sg7
F1.0
sg8
F8.0
sg9
F-2.0
sb(dp1675
I00
F16.985999999999997
sI01
F76.11424659099998
ss(i__main__
State
p1676
(dp1677
g3
I2
sg4
I3
sg5
I2
sg6
F6.0
sg7
F5.0
sg8
F-6.0
sg9
F10.0
sb(dp1678
I00
F-55.4
sI01
F-4.461839999999999
ss(i__main__
State
p1679
(dp1680
g3
I2
sg4
I3
sg5
I2
sg6
F0.0
sg7
F0.0
sg8
F0.0
sg9
F4.0
sb(dp1681
I00
F-28.369999999999997
sI01
I-61
ss(i__main__
State
p1682
(dp1683
g3
I2
sg4
I3
sg5
I2
sg6
F-6.0
sg7
F5.0
sg8
F6.0
sg9
F7.0
sb(dp1684
I00
F-80.3
sI01
F39.41335
ss(i__main__
State
p1685
(dp1686
g3
I2
sg4
I3
sg5
I2
sg6
F6.0
sg7
F5.0
sg8
F-6.0
sg9
F7.0
sb(dp1687
I00
F14.849
sI01
I-3
ss(i__main__
State
p1688
(dp1689
g3
I2
sg4
I3
sg5
I2
sg6
F-8.0
sg7
F8.0
sg8
F8.0
sg9
F-8.0
sb(dp1690
I00
F39.8
sI01
F0.0
ss(i__main__
State
p1691
(dp1692
g3
I2
sg4
I3
sg5
I2
sg6
F4.0
sg7
F8.0
sg8
F-4.0
sg9
F-5.0
sb(dp1693
I00
F32.41659
sI01
F20.71
ss(i__main__
State
p1694
(dp1695
g3
I2
sg4
I3
sg5
I2
sg6
F4.0
sg7
F5.0
sg8
F-4.0
sg9
F-5.0
sb(dp1696
I00
F-49.832603999999996
sI01
F-84.9
ss(i__main__
State
p1697
(dp1698
g3
I2
sg4
I3
sg5
I2
sg6
F-6.0
sg7
F2.0
sg8
F6.0
sg9
F10.0
sb(dp1699
I00
F-40.886992134
sI01
I-95
ss(i__main__
State
p1700
(dp1701
g3
I2
sg4
I3
sg5
I2
sg6
F8.0
sg7
F0.0
sg8
F-8.0
sg9
F-2.0
sb(dp1702
I00
F-67.5
sI01
F-8.139
ss(i__main__
State
p1703
(dp1704
g3
I2
sg4
I3
sg5
I2
sg6
F4.0
sg7
F6.0
sg8
F-4.0
sg9
F4.0
sb(dp1705
I00
I35
sI01
F24.627499999999998
ss(i__main__
State
p1706
(dp1707
g3
I2
sg4
I3
sg5
I2
sg6
F-2.0
sg7
F7.0
sg8
F2.0
sg9
F7.0
sb(dp1708
I00
F50.475
sI01
F40.7
ss(i__main__
State
p1709
(dp1710
g3
I2
sg4
I3
sg5
I2
sg6
F6.0
sg7
F3.0
sg8
F-6.0
sg9
F-2.0
sb(dp1711
I00
F-35.13
sI01
F7.768980000000003
ss(i__main__
State
p1712
(dp1713
g3
I2
sg4
I3
sg5
I2
sg6
F-6.0
sg7
F6.0
sg8
F6.0
sg9
F10.0
sb(dp1714
I00
I-89
sI01
F91.3267
ss(i__main__
State
p1715
(dp1716
g3
I2
sg4
I3
sg5
I2
sg6
F-8.0
sg7
F8.0
sg8
F8.0
sg9
F10.0
sb(dp1717
I00
F31.819000000000003
sI01
F0.0
ss(i__main__
State
p1718
(dp1719
g3
I2
sg4
I3
sg5
I2
sg6
F2.0
sg7
F10.0
sg8
F-2.0
sg9
F10.0
sb(dp1720
I00
F10.0
sI01
F79.32208550000001
ss(i__main__
State
p1721
(dp1722
g3
I2
sg4
I3
sg5
I2
sg6
F0.0
sg7
F9.0
sg8
F0.0
sg9
F-5.0
sb(dp1723
I00
F87.72985178900001
sI01
F22.020000000000003
ss(i__main__
State
p1724
(dp1725
g3
I2
sg4
I3
sg5
I2
sg6
F0.0
sg7
F9.0
sg8
F0.0
sg9
F7.0
sb(dp1726
I00
F42.7199
sI01
F11.0
ss(i__main__
State
p1727
(dp1728
g3
I2
sg4
I3
sg5
I2
sg6
F-6.0
sg7
F3.0
sg8
F6.0
sg9
F10.0
sb(dp1729
I00
F28.030500000000004
sI01
F-12.3
ss(i__main__
State
p1730
(dp1731
g3
I2
sg4
I3
sg5
I2
sg6
F-6.0
sg7
F8.0
sg8
F6.0
sg9
F4.0
sb(dp1732
I00
F31.0
sI01
F0.0
ss(i__main__
State
p1733
(dp1734
g3
I2
sg4
I3
sg5
I2
sg6
F-8.0
sg7
F8.0
sg8
F8.0
sg9
F-2.0
sb(dp1735
I00
F87.22112108580001
sI01
F0.0
ss(i__main__
State
p1736
(dp1737
g3
I2
sg4
I3
sg5
I2
sg6
F6.0
sg7
F7.0
sg8
F-6.0
sg9
F4.0
sb(dp1738
I00
F16.228323974997302
sI01
F-38.6
ss(i__main__
State
p1739
(dp1740
g3
I2
sg4
I3
sg5
I2
sg6
F4.0
sg7
F6.0
sg8
F-4.0
sg9
F-8.0
sb(dp1741
I00
F23.251589999999997
sI01
I-37
ss(i__main__
State
p1742
(dp1743
g3
I2
sg4
I3
sg5
I2
sg6
F2.0
sg7
F9.0
sg8
F-2.0
sg9
F4.0
sb(dp1744
I00
F48.2
sI01
F0.0
ss(i__main__
State
p1745
(dp1746
g3
I2
sg4
I3
sg5
I2
sg6
F0.0
sg7
F3.0
sg8
F0.0
sg9
F7.0
sb(dp1747
I00
I-11
sI01
F58.2
ss(i__main__
State
p1748
(dp1749
g3
I2
sg4
I3
sg5
I2
sg6
F4.0
sg7
F3.0
sg8
F-4.0
sg9
F-5.0
sb(dp1750
I00
I100
sI01
F19.650653
ss(i__main__
State
p1751
(dp1752
g3
I2
sg4
I3
sg5
I2
sg6
F2.0
sg7
F4.0
sg8
F-2.0
sg9
F-2.0
sb(dp1753
I00
F29.18
sI01
F47.5858799
ss(i__main__
State
p1754
(dp1755
g3
I2
sg4
I3
sg5
I2
sg6
F6.0
sg7
F8.0
sg8
F-6.0
sg9
F7.0
sb(dp1756
I00
F61.564740885
sI01
F20.200000000000003
ss(i__main__
State
p1757
(dp1758
g3
I2
sg4
I3
sg5
I2
sg6
F-2.0
sg7
F5.0
sg8
F2.0
sg9
F-5.0
sb(dp1759
I00
F90.858089
sI01
F21.5
ss(i__main__
State
p1760
(dp1761
g3
I2
sg4
I3
sg5
I2
sg6
F2.0
sg7
F1.0
sg8
F-2.0
sg9
F-2.0
sb(dp1762
I00
I-71
sI01
F39.1354
ss(i__main__
State
p1763
(dp1764
g3
I2
sg4
I3
sg5
I2
sg6
F-4.0
sg7
F7.0
sg8
F4.0
sg9
F7.0
sb(dp1765
I00
F-12.301899999999998
sI01
F-35.06999999999999
ss(i__main__
State
p1766
(dp1767
g3
I2
sg4
I3
sg5
I2
sg6
F6.0
sg7
F8.0
sg8
F-6.0
sg9
F10.0
sb(dp1768
I00
F21.0
sI01
F0.0
ss(i__main__
State
p1769
(dp1770
g3
I2
sg4
I3
sg5
I2
sg6
F-8.0
sg7
F4.0
sg8
F8.0
sg9
F1.0
sb(dp1771
I00
F50.371
sI01
I-17
ss(i__main__
State
p1772
(dp1773
g3
I2
sg4
I3
sg5
I2
sg6
F-8.0
sg7
F8.0
sg8
F8.0
sg9
F-5.0
sb(dp1774
I00
F44.218999999999994
sI01
F10.0
ss(i__main__
State
p1775
(dp1776
g3
I2
sg4
I3
sg5
I2
sg6
F2.0
sg7
F0.0
sg8
F-2.0
sg9
F-5.0
sb(dp1777
I00
F-1.5531471800000007
sI01
I-68
ss(i__main__
State
p1778
(dp1779
g3
I2
sg4
I3
sg5
I2
sg6
F8.0
sg7
F3.0
sg8
F-8.0
sg9
F-2.0
sb(dp1780
I00
F-18.084000000000003
sI01
F64.1055748715
ss(i__main__
State
p1781
(dp1782
g3
I2
sg4
I3
sg5
I2
sg6
F2.0
sg7
F5.0
sg8
F-2.0
sg9
F10.0
sb(dp1783
I00
F-2.799999999999999
sI01
F-71.1
ss(i__main__
State
p1784
(dp1785
g3
I2
sg4
I3
sg5
I2
sg6
F-4.0
sg7
F5.0
sg8
F4.0
sg9
F10.0
sb(dp1786
I00
I-48
sI01
F-33.5
ss(i__main__
State
p1787
(dp1788
g3
I2
sg4
I3
sg5
I2
sg6
F-8.0
sg7
F0.0
sg8
F8.0
sg9
F10.0
sb(dp1789
I00
F46.975556016
sI01
F-11.578000000000001
ss(i__main__
State
p1790
(dp1791
g3
I2
sg4
I3
sg5
I2
sg6
F-4.0
sg7
F2.0
sg8
F4.0
sg9
F-5.0
sb(dp1792
I00
F-20.6
sI01
F81.96
ss(i__main__
State
p1793
(dp1794
g3
I2
sg4
I3
sg5
I2
sg6
F-6.0
sg7
F10.0
sg8
F6.0
sg9
F7.0
sb(dp1795
I00
F11.982382000000001
sI01
F42.098334980000004
ss(i__main__
State
p1796
(dp1797
g3
I2
sg4
I3
sg5
I2
sg6
F8.0
sg7
F4.0
sg8
F-8.0
sg9
F-8.0
sb(dp1798
I00
I-79
sI01
F-30.586920000000003
ss(i__main__
State
p1799
(dp1800
g3
I2
sg4
I3
sg5
I2
sg6
F0.0
sg7
F2.0
sg8
F0.0
sg9
F-8.0
sb(dp1801
I00
F14.920000000000002
sI01
F-52.8
ss(i__main__
State
p1802
(dp1803
g3
I2
sg4
I3
sg5
I2
sg6
F4.0
sg7
F0.0
sg8
F-4.0
sg9
F-2.0
sb(dp1804
I00
F70.8580813
sI01
I25
ss(i__main__
State
p1805
(dp1806
g3
I2
sg4
I3
sg5
I2
sg6
F-4.0
sg7
F6.0
sg8
F4.0
sg9
F-2.0
sb(dp1807
I00
I-44
sI01
F38.79
ss(i__main__
State
p1808
(dp1809
g3
I2
sg4
I3
sg5
I2
sg6
F8.0
sg7
F3.0
sg8
F-8.0
sg9
F-8.0
sb(dp1810
I00
I-59
sI01
F28.971029999999995
ss(i__main__
State
p1811
(dp1812
g3
I2
sg4
I3
sg5
I2
sg6
F-6.0
sg7
F10.0
sg8
F6.0
sg9
F1.0
sb(dp1813
I00
F108.63993950360491
sI01
F23.678350000000002
ss(i__main__
State
p1814
(dp1815
g3
I2
sg4
I3
sg5
I2
sg6
F2.0
sg7
F1.0
sg8
F-2.0
sg9
F-5.0
sb(dp1816
I00
I-59
sI01
F30.934657552
ss(i__main__
State
p1817
(dp1818
g3
I2
sg4
I3
sg5
I2
sg6
F-6.0
sg7
F10.0
sg8
F6.0
sg9
F-5.0
sb(dp1819
I00
F10.0
sI01
F0.0
ss(i__main__
State
p1820
(dp1821
g3
I2
sg4
I3
sg5
I2
sg6
F2.0
sg7
F10.0
sg8
F-2.0
sg9
F1.0
sb(dp1822
I00
F0.0
sI01
F6.1000000000000005
ss(i__main__
State
p1823
(dp1824
g3
I2
sg4
I3
sg5
I2
sg6
F-6.0
sg7
F0.0
sg8
F6.0
sg9
F-2.0
sb(dp1825
I00
F-28.9
sI01
F59.069610000000004
ss(i__main__
State
p1826
(dp1827
g3
I2
sg4
I3
sg5
I2
sg6
F0.0
sg7
F8.0
sg8
F0.0
sg9
F-8.0
sb(dp1828
I00
F-1000.0
sI01
F0.0
ss(i__main__
State
p1829
(dp1830
g3
I2
sg4
I3
sg5
I2
sg6
F-2.0
sg7
F10.0
sg8
F2.0
sg9
F1.0
sb(dp1831
I00
F21.1068
sI01
F9.32848
ss(i__main__
State
p1832
(dp1833
g3
I2
sg4
I3
sg5
I2
sg6
F0.0
sg7
F1.0
sg8
F0.0
sg9
F1.0
sb(dp1834
I00
I-54
sI01
F-5.0
ss(i__main__
State
p1835
(dp1836
g3
I2
sg4
I3
sg5
I2
sg6
F-4.0
sg7
F2.0
sg8
F4.0
sg9
F1.0
sb(dp1837
I00
F-74.5
sI01
F16.14
ss(i__main__
State
p1838
(dp1839
g3
I2
sg4
I3
sg5
I2
sg6
F-8.0
sg7
F3.0
sg8
F8.0
sg9
F7.0
sb(dp1840
I00
F0.6799999999999997
sI01
I-14
ss.