(dp0
(i__main__
State
p1
(dp2
S'y1'
p3
F5.0
sS'x'
p4
F1.0
sS'y3'
p5
F-5.0
sS'y2'
p6
F-8.0
sb(dp7
I00
F6.82
sI01
I-13
ss(i__main__
State
p8
(dp9
g3
F5.0
sg4
F5.0
sg5
F-5.0
sg6
F0.0
sb(dp10
I00
F-4.5
sI01
I7
ss(i__main__
State
p11
(dp12
g3
F-7.0
sg4
F6.0
sg5
F7.0
sg6
F8.0
sb(dp13
I00
F50.45862502846036
sI01
F54.64185344634241
ss(i__main__
State
p14
(dp15
g3
F-6.0
sg4
F6.0
sg5
F6.0
sg6
F0.0
sb(dp16
I00
F4.851766000000001
sI01
F-75.87
ss(i__main__
State
p17
(dp18
g3
F-8.0
sg4
F8.0
sg5
F8.0
sg6
F4.0
sb(dp19
I00
F10.0
sI01
F38.38
ss(i__main__
State
p20
(dp21
g3
F-2.0
sg4
F5.0
sg5
F2.0
sg6
F4.0
sb(dp22
I00
F66.25351611599999
sI01
F-14.20683
ss(i__main__
State
p23
(dp24
g3
F-7.0
sg4
F0.0
sg5
F7.0
sg6
F-8.0
sb(dp25
I00
F9.798000000000002
sI01
F-27.6
ss(i__main__
State
p26
(dp27
g3
F6.0
sg4
F5.0
sg5
F-6.0
sg6
F-2.0
sb(dp28
I00
F-37.1
sI01
I-68
ss(i__main__
State
p29
(dp30
g3
F3.0
sg4
F4.0
sg5
F-3.0
sg6
F6.0
sb(dp31
I00
F46.00069800000001
sI01
F48.86
ss(i__main__
State
p32
(dp33
g3
F4.0
sg4
F2.0
sg5
F-4.0
sg6
F-8.0
sb(dp34
I00
I-12
sI01
F62.060365536999996
ss(i__main__
State
p35
(dp36
g3
F-6.0
sg4
F10.0
sg5
F6.0
sg6
F-2.0
sb(dp37
I00
F76.984115039
sI01
F37.319002000000005
ss(i__main__
State
p38
(dp39
g3
F-2.0
sg4
F9.0
sg5
F2.0
sg6
F8.0
sb(dp40
I00
F57.86017
sI01
F0.0
ss(i__main__
State
p41
(dp42
g3
F3.0
sg4
F10.0
sg5
F-3.0
sg6
F6.0
sb(dp43
I00
F20.47
sI01
F0.0
ss(i__main__
State
p44
(dp45
g3
F1.0
sg4
F4.0
sg5
F-1.0
sg6
F-2.0
sb(dp46
I00
F-65.9
sI01
F46.97249282
ss(i__main__
State
p47
(dp48
g3
F7.0
sg4
F6.0
sg5
F-7.0
sg6
F8.0
sb(dp49
I00
F71.8570806
sI01
F-78.11
ss(i__main__
State
p50
(dp51
g3
F1.0
sg4
F9.0
sg5
F-1.0
sg6
F-2.0
sb(dp52
I00
F-162.71
sI01
F-179.60200000000003
ss(i__main__
State
p53
(dp54
g3
F4.0
sg4
F1.0
sg5
F-4.0
sg6
F-6.0
sb(dp55
I00
F-42.9821264
sI01
F46.471700000000006
ss(i__main__
State
p56
(dp57
g3
F-1.0
sg4
F5.0
sg5
F1.0
sg6
F0.0
sb(dp58
I00
F22.75118838
sI01
F-66.6
ss(i__main__
State
p59
(dp60
g3
F-8.0
sg4
F7.0
sg5
F8.0
sg6
F-6.0
sb(dp61
I00
I-46
sI01
F30.215
ss(i__main__
State
p62
(dp63
g3
F2.0
sg4
F10.0
sg5
F-2.0
sg6
F8.0
sb(dp64
I00
F0.0
sI01
F28.450000000000003
ss(i__main__
State
p65
(dp66
g3
F7.0
sg4
F7.0
sg5
F-7.0
sg6
F-6.0
sb(dp67
I00
F-13.379999999999999
sI01
F27.454189999999997
ss(i__main__
State
p68
(dp69
g3
F4.0
sg4
F2.0
sg5
F-4.0
sg6
F-6.0
sb(dp70
I00
F51.41
sI01
I-23
ss(i__main__
State
p71
(dp72
g3
F-7.0
sg4
F7.0
sg5
F7.0
sg6
F4.0
sb(dp73
I00
F60.7147107982
sI01
I-91
ss(i__main__
State
p74
(dp75
g3
F6.0
sg4
F6.0
sg5
F-6.0
sg6
F2.0
sb(dp76
I00
F63.00963
sI01
I54
ss(i__main__
State
p77
(dp78
g3
F3.0
sg4
F7.0
sg5
F-3.0
sg6
F8.0
sb(dp79
I00
I-36
sI01
F11.282763000000001
ss(i__main__
State
p80
(dp81
g3
F4.0
sg4
F5.0
sg5
F-4.0
sg6
F2.0
sb(dp82
I00
I-27
sI01
F74.1
ss(i__main__
State
p83
(dp84
g3
F2.0
sg4
F4.0
sg5
F-2.0
sg6
F0.0
sb(dp85
I00
I34
sI01
F46.004488
ss(i__main__
State
p86
(dp87
g3
F-5.0
sg4
F6.0
sg5
F5.0
sg6
F-2.0
sb(dp88
I00
F71.31
sI01
I65
ss(i__main__
State
p89
(dp90
g3
F8.0
sg4
F3.0
sg5
F-8.0
sg6
F-2.0
sb(dp91
I00
F97.2
sI01
I30
ss(i__main__
State
p92
(dp93
g3
F4.0
sg4
F0.0
sg5
F-4.0
sg6
F4.0
sb(dp94
I00
F53.26910781083491
sI01
F-72.51
ss(i__main__
State
p95
(dp96
g3
F-4.0
sg4
F1.0
sg5
F4.0
sg6
F-4.0
sb(dp97
I00
F58.033060128992936
sI01
F-31.07
ss(i__main__
State
p98
(dp99
g3
F-7.0
sg4
F5.0
sg5
F7.0
sg6
F8.0
sb(dp100
I00
F-51.74
sI01
F12.101043823505472
ss(i__main__
State
p101
(dp102
g3
F7.0
sg4
F6.0
sg5
F-7.0
sg6
F0.0
sb(dp103
I00
F97.0139
sI01
F36.4
ss(i__main__
State
p104
(dp105
g3
F8.0
sg4
F2.0
sg5
F-8.0
sg6
F-8.0
sb(dp106
I00
I14
sI01
F76.72874119252592
ss(i__main__
State
p107
(dp108
g3
F3.0
sg4
F8.0
sg5
F-3.0
sg6
F-8.0
sb(dp109
I00
F163.77762659902052
sI01
F27.125360210400004
ss(i__main__
State
p110
(dp111
g3
F7.0
sg4
F7.0
sg5
F-7.0
sg6
F8.0
sb(dp112
I00
F-55.3
sI01
I-35
ss(i__main__
State
p113
(dp114
g3
F-8.0
sg4
F1.0
sg5
F8.0
sg6
F4.0
sb(dp115
I00
F86.7861111
sI01
F-79.031
ss(i__main__
State
p116
(dp117
g3
F1.0
sg4
F8.0
sg5
F-1.0
sg6
F-6.0
sb(dp118
I00
F-72.9
sI01
F66.0840022
ss(i__main__
State
p119
(dp120
g3
F5.0
sg4
F10.0
sg5
F-5.0
sg6
F8.0
sb(dp121
I00
F30.659900000000004
sI01
F0.0
ss(i__main__
State
p122
(dp123
g3
F-7.0
sg4
F7.0
sg5
F7.0
sg6
F-2.0
sb(dp124
I00
I-53
sI01
F42.704564000000005
ss(i__main__
State
p125
(dp126
g3
F5.0
sg4
F7.0
sg5
F-5.0
sg6
F6.0
sb(dp127
I00
F36.84173043096544
sI01
I-41
ss(i__main__
State
p128
(dp129
g3
F7.0
sg4
F0.0
sg5
F-7.0
sg6
F-8.0
sb(dp130
I00
F17.87238
sI01
F-33.6
ss(i__main__
State
p131
(dp132
g3
F-7.0
sg4
F8.0
sg5
F7.0
sg6
F8.0
sb(dp133
I00
F51.186683907
sI01
F11.0
ss(i__main__
State
p134
(dp135
g3
F-4.0
sg4
F2.0
sg5
F4.0
sg6
F-4.0
sb(dp136
I00
F-5.863650000000002
sI01
I-52
ss(i__main__
State
p137
(dp138
g3
F4.0
sg4
F10.0
sg5
F-4.0
sg6
F-2.0
sb(dp139
I00
F103.7929529541782
sI01
F10.8
ss(i__main__
State
p140
(dp141
g3
F-8.0
sg4
F5.0
sg5
F8.0
sg6
F-6.0
sb(dp142
I00
F-70.2
sI01
I-6
ss(i__main__
State
p143
(dp144
g3
F3.0
sg4
F1.0
sg5
F-3.0
sg6
F0.0
sb(dp145
I00
F32.8801
sI01
F11.97
ss(i__main__
State
p146
(dp147
g3
F-8.0
sg4
F1.0
sg5
F8.0
sg6
F-2.0
sb(dp148
I00
F47.14
sI01
I47
ss(i__main__
State
p149
(dp150
g3
F-1.0
sg4
F9.0
sg5
F1.0
sg6
F8.0
sb(dp151
I00
F0.0
sI01
F49.0
ss(i__main__
State
p152
(dp153
g3
F6.0
sg4
F1.0
sg5
F-6.0
sg6
F4.0
sb(dp154
I00
I-96
sI01
F47.32029640499999
ss(i__main__
State
p155
(dp156
g3
F8.0
sg4
F2.0
sg5
F-8.0
sg6
F-4.0
sb(dp157
I00
F9.200000000000001
sI01
F44.144355000000004
ss(i__main__
State
p158
(dp159
g3
F-4.0
sg4
F3.0
sg5
F4.0
sg6
F-4.0
sb(dp160
I00
F10.833
sI01
I-42
ss(i__main__
State
p161
(dp162
g3
F7.0
sg4
F3.0
sg5
F-7.0
sg6
F0.0
sb(dp163
I00
F-29.81591
sI01
I99
ss(i__main__
State
p164
(dp165
g3
F0.0
sg4
F2.0
sg5
F0.0
sg6
F-8.0
sb(dp166
I00
I90
sI01
F31.46
ss(i__main__
State
p167
(dp168
g3
F-7.0
sg4
F9.0
sg5
F7.0
sg6
F-4.0
sb(dp169
I00
F0.0
sI01
F79.348926973
ss(i__main__
State
p170
(dp171
g3
F-6.0
sg4
F8.0
sg5
F6.0
sg6
F-8.0
sb(dp172
I00
F11.1064
sI01
F21.442756520000003
ss(i__main__
State
p173
(dp174
g3
F-3.0
sg4
F0.0
sg5
F3.0
sg6
F2.0
sb(dp175
I00
I-91
sI01
F31.9
ss(i__main__
State
p176
(dp177
g3
F-5.0
sg4
F7.0
sg5
F5.0
sg6
F-2.0
sb(dp178
I00
F-46.86
sI01
F-63.51
ss(i__main__
State
p179
(dp180
g3
F3.0
sg4
F9.0
sg5
F-3.0
sg6
F6.0
sb(dp181
I00
F20.0
sI01
F0.0
ss(i__main__
State
p182
(dp183
g3
F7.0
sg4
F8.0
sg5
F-7.0
sg6
F-2.0
sb(dp184
I00
F0.0
sI01
F-179.49173660000002
ss(i__main__
State
p185
(dp186
g3
F-4.0
sg4
F4.0
sg5
F4.0
sg6
F-4.0
sb(dp187
I00
I-40
sI01
F59.457
ss(i__main__
State
p188
(dp189
g3
F5.0
sg4
F9.0
sg5
F-5.0
sg6
F-6.0
sb(dp190
I00
F39.99
sI01
F0.0
ss(i__main__
State
p191
(dp192
g3
F-8.0
sg4
F6.0
sg5
F8.0
sg6
F6.0
sb(dp193
I00
I-96
sI01
F75.2
ss(i__main__
State
p194
(dp195
g3
F0.0
sg4
F5.0
sg5
F0.0
sg6
F8.0
sb(dp196
I00
F33.985
sI01
F-34.35356706
ss(i__main__
State
p197
(dp198
g3
F0.0
sg4
F8.0
sg5
F0.0
sg6
F2.0
sb(dp199
I00
F-1897.57199926
sI01
F-1000.0
ss(i__main__
State
p200
(dp201
g3
F8.0
sg4
F1.0
sg5
F-8.0
sg6
F-2.0
sb(dp202
I00
I36
sI01
F60.287
ss(i__main__
State
p203
(dp204
g3
F2.0
sg4
F8.0
sg5
F-2.0
sg6
F2.0
sb(dp205
I00
F28.200000000000003
sI01
F0.0
ss(i__main__
State
p206
(dp207
g3
F7.0
sg4
F10.0
sg5
F-7.0
sg6
F-6.0
sb(dp208
I00
F0.0
sI01
F79.38268440414402
ss(i__main__
State
p209
(dp210
g3
F-3.0
sg4
F10.0
sg5
F3.0
sg6
F6.0
sb(dp211
I00
F0.0
sI01
F50.321
ss(i__main__
State
p212
(dp213
g3
F-8.0
sg4
F2.0
sg5
F8.0
sg6
F-6.0
sb(dp214
I00
F65.90309
sI01
F-7.199999999999999
ss(i__main__
State
p215
(dp216
g3
F-3.0
sg4
F1.0
sg5
F3.0
sg6
F-4.0
sb(dp217
I00
I-76
sI01
F-45.099999999999994
ss(i__main__
State
p218
(dp219
g3
F-6.0
sg4
F1.0
sg5
F6.0
sg6
F8.0
sb(dp220
I00
F17.2564412
sI01
I-63
ss(i__main__
State
p221
(dp222
g3
F-1.0
sg4
F3.0
sg5
F1.0
sg6
F-8.0
sb(dp223
I00
F7.8
sI01
F84.84
ss(i__main__
State
p224
(dp225
g3
F1.0
sg4
F5.0
sg5
F-1.0
sg6
F-8.0
sb(dp226
I00
F85.3844
sI01
F-10.95
ss(i__main__
State
p227
(dp228
g3
F-1.0
sg4
F10.0
sg5
F1.0
sg6
F4.0
sb(dp229
I00
F32.638000000000005
sI01
F0.0
ss(i__main__
State
p230
(dp231
g3
F-4.0
sg4
F6.0
sg5
F4.0
sg6
F-8.0
sb(dp232
I00
I-31
sI01
F42.12820000000001
ss(i__main__
State
p233
(dp234
g3
F7.0
sg4
F6.0
sg5
F-7.0
sg6
F-6.0
sb(dp235
I00
I-81
sI01
F71.67
ss(i__main__
State
p236
(dp237
g3
F5.0
sg4
F5.0
sg5
F-5.0
sg6
F-8.0
sb(dp238
I00
I-44
sI01
F96.2
ss(i__main__
State
p239
(dp240
g3
F-4.0
sg4
F8.0
sg5
F4.0
sg6
F-8.0
sb(dp241
I00
F10.0
sI01
F35.536422
ss(i__main__
State
p242
(dp243
g3
F1.0
sg4
F2.0
sg5
F-1.0
sg6
F2.0
sb(dp244
I00
F87.0849
sI01
F64.6
ss(i__main__
State
p245
(dp246
g3
F6.0
sg4
F5.0
sg5
F-6.0
sg6
F0.0
sb(dp247
I00
F8.100000000000001
sI01
F83.5
ss(i__main__
State
p248
(dp249
g3
F-3.0
sg4
F10.0
sg5
F3.0
sg6
F-4.0
sb(dp250
I00
F39.8134
sI01
F20.539
ss(i__main__
State
p251
(dp252
g3
F-8.0
sg4
F4.0
sg5
F8.0
sg6
F6.0
sb(dp253
I00
F77.6
sI01
F26.7
ss(i__main__
State
p254
(dp255
g3
F-2.0
sg4
F1.0
sg5
F2.0
sg6
F-6.0
sb(dp256
I00
F57.68000000000001
sI01
F-63.1
ss(i__main__
State
p257
(dp258
g3
F-3.0
sg4
F3.0
sg5
F3.0
sg6
F0.0
sb(dp259
I00
F42.730779390559995
sI01
F-22.57
ss(i__main__
State
p260
(dp261
g3
F3.0
sg4
F1.0
sg5
F-3.0
sg6
F8.0
sb(dp262
I00
I-64
sI01
F-13.2
ss(i__main__
State
p263
(dp264
g3
F2.0
sg4
F1.0
sg5
F-2.0
sg6
F6.0
sb(dp265
I00
F53.01
sI01
I-55
ss(i__main__
State
p266
(dp267
g3
F7.0
sg4
F9.0
sg5
F-7.0
sg6
F-2.0
sb(dp268
I00
F-65.61000000000001
sI01
F36.471648574691
ss(i__main__
State
p269
(dp270
g3
F8.0
sg4
F0.0
sg5
F-8.0
sg6
F2.0
sb(dp271
I00
F31.1
sI01
F73.9279328
ss(i__main__
State
p272
(dp273
g3
F-7.0
sg4
F1.0
sg5
F7.0
sg6
F2.0
sb(dp274
I00
F73.6382856
sI01
I-42
ss(i__main__
State
p275
(dp276
g3
F-2.0
sg4
F8.0
sg5
F2.0
sg6
F2.0
sb(dp277
I00
F10.0
sI01
F0.0
ss(i__main__
State
p278
(dp279
g3
F7.0
sg4
F3.0
sg5
F-7.0
sg6
F-6.0
sb(dp280
I00
F73.74316663979188
sI01
F-29.721899999999998
ss(i__main__
State
p281
(dp282
g3
F1.0
sg4
F9.0
sg5
F-1.0
sg6
F8.0
sb(dp283
I00
F141.3199521837793
sI01
F-90.37
ss(i__main__
State
p284
(dp285
g3
F-8.0
sg4
F5.0
sg5
F8.0
sg6
F-8.0
sb(dp286
I00
F-22.28
sI01
I-51
ss(i__main__
State
p287
(dp288
g3
F6.0
sg4
F7.0
sg5
F-6.0
sg6
F-2.0
sb(dp289
I00
I-42
sI01
F69.05137005490957
ss(i__main__
State
p290
(dp291
g3
F-4.0
sg4
F8.0
sg5
F4.0
sg6
F0.0
sb(dp292
I00
F20.0
sI01
F0.0
ss(i__main__
State
p293
(dp294
g3
F-8.0
sg4
F8.0
sg5
F8.0
sg6
F-2.0
sb(dp295
I00
F58.0
sI01
F10.0
ss(i__main__
State
p296
(dp297
g3
F-2.0
sg4
F9.0
sg5
F2.0
sg6
F6.0
sb(dp298
I00
F10.0
sI01
F0.0
ss(i__main__
State
p299
(dp300
g3
F5.0
sg4
F4.0
sg5
F-5.0
sg6
F-6.0
sb(dp301
I00
F48.28745
sI01
F-88.6
ss(i__main__
State
p302
(dp303
g3
F-6.0
sg4
F1.0
sg5
F6.0
sg6
F0.0
sb(dp304
I00
F22.0320924
sI01
F61.513617804793
ss(i__main__
State
p305
(dp306
g3
F2.0
sg4
F0.0
sg5
F-2.0
sg6
F6.0
sb(dp307
I00
I-51
sI01
F89.1
ss(i__main__
State
p308
(dp309
g3
F7.0
sg4
F0.0
sg5
F-7.0
sg6
F2.0
sb(dp310
I00
I-26
sI01
F75.560833608
ss(i__main__
State
p311
(dp312
g3
F-5.0
sg4
F9.0
sg5
F5.0
sg6
F2.0
sb(dp313
I00
F20.0
sI01
F0.0
ss(i__main__
State
p314
(dp315
g3
F-1.0
sg4
F7.0
sg5
F1.0
sg6
F-2.0
sb(dp316
I00
F48.4939270331609
sI01
I-73
ss(i__main__
State
p317
(dp318
g3
F7.0
sg4
F9.0
sg5
F-7.0
sg6
F0.0
sb(dp319
I00
F-999.0
sI01
F-1000.0
ss(i__main__
State
p320
(dp321
g3
F7.0
sg4
F10.0
sg5
F-7.0
sg6
F2.0
sb(dp322
I00
F30.0
sI01
F0.0
ss(i__main__
State
p323
(dp324
g3
F-3.0
sg4
F0.0
sg5
F3.0
sg6
F8.0
sb(dp325
I00
F96.68
sI01
I-8
ss(i__main__
State
p326
(dp327
g3
F-8.0
sg4
F2.0
sg5
F8.0
sg6
F6.0
sb(dp328
I00
I55
sI01
F72.96956
ss(i__main__
State
p329
(dp330
g3
F4.0
sg4
F9.0
sg5
F-4.0
sg6
F8.0
sb(dp331
I00
F40.0
sI01
F12.100000000000001
ss(i__main__
State
p332
(dp333
g3
F0.0
sg4
F9.0
sg5
F0.0
sg6
F2.0
sb(dp334
I00
F0.0
sI01
F12.098
ss(i__main__
State
p335
(dp336
g3
F0.0
sg4
F9.0
sg5
F0.0
sg6
F4.0
sb(dp337
I00
F31.71
sI01
F11.0
ss(i__main__
State
p338
(dp339
g3
F7.0
sg4
F9.0
sg5
F-7.0
sg6
F2.0
sb(dp340
I00
F35.42
sI01
F0.0
ss(i__main__
State
p341
(dp342
g3
F5.0
sg4
F3.0
sg5
F-5.0
sg6
F8.0
sb(dp343
I00
F44.4
sI01
F61.21961459413
ss(i__main__
State
p344
(dp345
g3
F4.0
sg4
F4.0
sg5
F-4.0
sg6
F-6.0
sb(dp346
I00
F8.5
sI01
F37.199999999999996
ss(i__main__
State
p347
(dp348
g3
F2.0
sg4
F5.0
sg5
F-2.0
sg6
F-4.0
sb(dp349
I00
F53.26855033
sI01
I1
ss(i__main__
State
p350
(dp351
g3
F-8.0
sg4
F7.0
sg5
F8.0
sg6
F-8.0
sb(dp352
I00
F-1.1680641463000003
sI01
F51.822215480505726
ss(i__main__
State
p353
(dp354
g3
F6.0
sg4
F3.0
sg5
F-6.0
sg6
F-6.0
sb(dp355
I00
I-83
sI01
F-0.17999999999999972
ss(i__main__
State
p356
(dp357
g3
F-5.0
sg4
F1.0
sg5
F5.0
sg6
F0.0
sb(dp358
I00
I-81
sI01
F-28.61
ss(i__main__
State
p359
(dp360
g3
F-2.0
sg4
F5.0
sg5
F2.0
sg6
F2.0
sb(dp361
I00
F41.361183405
sI01
I3
ss(i__main__
State
p362
(dp363
g3
F-6.0
sg4
F4.0
sg5
F6.0
sg6
F-4.0
sb(dp364
I00
F63.5017555
sI01
I-92
ss(i__main__
State
p365
(dp366
g3
F-4.0
sg4
F8.0
sg5
F4.0
sg6
F2.0
sb(dp367
I00
F10.0
sI01
F0.0
ss(i__main__
State
p368
(dp369
g3
F5.0
sg4
F3.0
sg5
F-5.0
sg6
F-2.0
sb(dp370
I00
F5.0753227899999995
sI01
I-86
ss(i__main__
State
p371
(dp372
g3
F1.0
sg4
F9.0
sg5
F-1.0
sg6
F-8.0
sb(dp373
I00
F10.0
sI01
F10.0
ss(i__main__
State
p374
(dp375
g3
F8.0
sg4
F2.0
sg5
F-8.0
sg6
F8.0
sb(dp376
I00
F66.9
sI01
I-9
ss(i__main__
State
p377
(dp378
g3
F-7.0
sg4
F8.0
sg5
F7.0
sg6
F-2.0
sb(dp379
I00
F0.0
sI01
F-162.79000000000002
ss(i__main__
State
p380
(dp381
g3
F-1.0
sg4
F0.0
sg5
F1.0
sg6
F6.0
sb(dp382
I00
I19
sI01
F18.61464839688
ss(i__main__
State
p383
(dp384
g3
F1.0
sg4
F0.0
sg5
F-1.0
sg6
F-4.0
sb(dp385
I00
F53.902
sI01
I-52
ss(i__main__
State
p386
(dp387
g3
F-1.0
sg4
F1.0
sg5
F1.0
sg6
F2.0
sb(dp388
I00
F79.6976
sI01
I-41
ss(i__main__
State
p389
(dp390
g3
F6.0
sg4
F7.0
sg5
F-6.0
sg6
F-8.0
sb(dp391
I00
I-59
sI01
F36.11
ss(i__main__
State
p392
(dp393
g3
F8.0
sg4
F8.0
sg5
F-8.0
sg6
F4.0
sb(dp394
I00
F96.74740030658202
sI01
F0.0
ss(i__main__
State
p395
(dp396
g3
F-3.0
sg4
F0.0
sg5
F3.0
sg6
F0.0
sb(dp397
I00
F8.0
sI01
I-58
ss(i__main__
State
p398
(dp399
g3
F-5.0
sg4
F0.0
sg5
F5.0
sg6
F0.0
sb(dp400
I00
F-28.34528
sI01
I-63
ss(i__main__
State
p401
(dp402
g3
F-1.0
sg4
F3.0
sg5
F1.0
sg6
F4.0
sb(dp403
I00
F38.5
sI01
I33
ss(i__main__
State
p404
(dp405
g3
F0.0
sg4
F6.0
sg5
F0.0
sg6
F6.0
sb(dp406
I00
F-15.77
sI01
F18.2
ss(i__main__
State
p407
(dp408
g3
F-3.0
sg4
F5.0
sg5
F3.0
sg6
F-6.0
sb(dp409
I00
I-72
sI01
F39.02
ss(i__main__
State
p410
(dp411
g3
F4.0
sg4
F9.0
sg5
F-4.0
sg6
F0.0
sb(dp412
I00
F0.0
sI01
F-1000.0
ss(i__main__
State
p413
(dp414
g3
F5.0
sg4
F10.0
sg5
F-5.0
sg6
F-4.0
sb(dp415
I00
F71.00702504667001
sI01
F10.600000000000001
ss(i__main__
State
p416
(dp417
g3
F-5.0
sg4
F9.0
sg5
F5.0
sg6
F8.0
sb(dp418
I00
F10.0
sI01
F0.0
ss(i__main__
State
p419
(dp420
g3
F-7.0
sg4
F10.0
sg5
F7.0
sg6
F4.0
sb(dp421
I00
F67.169701
sI01
F6.9
ss(i__main__
State
p422
(dp423
g3
F-4.0
sg4
F4.0
sg5
F4.0
sg6
F6.0
sb(dp424
I00
I-20
sI01
F17.1
ss(i__main__
State
p425
(dp426
g3
F7.0
sg4
F6.0
sg5
F-7.0
sg6
F4.0
sb(dp427
I00
F31.2001262106
sI01
F-58.95
ss(i__main__
State
p428
(dp429
g3
F-1.0
sg4
F1.0
sg5
F1.0
sg6
F6.0
sb(dp430
I00
F58.32
sI01
I-89
ss(i__main__
State
p431
(dp432
g3
F-5.0
sg4
F9.0
sg5
F5.0
sg6
F-8.0
sb(dp433
I00
F71.904355495
sI01
F10.0
ss(i__main__
State
p434
(dp435
g3
F7.0
sg4
F8.0
sg5
F-7.0
sg6
F-4.0
sb(dp436
I00
F151.87858434349076
sI01
F11.0
ss(i__main__
State
p437
(dp438
g3
F2.0
sg4
F7.0
sg5
F-2.0
sg6
F-2.0
sb(dp439
I00
F27.1
sI01
I-49
ss(i__main__
State
p440
(dp441
g3
F5.0
sg4
F9.0
sg5
F-5.0
sg6
F4.0
sb(dp442
I00
F30.0
sI01
F0.0
ss(i__main__
State
p443
(dp444
g3
F7.0
sg4
F2.0
sg5
F-7.0
sg6
F-4.0
sb(dp445
I00
I-37
sI01
F-22.189999999999998
ss(i__main__
State
p446
(dp447
g3
F-4.0
sg4
F3.0
sg5
F4.0
sg6
F-6.0
sb(dp448
I00
F-67.5
sI01
F47.504999999999995
ss(i__main__
State
p449
(dp450
g3
F2.0
sg4
F4.0
sg5
F-2.0
sg6
F-2.0
sb(dp451
I00
I-44
sI01
F-18.799999999999997
ss(i__main__
State
p452
(dp453
g3
F2.0
sg4
F5.0
sg5
F-2.0
sg6
F-6.0
sb(dp454
I00
F17.288896190000003
sI01
I-90
ss(i__main__
State
p455
(dp456
g3
F-7.0
sg4
F4.0
sg5
F7.0
sg6
F2.0
sb(dp457
I00
F-65.6
sI01
F62.978300000000004
ss(i__main__
State
p458
(dp459
g3
F1.0
sg4
F10.0
sg5
F-1.0
sg6
F-2.0
sb(dp460
I00
F-155.421
sI01
F41.6629467
ss(i__main__
State
p461
(dp462
g3
F-8.0
sg4
F10.0
sg5
F8.0
sg6
F-4.0
sb(dp463
I00
F84.32999996650673
sI01
F33.822
ss(i__main__
State
p464
(dp465
g3
F3.0
sg4
F6.0
sg5
F-3.0
sg6
F4.0
sb(dp466
I00
F-73.7
sI01
I-69
ss(i__main__
State
p467
(dp468
g3
F-7.0
sg4
F10.0
sg5
F7.0
sg6
F2.0
sb(dp469
I00
F40.157
sI01
F0.0
ss(i__main__
State
p470
(dp471
g3
F-7.0
sg4
F1.0
sg5
F7.0
sg6
F-8.0
sb(dp472
I00
F-35.5805
sI01
F69.7913816
ss(i__main__
State
p473
(dp474
g3
F-5.0
sg4
F4.0
sg5
F5.0
sg6
F8.0
sb(dp475
I00
I-76
sI01
F-66.3
ss(i__main__
State
p476
(dp477
g3
F-3.0
sg4
F9.0
sg5
F3.0
sg6
F-2.0
sb(dp478
I00
F-90.0
sI01
F53.128859837061185
ss(i__main__
State
p479
(dp480
g3
F-8.0
sg4
F9.0
sg5
F8.0
sg6
F4.0
sb(dp481
I00
F0.0
sI01
F25.883
ss(i__main__
State
p482
(dp483
g3
F4.0
sg4
F7.0
sg5
F-4.0
sg6
F-8.0
sb(dp484
I00
I-68
sI01
F44.440437
ss(i__main__
State
p485
(dp486
g3
F0.0
sg4
F0.0
sg5
F0.0
sg6
F0.0
sb(dp487
I00
F21.375197
sI01
F1.3000000000000007
ss(i__main__
State
p488
(dp489
g3
F4.0
sg4
F9.0
sg5
F-4.0
sg6
F-8.0
sb(dp490
I00
F10.0
sI01
F43.81567
ss(i__main__
State
p491
(dp492
g3
F5.0
sg4
F4.0
sg5
F-5.0
sg6
F4.0
sb(dp493
I00
F32.6894206933
sI01
I-7
ss(i__main__
State
p494
(dp495
g3
F3.0
sg4
F7.0
sg5
F-3.0
sg6
F-2.0
sb(dp496
I00
F44.484739999999995
sI01
F-70.81
ss(i__main__
State
p497
(dp498
g3
F-6.0
sg4
F5.0
sg5
F6.0
sg6
F4.0
sb(dp499
I00
F-23.39
sI01
I-69
ss(i__main__
State
p500
(dp501
g3
F-4.0
sg4
F2.0
sg5
F4.0
sg6
F6.0
sb(dp502
I00
F20.7708
sI01
F38.526120000000006
ss(i__main__
State
p503
(dp504
g3
F5.0
sg4
F5.0
sg5
F-5.0
sg6
F8.0
sb(dp505
I00
F53.621950000000005
sI01
I-41
ss(i__main__
State
p506
(dp507
g3
F4.0
sg4
F7.0
sg5
F-4.0
sg6
F0.0
sb(dp508
I00
F-73.9
sI01
F24.3
ss(i__main__
State
p509
(dp510
g3
F3.0
sg4
F1.0
sg5
F-3.0
sg6
F-2.0
sb(dp511
I00
F-43.6
sI01
F76.48444
ss(i__main__
State
p512
(dp513
g3
F4.0
sg4
F9.0
sg5
F-4.0
sg6
F6.0
sb(dp514
I00
F20.0
sI01
F11.100000000000001
ss(i__main__
State
p515
(dp516
g3
F-8.0
sg4
F4.0
sg5
F8.0
sg6
F-4.0
sb(dp517
I00
F67.8514
sI01
F55.05400000000001
ss(i__main__
State
p518
(dp519
g3
F4.0
sg4
F7.0
sg5
F-4.0
sg6
F6.0
sb(dp520
I00
F52.134130000000006
sI01
I-43
ss(i__main__
State
p521
(dp522
g3
F-6.0
sg4
F9.0
sg5
F6.0
sg6
F-2.0
sb(dp523
I00
F10.0
sI01
F0.0
ss(i__main__
State
p524
(dp525
g3
F2.0
sg4
F9.0
sg5
F-2.0
sg6
F-2.0
sb(dp526
I00
F0.0
sI01
F17.219080612
ss(i__main__
State
p527
(dp528
g3
F8.0
sg4
F4.0
sg5
F-8.0
sg6
F6.0
sb(dp529
I00
F-45.8
sI01
F47.91334020000001
ss(i__main__
State
p530
(dp531
g3
F-3.0
sg4
F10.0
sg5
F3.0
sg6
F-2.0
sb(dp532
I00
F196.63509021165106
sI01
F0.0
ss(i__main__
State
p533
(dp534
g3
F7.0
sg4
F5.0
sg5
F-7.0
sg6
F0.0
sb(dp535
I00
F43.3
sI01
F64.39167
ss(i__main__
State
p536
(dp537
g3
F-6.0
sg4
F0.0
sg5
F6.0
sg6
F-8.0
sb(dp538
I00
F79.759
sI01
F-0.6999999999999993
ss(i__main__
State
p539
(dp540
g3
F6.0
sg4
F6.0
sg5
F-6.0
sg6
F-6.0
sb(dp541
I00
F39.8
sI01
I-39
ss(i__main__
State
p542
(dp543
g3
F6.0
sg4
F2.0
sg5
F-6.0
sg6
F-4.0
sb(dp544
I00
I-58
sI01
F6.858290000000001
ss(i__main__
State
p545
(dp546
g3
F1.0
sg4
F10.0
sg5
F-1.0
sg6
F0.0
sb(dp547
I00
F-320.03000000000003
sI01
F81.01620171719999
ss(i__main__
State
p548
(dp549
g3
F8.0
sg4
F8.0
sg5
F-8.0
sg6
F6.0
sb(dp550
I00
F12.91
sI01
F0.0
ss(i__main__
State
p551
(dp552
g3
F2.0
sg4
F5.0
sg5
F-2.0
sg6
F4.0
sb(dp553
I00
F-32.7112668
sI01
F55.94672
ss(i__main__
State
p554
(dp555
g3
F-3.0
sg4
F2.0
sg5
F3.0
sg6
F-2.0
sb(dp556
I00
F24.9
sI01
I-8
ss(i__main__
State
p557
(dp558
g3
F-6.0
sg4
F5.0
sg5
F6.0
sg6
F-2.0
sb(dp559
I00
I33
sI01
F26.259566109999998
ss(i__main__
State
p560
(dp561
g3
F-5.0
sg4
F8.0
sg5
F5.0
sg6
F-6.0
sb(dp562
I00
F10.0
sI01
F0.0
ss(i__main__
State
p563
(dp564
g3
F-8.0
sg4
F2.0
sg5
F8.0
sg6
F0.0
sb(dp565
I00
F-14.5322
sI01
I-46
ss(i__main__
State
p566
(dp567
g3
F2.0
sg4
F7.0
sg5
F-2.0
sg6
F0.0
sb(dp568
I00
F65.413464546821
sI01
F14.88
ss(i__main__
State
p569
(dp570
g3
F0.0
sg4
F10.0
sg5
F0.0
sg6
F2.0
sb(dp571
I00
F-1899.0
sI01
F-2709.8056
ss(i__main__
State
p572
(dp573
g3
F2.0
sg4
F9.0
sg5
F-2.0
sg6
F8.0
sb(dp574
I00
F20.0
sI01
F0.0
ss(i__main__
State
p575
(dp576
g3
F-2.0
sg4
F7.0
sg5
F2.0
sg6
F2.0
sb(dp577
I00
I-70
sI01
F35.3
ss(i__main__
State
p578
(dp579
g3
F0.0
sg4
F0.0
sg5
F0.0
sg6
F8.0
sb(dp580
I00
I31
sI01
F34.9
ss(i__main__
State
p581
(dp582
g3
F-6.0
sg4
F5.0
sg5
F6.0
sg6
F6.0
sb(dp583
I00
F15.111177455145324
sI01
I0
ss(i__main__
State
p584
(dp585
g3
F5.0
sg4
F10.0
sg5
F-5.0
sg6
F0.0
sb(dp586
I00
F63.45094900000001
sI01
F0.0
ss(i__main__
State
p587
(dp588
g3
F6.0
sg4
F9.0
sg5
F-6.0
sg6
F-8.0
sb(dp589
I00
F22.0
sI01
F0.0
ss(i__main__
State
p590
(dp591
g3
F8.0
sg4
F10.0
sg5
F-8.0
sg6
F-2.0
sb(dp592
I00
F0.0
sI01
F58.7831866373868
ss(i__main__
State
p593
(dp594
g3
F-5.0
sg4
F7.0
sg5
F5.0
sg6
F4.0
sb(dp595
I00
F-38.89
sI01
F65.12073155110001
ss(i__main__
State
p596
(dp597
g3
F2.0
sg4
F2.0
sg5
F-2.0
sg6
F-2.0
sb(dp598
I00
F39.026
sI01
I-2
ss(i__main__
State
p599
(dp600
g3
F-7.0
sg4
F7.0
sg5
F7.0
sg6
F8.0
sb(dp601
I00
F75.0826
sI01
F73.2
ss(i__main__
State
p602
(dp603
g3
F2.0
sg4
F5.0
sg5
F-2.0
sg6
F-8.0
sb(dp604
I00
F46.360029179899996
sI01
F6.089999999999999
ss(i__main__
State
p605
(dp606
g3
F0.0
sg4
F0.0
sg5
F0.0
sg6
F-8.0
sb(dp607
I00
F-26.767859649999995
sI01
I-82
ss(i__main__
State
p608
(dp609
g3
F-1.0
sg4
F8.0
sg5
F1.0
sg6
F0.0
sb(dp610
I00
F10.0
sI01
F23.9
ss(i__main__
State
p611
(dp612
g3
F-6.0
sg4
F9.0
sg5
F6.0
sg6
F-6.0
sb(dp613
I00
F79.990877291
sI01
F0.0
ss(i__main__
State
p614
(dp615
g3
F8.0
sg4
F8.0
sg5
F-8.0
sg6
F-4.0
sb(dp616
I00
F10.0
sI01
F30.71
ss(i__main__
State
p617
(dp618
g3
F6.0
sg4
F7.0
sg5
F-6.0
sg6
F6.0
sb(dp619
I00
I-81
sI01
F-50.64
ss(i__main__
State
p620
(dp621
g3
F-3.0
sg4
F3.0
sg5
F3.0
sg6
F6.0
sb(dp622
I00
F-55.1
sI01
F19.4
ss(i__main__
State
p623
(dp624
g3
F-1.0
sg4
F1.0
sg5
F1.0
sg6
F8.0
sb(dp625
I00
F57.06029399999999
sI01
F-67.0
ss(i__main__
State
p626
(dp627
g3
F-8.0
sg4
F9.0
sg5
F8.0
sg6
F-8.0
sb(dp628
I00
F43.438
sI01
F10.0
ss(i__main__
State
p629
(dp630
g3
F6.0
sg4
F0.0
sg5
F-6.0
sg6
F8.0
sb(dp631
I00
F-52.7791285
sI01
I-95
ss(i__main__
State
p632
(dp633
g3
F3.0
sg4
F2.0
sg5
F-3.0
sg6
F6.0
sb(dp634
I00
I-61
sI01
F30.32
ss(i__main__
State
p635
(dp636
g3
F-3.0
sg4
F9.0
sg5
F3.0
sg6
F6.0
sb(dp637
I00
F69.477
sI01
F0.0
ss(i__main__
State
p638
(dp639
g3
F7.0
sg4
F5.0
sg5
F-7.0
sg6
F-2.0
sb(dp640
I00
F-38.9
sI01
I-84
ss(i__main__
State
p641
(dp642
g3
F0.0
sg4
F1.0
sg5
F0.0
sg6
F6.0
sb(dp643
I00
I78
sI01
F19.6
ss(i__main__
State
p644
(dp645
g3
F-2.0
sg4
F8.0
sg5
F2.0
sg6
F4.0
sb(dp646
I00
F50.004599999999996
sI01
F0.0
ss(i__main__
State
p647
(dp648
g3
F5.0
sg4
F5.0
sg5
F-5.0
sg6
F-2.0
sb(dp649
I00
F-19.429799999999997
sI01
I-59
ss(i__main__
State
p650
(dp651
g3
F-4.0
sg4
F8.0
sg5
F4.0
sg6
F-2.0
sb(dp652
I00
F146.4557070153326
sI01
F-90.0
ss(i__main__
State
p653
(dp654
g3
F0.0
sg4
F7.0
sg5
F0.0
sg6
F4.0
sb(dp655
I00
F64.16048961438099
sI01
I-95
ss(i__main__
State
p656
(dp657
g3
F5.0
sg4
F0.0
sg5
F-5.0
sg6
F-4.0
sb(dp658
I00
F-46.121489999999994
sI01
F-78.02590000000001
ss(i__main__
State
p659
(dp660
g3
F6.0
sg4
F1.0
sg5
F-6.0
sg6
F-4.0
sb(dp661
I00
I2
sI01
F12.07573782048
ss(i__main__
State
p662
(dp663
g3
F-6.0
sg4
F10.0
sg5
F6.0
sg6
F-6.0
sb(dp664
I00
F10.0
sI01
F0.0
ss(i__main__
State
p665
(dp666
g3
F-8.0
sg4
F7.0
sg5
F8.0
sg6
F6.0
sb(dp667
I00
I42
sI01
F91.30820511283564
ss(i__main__
State
p668
(dp669
g3
F-7.0
sg4
F7.0
sg5
F7.0
sg6
F-4.0
sb(dp670
I00
F64.5794552
sI01
I41
ss(i__main__
State
p671
(dp672
g3
F4.0
sg4
F4.0
sg5
F-4.0
sg6
F6.0
sb(dp673
I00
I-26
sI01
F10.5890528809
ss(i__main__
State
p674
(dp675
g3
F1.0
sg4
F6.0
sg5
F-1.0
sg6
F-6.0
sb(dp676
I00
I-56
sI01
F-21.209999999999997
ss(i__main__
State
p677
(dp678
g3
F-1.0
sg4
F4.0
sg5
F1.0
sg6
F4.0
sb(dp679
I00
F45.966599814000006
sI01
F-73.1
ss(i__main__
State
p680
(dp681
g3
F-2.0
sg4
F0.0
sg5
F2.0
sg6
F-6.0
sb(dp682
I00
F41.4
sI01
I-54
ss(i__main__
State
p683
(dp684
g3
F0.0
sg4
F9.0
sg5
F0.0
sg6
F-6.0
sb(dp685
I00
F10.0
sI01
F0.0
ss(i__main__
State
p686
(dp687
g3
F-1.0
sg4
F5.0
sg5
F1.0
sg6
F-8.0
sb(dp688
I00
I-71
sI01
F51.03070662
ss(i__main__
State
p689
(dp690
g3
F-7.0
sg4
F7.0
sg5
F7.0
sg6
F0.0
sb(dp691
I00
F-57.6
sI01
F-73.90298407419999
ss(i__main__
State
p692
(dp693
g3
F-6.0
sg4
F3.0
sg5
F6.0
sg6
F-8.0
sb(dp694
I00
F67.940914
sI01
F58.0
ss(i__main__
State
p695
(dp696
g3
F-3.0
sg4
F8.0
sg5
F3.0
sg6
F-8.0
sb(dp697
I00
F20.0
sI01
F11.11
ss(i__main__
State
p698
(dp699
g3
F-1.0
sg4
F8.0
sg5
F1.0
sg6
F8.0
sb(dp700
I00
F30.0
sI01
F20.1
ss(i__main__
State
p701
(dp702
g3
F2.0
sg4
F2.0
sg5
F-2.0
sg6
F4.0
sb(dp703
I00
F50.138799999999996
sI01
F56.06136
ss(i__main__
State
p704
(dp705
g3
F1.0
sg4
F6.0
sg5
F-1.0
sg6
F4.0
sb(dp706
I00
F-69.38999999999999
sI01
F-11.23
ss(i__main__
State
p707
(dp708
g3
F2.0
sg4
F6.0
sg5
F-2.0
sg6
F4.0
sb(dp709
I00
F-57.3
sI01
F40.32
ss(i__main__
State
p710
(dp711
g3
F-3.0
sg4
F5.0
sg5
F3.0
sg6
F2.0
sb(dp712
I00
I-77
sI01
F42.580281833957756
ss(i__main__
State
p713
(dp714
g3
F5.0
sg4
F8.0
sg5
F-5.0
sg6
F-4.0
sb(dp715
I00
F30.0
sI01
F0.0
ss(i__main__
State
p716
(dp717
g3
F4.0
sg4
F4.0
sg5
F-4.0
sg6
F-4.0
sb(dp718
I00
F-14.299999999999999
sI01
F66.40222999999999
ss(i__main__
State
p719
(dp720
g3
F-6.0
sg4
F1.0
sg5
F6.0
sg6
F-2.0
sb(dp721
I00
F21.717198
sI01
I-27
ss(i__main__
State
p722
(dp723
g3
F-3.0
sg4
F8.0
sg5
F3.0
sg6
F-6.0
sb(dp724
I00
F10.0
sI01
F21.9
ss(i__main__
State
p725
(dp726
g3
F-2.0
sg4
F9.0
sg5
F2.0
sg6
F-8.0
sb(dp727
I00
F11.0
sI01
F14.0
ss(i__main__
State
p728
(dp729
g3
F-8.0
sg4
F8.0
sg5
F8.0
sg6
F2.0
sb(dp730
I00
F90.3074380124
sI01
F0.0
ss(i__main__
State
p731
(dp732
g3
F4.0
sg4
F7.0
sg5
F-4.0
sg6
F8.0
sb(dp733
I00
I-54
sI01
F72.42123205975571
ss(i__main__
State
p734
(dp735
g3
F-4.0
sg4
F0.0
sg5
F4.0
sg6
F0.0
sb(dp736
I00
I-93
sI01
F80.58999999999999
ss(i__main__
State
p737
(dp738
g3
F5.0
sg4
F0.0
sg5
F-5.0
sg6
F-8.0
sb(dp739
I00
F30.733756325
sI01
F14.830000000000002
ss(i__main__
State
p740
(dp741
g3
F7.0
sg4
F5.0
sg5
F-7.0
sg6
F-6.0
sb(dp742
I00
F20.4
sI01
I-89
ss(i__main__
State
p743
(dp744
g3
F2.0
sg4
F8.0
sg5
F-2.0
sg6
F-2.0
sb(dp745
I00
F38.0
sI01
F0.0
ss(i__main__
State
p746
(dp747
g3
F5.0
sg4
F7.0
sg5
F-5.0
sg6
F2.0
sb(dp748
I00
I-20
sI01
F-4.5
ss(i__main__
State
p749
(dp750
g3
F5.0
sg4
F10.0
sg5
F-5.0
sg6
F-6.0
sb(dp751
I00
F69.97875538
sI01
F0.0
ss(i__main__
State
p752
(dp753
g3
F0.0
sg4
F5.0
sg5
F0.0
sg6
F-2.0
sb(dp754
I00
F52.700419800000006
sI01
I-7
ss(i__main__
State
p755
(dp756
g3
F-1.0
sg4
F9.0
sg5
F1.0
sg6
F-4.0
sb(dp757
I00
F20.0
sI01
F0.0
ss(i__main__
State
p758
(dp759
g3
F-2.0
sg4
F7.0
sg5
F2.0
sg6
F6.0
sb(dp760
I00
F-19.0914
sI01
F-44.1
ss(i__main__
State
p761
(dp762
g3
F-2.0
sg4
F1.0
sg5
F2.0
sg6
F4.0
sb(dp763
I00
F34.0163
sI01
F-23.097
ss(i__main__
State
p764
(dp765
g3
F1.0
sg4
F3.0
sg5
F-1.0
sg6
F0.0
sb(dp766
I00
F-13.525451880199995
sI01
I-100
ss(i__main__
State
p767
(dp768
g3
F-3.0
sg4
F9.0
sg5
F3.0
sg6
F-8.0
sb(dp769
I00
F10.0
sI01
F55.566611
ss(i__main__
State
p770
(dp771
g3
F3.0
sg4
F0.0
sg5
F-3.0
sg6
F6.0
sb(dp772
I00
F27.002299999999998
sI01
F48.60246144428039
ss(i__main__
State
p773
(dp774
g3
F6.0
sg4
F1.0
sg5
F-6.0
sg6
F8.0
sb(dp775
I00
F60.5
sI01
I-50
ss(i__main__
State
p776
(dp777
g3
F7.0
sg4
F1.0
sg5
F-7.0
sg6
F2.0
sb(dp778
I00
F85.744523
sI01
I54
ss(i__main__
State
p779
(dp780
g3
F4.0
sg4
F9.0
sg5
F-4.0
sg6
F-2.0
sb(dp781
I00
F-72.7
sI01
F122.95528945574846
ss(i__main__
State
p782
(dp783
g3
F5.0
sg4
F8.0
sg5
F-5.0
sg6
F6.0
sb(dp784
I00
F121.16960110542752
sI01
F0.0
ss(i__main__
State
p785
(dp786
g3
F5.0
sg4
F3.0
sg5
F-5.0
sg6
F-8.0
sb(dp787
I00
F47.9824154
sI01
I-99
ss(i__main__
State
p788
(dp789
g3
F-8.0
sg4
F8.0
sg5
F8.0
sg6
F-6.0
sb(dp790
I00
F12.0
sI01
F113.07496374258598
ss(i__main__
State
p791
(dp792
g3
F-4.0
sg4
F2.0
sg5
F4.0
sg6
F8.0
sb(dp793
I00
F12.335712999999998
sI01
F-42.1481
ss(i__main__
State
p794
(dp795
g3
F-5.0
sg4
F6.0
sg5
F5.0
sg6
F-6.0
sb(dp796
I00
I-67
sI01
F2.82909
ss(i__main__
State
p797
(dp798
g3
F-1.0
sg4
F8.0
sg5
F1.0
sg6
F-2.0
sb(dp799
I00
F20.1
sI01
F0.0
ss(i__main__
State
p800
(dp801
g3
F-6.0
sg4
F8.0
sg5
F6.0
sg6
F-4.0
sb(dp802
I00
F29.9
sI01
F10.0
ss(i__main__
State
p803
(dp804
g3
F3.0
sg4
F8.0
sg5
F-3.0
sg6
F6.0
sb(dp805
I00
F10.0
sI01
F0.0
ss(i__main__
State
p806
(dp807
g3
F-5.0
sg4
F7.0
sg5
F5.0
sg6
F-6.0
sb(dp808
I00
F24.57
sI01
F33.599
ss(i__main__
State
p809
(dp810
g3
F-1.0
sg4
F0.0
sg5
F1.0
sg6
F-6.0
sb(dp811
I00
F-56.18
sI01
F15.079429050000002
ss(i__main__
State
p812
(dp813
g3
F7.0
sg4
F2.0
sg5
F-7.0
sg6
F-6.0
sb(dp814
I00
F21.93
sI01
I-76
ss(i__main__
State
p815
(dp816
g3
F-5.0
sg4
F2.0
sg5
F5.0
sg6
F4.0
sb(dp817
I00
I-88
sI01
F-13.799999999999999
ss(i__main__
State
p818
(dp819
g3
F2.0
sg4
F3.0
sg5
F-2.0
sg6
F0.0
sb(dp820
I00
I21
sI01
F57.1
ss(i__main__
State
p821
(dp822
g3
F2.0
sg4
F3.0
sg5
F-2.0
sg6
F-8.0
sb(dp823
I00
I-98
sI01
F34.748611200000006
ss(i__main__
State
p824
(dp825
g3
F6.0
sg4
F5.0
sg5
F-6.0
sg6
F8.0
sb(dp826
I00
F-34.4
sI01
F-64.2
ss(i__main__
State
p827
(dp828
g3
F8.0
sg4
F1.0
sg5
F-8.0
sg6
F0.0
sb(dp829
I00
I-29
sI01
F3.2600000000000007
ss(i__main__
State
p830
(dp831
g3
F0.0
sg4
F8.0
sg5
F0.0
sg6
F-2.0
sb(dp832
I00
F-2708.0
sI01
F-2000.0
ss(i__main__
State
p833
(dp834
g3
F3.0
sg4
F6.0
sg5
F-3.0
sg6
F-6.0
sb(dp835
I00
F0.10999999999999988
sI01
F12.650850000000002
ss(i__main__
State
p836
(dp837
g3
F-8.0
sg4
F6.0
sg5
F8.0
sg6
F-2.0
sb(dp838
I00
F-57.67004
sI01
F-28.055253199999996
ss(i__main__
State
p839
(dp840
g3
F-2.0
sg4
F10.0
sg5
F2.0
sg6
F-8.0
sb(dp841
I00
F40.0
sI01
F17.285985710000002
ss(i__main__
State
p842
(dp843
g3
F5.0
sg4
F2.0
sg5
F-5.0
sg6
F-6.0
sb(dp844
I00
I-84
sI01
F-45.35
ss(i__main__
State
p845
(dp846
g3
F3.0
sg4
F2.0
sg5
F-3.0
sg6
F2.0
sb(dp847
I00
F60.010476964
sI01
I-82
ss(i__main__
State
p848
(dp849
g3
F-7.0
sg4
F4.0
sg5
F7.0
sg6
F-6.0
sb(dp850
I00
F-45.3506
sI01
I-90
ss(i__main__
State
p851
(dp852
g3
F6.0
sg4
F1.0
sg5
F-6.0
sg6
F0.0
sb(dp853
I00
F-57.01
sI01
I-73
ss(i__main__
State
p854
(dp855
g3
F1.0
sg4
F10.0
sg5
F-1.0
sg6
F6.0
sb(dp856
I00
F10.0
sI01
F0.0
ss(i__main__
State
p857
(dp858
g3
F5.0
sg4
F9.0
sg5
F-5.0
sg6
F2.0
sb(dp859
I00
F20.0
sI01
F0.0
ss(i__main__
State
p860
(dp861
g3
F-4.0
sg4
F7.0
sg5
F4.0
sg6
F-4.0
sb(dp862
I00
F33.204
sI01
I3
ss(i__main__
State
p863
(dp864
g3
F-8.0
sg4
F0.0
sg5
F8.0
sg6
F6.0
sb(dp865
I00
F-31.703
sI01
I-61
ss(i__main__
State
p866
(dp867
g3
F-8.0
sg4
F10.0
sg5
F8.0
sg6
F2.0
sb(dp868
I00
F89.747493396
sI01
F0.0
ss(i__main__
State
p869
(dp870
g3
F0.0
sg4
F2.0
sg5
F0.0
sg6
F4.0
sb(dp871
I00
F-67.7
sI01
F57.843
ss(i__main__
State
p872
(dp873
g3
F-4.0
sg4
F3.0
sg5
F4.0
sg6
F2.0
sb(dp874
I00
I-63
sI01
F59.613787727323974
ss(i__main__
State
p875
(dp876
g3
F-5.0
sg4
F8.0
sg5
F5.0
sg6
F-4.0
sb(dp877
I00
F107.49778587910002
sI01
F0.0
ss(i__main__
State
p878
(dp879
g3
F-8.0
sg4
F8.0
sg5
F8.0
sg6
F0.0
sb(dp880
I00
F61.965590000000006
sI01
F0.0
ss(i__main__
State
p881
(dp882
g3
F6.0
sg4
F10.0
sg5
F-6.0
sg6
F-8.0
sb(dp883
I00
F69.99928658
sI01
F15.3
ss(i__main__
State
p884
(dp885
g3
F6.0
sg4
F1.0
sg5
F-6.0
sg6
F-6.0
sb(dp886
I00
F35.0
sI01
I-51
ss(i__main__
State
p887
(dp888
g3
F3.0
sg4
F3.0
sg5
F-3.0
sg6
F8.0
sb(dp889
I00
F-50.419898999999994
sI01
F27.13239778584086
ss(i__main__
State
p890
(dp891
g3
F0.0
sg4
F4.0
sg5
F0.0
sg6
F-6.0
sb(dp892
I00
F-15.009074314432464
sI01
I-85
ss(i__main__
State
p893
(dp894
g3
F5.0
sg4
F3.0
sg5
F-5.0
sg6
F4.0
sb(dp895
I00
F14.600000000000001
sI01
I9
ss(i__main__
State
p896
(dp897
g3
F5.0
sg4
F6.0
sg5
F-5.0
sg6
F-4.0
sb(dp898
I00
F72.1
sI01
I83
ss(i__main__
State
p899
(dp900
g3
F7.0
sg4
F4.0
sg5
F-7.0
sg6
F-6.0
sb(dp901
I00
F20.4
sI01
I16
ss(i__main__
State
p902
(dp903
g3
F-4.0
sg4
F2.0
sg5
F4.0
sg6
F0.0
sb(dp904
I00
F15.545
sI01
I-77
ss(i__main__
State
p905
(dp906
g3
F-5.0
sg4
F5.0
sg5
F5.0
sg6
F-4.0
sb(dp907
I00
F-55.6112
sI01
F55.17
ss(i__main__
State
p908
(dp909
g3
F8.0
sg4
F8.0
sg5
F-8.0
sg6
F0.0
sb(dp910
I00
F48.15332755
sI01
F22.46
ss(i__main__
State
p911
(dp912
g3
F-6.0
sg4
F7.0
sg5
F6.0
sg6
F2.0
sb(dp913
I00
F-54.5
sI01
F14.380148838155401
ss(i__main__
State
p914
(dp915
g3
F7.0
sg4
F10.0
sg5
F-7.0
sg6
F-2.0
sb(dp916
I00
F156.293790488957
sI01
F64.453781
ss(i__main__
State
p917
(dp918
g3
F7.0
sg4
F3.0
sg5
F-7.0
sg6
F-2.0
sb(dp919
I00
F70.18769999999999
sI01
F-84.6
ss(i__main__
State
p920
(dp921
g3
F-6.0
sg4
F0.0
sg5
F6.0
sg6
F4.0
sb(dp922
I00
I-65
sI01
F50.13637
ss(i__main__
State
p923
(dp924
g3
F-6.0
sg4
F9.0
sg5
F6.0
sg6
F4.0
sb(dp925
I00
F10.0
sI01
F13.999400000000001
ss(i__main__
State
p926
(dp927
g3
F4.0
sg4
F2.0
sg5
F-4.0
sg6
F-4.0
sb(dp928
I00
I-1
sI01
F49.91503
ss(i__main__
State
p929
(dp930
g3
F-8.0
sg4
F1.0
sg5
F8.0
sg6
F-6.0
sb(dp931
I00
I-11
sI01
F23.0815
ss(i__main__
State
p932
(dp933
g3
F7.0
sg4
F8.0
sg5
F-7.0
sg6
F6.0
sb(dp934
I00
F10.0
sI01
F127.86943533369902
ss(i__main__
State
p935
(dp936
g3
F8.0
sg4
F2.0
sg5
F-8.0
sg6
F4.0
sb(dp937
I00
I-21
sI01
F19.05
ss(i__main__
State
p938
(dp939
g3
F-7.0
sg4
F9.0
sg5
F7.0
sg6
F-6.0
sb(dp940
I00
F21.200873992000002
sI01
F24.427565200000004
ss(i__main__
State
p941
(dp942
g3
F-2.0
sg4
F10.0
sg5
F2.0
sg6
F4.0
sb(dp943
I00
F32.331
sI01
F0.0
ss(i__main__
State
p944
(dp945
g3
F-8.0
sg4
F9.0
sg5
F8.0
sg6
F-6.0
sb(dp946
I00
F134.69572341549576
sI01
F20.705807444
ss(i__main__
State
p947
(dp948
g3
F-4.0
sg4
F0.0
sg5
F4.0
sg6
F-4.0
sb(dp949
I00
F-25.8
sI01
F63.716733239203585
ss(i__main__
State
p950
(dp951
g3
F-5.0
sg4
F9.0
sg5
F5.0
sg6
F6.0
sb(dp952
I00
F101.9920016967804
sI01
F0.0
ss(i__main__
State
p953
(dp954
g3
F8.0
sg4
F8.0
sg5
F-8.0
sg6
F8.0
sb(dp955
I00
F40.0
sI01
F156.66552881600012
ss(i__main__
State
p956
(dp957
g3
F4.0
sg4
F5.0
sg5
F-4.0
sg6
F-4.0
sb(dp958
I00
F-61.9
sI01
I-100
ss(i__main__
State
p959
(dp960
g3
F-2.0
sg4
F6.0
sg5
F2.0
sg6
F-6.0
sb(dp961
I00
F42.85551132
sI01
F-37.2723338582
ss(i__main__
State
p962
(dp963
g3
F-1.0
sg4
F2.0
sg5
F1.0
sg6
F8.0
sb(dp964
I00
F83.72599999999998
sI01
I13
ss(i__main__
State
p965
(dp966
g3
F6.0
sg4
F8.0
sg5
F-6.0
sg6
F-8.0
sb(dp967
I00
F22.0
sI01
F21.9
ss(i__main__
State
p968
(dp969
g3
F7.0
sg4
F1.0
sg5
F-7.0
sg6
F-6.0
sb(dp970
I00
F2.3944460000000003
sI01
F44.4863
ss(i__main__
State
p971
(dp972
g3
F-1.0
sg4
F7.0
sg5
F1.0
sg6
F-8.0
sb(dp973
I00
F50.12260618412542
sI01
F-62.1
ss(i__main__
State
p974
(dp975
g3
F-3.0
sg4
F5.0
sg5
F3.0
sg6
F4.0
sb(dp976
I00
F-57.9
sI01
F64.42407890999999
ss(i__main__
State
p977
(dp978
g3
F4.0
sg4
F1.0
sg5
F-4.0
sg6
F4.0
sb(dp979
I00
F31.9824
sI01
F29.33
ss(i__main__
State
p980
(dp981
g3
F2.0
sg4
F3.0
sg5
F-2.0
sg6
F2.0
sb(dp982
I00
I-84
sI01
F9.0
ss(i__main__
State
p983
(dp984
g3
F7.0
sg4
F4.0
sg5
F-7.0
sg6
F-2.0
sb(dp985
I00
I-13
sI01
F46.15
ss(i__main__
State
p986
(dp987
g3
F3.0
sg4
F0.0
sg5
F-3.0
sg6
F-4.0
sb(dp988
I00
F-57.0
sI01
F26.895576494000007
ss(i__main__
State
p989
(dp990
g3
F-3.0
sg4
F9.0
sg5
F3.0
sg6
F8.0
sb(dp991
I00
F74.59300399
sI01
F0.0
ss(i__main__
State
p992
(dp993
g3
F2.0
sg4
F10.0
sg5
F-2.0
sg6
F6.0
sb(dp994
I00
F43.839
sI01
F24.420790000000004
ss(i__main__
State
p995
(dp996
g3
F6.0
sg4
F6.0
sg5
F-6.0
sg6
F0.0
sb(dp997
I00
I30
sI01
F53.5
ss(i__main__
State
p998
(dp999
g3
F7.0
sg4
F9.0
sg5
F-7.0
sg6
F4.0
sb(dp1000
I00
F0.0
sI01
F30.0
ss(i__main__
State
p1001
(dp1002
g3
F-6.0
sg4
F7.0
sg5
F6.0
sg6
F-6.0
sb(dp1003
I00
F-73.4
sI01
F63.31
ss(i__main__
State
p1004
(dp1005
g3
F6.0
sg4
F8.0
sg5
F-6.0
sg6
F-4.0
sb(dp1006
I00
F50.9
sI01
F0.0
ss(i__main__
State
p1007
(dp1008
g3
F-2.0
sg4
F6.0
sg5
F2.0
sg6
F8.0
sb(dp1009
I00
F12.644299999999998
sI01
F-8.801692375786999
ss(i__main__
State
p1010
(dp1011
g3
F-2.0
sg4
F5.0
sg5
F2.0
sg6
F-6.0
sb(dp1012
I00
I-98
sI01
F4.36719
ss(i__main__
State
p1013
(dp1014
g3
F-2.0
sg4
F8.0
sg5
F2.0
sg6
F-8.0
sb(dp1015
I00
F29.1
sI01
F10.0
ss(i__main__
State
p1016
(dp1017
g3
F-1.0
sg4
F6.0
sg5
F1.0
sg6
F-2.0
sb(dp1018
I00
F-20.505
sI01
F67.6478994533057
ss(i__main__
State
p1019
(dp1020
g3
F5.0
sg4
F4.0
sg5
F-5.0
sg6
F-2.0
sb(dp1021
I00
F48.753169654301274
sI01
I38
ss(i__main__
State
p1022
(dp1023
g3
F1.0
sg4
F5.0
sg5
F-1.0
sg6
F-2.0
sb(dp1024
I00
F74.3341393312
sI01
F-46.76544499999999
ss(i__main__
State
p1025
(dp1026
g3
F-2.0
sg4
F7.0
sg5
F2.0
sg6
F8.0
sb(dp1027
I00
F41.27531480567001
sI01
F15.5
ss(i__main__
State
p1028
(dp1029
g3
F7.0
sg4
F4.0
sg5
F-7.0
sg6
F4.0
sb(dp1030
I00
F42.63
sI01
I49
ss(i__main__
State
p1031
(dp1032
g3
F5.0
sg4
F5.0
sg5
F-5.0
sg6
F2.0
sb(dp1033
I00
F56.1
sI01
I-96
ss(i__main__
State
p1034
(dp1035
g3
F-5.0
sg4
F5.0
sg5
F5.0
sg6
F8.0
sb(dp1036
I00
F-31.05
sI01
F95.4
ss(i__main__
State
p1037
(dp1038
g3
F-2.0
sg4
F1.0
sg5
F2.0
sg6
F2.0
sb(dp1039
I00
I-92
sI01
F14.9
ss(i__main__
State
p1040
(dp1041
g3
F2.0
sg4
F0.0
sg5
F-2.0
sg6
F-4.0
sb(dp1042
I00
F30.6
sI01
F55.6
ss(i__main__
State
p1043
(dp1044
g3
F4.0
sg4
F4.0
sg5
F-4.0
sg6
F8.0
sb(dp1045
I00
F-58.224098999999995
sI01
I-89
ss(i__main__
State
p1046
(dp1047
g3
F-5.0
sg4
F3.0
sg5
F5.0
sg6
F-6.0
sb(dp1048
I00
F22.076080624
sI01
I-57
ss(i__main__
State
p1049
(dp1050
g3
F-5.0
sg4
F2.0
sg5
F5.0
sg6
F-8.0
sb(dp1051
I00
I-98
sI01
F1.080517
ss(i__main__
State
p1052
(dp1053
g3
F-8.0
sg4
F5.0
sg5
F8.0
sg6
F8.0
sb(dp1054
I00
I-94
sI01
F-65.28661000000001
ss(i__main__
State
p1055
(dp1056
g3
F6.0
sg4
F10.0
sg5
F-6.0
sg6
F0.0
sb(dp1057
I00
F153.86720152655846
sI01
F11.25952056
ss(i__main__
State
p1058
(dp1059
g3
F-3.0
sg4
F2.0
sg5
F3.0
sg6
F-4.0
sb(dp1060
I00
I26
sI01
F56.7
ss(i__main__
State
p1061
(dp1062
g3
F3.0
sg4
F10.0
sg5
F-3.0
sg6
F2.0
sb(dp1063
I00
F10.0
sI01
F0.0
ss(i__main__
State
p1064
(dp1065
g3
F8.0
sg4
F10.0
sg5
F-8.0
sg6
F2.0
sb(dp1066
I00
F43.53042
sI01
F0.0
ss(i__main__
State
p1067
(dp1068
g3
F1.0
sg4
F4.0
sg5
F-1.0
sg6
F-4.0
sb(dp1069
I00
F91.45
sI01
F-53.74053
ss(i__main__
State
p1070
(dp1071
g3
F4.0
sg4
F5.0
sg5
F-4.0
sg6
F4.0
sb(dp1072
I00
I-32
sI01
F2.630000000000001
ss(i__main__
State
p1073
(dp1074
g3
F-1.0
sg4
F5.0
sg5
F1.0
sg6
F2.0
sb(dp1075
I00
F74.34943698299998
sI01
F-91.64
ss(i__main__
State
p1076
(dp1077
g3
F8.0
sg4
F5.0
sg5
F-8.0
sg6
F-2.0
sb(dp1078
I00
F5.3100000000000005
sI01
F23.86
ss(i__main__
State
p1079
(dp1080
g3
F0.0
sg4
F4.0
sg5
F0.0
sg6
F8.0
sb(dp1081
I00
F12.407500000000002
sI01
F-8.86
ss(i__main__
State
p1082
(dp1083
g3
F7.0
sg4
F8.0
sg5
F-7.0
sg6
F-8.0
sb(dp1084
I00
F30.0
sI01
F39.01796472479141
ss(i__main__
State
p1085
(dp1086
g3
F-5.0
sg4
F9.0
sg5
F5.0
sg6
F-4.0
sb(dp1087
I00
F10.0
sI01
F48.3567971
ss(i__main__
State
p1088
(dp1089
g3
F4.0
sg4
F0.0
sg5
F-4.0
sg6
F-8.0
sb(dp1090
I00
F43.887
sI01
I-34
ss(i__main__
State
p1091
(dp1092
g3
F4.0
sg4
F3.0
sg5
F-4.0
sg6
F-6.0
sb(dp1093
I00
F1.6800000000000006
sI01
F47.144828
ss(i__main__
State
p1094
(dp1095
g3
F-2.0
sg4
F6.0
sg5
F2.0
sg6
F0.0
sb(dp1096
I00
I-68
sI01
F-35.33189
ss(i__main__
State
p1097
(dp1098
g3
F8.0
sg4
F0.0
sg5
F-8.0
sg6
F8.0
sb(dp1099
I00
F-32.61617
sI01
I-95
ss(i__main__
State
p1100
(dp1101
g3
F8.0
sg4
F0.0
sg5
F-8.0
sg6
F-2.0
sb(dp1102
I00
F-63.521970182340155
sI01
F57.918933
ss(i__main__
State
p1103
(dp1104
g3
F8.0
sg4
F4.0
sg5
F-8.0
sg6
F4.0
sb(dp1105
I00
F35.6
sI01
F-62.589999999999996
ss(i__main__
State
p1106
(dp1107
g3
F-6.0
sg4
F0.0
sg5
F6.0
sg6
F0.0
sb(dp1108
I00
I-95
sI01
F-38.291414
ss(i__main__
State
p1109
(dp1110
g3
F-2.0
sg4
F7.0
sg5
F2.0
sg6
F0.0
sb(dp1111
I00
F52.984
sI01
F67.79716166689957
ss(i__main__
State
p1112
(dp1113
g3
F1.0
sg4
F9.0
sg5
F-1.0
sg6
F-6.0
sb(dp1114
I00
F22.17
sI01
F0.0
ss(i__main__
State
p1115
(dp1116
g3
F-4.0
sg4
F7.0
sg5
F4.0
sg6
F2.0
sb(dp1117
I00
F78.247
sI01
I58
ss(i__main__
State
p1118
(dp1119
g3
F-7.0
sg4
F1.0
sg5
F7.0
sg6
F-4.0
sb(dp1120
I00
F60.9
sI01
I-74
ss(i__main__
State
p1121
(dp1122
g3
F-3.0
sg4
F2.0
sg5
F3.0
sg6
F4.0
sb(dp1123
I00
F-10.04
sI01
F86.1
ss(i__main__
State
p1124
(dp1125
g3
F0.0
sg4
F3.0
sg5
F0.0
sg6
F-6.0
sb(dp1126
I00
I-43
sI01
F4.3195153247637315
ss(i__main__
State
p1127
(dp1128
g3
F8.0
sg4
F9.0
sg5
F-8.0
sg6
F2.0
sb(dp1129
I00
F21.9
sI01
F0.0
ss(i__main__
State
p1130
(dp1131
g3
F1.0
sg4
F8.0
sg5
F-1.0
sg6
F-8.0
sb(dp1132
I00
F10.0
sI01
F0.0
ss(i__main__
State
p1133
(dp1134
g3
F4.0
sg4
F8.0
sg5
F-4.0
sg6
F2.0
sb(dp1135
I00
F174.24818645049868
sI01
F62.686526114058005
ss(i__main__
State
p1136
(dp1137
g3
F-3.0
sg4
F3.0
sg5
F3.0
sg6
F-2.0
sb(dp1138
I00
F1.2
sI01
I-13
ss(i__main__
State
p1139
(dp1140
g3
F5.0
sg4
F7.0
sg5
F-5.0
sg6
F4.0
sb(dp1141
I00
I-4
sI01
F14.4
ss(i__main__
State
p1142
(dp1143
g3
F-6.0
sg4
F6.0
sg5
F6.0
sg6
F-8.0
sb(dp1144
I00
F60.5
sI01
I59
ss(i__main__
State
p1145
(dp1146
g3
F-4.0
sg4
F5.0
sg5
F4.0
sg6
F-2.0
sb(dp1147
I00
I14
sI01
F-40.2
ss(i__main__
State
p1148
(dp1149
g3
F2.0
sg4
F6.0
sg5
F-2.0
sg6
F2.0
sb(dp1150
I00
F37.656000000000006
sI01
F34.2
ss(i__main__
State
p1151
(dp1152
g3
F-5.0
sg4
F7.0
sg5
F5.0
sg6
F8.0
sb(dp1153
I00
F56.82940699999999
sI01
F6.644275652
ss(i__main__
State
p1154
(dp1155
g3
F6.0
sg4
F9.0
sg5
F-6.0
sg6
F2.0
sb(dp1156
I00
F20.0
sI01
F10.0
ss(i__main__
State
p1157
(dp1158
g3
F-7.0
sg4
F5.0
sg5
F7.0
sg6
F6.0
sb(dp1159
I00
I7
sI01
F18.607000000000003
ss(i__main__
State
p1160
(dp1161
g3
F-8.0
sg4
F7.0
sg5
F8.0
sg6
F-4.0
sb(dp1162
I00
F74.11900000000001
sI01
I67
ss(i__main__
State
p1163
(dp1164
g3
F0.0
sg4
F4.0
sg5
F0.0
sg6
F0.0
sb(dp1165
I00
F86.4
sI01
I-83
ss(i__main__
State
p1166
(dp1167
g3
F-1.0
sg4
F10.0
sg5
F1.0
sg6
F-6.0
sb(dp1168
I00
F15.00846
sI01
F28.633630000000004
ss(i__main__
State
p1169
(dp1170
g3
F-8.0
sg4
F1.0
sg5
F8.0
sg6
F0.0
sb(dp1171
I00
I19
sI01
F-26.2
ss(i__main__
State
p1172
(dp1173
g3
F3.0
sg4
F3.0
sg5
F-3.0
sg6
F6.0
sb(dp1174
I00
F37.503445450065946
sI01
F-59.84121
ss(i__main__
State
p1175
(dp1176
g3
F-6.0
sg4
F9.0
sg5
F6.0
sg6
F-4.0
sb(dp1177
I00
F11.0
sI01
F58.241494
ss(i__main__
State
p1178
(dp1179
g3
F8.0
sg4
F7.0
sg5
F-8.0
sg6
F4.0
sb(dp1180
I00
F-11.1
sI01
F72.05767897398
ss(i__main__
State
p1181
(dp1182
g3
F-4.0
sg4
F6.0
sg5
F4.0
sg6
F-2.0
sb(dp1183
I00
F75.158317
sI01
F40.5
ss(i__main__
State
p1184
(dp1185
g3
F-4.0
sg4
F3.0
sg5
F4.0
sg6
F-2.0
sb(dp1186
I00
I90
sI01
F-1.0816000000000008
ss(i__main__
State
p1187
(dp1188
g3
F6.0
sg4
F2.0
sg5
F-6.0
sg6
F-8.0
sb(dp1189
I00
F-52.7
sI01
I-88
ss(i__main__
State
p1190
(dp1191
g3
F-7.0
sg4
F4.0
sg5
F7.0
sg6
F6.0
sb(dp1192
I00
F-37.995999999999995
sI01
F2.7310699999999972
ss(i__main__
State
p1193
(dp1194
g3
F3.0
sg4
F5.0
sg5
F-3.0
sg6
F-2.0
sb(dp1195
I00
F16.769686590000003
sI01
I-42
ss(i__main__
State
p1196
(dp1197
g3
F6.0
sg4
F8.0
sg5
F-6.0
sg6
F-6.0
sb(dp1198
I00
F30.0
sI01
F0.0
ss(i__main__
State
p1199
(dp1200
g3
F-8.0
sg4
F9.0
sg5
F8.0
sg6
F2.0
sb(dp1201
I00
F38.1
sI01
F0.0
ss(i__main__
State
p1202
(dp1203
g3
F2.0
sg4
F6.0
sg5
F-2.0
sg6
F-4.0
sb(dp1204
I00
F-48.6
sI01
F-7.9
ss(i__main__
State
p1205
(dp1206
g3
F4.0
sg4
F7.0
sg5
F-4.0
sg6
F2.0
sb(dp1207
I00
I-25
sI01
F77.34291802507909
ss(i__main__
State
p1208
(dp1209
g3
F-7.0
sg4
F10.0
sg5
F7.0
sg6
F6.0
sb(dp1210
I00
F116.15744351582481
sI01
F37.68533000000001
ss(i__main__
State
p1211
(dp1212
g3
F1.0
sg4
F1.0
sg5
F-1.0
sg6
F8.0
sb(dp1213
I00
I44
sI01
F97.28999999999999
ss(i__main__
State
p1214
(dp1215
g3
F-5.0
sg4
F7.0
sg5
F5.0
sg6
F-4.0
sb(dp1216
I00
F-22.14
sI01
I-97
ss(i__main__
State
p1217
(dp1218
g3
F-8.0
sg4
F1.0
sg5
F8.0
sg6
F2.0
sb(dp1219
I00
F0.7253594000000012
sI01
F-55.5
ss(i__main__
State
p1220
(dp1221
g3
F-4.0
sg4
F10.0
sg5
F4.0
sg6
F2.0
sb(dp1222
I00
F0.0
sI01
F35.323
ss(i__main__
State
p1223
(dp1224
g3
F-4.0
sg4
F4.0
sg5
F4.0
sg6
F-2.0
sb(dp1225
I00
F-33.053072
sI01
I-100
ss(i__main__
State
p1226
(dp1227
g3
F3.0
sg4
F6.0
sg5
F-3.0
sg6
F-2.0
sb(dp1228
I00
F-56.5375
sI01
F34.333999999999996
ss(i__main__
State
p1229
(dp1230
g3
F0.0
sg4
F8.0
sg5
F0.0
sg6
F4.0
sb(dp1231
I00
F-2707.1
sI01
F-2703.03
ss(i__main__
State
p1232
(dp1233
g3
F-5.0
sg4
F7.0
sg5
F5.0
sg6
F0.0
sb(dp1234
I00
I99
sI01
F26.671
ss(i__main__
State
p1235
(dp1236
g3
F-8.0
sg4
F9.0
sg5
F8.0
sg6
F8.0
sb(dp1237
I00
F30.27421
sI01
F0.0
ss(i__main__
State
p1238
(dp1239
g3
F6.0
sg4
F7.0
sg5
F-6.0
sg6
F-4.0
sb(dp1240
I00
F-2.4299999999999997
sI01
F-51.9
ss(i__main__
State
p1241
(dp1242
g3
F1.0
sg4
F9.0
sg5
F-1.0
sg6
F2.0
sb(dp1243
I00
F20.1
sI01
F0.0
ss(i__main__
State
p1244
(dp1245
g3
F-4.0
sg4
F7.0
sg5
F4.0
sg6
F4.0
sb(dp1246
I00
F-84.2
sI01
F-13.508578900000003
ss(i__main__
State
p1247
(dp1248
g3
F-7.0
sg4
F10.0
sg5
F7.0
sg6
F-6.0
sb(dp1249
I00
F97.57890392162666
sI01
F16.623450000000002
ss(i__main__
State
p1250
(dp1251
g3
F3.0
sg4
F5.0
sg5
F-3.0
sg6
F2.0
sb(dp1252
I00
F8.436259
sI01
F-57.214
ss(i__main__
State
p1253
(dp1254
g3
F8.0
sg4
F9.0
sg5
F-8.0
sg6
F0.0
sb(dp1255
I00
F-1000.0
sI01
F-1897.1
ss(i__main__
State
p1256
(dp1257
g3
F6.0
sg4
F4.0
sg5
F-6.0
sg6
F-8.0
sb(dp1258
I00
F72.17694999999999
sI01
F-73.95
ss(i__main__
State
p1259
(dp1260
g3
F3.0
sg4
F9.0
sg5
F-3.0
sg6
F-6.0
sb(dp1261
I00
F11.990000000000002
sI01
F0.0
ss(i__main__
State
p1262
(dp1263
g3
F-2.0
sg4
F10.0
sg5
F2.0
sg6
F8.0
sb(dp1264
I00
F20.200000000000003
sI01
F0.0
ss(i__main__
State
p1265
(dp1266
g3
F4.0
sg4
F10.0
sg5
F-4.0
sg6
F4.0
sb(dp1267
I00
F20.0
sI01
F122.36942527349784
ss(i__main__
State
p1268
(dp1269
g3
F3.0
sg4
F0.0
sg5
F-3.0
sg6
F-6.0
sb(dp1270
I00
F38.46
sI01
F-30.9
ss(i__main__
State
p1271
(dp1272
g3
F8.0
sg4
F1.0
sg5
F-8.0
sg6
F-8.0
sb(dp1273
I00
I48
sI01
F59.0
ss(i__main__
State
p1274
(dp1275
g3
F6.0
sg4
F3.0
sg5
F-6.0
sg6
F-4.0
sb(dp1276
I00
F-76.33623776
sI01
F65.60845155907228
ss(i__main__
State
p1277
(dp1278
g3
F5.0
sg4
F5.0
sg5
F-5.0
sg6
F-6.0
sb(dp1279
I00
I-72
sI01
F28.495
ss(i__main__
State
p1280
(dp1281
g3
F-4.0
sg4
F8.0
sg5
F4.0
sg6
F-6.0
sb(dp1282
I00
F0.0
sI01
F31.62301
ss(i__main__
State
p1283
(dp1284
g3
F1.0
sg4
F2.0
sg5
F-1.0
sg6
F4.0
sb(dp1285
I00
F80.8518
sI01
I-26
ss(i__main__
State
p1286
(dp1287
g3
F-5.0
sg4
F0.0
sg5
F5.0
sg6
F2.0
sb(dp1288
I00
I1
sI01
F18.001418590532
ss(i__main__
State
p1289
(dp1290
g3
F3.0
sg4
F10.0
sg5
F-3.0
sg6
F0.0
sb(dp1291
I00
F129.60483616953968
sI01
F40.4638380242
ss(i__main__
State
p1292
(dp1293
g3
F8.0
sg4
F3.0
sg5
F-8.0
sg6
F8.0
sb(dp1294
I00
F41.67143999999999
sI01
I10
ss(i__main__
State
p1295
(dp1296
g3
F-2.0
sg4
F0.0
sg5
F2.0
sg6
F8.0
sb(dp1297
I00
F72.0
sI01
I15
ss(i__main__
State
p1298
(dp1299
g3
F-2.0
sg4
F10.0
sg5
F2.0
sg6
F2.0
sb(dp1300
I00
F119.17900314729195
sI01
F4.765999999999999
ss(i__main__
State
p1301
(dp1302
g3
F8.0
sg4
F5.0
sg5
F-8.0
sg6
F-6.0
sb(dp1303
I00
F-63.3
sI01
F84.91
ss(i__main__
State
p1304
(dp1305
g3
F1.0
sg4
F5.0
sg5
F-1.0
sg6
F6.0
sb(dp1306
I00
F-62.5
sI01
F41.10120013435376
ss(i__main__
State
p1307
(dp1308
g3
F-2.0
sg4
F2.0
sg5
F2.0
sg6
F2.0
sb(dp1309
I00
F-9.39
sI01
F77.4
ss(i__main__
State
p1310
(dp1311
g3
F-2.0
sg4
F3.0
sg5
F2.0
sg6
F-6.0
sb(dp1312
I00
I-63
sI01
F-55.682
ss(i__main__
State
p1313
(dp1314
g3
F-7.0
sg4
F1.0
sg5
F7.0
sg6
F6.0
sb(dp1315
I00
I28
sI01
F30.960397029999996
ss(i__main__
State
p1316
(dp1317
g3
F1.0
sg4
F7.0
sg5
F-1.0
sg6
F6.0
sb(dp1318
I00
I-4
sI01
F-253.5180000000001
ss(i__main__
State
p1319
(dp1320
g3
F1.0
sg4
F0.0
sg5
F-1.0
sg6
F8.0
sb(dp1321
I00
F19.80585
sI01
I-32
ss(i__main__
State
p1322
(dp1323
g3
F6.0
sg4
F0.0
sg5
F-6.0
sg6
F2.0
sb(dp1324
I00
I-15
sI01
F40.97442737481757
ss(i__main__
State
p1325
(dp1326
g3
F-7.0
sg4
F10.0
sg5
F7.0
sg6
F-2.0
sb(dp1327
I00
F32.074439999999996
sI01
F47.3302776
ss(i__main__
State
p1328
(dp1329
g3
F-6.0
sg4
F8.0
sg5
F6.0
sg6
F0.0
sb(dp1330
I00
F20.1
sI01
F11.0
ss(i__main__
State
p1331
(dp1332
g3
F3.0
sg4
F2.0
sg5
F-3.0
sg6
F-2.0
sb(dp1333
I00
I-17
sI01
F33.4
ss(i__main__
State
p1334
(dp1335
g3
F5.0
sg4
F4.0
sg5
F-5.0
sg6
F-8.0
sb(dp1336
I00
F-37.653
sI01
I-78
ss(i__main__
State
p1337
(dp1338
g3
F2.0
sg4
F2.0
sg5
F-2.0
sg6
F-8.0
sb(dp1339
I00
I-15
sI01
F-66.5
ss(i__main__
State
p1340
(dp1341
g3
F-3.0
sg4
F6.0
sg5
F3.0
sg6
F6.0
sb(dp1342
I00
I-63
sI01
F-26.327975000000002
ss(i__main__
State
p1343
(dp1344
g3
F-7.0
sg4
F7.0
sg5
F7.0
sg6
F-6.0
sb(dp1345
I00
F72.7904
sI01
F-41.6292
ss(i__main__
State
p1346
(dp1347
g3
F4.0
sg4
F2.0
sg5
F-4.0
sg6
F8.0
sb(dp1348
I00
I-60
sI01
F-41.01
ss(i__main__
State
p1349
(dp1350
g3
F4.0
sg4
F4.0
sg5
F-4.0
sg6
F0.0
sb(dp1351
I00
F32.492898145585436
sI01
F27.685962000000004
ss(i__main__
State
p1352
(dp1353
g3
F-4.0
sg4
F6.0
sg5
F4.0
sg6
F6.0
sb(dp1354
I00
I-3
sI01
F61.255353469999996
ss(i__main__
State
p1355
(dp1356
g3
F-7.0
sg4
F8.0
sg5
F7.0
sg6
F2.0
sb(dp1357
I00
F23.738
sI01
F0.0
ss(i__main__
State
p1358
(dp1359
g3
F1.0
sg4
F8.0
sg5
F-1.0
sg6
F4.0
sb(dp1360
I00
F-72.80000000000001
sI01
F22.1
ss(i__main__
State
p1361
(dp1362
g3
F4.0
sg4
F3.0
sg5
F-4.0
sg6
F-4.0
sb(dp1363
I00
I-5
sI01
F78.74
ss(i__main__
State
p1364
(dp1365
g3
F-3.0
sg4
F1.0
sg5
F3.0
sg6
F2.0
sb(dp1366
I00
I78
sI01
F98.22
ss(i__main__
State
p1367
(dp1368
g3
F-3.0
sg4
F10.0
sg5
F3.0
sg6
F-6.0
sb(dp1369
I00
F49.0
sI01
F0.0
ss(i__main__
State
p1370
(dp1371
g3
F2.0
sg4
F4.0
sg5
F-2.0
sg6
F-6.0
sb(dp1372
I00
F-46.25
sI01
I39
ss(i__main__
State
p1373
(dp1374
g3
F-8.0
sg4
F4.0
sg5
F8.0
sg6
F8.0
sb(dp1375
I00
I-56
sI01
F51.327999999999996
ss(i__main__
State
p1376
(dp1377
g3
F-7.0
sg4
F3.0
sg5
F7.0
sg6
F4.0
sb(dp1378
I00
I-78
sI01
F96.2
ss(i__main__
State
p1379
(dp1380
g3
F-8.0
sg4
F10.0
sg5
F8.0
sg6
F-8.0
sb(dp1381
I00
F11.0
sI01
F0.0
ss(i__main__
State
p1382
(dp1383
g3
F3.0
sg4
F10.0
sg5
F-3.0
sg6
F8.0
sb(dp1384
I00
F22.89
sI01
F0.0
ss(i__main__
State
p1385
(dp1386
g3
F7.0
sg4
F0.0
sg5
F-7.0
sg6
F4.0
sb(dp1387
I00
F93.01
sI01
I-88
ss(i__main__
State
p1388
(dp1389
g3
F0.0
sg4
F5.0
sg5
F0.0
sg6
F6.0
sb(dp1390
I00
I-44
sI01
F60.6
ss(i__main__
State
p1391
(dp1392
g3
F1.0
sg4
F1.0
sg5
F-1.0
sg6
F-8.0
sb(dp1393
I00
F9.992643219
sI01
F-29.826999999999998
ss(i__main__
State
p1394
(dp1395
g3
F-5.0
sg4
F6.0
sg5
F5.0
sg6
F4.0
sb(dp1396
I00
F64.88434432058433
sI01
F53.269999999999996
ss(i__main__
State
p1397
(dp1398
g3
F-7.0
sg4
F5.0
sg5
F7.0
sg6
F-2.0
sb(dp1399
I00
F25.2543926
sI01
I-95
ss(i__main__
State
p1400
(dp1401
g3
F-8.0
sg4
F5.0
sg5
F8.0
sg6
F-2.0
sb(dp1402
I00
F36.516236400000004
sI01
F-38.44
ss(i__main__
State
p1403
(dp1404
g3
F8.0
sg4
F6.0
sg5
F-8.0
sg6
F6.0
sb(dp1405
I00
F7.028000000000001
sI01
I-15
ss(i__main__
State
p1406
(dp1407
g3
F5.0
sg4
F6.0
sg5
F-5.0
sg6
F-6.0
sb(dp1408
I00
F-2.318299999999999
sI01
F1.7966600000000001
ss(i__main__
State
p1409
(dp1410
g3
F2.0
sg4
F10.0
sg5
F-2.0
sg6
F-6.0
sb(dp1411
I00
F36.9
sI01
F15.3
ss(i__main__
State
p1412
(dp1413
g3
F-1.0
sg4
F6.0
sg5
F1.0
sg6
F2.0
sb(dp1414
I00
F30.477920000000005
sI01
I5
ss(i__main__
State
p1415
(dp1416
g3
F8.0
sg4
F4.0
sg5
F-8.0
sg6
F8.0
sb(dp1417
I00
F58.0
sI01
I-32
ss(i__main__
State
p1418
(dp1419
g3
F7.0
sg4
F6.0
sg5
F-7.0
sg6
F-2.0
sb(dp1420
I00
F65.4
sI01
I-48
ss(i__main__
State
p1421
(dp1422
g3
F-6.0
sg4
F4.0
sg5
F6.0
sg6
F-6.0
sb(dp1423
I00
I38
sI01
F78.3466696
ss(i__main__
State
p1424
(dp1425
g3
F-1.0
sg4
F0.0
sg5
F1.0
sg6
F4.0
sb(dp1426
I00
I-38
sI01
F14.464128000000002
ss(i__main__
State
p1427
(dp1428
g3
F-2.0
sg4
F4.0
sg5
F2.0
sg6
F-6.0
sb(dp1429
I00
F44.094
sI01
I-97
ss(i__main__
State
p1430
(dp1431
g3
F-6.0
sg4
F1.0
sg5
F6.0
sg6
F-6.0
sb(dp1432
I00
F68.46000000000001
sI01
I-63
ss(i__main__
State
p1433
(dp1434
g3
F5.0
sg4
F7.0
sg5
F-5.0
sg6
F-8.0
sb(dp1435
I00
F78.868
sI01
I74
ss(i__main__
State
p1436
(dp1437
g3
F-2.0
sg4
F4.0
sg5
F2.0
sg6
F-4.0
sb(dp1438
I00
F27.0
sI01
I7
ss(i__main__
State
p1439
(dp1440
g3
F-5.0
sg4
F4.0
sg5
F5.0
sg6
F2.0
sb(dp1441
I00
F60.4
sI01
I-79
ss(i__main__
State
p1442
(dp1443
g3
F4.0
sg4
F2.0
sg5
F-4.0
sg6
F-2.0
sb(dp1444
I00
F65.3
sI01
I67
ss(i__main__
State
p1445
(dp1446
g3
F-7.0
sg4
F0.0
sg5
F7.0
sg6
F0.0
sb(dp1447
I00
I-77
sI01
F33.123876
ss(i__main__
State
p1448
(dp1449
g3
F0.0
sg4
F6.0
sg5
F0.0
sg6
F4.0
sb(dp1450
I00
F50.89835
sI01
F63.027964
ss(i__main__
State
p1451
(dp1452
g3
F3.0
sg4
F9.0
sg5
F-3.0
sg6
F0.0
sb(dp1453
I00
F-1000.0
sI01
F-1888.5886754353141
ss(i__main__
State
p1454
(dp1455
g3
F-5.0
sg4
F10.0
sg5
F5.0
sg6
F-2.0
sb(dp1456
I00
F32.0
sI01
F7.03866
ss(i__main__
State
p1457
(dp1458
g3
F6.0
sg4
F9.0
sg5
F-6.0
sg6
F4.0
sb(dp1459
I00
F50.0
sI01
F0.0
ss(i__main__
State
p1460
(dp1461
g3
F3.0
sg4
F5.0
sg5
F-3.0
sg6
F8.0
sb(dp1462
I00
F41.42270512829
sI01
I-97
ss(i__main__
State
p1463
(dp1464
g3
F7.0
sg4
F8.0
sg5
F-7.0
sg6
F2.0
sb(dp1465
I00
F46.503623005
sI01
F20.0
ss(i__main__
State
p1466
(dp1467
g3
F-5.0
sg4
F9.0
sg5
F5.0
sg6
F-6.0
sb(dp1468
I00
F68.28615020000001
sI01
F40.156690000000005
ss(i__main__
State
p1469
(dp1470
g3
F0.0
sg4
F10.0
sg5
F0.0
sg6
F-8.0
sb(dp1471
I00
F-1898.499154
sI01
F-1905.67
ss(i__main__
State
p1472
(dp1473
g3
F0.0
sg4
F7.0
sg5
F0.0
sg6
F-4.0
sb(dp1474
I00
F42.041778730000004
sI01
I-45
ss(i__main__
State
p1475
(dp1476
g3
F-7.0
sg4
F2.0
sg5
F7.0
sg6
F8.0
sb(dp1477
I00
F54.66
sI01
F83.8
ss(i__main__
State
p1478
(dp1479
g3
F5.0
sg4
F9.0
sg5
F-5.0
sg6
F6.0
sb(dp1480
I00
F49.0
sI01
F0.0
ss(i__main__
State
p1481
(dp1482
g3
F-2.0
sg4
F8.0
sg5
F2.0
sg6
F-2.0
sb(dp1483
I00
F20.1
sI01
F0.0
ss(i__main__
State
p1484
(dp1485
g3
F-3.0
sg4
F6.0
sg5
F3.0
sg6
F-8.0
sb(dp1486
I00
F-65.9
sI01
F-30.063062910000003
ss(i__main__
State
p1487
(dp1488
g3
F-2.0
sg4
F3.0
sg5
F2.0
sg6
F6.0
sb(dp1489
I00
F-25.009999999999998
sI01
I-97
ss(i__main__
State
p1490
(dp1491
g3
F-5.0
sg4
F0.0
sg5
F5.0
sg6
F-4.0
sb(dp1492
I00
I-79
sI01
F21.81258
ss(i__main__
State
p1493
(dp1494
g3
F4.0
sg4
F6.0
sg5
F-4.0
sg6
F-2.0
sb(dp1495
I00
F64.73
sI01
I21
ss(i__main__
State
p1496
(dp1497
g3
F-7.0
sg4
F6.0
sg5
F7.0
sg6
F2.0
sb(dp1498
I00
F53.347294
sI01
I-87
ss(i__main__
State
p1499
(dp1500
g3
F1.0
sg4
F9.0
sg5
F-1.0
sg6
F4.0
sb(dp1501
I00
F10.0
sI01
F0.0
ss(i__main__
State
p1502
(dp1503
g3
F5.0
sg4
F1.0
sg5
F-5.0
sg6
F-6.0
sb(dp1504
I00
F11.206665000000001
sI01
F-53.02
ss(i__main__
State
p1505
(dp1506
g3
F0.0
sg4
F10.0
sg5
F0.0
sg6
F8.0
sb(dp1507
I00
F-1000.0
sI01
F-1882.5200000000002
ss(i__main__
State
p1508
(dp1509
g3
F3.0
sg4
F5.0
sg5
F-3.0
sg6
F4.0
sb(dp1510
I00
F68.62
sI01
I43
ss(i__main__
State
p1511
(dp1512
g3
F-3.0
sg4
F7.0
sg5
F3.0
sg6
F-8.0
sb(dp1513
I00
F19.983076242130004
sI01
F-63.7
ss(i__main__
State
p1514
(dp1515
g3
F0.0
sg4
F0.0
sg5
F0.0
sg6
F2.0
sb(dp1516
I00
I-85
sI01
F61.3317211428
ss(i__main__
State
p1517
(dp1518
g3
F0.0
sg4
F6.0
sg5
F0.0
sg6
F0.0
sb(dp1519
I00
F64.27823000000001
sI01
F-13.6
ss(i__main__
State
p1520
(dp1521
g3
F-4.0
sg4
F5.0
sg5
F4.0
sg6
F2.0
sb(dp1522
I00
F-68.88138
sI01
F71.69235974372248
ss(i__main__
State
p1523
(dp1524
g3
F3.0
sg4
F9.0
sg5
F-3.0
sg6
F8.0
sb(dp1525
I00
F0.0
sI01
F21.0
ss(i__main__
State
p1526
(dp1527
g3
F4.0
sg4
F10.0
sg5
F-4.0
sg6
F2.0
sb(dp1528
I00
F63.319340000000004
sI01
F32.870000000000005
ss(i__main__
State
p1529
(dp1530
g3
F8.0
sg4
F1.0
sg5
F-8.0
sg6
F4.0
sb(dp1531
I00
I-84
sI01
F-52.9693516
ss(i__main__
State
p1532
(dp1533
g3
F-4.0
sg4
F2.0
sg5
F4.0
sg6
F4.0
sb(dp1534
I00
I-18
sI01
F84.05
ss(i__main__
State
p1535
(dp1536
g3
F-5.0
sg4
F5.0
sg5
F5.0
sg6
F-8.0
sb(dp1537
I00
F25.184687999999998
sI01
F23.006533199999996
ss(i__main__
State
p1538
(dp1539
g3
F3.0
sg4
F4.0
sg5
F-3.0
sg6
F-4.0
sb(dp1540
I00
F48.25
sI01
F48.007532
ss(i__main__
State
p1541
(dp1542
g3
F-7.0
sg4
F4.0
sg5
F7.0
sg6
F-2.0
sb(dp1543
I00
F72.8307238005
sI01
I-4
ss(i__main__
State
p1544
(dp1545
g3
F2.0
sg4
F9.0
sg5
F-2.0
sg6
F-4.0
sb(dp1546
I00
F19.819999999999997
sI01
F12.29927
ss(i__main__
State
p1547
(dp1548
g3
F-8.0
sg4
F9.0
sg5
F8.0
sg6
F-2.0
sb(dp1549
I00
F-80.9
sI01
F11.0
ss(i__main__
State
p1550
(dp1551
g3
F7.0
sg4
F2.0
sg5
F-7.0
sg6
F0.0
sb(dp1552
I00
F-34.0
sI01
F1.1812000000000005
ss(i__main__
State
p1553
(dp1554
g3
F-7.0
sg4
F9.0
sg5
F7.0
sg6
F-2.0
sb(dp1555
I00
F-81.0
sI01
F0.0
ss(i__main__
State
p1556
(dp1557
g3
F-4.0
sg4
F0.0
sg5
F4.0
sg6
F-8.0
sb(dp1558
I00
F84.576
sI01
I-44
ss(i__main__
State
p1559
(dp1560
g3
F1.0
sg4
F10.0
sg5
F-1.0
sg6
F2.0
sb(dp1561
I00
F-72.68278192992001
sI01
F58.207313080000006
ss(i__main__
State
p1562
(dp1563
g3
F-7.0
sg4
F3.0
sg5
F7.0
sg6
F-6.0
sb(dp1564
I00
F37.8
sI01
F78.98656
ss(i__main__
State
p1565
(dp1566
g3
F-4.0
sg4
F0.0
sg5
F4.0
sg6
F4.0
sb(dp1567
I00
I-82
sI01
F37.9974024
ss(i__main__
State
p1568
(dp1569
g3
F-4.0
sg4
F3.0
sg5
F4.0
sg6
F6.0
sb(dp1570
I00
I79
sI01
F70.9
ss(i__main__
State
p1571
(dp1572
g3
F5.0
sg4
F8.0
sg5
F-5.0
sg6
F-8.0
sb(dp1573
I00
F20.0
sI01
F0.0
ss(i__main__
State
p1574
(dp1575
g3
F2.0
sg4
F7.0
sg5
F-2.0
sg6
F2.0
sb(dp1576
I00
F17.0
sI01
F-22.31
ss(i__main__
State
p1577
(dp1578
g3
F0.0
sg4
F10.0
sg5
F0.0
sg6
F0.0
sb(dp1579
I00
F-1898.0
sI01
F-2704.1490700000004
ss(i__main__
State
p1580
(dp1581
g3
F2.0
sg4
F9.0
sg5
F-2.0
sg6
F6.0
sb(dp1582
I00
F110.77924967307507
sI01
F11.179
ss(i__main__
State
p1583
(dp1584
g3
F-6.0
sg4
F7.0
sg5
F6.0
sg6
F-2.0
sb(dp1585
I00
I-97
sI01
F43.8791
ss(i__main__
State
p1586
(dp1587
g3
F-5.0
sg4
F5.0
sg5
F5.0
sg6
F2.0
sb(dp1588
I00
F53.0
sI01
I-17
ss(i__main__
State
p1589
(dp1590
g3
F5.0
sg4
F0.0
sg5
F-5.0
sg6
F2.0
sb(dp1591
I00
F-27.07262188986515
sI01
I-73
ss(i__main__
State
p1592
(dp1593
g3
F-7.0
sg4
F9.0
sg5
F7.0
sg6
F2.0
sb(dp1594
I00
F20.23
sI01
F0.0
ss(i__main__
State
p1595
(dp1596
g3
F2.0
sg4
F5.0
sg5
F-2.0
sg6
F2.0
sb(dp1597
I00
I-92
sI01
F-82.04
ss(i__main__
State
p1598
(dp1599
g3
F3.0
sg4
F8.0
sg5
F-3.0
sg6
F-2.0
sb(dp1600
I00
F39.99
sI01
F0.0
ss(i__main__
State
p1601
(dp1602
g3
F3.0
sg4
F3.0
sg5
F-3.0
sg6
F-4.0
sb(dp1603
I00
F71.06
sI01
I-75
ss(i__main__
State
p1604
(dp1605
g3
F5.0
sg4
F5.0
sg5
F-5.0
sg6
F4.0
sb(dp1606
I00
I26
sI01
F23.66687
ss(i__main__
State
p1607
(dp1608
g3
F-6.0
sg4
F5.0
sg5
F6.0
sg6
F-8.0
sb(dp1609
I00
F5.85
sI01
I-99
ss(i__main__
State
p1610
(dp1611
g3
F0.0
sg4
F6.0
sg5
F0.0
sg6
F-4.0
sb(dp1612
I00
I36
sI01
F39.646866259037
ss(i__main__
State
p1613
(dp1614
g3
F-6.0
sg4
F9.0
sg5
F6.0
sg6
F0.0
sb(dp1615
I00
F-1000.0
sI01
F0.0
ss(i__main__
State
p1616
(dp1617
g3
F3.0
sg4
F10.0
sg5
F-3.0
sg6
F-4.0
sb(dp1618
I00
F127.144488234836
sI01
F0.0
ss(i__main__
State
p1619
(dp1620
g3
F8.0
sg4
F5.0
sg5
F-8.0
sg6
F6.0
sb(dp1621
I00
F-19.037622
sI01
F-58.3874
ss(i__main__
State
p1622
(dp1623
g3
F2.0
sg4
F8.0
sg5
F-2.0
sg6
F6.0
sb(dp1624
I00
F155.89730929768308
sI01
F31.535901045524334
ss(i__main__
State
p1625
(dp1626
g3
F1.0
sg4
F0.0
sg5
F-1.0
sg6
F0.0
sb(dp1627
I00
F18.448029908000002
sI01
F-28.2
ss(i__main__
State
p1628
(dp1629
g3
F-3.0
sg4
F4.0
sg5
F3.0
sg6
F-4.0
sb(dp1630
I00
F-42.531
sI01
F-55.3
ss(i__main__
State
p1631
(dp1632
g3
F-4.0
sg4
F1.0
sg5
F4.0
sg6
F6.0
sb(dp1633
I00
F-51.5
sI01
F-27.004999999999995
ss(i__main__
State
p1634
(dp1635
g3
F-2.0
sg4
F3.0
sg5
F2.0
sg6
F-4.0
sb(dp1636
I00
F-11.6
sI01
I-38
ss(i__main__
State
p1637
(dp1638
g3
F0.0
sg4
F5.0
sg5
F0.0
sg6
F0.0
sb(dp1639
I00
F79.4008841254
sI01
F-76.8
ss(i__main__
State
p1640
(dp1641
g3
F-5.0
sg4
F3.0
sg5
F5.0
sg6
F-2.0
sb(dp1642
I00
I-87
sI01
F-5.629999999999999
ss(i__main__
State
p1643
(dp1644
g3
F0.0
sg4
F7.0
sg5
F0.0
sg6
F6.0
sb(dp1645
I00
I-36
sI01
F-9.447
ss(i__main__
State
p1646
(dp1647
g3
F1.0
sg4
F3.0
sg5
F-1.0
sg6
F-8.0
sb(dp1648
I00
F19.300048
sI01
F-31.1
ss(i__main__
State
p1649
(dp1650
g3
F-8.0
sg4
F7.0
sg5
F8.0
sg6
F0.0
sb(dp1651
I00
I-76
sI01
F-22.5
ss(i__main__
State
p1652
(dp1653
g3
F8.0
sg4
F10.0
sg5
F-8.0
sg6
F6.0
sb(dp1654
I00
F60.217000000000006
sI01
F0.0
ss(i__main__
State
p1655
(dp1656
g3
F7.0
sg4
F5.0
sg5
F-7.0
sg6
F6.0
sb(dp1657
I00
I6
sI01
F50.3
ss(i__main__
State
p1658
(dp1659
g3
F-6.0
sg4
F8.0
sg5
F6.0
sg6
F8.0
sb(dp1660
I00
F59.061319000000005
sI01
F14.116564070000003
ss(i__main__
State
p1661
(dp1662
g3
F7.0
sg4
F7.0
sg5
F-7.0
sg6
F-4.0
sb(dp1663
I00
F-3.6421116516526766
sI01
F-21.985948171366363
ss(i__main__
State
p1664
(dp1665
g3
F8.0
sg4
F3.0
sg5
F-8.0
sg6
F4.0
sb(dp1666
I00
F87.40960000000001
sI01
I-28
ss(i__main__
State
p1667
(dp1668
g3
F0.0
sg4
F9.0
sg5
F0.0
sg6
F-8.0
sb(dp1669
I00
F206.58900162343693
sI01
F22.280741400000004
ss(i__main__
State
p1670
(dp1671
g3
F-7.0
sg4
F0.0
sg5
F7.0
sg6
F-2.0
sb(dp1672
I00
F26.92642
sI01
F-43.1
ss(i__main__
State
p1673
(dp1674
g3
F-6.0
sg4
F9.0
sg5
F6.0
sg6
F8.0
sb(dp1675
I00
F109.56398683079466
sI01
F0.0
ss(i__main__
State
p1676
(dp1677
g3
F6.0
sg4
F6.0
sg5
F-6.0
sg6
F4.0
sb(dp1678
I00
F72.26642885467747
sI01
F-20.57678692332596
ss(i__main__
State
p1679
(dp1680
g3
F-1.0
sg4
F8.0
sg5
F1.0
sg6
F6.0
sb(dp1681
I00
F20.0
sI01
F12.0
ss(i__main__
State
p1682
(dp1683
g3
F3.0
sg4
F10.0
sg5
F-3.0
sg6
F-8.0
sb(dp1684
I00
F42.220000000000006
sI01
F0.0
ss(i__main__
State
p1685
(dp1686
g3
F1.0
sg4
F6.0
sg5
F-1.0
sg6
F6.0
sb(dp1687
I00
F-17.47
sI01
F72.05350575
ss(i__main__
State
p1688
(dp1689
g3
F-1.0
sg4
F7.0
sg5
F1.0
sg6
F8.0
sb(dp1690
I00
I-89
sI01
F-53.9
ss(i__main__
State
p1691
(dp1692
g3
F8.0
sg4
F3.0
sg5
F-8.0
sg6
F-8.0
sb(dp1693
I00
F1.4121000000000006
sI01
F-38.8
ss(i__main__
State
p1694
(dp1695
g3
F1.0
sg4
F7.0
sg5
F-1.0
sg6
F-4.0
sb(dp1696
I00
I9
sI01
F52.2
ss(i__main__
State
p1697
(dp1698
g3
F3.0
sg4
F8.0
sg5
F-3.0
sg6
F0.0
sb(dp1699
I00
F29.9
sI01
F0.0
ss(i__main__
State
p1700
(dp1701
g3
F5.0
sg4
F2.0
sg5
F-5.0
sg6
F4.0
sb(dp1702
I00
F15.33829288208375
sI01
I-98
ss(i__main__
State
p1703
(dp1704
g3
F7.0
sg4
F7.0
sg5
F-7.0
sg6
F6.0
sb(dp1705
I00
I-60
sI01
F46.9
ss(i__main__
State
p1706
(dp1707
g3
F8.0
sg4
F10.0
sg5
F-8.0
sg6
F-8.0
sb(dp1708
I00
F26.109990000000003
sI01
F66.822450436564
ss(i__main__
State
p1709
(dp1710
g3
F-1.0
sg4
F4.0
sg5
F1.0
sg6
F-8.0
sb(dp1711
I00
F17.106
sI01
F72.86547
ss(i__main__
State
p1712
(dp1713
g3
F-3.0
sg4
F8.0
sg5
F3.0
sg6
F8.0
sb(dp1714
I00
F0.0
sI01
F11.0
ss(i__main__
State
p1715
(dp1716
g3
F1.0
sg4
F3.0
sg5
F-1.0
sg6
F6.0
sb(dp1717
I00
I-51
sI01
F9.24913
ss(i__main__
State
p1718
(dp1719
g3
F-6.0
sg4
F3.0
sg5
F6.0
sg6
F-2.0
sb(dp1720
I00
F41.12854
sI01
I24
ss(i__main__
State
p1721
(dp1722
g3
F3.0
sg4
F6.0
sg5
F-3.0
sg6
F0.0
sb(dp1723
I00
I42
sI01
F61.553000000000004
ss(i__main__
State
p1724
(dp1725
g3
F2.0
sg4
F8.0
sg5
F-2.0
sg6
F-8.0
sb(dp1726
I00
F77.29429664
sI01
F20.11
ss(i__main__
State
p1727
(dp1728
g3
F-6.0
sg4
F6.0
sg5
F6.0
sg6
F-4.0
sb(dp1729
I00
I-78
sI01
F51.85624
ss(i__main__
State
p1730
(dp1731
g3
F0.0
sg4
F5.0
sg5
F0.0
sg6
F-4.0
sb(dp1732
I00
F-29.657880000000002
sI01
F30.550006982200003
ss(i__main__
State
p1733
(dp1734
g3
F-1.0
sg4
F9.0
sg5
F1.0
sg6
F-2.0
sb(dp1735
I00
F-155.45340000000002
sI01
F59.026095770000005
ss(i__main__
State
p1736
(dp1737
g3
F-5.0
sg4
F1.0
sg5
F5.0
sg6
F-8.0
sb(dp1738
I00
I2
sI01
F24.64
ss(i__main__
State
p1739
(dp1740
g3
F-7.0
sg4
F5.0
sg5
F7.0
sg6
F2.0
sb(dp1741
I00
I-35
sI01
F-3.9635999999999987
ss(i__main__
State
p1742
(dp1743
g3
F-6.0
sg4
F1.0
sg5
F6.0
sg6
F4.0
sb(dp1744
I00
I-94
sI01
F-19.378625692866528
ss(i__main__
State
p1745
(dp1746
g3
F-1.0
sg4
F4.0
sg5
F1.0
sg6
F2.0
sb(dp1747
I00
I-32
sI01
F0.2859999999999996
ss(i__main__
State
p1748
(dp1749
g3
F-6.0
sg4
F4.0
sg5
F6.0
sg6
F0.0
sb(dp1750
I00
I-89
sI01
F13.53
ss(i__main__
State
p1751
(dp1752
g3
F-3.0
sg4
F4.0
sg5
F3.0
sg6
F-8.0
sb(dp1753
I00
F-48.6
sI01
F2.070000000000002
ss(i__main__
State
p1754
(dp1755
g3
F-6.0
sg4
F0.0
sg5
F6.0
sg6
F-4.0
sb(dp1756
I00
I-26
sI01
F6.434000000000001
ss(i__main__
State
p1757
(dp1758
g3
F2.0
sg4
F2.0
sg5
F-2.0
sg6
F2.0
sb(dp1759
I00
F-7.699999999999996
sI01
I-18
ss(i__main__
State
p1760
(dp1761
g3
F-6.0
sg4
F10.0
sg5
F6.0
sg6
F-4.0
sb(dp1762
I00
F0.0
sI01
F39.33509
ss(i__main__
State
p1763
(dp1764
g3
F-7.0
sg4
F6.0
sg5
F7.0
sg6
F-6.0
sb(dp1765
I00
I-8
sI01
F41.843
ss(i__main__
State
p1766
(dp1767
g3
F-3.0
sg4
F1.0
sg5
F3.0
sg6
F-2.0
sb(dp1768
I00
F27.392350914999998
sI01
I-84
ss(i__main__
State
p1769
(dp1770
g3
F6.0
sg4
F8.0
sg5
F-6.0
sg6
F-2.0
sb(dp1771
I00
F185.3689600351599
sI01
F-90.0
ss(i__main__
State
p1772
(dp1773
g3
F6.0
sg4
F8.0
sg5
F-6.0
sg6
F8.0
sb(dp1774
I00
F20.0
sI01
F0.0
ss(i__main__
State
p1775
(dp1776
g3
F4.0
sg4
F1.0
sg5
F-4.0
sg6
F-8.0
sb(dp1777
I00
I-28
sI01
F40.6
ss(i__main__
State
p1778
(dp1779
g3
F-6.0
sg4
F8.0
sg5
F6.0
sg6
F4.0
sb(dp1780
I00
F20.1
sI01
F0.0
ss(i__main__
State
p1781
(dp1782
g3
F2.0
sg4
F10.0
sg5
F-2.0
sg6
F-4.0
sb(dp1783
I00
F59.35709299999999
sI01
F0.0
ss(i__main__
State
p1784
(dp1785
g3
F-5.0
sg4
F7.0
sg5
F5.0
sg6
F-8.0
sb(dp1786
I00
F-62.8
sI01
F-0.1362899999999989
ss(i__main__
State
p1787
(dp1788
g3
F-4.0
sg4
F10.0
sg5
F4.0
sg6
F6.0
sb(dp1789
I00
F126.62549006192987
sI01
F10.555
ss(i__main__
State
p1790
(dp1791
g3
F-1.0
sg4
F6.0
sg5
F1.0
sg6
F8.0
sb(dp1792
I00
F69.94
sI01
I-96
ss(i__main__
State
p1793
(dp1794
g3
F4.0
sg4
F5.0
sg5
F-4.0
sg6
F0.0
sb(dp1795
I00
F54.161190000000005
sI01
I-38
ss(i__main__
State
p1796
(dp1797
g3
F4.0
sg4
F6.0
sg5
F-4.0
sg6
F8.0
sb(dp1798
I00
F57.3
sI01
I26
ss(i__main__
State
p1799
(dp1800
g3
F-4.0
sg4
F5.0
sg5
F4.0
sg6
F-6.0
sb(dp1801
I00
F81.27
sI01
I65
ss(i__main__
State
p1802
(dp1803
g3
F-5.0
sg4
F4.0
sg5
F5.0
sg6
F-6.0
sb(dp1804
I00
F-59.669783
sI01
F13.109246999999996
ss(i__main__
State
p1805
(dp1806
g3
F4.0
sg4
F0.0
sg5
F-4.0
sg6
F6.0
sb(dp1807
I00
I-94
sI01
F53.6
ss(i__main__
State
p1808
(dp1809
g3
F2.0
sg4
F1.0
sg5
F-2.0
sg6
F-2.0
sb(dp1810
I00
F-3.5999999999999996
sI01
F65.11547808820002
ss(i__main__
State
p1811
(dp1812
g3
F-1.0
sg4
F9.0
sg5
F1.0
sg6
F6.0
sb(dp1813
I00
F52.45028
sI01
F11.0
ss(i__main__
State
p1814
(dp1815
g3
F7.0
sg4
F6.0
sg5
F-7.0
sg6
F2.0
sb(dp1816
I00
F81.49573283149999
sI01
I-65
ss(i__main__
State
p1817
(dp1818
g3
F-4.0
sg4
F7.0
sg5
F4.0
sg6
F8.0
sb(dp1819
I00
F-34.749455
sI01
F-69.439
ss(i__main__
State
p1820
(dp1821
g3
F6.0
sg4
F4.0
sg5
F-6.0
sg6
F8.0
sb(dp1822
I00
F85.413
sI01
I84
ss(i__main__
State
p1823
(dp1824
g3
F7.0
sg4
F2.0
sg5
F-7.0
sg6
F-8.0
sb(dp1825
I00
I39
sI01
F34.3
ss(i__main__
State
p1826
(dp1827
g3
F4.0
sg4
F9.0
sg5
F-4.0
sg6
F-6.0
sb(dp1828
I00
F0.0
sI01
F22.023736879404
ss(i__main__
State
p1829
(dp1830
g3
F-4.0
sg4
F9.0
sg5
F4.0
sg6
F-6.0
sb(dp1831
I00
F22.37
sI01
F0.0
ss(i__main__
State
p1832
(dp1833
g3
F-6.0
sg4
F9.0
sg5
F6.0
sg6
F-8.0
sb(dp1834
I00
F21.090000000000003
sI01
F0.0
ss(i__main__
State
p1835
(dp1836
g3
F0.0
sg4
F1.0
sg5
F0.0
sg6
F0.0
sb(dp1837
I00
I-93
sI01
F-80.82
ss(i__main__
State
p1838
(dp1839
g3
F8.0
sg4
F7.0
sg5
F-8.0
sg6
F0.0
sb(dp1840
I00
F70.540362203
sI01
I-88
ss(i__main__
State
p1841
(dp1842
g3
F-5.0
sg4
F0.0
sg5
F5.0
sg6
F-6.0
sb(dp1843
I00
F51.321000000000005
sI01
I25
ss(i__main__
State
p1844
(dp1845
g3
F-4.0
sg4
F1.0
sg5
F4.0
sg6
F8.0
sb(dp1846
I00
F78.6
sI01
F78.1
ss(i__main__
State
p1847
(dp1848
g3
F3.0
sg4
F3.0
sg5
F-3.0
sg6
F-6.0
sb(dp1849
I00
I-44
sI01
F52.01569936600001
ss(i__main__
State
p1850
(dp1851
g3
F-2.0
sg4
F2.0
sg5
F2.0
sg6
F4.0
sb(dp1852
I00
I-24
sI01
F9.57
ss(i__main__
State
p1853
(dp1854
g3
F4.0
sg4
F10.0
sg5
F-4.0
sg6
F-4.0
sb(dp1855
I00
F69.90569385580001
sI01
F0.0
ss(i__main__
State
p1856
(dp1857
g3
F-7.0
sg4
F0.0
sg5
F7.0
sg6
F2.0
sb(dp1858
I00
I-2
sI01
F64.778235
ss(i__main__
State
p1859
(dp1860
g3
F5.0
sg4
F5.0
sg5
F-5.0
sg6
F-4.0
sb(dp1861
I00
F65.633886
sI01
I-50
ss(i__main__
State
p1862
(dp1863
g3
F6.0
sg4
F1.0
sg5
F-6.0
sg6
F-8.0
sb(dp1864
I00
F-7.4281400999999985
sI01
I-32
ss(i__main__
State
p1865
(dp1866
g3
F-4.0
sg4
F9.0
sg5
F4.0
sg6
F-2.0
sb(dp1867
I00
F-72.9
sI01
F0.0
ss(i__main__
State
p1868
(dp1869
g3
F7.0
sg4
F0.0
sg5
F-7.0
sg6
F-2.0
sb(dp1870
I00
F66.6113
sI01
F0.5
ss(i__main__
State
p1871
(dp1872
g3
F-5.0
sg4
F0.0
sg5
F5.0
sg6
F4.0
sb(dp1873
I00
I31
sI01
F68.78399999999999
ss(i__main__
State
p1874
(dp1875
g3
F-8.0
sg4
F5.0
sg5
F8.0
sg6
F0.0
sb(dp1876
I00
F9.4381328
sI01
F-53.2
ss(i__main__
State
p1877
(dp1878
g3
F0.0
sg4
F8.0
sg5
F0.0
sg6
F-8.0
sb(dp1879
I00
F-2706.82
sI01
F-2695.9762892999997
ss(i__main__
State
p1880
(dp1881
g3
F-5.0
sg4
F5.0
sg5
F5.0
sg6
F-2.0
sb(dp1882
I00
I-48
sI01
F-17.12934
ss(i__main__
State
p1883
(dp1884
g3
F-6.0
sg4
F8.0
sg5
F6.0
sg6
F-6.0
sb(dp1885
I00
F84.3432
sI01
F0.0
ss(i__main__
State
p1886
(dp1887
g3
F-7.0
sg4
F6.0
sg5
F7.0
sg6
F-4.0
sb(dp1888
I00
F-37.984797320000006
sI01
F71.032489772
ss(i__main__
State
p1889
(dp1890
g3
F3.0
sg4
F2.0
sg5
F-3.0
sg6
F8.0
sb(dp1891
I00
I-63
sI01
F22.72035085
ss(i__main__
State
p1892
(dp1893
g3
F6.0
sg4
F0.0
sg5
F-6.0
sg6
F6.0
sb(dp1894
I00
F71.8068
sI01
F61.916
ss(i__main__
State
p1895
(dp1896
g3
F1.0
sg4
F8.0
sg5
F-1.0
sg6
F2.0
sb(dp1897
I00
F-155.61
sI01
F22.180000000000003
ss(i__main__
State
p1898
(dp1899
g3
F-4.0
sg4
F10.0
sg5
F4.0
sg6
F-2.0
sb(dp1900
I00
F37.402300000000004
sI01
F0.0
ss(i__main__
State
p1901
(dp1902
g3
F-2.0
sg4
F0.0
sg5
F2.0
sg6
F0.0
sb(dp1903
I00
I-54
sI01
F47.16
ss(i__main__
State
p1904
(dp1905
g3
F-3.0
sg4
F1.0
sg5
F3.0
sg6
F4.0
sb(dp1906
I00
I-88
sI01
F59.06617200000001
ss(i__main__
State
p1907
(dp1908
g3
F0.0
sg4
F3.0
sg5
F0.0
sg6
F8.0
sb(dp1909
I00
I33
sI01
F45.84
ss(i__main__
State
p1910
(dp1911
g3
F-1.0
sg4
F1.0
sg5
F1.0
sg6
F-8.0
sb(dp1912
I00
F-36.16
sI01
I-38
ss(i__main__
State
p1913
(dp1914
g3
F-1.0
sg4
F10.0
sg5
F1.0
sg6
F6.0
sb(dp1915
I00
F10.0
sI01
F17.1
ss(i__main__
State
p1916
(dp1917
g3
F8.0
sg4
F7.0
sg5
F-8.0
sg6
F8.0
sb(dp1918
I00
I-34
sI01
F64.2
ss(i__main__
State
p1919
(dp1920
g3
F-4.0
sg4
F1.0
sg5
F4.0
sg6
F0.0
sb(dp1921
I00
F-80.6
sI01
F9.082893835
ss(i__main__
State
p1922
(dp1923
g3
F-8.0
sg4
F10.0
sg5
F8.0
sg6
F8.0
sb(dp1924
I00
F102.8176678834154
sI01
F0.0
ss(i__main__
State
p1925
(dp1926
g3
F-8.0
sg4
F0.0
sg5
F8.0
sg6
F-6.0
sb(dp1927
I00
F13.5
sI01
F73.28
ss(i__main__
State
p1928
(dp1929
g3
F8.0
sg4
F1.0
sg5
F-8.0
sg6
F-4.0
sb(dp1930
I00
I-19
sI01
F73.11722
ss(i__main__
State
p1931
(dp1932
g3
F-7.0
sg4
F9.0
sg5
F7.0
sg6
F4.0
sb(dp1933
I00
F30.42057463128
sI01
F0.0
ss(i__main__
State
p1934
(dp1935
g3
F6.0
sg4
F3.0
sg5
F-6.0
sg6
F-8.0
sb(dp1936
I00
F-21.4
sI01
F66.1
ss(i__main__
State
p1937
(dp1938
g3
F-4.0
sg4
F6.0
sg5
F4.0
sg6
F2.0
sb(dp1939
I00
F-48.24281836453606
sI01
F16.470541400000002
ss(i__main__
State
p1940
(dp1941
g3
F4.0
sg4
F2.0
sg5
F-4.0
sg6
F0.0
sb(dp1942
I00
F44.785454328
sI01
F1.5205858788455622
ss(i__main__
State
p1943
(dp1944
g3
F0.0
sg4
F4.0
sg5
F0.0
sg6
F-4.0
sb(dp1945
I00
F13.465000000000002
sI01
F24.136383378999998
ss(i__main__
State
p1946
(dp1947
g3
F-6.0
sg4
F1.0
sg5
F6.0
sg6
F6.0
sb(dp1948
I00
I-58
sI01
F-15.537000000000003
ss(i__main__
State
p1949
(dp1950
g3
F3.0
sg4
F4.0
sg5
F-3.0
sg6
F-6.0
sb(dp1951
I00
F41.27843650999
sI01
F-68.01259999999999
ss(i__main__
State
p1952
(dp1953
g3
F-6.0
sg4
F3.0
sg5
F6.0
sg6
F6.0
sb(dp1954
I00
F88.2
sI01
I86
ss(i__main__
State
p1955
(dp1956
g3
F-3.0
sg4
F7.0
sg5
F3.0
sg6
F2.0
sb(dp1957
I00
F-44.943915
sI01
I-96
ss(i__main__
State
p1958
(dp1959
g3
F2.0
sg4
F10.0
sg5
F-2.0
sg6
F4.0
sb(dp1960
I00
F0.0
sI01
F17.400000000000002
ss(i__main__
State
p1961
(dp1962
g3
F-2.0
sg4
F2.0
sg5
F2.0
sg6
F6.0
sb(dp1963
I00
I-4
sI01
F84.664641
ss(i__main__
State
p1964
(dp1965
g3
F-7.0
sg4
F5.0
sg5
F7.0
sg6
F-6.0
sb(dp1966
I00
F2.4
sI01
F15.8
ss(i__main__
State
p1967
(dp1968
g3
F4.0
sg4
F8.0
sg5
F-4.0
sg6
F-6.0
sb(dp1969
I00
F20.0
sI01
F0.0
ss(i__main__
State
p1970
(dp1971
g3
F-1.0
sg4
F9.0
sg5
F1.0
sg6
F0.0
sb(dp1972
I00
F-3429.7799999999997
sI01
F-1000.0
ss(i__main__
State
p1973
(dp1974
g3
F1.0
sg4
F7.0
sg5
F-1.0
sg6
F4.0
sb(dp1975
I00
F-10.383
sI01
F-67.60000000000001
ss(i__main__
State
p1976
(dp1977
g3
F-1.0
sg4
F6.0
sg5
F1.0
sg6
F-8.0
sb(dp1978
I00
F35.525635859999994
sI01
F-64.87084351
ss(i__main__
State
p1979
(dp1980
g3
F6.0
sg4
F2.0
sg5
F-6.0
sg6
F8.0
sb(dp1981
I00
F-88.2
sI01
F-7.7559076
ss(i__main__
State
p1982
(dp1983
g3
F-2.0
sg4
F1.0
sg5
F2.0
sg6
F-8.0
sb(dp1984
I00
F-15.87226799999999
sI01
F-55.29
ss(i__main__
State
p1985
(dp1986
g3
F5.0
sg4
F4.0
sg5
F-5.0
sg6
F-4.0
sb(dp1987
I00
I-66
sI01
F68.18
ss(i__main__
State
p1988
(dp1989
g3
F-2.0
sg4
F2.0
sg5
F2.0
sg6
F-2.0
sb(dp1990
I00
F36.66138332822
sI01
F51.016570569619994
ss(i__main__
State
p1991
(dp1992
g3
F-2.0
sg4
F7.0
sg5
F2.0
sg6
F-6.0
sb(dp1993
I00
F-58.1009
sI01
F72.02883155750494
ss(i__main__
State
p1994
(dp1995
g3
F-5.0
sg4
F2.0
sg5
F5.0
sg6
F2.0
sb(dp1996
I00
F-52.1100617
sI01
F-15.419416499999997
ss(i__main__
State
p1997
(dp1998
g3
F7.0
sg4
F9.0
sg5
F-7.0
sg6
F-8.0
sb(dp1999
I00
F162.01311506321528
sI01
F20.201
ss(i__main__
State
p2000
(dp2001
g3
F-3.0
sg4
F10.0
sg5
F3.0
sg6
F-8.0
sb(dp2002
I00
F23.810000000000002
sI01
F0.0
ss(i__main__
State
p2003
(dp2004
g3
F-2.0
sg4
F4.0
sg5
F2.0
sg6
F-8.0
sb(dp2005
I00
F-77.9
sI01
F37.440000000000005
ss(i__main__
State
p2006
(dp2007
g3
F-5.0
sg4
F3.0
sg5
F5.0
sg6
F-8.0
sb(dp2008
I00
F42.4735
sI01
F-61.169999999999995
ss(i__main__
State
p2009
(dp2010
g3
F-5.0
sg4
F2.0
sg5
F5.0
sg6
F-6.0
sb(dp2011
I00
I-21
sI01
F73.86427603
ss(i__main__
State
p2012
(dp2013
g3
F4.0
sg4
F3.0
sg5
F-4.0
sg6
F0.0
sb(dp2014
I00
F19.901166372819656
sI01
F30.085426299999998
ss(i__main__
State
p2015
(dp2016
g3
F-1.0
sg4
F1.0
sg5
F1.0
sg6
F-4.0
sb(dp2017
I00
I-92
sI01
F0.5788590338420025
ss(i__main__
State
p2018
(dp2019
g3
F-1.0
sg4
F2.0
sg5
F1.0
sg6
F2.0
sb(dp2020
I00
F-23.37
sI01
I-72
ss(i__main__
State
p2021
(dp2022
g3
F5.0
sg4
F2.0
sg5
F-5.0
sg6
F-8.0
sb(dp2023
I00
F-26.799999999999997
sI01
I-77
ss(i__main__
State
p2024
(dp2025
g3
F-2.0
sg4
F9.0
sg5
F2.0
sg6
F4.0
sb(dp2026
I00
F69.963
sI01
F0.0
ss(i__main__
State
p2027
(dp2028
g3
F-3.0
sg4
F1.0
sg5
F3.0
sg6
F-8.0
sb(dp2029
I00
F38.619899406
sI01
I-15
ss(i__main__
State
p2030
(dp2031
g3
F-3.0
sg4
F8.0
sg5
F3.0
sg6
F6.0
sb(dp2032
I00
F40.037
sI01
F16.6561071
ss(i__main__
State
p2033
(dp2034
g3
F7.0
sg4
F0.0
sg5
F-7.0
sg6
F0.0
sb(dp2035
I00
F7.972066187830771
sI01
F-70.253073
ss(i__main__
State
p2036
(dp2037
g3
F4.0
sg4
F1.0
sg5
F-4.0
sg6
F-2.0
sb(dp2038
I00
F29.5079
sI01
I-99
ss(i__main__
State
p2039
(dp2040
g3
F-3.0
sg4
F10.0
sg5
F3.0
sg6
F4.0
sb(dp2041
I00
F119.17722216006548
sI01
F0.0
ss(i__main__
State
p2042
(dp2043
g3
F8.0
sg4
F2.0
sg5
F-8.0
sg6
F-2.0
sb(dp2044
I00
F72.316
sI01
I32
ss(i__main__
State
p2045
(dp2046
g3
F-5.0
sg4
F9.0
sg5
F5.0
sg6
F-2.0
sb(dp2047
I00
F10.0
sI01
F23.8
ss(i__main__
State
p2048
(dp2049
g3
F-3.0
sg4
F3.0
sg5
F3.0
sg6
F8.0
sb(dp2050
I00
F86.079413
sI01
F-43.7
ss(i__main__
State
p2051
(dp2052
g3
F-1.0
sg4
F0.0
sg5
F1.0
sg6
F-2.0
sb(dp2053
I00
F26.73
sI01
I-57
ss(i__main__
State
p2054
(dp2055
g3
F6.0
sg4
F0.0
sg5
F-6.0
sg6
F-4.0
sb(dp2056
I00
F-6.9
sI01
F86.92122800588399
ss(i__main__
State
p2057
(dp2058
g3
F5.0
sg4
F6.0
sg5
F-5.0
sg6
F2.0
sb(dp2059
I00
F36.0
sI01
I1
ss(i__main__
State
p2060
(dp2061
g3
F-8.0
sg4
F8.0
sg5
F8.0
sg6
F-4.0
sb(dp2062
I00
F40.0
sI01
F0.0
ss(i__main__
State
p2063
(dp2064
g3
F7.0
sg4
F9.0
sg5
F-7.0
sg6
F8.0
sb(dp2065
I00
F10.0
sI01
F0.0
ss(i__main__
State
p2066
(dp2067
g3
F-7.0
sg4
F6.0
sg5
F7.0
sg6
F0.0
sb(dp2068
I00
I-76
sI01
F-3.1874112199999995
ss(i__main__
State
p2069
(dp2070
g3
F-4.0
sg4
F0.0
sg5
F4.0
sg6
F8.0
sb(dp2071
I00
F81.88
sI01
F-84.14
ss(i__main__
State
p2072
(dp2073
g3
F-4.0
sg4
F3.0
sg5
F4.0
sg6
F0.0
sb(dp2074
I00
I-18
sI01
F8.600000000000001
ss(i__main__
State
p2075
(dp2076
g3
F5.0
sg4
F1.0
sg5
F-5.0
sg6
F-2.0
sb(dp2077
I00
F-55.5
sI01
F65.20090975009201
ss(i__main__
State
p2078
(dp2079
g3
F0.0
sg4
F3.0
sg5
F0.0
sg6
F-4.0
sb(dp2080
I00
I-53
sI01
F7.332481075
ss(i__main__
State
p2081
(dp2082
g3
F-6.0
sg4
F0.0
sg5
F6.0
sg6
F2.0
sb(dp2083
I00
I-55
sI01
F7.203195000000007
ss(i__main__
State
p2084
(dp2085
g3
F-2.0
sg4
F5.0
sg5
F2.0
sg6
F0.0
sb(dp2086
I00
F10.270596162030003
sI01
F-66.0
ss(i__main__
State
p2087
(dp2088
g3
F4.0
sg4
F3.0
sg5
F-4.0
sg6
F8.0
sb(dp2089
I00
I-61
sI01
F32.337280933
ss(i__main__
State
p2090
(dp2091
g3
F3.0
sg4
F4.0
sg5
F-3.0
sg6
F2.0
sb(dp2092
I00
F30.178460218538028
sI01
F-67.356
ss(i__main__
State
p2093
(dp2094
g3
F-2.0
sg4
F2.0
sg5
F2.0
sg6
F-8.0
sb(dp2095
I00
F-41.556
sI01
F61.431
ss(i__main__
State
p2096
(dp2097
g3
F-8.0
sg4
F3.0
sg5
F8.0
sg6
F4.0
sb(dp2098
I00
I74
sI01
F67.92866
ss(i__main__
State
p2099
(dp2100
g3
F-5.0
sg4
F2.0
sg5
F5.0
sg6
F-4.0
sb(dp2101
I00
I38
sI01
F39.404
ss(i__main__
State
p2102
(dp2103
g3
F-4.0
sg4
F5.0
sg5
F4.0
sg6
F-4.0
sb(dp2104
I00
I-19
sI01
F-78.4
ss(i__main__
State
p2105
(dp2106
g3
F-7.0
sg4
F8.0
sg5
F7.0
sg6
F-4.0
sb(dp2107
I00
F66.46100000000001
sI01
F28.0
ss(i__main__
State
p2108
(dp2109
g3
F1.0
sg4
F4.0
sg5
F-1.0
sg6
F-6.0
sb(dp2110
I00
F47.56120631500001
sI01
I35
ss(i__main__
State
p2111
(dp2112
g3
F4.0
sg4
F10.0
sg5
F-4.0
sg6
F-6.0
sb(dp2113
I00
F127.87851708993001
sI01
F11.255587
ss(i__main__
State
p2114
(dp2115
g3
F6.0
sg4
F9.0
sg5
F-6.0
sg6
F0.0
sb(dp2116
I00
F-1899.0
sI01
F-2694.1575332028733
ss(i__main__
State
p2117
(dp2118
g3
F5.0
sg4
F0.0
sg5
F-5.0
sg6
F4.0
sb(dp2119
I00
F53.8
sI01
I-65
ss(i__main__
State
p2120
(dp2121
g3
F8.0
sg4
F0.0
sg5
F-8.0
sg6
F-4.0
sb(dp2122
I00
F77.692
sI01
I7
ss(i__main__
State
p2123
(dp2124
g3
F6.0
sg4
F10.0
sg5
F-6.0
sg6
F-2.0
sb(dp2125
I00
F24.361890000000002
sI01
F0.0
ss(i__main__
State
p2126
(dp2127
g3
F6.0
sg4
F4.0
sg5
F-6.0
sg6
F6.0
sb(dp2128
I00
F-73.82
sI01
F-46.38222
ss(i__main__
State
p2129
(dp2130
g3
F-1.0
sg4
F10.0
sg5
F1.0
sg6
F-4.0
sb(dp2131
I00
F10.0
sI01
F0.0
ss(i__main__
State
p2132
(dp2133
g3
F-3.0
sg4
F8.0
sg5
F3.0
sg6
F-4.0
sb(dp2134
I00
F140.94487624010924
sI01
F0.0
ss(i__main__
State
p2135
(dp2136
g3
F6.0
sg4
F0.0
sg5
F-6.0
sg6
F-6.0
sb(dp2137
I00
F17.391582
sI01
F-75.7
ss(i__main__
State
p2138
(dp2139
g3
F1.0
sg4
F9.0
sg5
F-1.0
sg6
F-4.0
sb(dp2140
I00
F55.06703821004784
sI01
F-81.09000000000002
ss(i__main__
State
p2141
(dp2142
g3
F-4.0
sg4
F6.0
sg5
F4.0
sg6
F-4.0
sb(dp2143
I00
I-47
sI01
F25.733999999999995
ss(i__main__
State
p2144
(dp2145
g3
F4.0
sg4
F6.0
sg5
F-4.0
sg6
F6.0
sb(dp2146
I00
I51
sI01
F51.677767
ss(i__main__
State
p2147
(dp2148
g3
F-7.0
sg4
F3.0
sg5
F7.0
sg6
F-2.0
sb(dp2149
I00
F51.134
sI01
F54.46468388700001
ss(i__main__
State
p2150
(dp2151
g3
F5.0
sg4
F4.0
sg5
F-5.0
sg6
F2.0
sb(dp2152
I00
F-14.681549999999994
sI01
I-57
ss(i__main__
State
p2153
(dp2154
g3
F-1.0
sg4
F5.0
sg5
F1.0
sg6
F-2.0
sb(dp2155
I00
F14.112433389999998
sI01
F-82.597965
ss(i__main__
State
p2156
(dp2157
g3
F-5.0
sg4
F8.0
sg5
F5.0
sg6
F6.0
sb(dp2158
I00
F62.200511
sI01
F18.0961803436175
ss(i__main__
State
p2159
(dp2160
g3
F-3.0
sg4
F2.0
sg5
F3.0
sg6
F6.0
sb(dp2161
I00
I-68
sI01
F53.754
ss(i__main__
State
p2162
(dp2163
g3
F-7.0
sg4
F3.0
sg5
F7.0
sg6
F6.0
sb(dp2164
I00
I-44
sI01
F84.7
ss(i__main__
State
p2165
(dp2166
g3
F-4.0
sg4
F9.0
sg5
F4.0
sg6
F-8.0
sb(dp2167
I00
F77.93143098600001
sI01
F0.0
ss(i__main__
State
p2168
(dp2169
g3
F-4.0
sg4
F10.0
sg5
F4.0
sg6
F0.0
sb(dp2170
I00
F168.2678108957938
sI01
F54.739795700512005
ss(i__main__
State
p2171
(dp2172
g3
F1.0
sg4
F8.0
sg5
F-1.0
sg6
F-2.0
sb(dp2173
I00
F-245.10100000000003
sI01
F-80.9
ss(i__main__
State
p2174
(dp2175
g3
F-7.0
sg4
F9.0
sg5
F7.0
sg6
F6.0
sb(dp2176
I00
F10.0
sI01
F0.0
ss(i__main__
State
p2177
(dp2178
g3
F7.0
sg4
F2.0
sg5
F-7.0
sg6
F-2.0
sb(dp2179
I00
F-74.4
sI01
F85.412154
ss(i__main__
State
p2180
(dp2181
g3
F6.0
sg4
F8.0
sg5
F-6.0
sg6
F4.0
sb(dp2182
I00
F111.21199149273914
sI01
F0.0
ss(i__main__
State
p2183
(dp2184
g3
F8.0
sg4
F4.0
sg5
F-8.0
sg6
F2.0
sb(dp2185
I00
F-46.199999999999996
sI01
F61.99467636
ss(i__main__
State
p2186
(dp2187
g3
F6.0
sg4
F2.0
sg5
F-6.0
sg6
F6.0
sb(dp2188
I00
F-62.83143999999999
sI01
F70.106912
ss(i__main__
State
p2189
(dp2190
g3
F6.0
sg4
F9.0
sg5
F-6.0
sg6
F8.0
sb(dp2191
I00
F132.56334065224502
sI01
F0.0
ss(i__main__
State
p2192
(dp2193
g3
F0.0
sg4
F7.0
sg5
F0.0
sg6
F-6.0
sb(dp2194
I00
F96.1
sI01
I57
ss(i__main__
State
p2195
(dp2196
g3
F-7.0
sg4
F1.0
sg5
F7.0
sg6
F-6.0
sb(dp2197
I00
F72.715
sI01
I24
ss(i__main__
State
p2198
(dp2199
g3
F-2.0
sg4
F9.0
sg5
F2.0
sg6
F-2.0
sb(dp2200
I00
F19.0
sI01
F0.0
ss(i__main__
State
p2201
(dp2202
g3
F-4.0
sg4
F9.0
sg5
F4.0
sg6
F2.0
sb(dp2203
I00
F30.009999999999998
sI01
F0.0
ss(i__main__
State
p2204
(dp2205
g3
F4.0
sg4
F7.0
sg5
F-4.0
sg6
F-6.0
sb(dp2206
I00
F65.7308
sI01
I-94
ss(i__main__
State
p2207
(dp2208
g3
F-1.0
sg4
F8.0
sg5
F1.0
sg6
F-8.0
sb(dp2209
I00
F23.839807043635055
sI01
F59.170575
ss(i__main__
State
p2210
(dp2211
g3
F7.0
sg4
F2.0
sg5
F-7.0
sg6
F4.0
sb(dp2212
I00
F45.484399999999994
sI01
F-67.3
ss(i__main__
State
p2213
(dp2214
g3
F3.0
sg4
F7.0
sg5
F-3.0
sg6
F-4.0
sb(dp2215
I00
F-33.1
sI01
F36.12799999999999
ss(i__main__
State
p2216
(dp2217
g3
F3.0
sg4
F8.0
sg5
F-3.0
sg6
F4.0
sb(dp2218
I00
F168.2607986524818
sI01
F27.218265535097434
ss(i__main__
State
p2219
(dp2220
g3
F-8.0
sg4
F8.0
sg5
F8.0
sg6
F-8.0
sb(dp2221
I00
F56.047027763698225
sI01
F11.100000000000001
ss(i__main__
State
p2222
(dp2223
g3
F8.0
sg4
F9.0
sg5
F-8.0
sg6
F6.0
sb(dp2224
I00
F10.0
sI01
F32.71
ss(i__main__
State
p2225
(dp2226
g3
F-8.0
sg4
F10.0
sg5
F8.0
sg6
F-2.0
sb(dp2227
I00
F20.814446578000002
sI01
F65.71753059
ss(i__main__
State
p2228
(dp2229
g3
F6.0
sg4
F3.0
sg5
F-6.0
sg6
F-2.0
sb(dp2230
I00
I-61
sI01
F58.34
ss(i__main__
State
p2231
(dp2232
g3
F4.0
sg4
F8.0
sg5
F-4.0
sg6
F-4.0
sb(dp2233
I00
F40.0
sI01
F23.397142582
ss(i__main__
State
p2234
(dp2235
g3
F1.0
sg4
F2.0
sg5
F-1.0
sg6
F6.0
sb(dp2236
I00
F-31.808999999999994
sI01
F-74.2
ss(i__main__
State
p2237
(dp2238
g3
F-8.0
sg4
F4.0
sg5
F8.0
sg6
F2.0
sb(dp2239
I00
F33.9244
sI01
I32
ss(i__main__
State
p2240
(dp2241
g3
F-6.0
sg4
F2.0
sg5
F6.0
sg6
F2.0
sb(dp2242
I00
I-56
sI01
F43.91
ss(i__main__
State
p2243
(dp2244
g3
F7.0
sg4
F5.0
sg5
F-7.0
sg6
F2.0
sb(dp2245
I00
I-7
sI01
F70.99940088546774
ss(i__main__
State
p2246
(dp2247
g3
F2.0
sg4
F1.0
sg5
F-2.0
sg6
F2.0
sb(dp2248
I00
F50.362590000000004
sI01
F-40.9099
ss(i__main__
State
p2249
(dp2250
g3
F7.0
sg4
F4.0
sg5
F-7.0
sg6
F8.0
sb(dp2251
I00
F-54.95
sI01
I-93
ss(i__main__
State
p2252
(dp2253
g3
F-4.0
sg4
F5.0
sg5
F4.0
sg6
F6.0
sb(dp2254
I00
F31.5
sI01
I-78
ss(i__main__
State
p2255
(dp2256
g3
F5.0
sg4
F1.0
sg5
F-5.0
sg6
F-4.0
sb(dp2257
I00
F-22.2
sI01
F-63.4
ss(i__main__
State
p2258
(dp2259
g3
F-6.0
sg4
F5.0
sg5
F6.0
sg6
F-4.0
sb(dp2260
I00
F-7.497709999999998
sI01
F-47.4
ss(i__main__
State
p2261
(dp2262
g3
F-8.0
sg4
F5.0
sg5
F8.0
sg6
F-4.0
sb(dp2263
I00
F-1.1600000000000001
sI01
I-17
ss(i__main__
State
p2264
(dp2265
g3
F4.0
sg4
F2.0
sg5
F-4.0
sg6
F6.0
sb(dp2266
I00
F-77.93949
sI01
F35.984265679258954
ss(i__main__
State
p2267
(dp2268
g3
F-3.0
sg4
F10.0
sg5
F3.0
sg6
F0.0
sb(dp2269
I00
F10.0
sI01
F0.0
ss(i__main__
State
p2270
(dp2271
g3
F4.0
sg4
F8.0
sg5
F-4.0
sg6
F6.0
sb(dp2272
I00
F51.6829363
sI01
F0.0
ss(i__main__
State
p2273
(dp2274
g3
F-4.0
sg4
F0.0
sg5
F4.0
sg6
F-2.0
sb(dp2275
I00
F-86.396015
sI01
F8.1
ss(i__main__
State
p2276
(dp2277
g3
F-2.0
sg4
F9.0
sg5
F2.0
sg6
F2.0
sb(dp2278
I00
F58.0
sI01
F0.0
ss(i__main__
State
p2279
(dp2280
g3
F6.0
sg4
F4.0
sg5
F-6.0
sg6
F0.0
sb(dp2281
I00
F-46.7
sI01
I54
ss(i__main__
State
p2282
(dp2283
g3
F-1.0
sg4
F3.0
sg5
F1.0
sg6
F-4.0
sb(dp2284
I00
F59.9751
sI01
I-91
ss(i__main__
State
p2285
(dp2286
g3
F8.0
sg4
F10.0
sg5
F-8.0
sg6
F-4.0
sb(dp2287
I00
F33.51051869908
sI01
F16.502
ss(i__main__
State
p2288
(dp2289
g3
F-1.0
sg4
F10.0
sg5
F1.0
sg6
F0.0
sb(dp2290
I00
F125.66169295062649
sI01
F23.12406
ss(i__main__
State
p2291
(dp2292
g3
F-6.0
sg4
F10.0
sg5
F6.0
sg6
F2.0
sb(dp2293
I00
F20.0
sI01
F0.0
ss(i__main__
State
p2294
(dp2295
g3
F0.0
sg4
F7.0
sg5
F0.0
sg6
F8.0
sb(dp2296
I00
I-7
sI01
F61.42109925
ss(i__main__
State
p2297
(dp2298
g3
F-4.0
sg4
F6.0
sg5
F4.0
sg6
F4.0
sb(dp2299
I00
F28.576287309429503
sI01
F0.6991000000000003
ss(i__main__
State
p2300
(dp2301
g3
F-8.0
sg4
F2.0
sg5
F8.0
sg6
F2.0
sb(dp2302
I00
I-47
sI01
F82.0537
ss(i__main__
State
p2303
(dp2304
g3
F6.0
sg4
F10.0
sg5
F-6.0
sg6
F2.0
sb(dp2305
I00
F0.0
sI01
F15.3
ss(i__main__
State
p2306
(dp2307
g3
F-3.0
sg4
F10.0
sg5
F3.0
sg6
F8.0
sb(dp2308
I00
F0.0
sI01
F18.763
ss(i__main__
State
p2309
(dp2310
g3
F0.0
sg4
F9.0
sg5
F0.0
sg6
F8.0
sb(dp2311
I00
F0.0
sI01
F11.0
ss(i__main__
State
p2312
(dp2313
g3
F8.0
sg4
F8.0
sg5
F-8.0
sg6
F-2.0
sb(dp2314
I00
F30.0
sI01
F10.0
ss(i__main__
State
p2315
(dp2316
g3
F-3.0
sg4
F3.0
sg5
F3.0
sg6
F4.0
sb(dp2317
I00
I-95
sI01
F-39.7
ss(i__main__
State
p2318
(dp2319
g3
F8.0
sg4
F6.0
sg5
F-8.0
sg6
F0.0
sb(dp2320
I00
F60.0181
sI01
F-64.5817594
ss(i__main__
State
p2321
(dp2322
g3
F-5.0
sg4
F1.0
sg5
F5.0
sg6
F-4.0
sb(dp2323
I00
F-17.928738
sI01
F-83.6
ss(i__main__
State
p2324
(dp2325
g3
F1.0
sg4
F5.0
sg5
F-1.0
sg6
F0.0
sb(dp2326
I00
F40.165299999999995
sI01
I-88
ss(i__main__
State
p2327
(dp2328
g3
F0.0
sg4
F5.0
sg5
F0.0
sg6
F4.0
sb(dp2329
I00
I-1
sI01
F6.60449
ss(i__main__
State
p2330
(dp2331
g3
F-6.0
sg4
F6.0
sg5
F6.0
sg6
F2.0
sb(dp2332
I00
F49.403999999999996
sI01
I-22
ss(i__main__
State
p2333
(dp2334
g3
F-2.0
sg4
F8.0
sg5
F2.0
sg6
F6.0
sb(dp2335
I00
F0.0
sI01
F65.8655567
ss(i__main__
State
p2336
(dp2337
g3
F-2.0
sg4
F5.0
sg5
F2.0
sg6
F6.0
sb(dp2338
I00
F-35.7416
sI01
F22.7
ss(i__main__
State
p2339
(dp2340
g3
F7.0
sg4
F0.0
sg5
F-7.0
sg6
F-6.0
sb(dp2341
I00
F-8.051601998519999
sI01
F4.509488253120001
ss(i__main__
State
p2342
(dp2343
g3
F-5.0
sg4
F10.0
sg5
F5.0
sg6
F8.0
sb(dp2344
I00
F124.42271899372781
sI01
F18.191
ss(i__main__
State
p2345
(dp2346
g3
F7.0
sg4
F6.0
sg5
F-7.0
sg6
F-8.0
sb(dp2347
I00
F24.2
sI01
I-31
ss(i__main__
State
p2348
(dp2349
g3
F-6.0
sg4
F10.0
sg5
F6.0
sg6
F-8.0
sb(dp2350
I00
F109.82354682831033
sI01
F30.525700000000004
ss(i__main__
State
p2351
(dp2352
g3
F8.0
sg4
F3.0
sg5
F-8.0
sg6
F-4.0
sb(dp2353
I00
I67
sI01
F69.0
ss(i__main__
State
p2354
(dp2355
g3
F3.0
sg4
F10.0
sg5
F-3.0
sg6
F4.0
sb(dp2356
I00
F67.57183
sI01
F0.0
ss(i__main__
State
p2357
(dp2358
g3
F-4.0
sg4
F6.0
sg5
F4.0
sg6
F-6.0
sb(dp2359
I00
I-13
sI01
F76.25999999999999
ss(i__main__
State
p2360
(dp2361
g3
F-1.0
sg4
F0.0
sg5
F1.0
sg6
F2.0
sb(dp2362
I00
F-67.38
sI01
F23.61797
ss(i__main__
State
p2363
(dp2364
g3
F1.0
sg4
F0.0
sg5
F-1.0
sg6
F-8.0
sb(dp2365
I00
I-44
sI01
F54.019000000000005
ss(i__main__
State
p2366
(dp2367
g3
F-1.0
sg4
F10.0
sg5
F1.0
sg6
F8.0
sb(dp2368
I00
F0.0
sI01
F47.6169248
ss(i__main__
State
p2369
(dp2370
g3
F2.0
sg4
F8.0
sg5
F-2.0
sg6
F-4.0
sb(dp2371
I00
F35.300000000000004
sI01
F10.0
ss(i__main__
State
p2372
(dp2373
g3
F1.0
sg4
F6.0
sg5
F-1.0
sg6
F-2.0
sb(dp2374
I00
F79.992
sI01
I-35
ss(i__main__
State
p2375
(dp2376
g3
F0.0
sg4
F6.0
sg5
F0.0
sg6
F-2.0
sb(dp2377
I00
I-90
sI01
F62.050000000000004
ss(i__main__
State
p2378
(dp2379
g3
F3.0
sg4
F0.0
sg5
F-3.0
sg6
F0.0
sb(dp2380
I00
F14.8182680121
sI01
I-82
ss(i__main__
State
p2381
(dp2382
g3
F-6.0
sg4
F3.0
sg5
F6.0
sg6
F-6.0
sb(dp2383
I00
I-94
sI01
F7.6585201
ss(i__main__
State
p2384
(dp2385
g3
F-2.0
sg4
F10.0
sg5
F2.0
sg6
F-2.0
sb(dp2386
I00
F10.0
sI01
F0.0
ss(i__main__
State
p2387
(dp2388
g3
F0.0
sg4
F9.0
sg5
F0.0
sg6
F0.0
sb(dp2389
I00
F-2704.29
sI01
F-1896.0912
ss(i__main__
State
p2390
(dp2391
g3
F-1.0
sg4
F0.0
sg5
F1.0
sg6
F-8.0
sb(dp2392
I00
I92
sI01
F64.13
ss(i__main__
State
p2393
(dp2394
g3
F-1.0
sg4
F7.0
sg5
F1.0
sg6
F0.0
sb(dp2395
I00
F-46.97
sI01
I-93
ss(i__main__
State
p2396
(dp2397
g3
F-2.0
sg4
F4.0
sg5
F2.0
sg6
F2.0
sb(dp2398
I00
I-49
sI01
F71.309718
ss(i__main__
State
p2399
(dp2400
g3
F1.0
sg4
F5.0
sg5
F-1.0
sg6
F8.0
sb(dp2401
I00
I-87
sI01
F-40.349999999999994
ss(i__main__
State
p2402
(dp2403
g3
F-1.0
sg4
F10.0
sg5
F1.0
sg6
F-8.0
sb(dp2404
I00
F10.0
sI01
F13.8
ss(i__main__
State
p2405
(dp2406
g3
F-7.0
sg4
F0.0
sg5
F7.0
sg6
F-6.0
sb(dp2407
I00
F61.3898
sI01
F-19.8923
ss(i__main__
State
p2408
(dp2409
g3
F8.0
sg4
F2.0
sg5
F-8.0
sg6
F-6.0
sb(dp2410
I00
F48.2
sI01
F-48.6
ss(i__main__
State
p2411
(dp2412
g3
F3.0
sg4
F5.0
sg5
F-3.0
sg6
F0.0
sb(dp2413
I00
F-72.0
sI01
F25.789500000000004
ss(i__main__
State
p2414
(dp2415
g3
F-3.0
sg4
F6.0
sg5
F3.0
sg6
F8.0
sb(dp2416
I00
I83
sI01
F-39.8
ss(i__main__
State
p2417
(dp2418
g3
F-8.0
sg4
F2.0
sg5
F8.0
sg6
F-8.0
sb(dp2419
I00
F-33.72
sI01
I-76
ss(i__main__
State
p2420
(dp2421
g3
F-3.0
sg4
F6.0
sg5
F3.0
sg6
F-6.0
sb(dp2422
I00
I-36
sI01
F60.82
ss(i__main__
State
p2423
(dp2424
g3
F6.0
sg4
F10.0
sg5
F-6.0
sg6
F4.0
sb(dp2425
I00
F30.0
sI01
F0.0
ss(i__main__
State
p2426
(dp2427
g3
F-1.0
sg4
F8.0
sg5
F1.0
sg6
F-4.0
sb(dp2428
I00
F10.0
sI01
F0.0
ss(i__main__
State
p2429
(dp2430
g3
F2.0
sg4
F5.0
sg5
F-2.0
sg6
F-2.0
sb(dp2431
I00
F-30.47
sI01
F25.863534
ss(i__main__
State
p2432
(dp2433
g3
F7.0
sg4
F5.0
sg5
F-7.0
sg6
F-4.0
sb(dp2434
I00
I-48
sI01
F-71.63
ss(i__main__
State
p2435
(dp2436
g3
F-4.0
sg4
F1.0
sg5
F4.0
sg6
F-6.0
sb(dp2437
I00
F12.119913
sI01
F-14.183999999999997
ss(i__main__
State
p2438
(dp2439
g3
F3.0
sg4
F8.0
sg5
F-3.0
sg6
F8.0
sb(dp2440
I00
F60.153198
sI01
F0.0
ss(i__main__
State
p2441
(dp2442
g3
F-7.0
sg4
F9.0
sg5
F7.0
sg6
F8.0
sb(dp2443
I00
F41.24759
sI01
F10.0
ss(i__main__
State
p2444
(dp2445
g3
F5.0
sg4
F6.0
sg5
F-5.0
sg6
F0.0
sb(dp2446
I00
I82
sI01
F51.11786074852729
ss(i__main__
State
p2447
(dp2448
g3
F-3.0
sg4
F9.0
sg5
F3.0
sg6
F-6.0
sb(dp2449
I00
F21.92
sI01
F0.0
ss(i__main__
State
p2450
(dp2451
g3
F-3.0
sg4
F0.0
sg5
F3.0
sg6
F4.0
sb(dp2452
I00
I-86
sI01
F-70.7711
ss(i__main__
State
p2453
(dp2454
g3
F0.0
sg4
F0.0
sg5
F0.0
sg6
F4.0
sb(dp2455
I00
F12.910788360000002
sI01
F-8.4
ss(i__main__
State
p2456
(dp2457
g3
F4.0
sg4
F9.0
sg5
F-4.0
sg6
F-4.0
sb(dp2458
I00
F29.9
sI01
F17.197876219288002
ss(i__main__
State
p2459
(dp2460
g3
F5.0
sg4
F0.0
sg5
F-5.0
sg6
F8.0
sb(dp2461
I00
F61.193999999999996
sI01
F-9.7
ss(i__main__
State
p2462
(dp2463
g3
F3.0
sg4
F7.0
sg5
F-3.0
sg6
F2.0
sb(dp2464
I00
F50.5
sI01
I-85
ss(i__main__
State
p2465
(dp2466
g3
F2.0
sg4
F6.0
sg5
F-2.0
sg6
F-2.0
sb(dp2467
I00
F-0.3939999999999997
sI01
F20.0
ss(i__main__
State
p2468
(dp2469
g3
F-8.0
sg4
F6.0
sg5
F8.0
sg6
F4.0
sb(dp2470
I00
F-30.628
sI01
F43.94504
ss(i__main__
State
p2471
(dp2472
g3
F-8.0
sg4
F4.0
sg5
F8.0
sg6
F-6.0
sb(dp2473
I00
I-31
sI01
F95.95
ss(i__main__
State
p2474
(dp2475
g3
F-5.0
sg4
F5.0
sg5
F5.0
sg6
F-6.0
sb(dp2476
I00
I-98
sI01
F53.0
ss(i__main__
State
p2477
(dp2478
g3
F-6.0
sg4
F8.0
sg5
F6.0
sg6
F-2.0
sb(dp2479
I00
F90.4134945089
sI01
F-80.69720000000001
ss(i__main__
State
p2480
(dp2481
g3
F-1.0
sg4
F6.0
sg5
F1.0
sg6
F4.0
sb(dp2482
I00
I-12
sI01
F47.152
ss(i__main__
State
p2483
(dp2484
g3
F-8.0
sg4
F4.0
sg5
F8.0
sg6
F-8.0
sb(dp2485
I00
I-19
sI01
F-35.78
ss(i__main__
State
p2486
(dp2487
g3
F7.0
sg4
F6.0
sg5
F-7.0
sg6
F-4.0
sb(dp2488
I00
F18.523
sI01
I-17
ss(i__main__
State
p2489
(dp2490
g3
F2.0
sg4
F9.0
sg5
F-2.0
sg6
F-6.0
sb(dp2491
I00
F55.841508853966005
sI01
F0.0
ss(i__main__
State
p2492
(dp2493
g3
F-5.0
sg4
F10.0
sg5
F5.0
sg6
F-4.0
sb(dp2494
I00
F73.947503059
sI01
F0.0
ss(i__main__
State
p2495
(dp2496
g3
F2.0
sg4
F7.0
sg5
F-2.0
sg6
F-6.0
sb(dp2497
I00
F-33.8
sI01
I-94
ss(i__main__
State
p2498
(dp2499
g3
F6.0
sg4
F10.0
sg5
F-6.0
sg6
F8.0
sb(dp2500
I00
F20.3
sI01
F67.4848017
ss(i__main__
State
p2501
(dp2502
g3
F-4.0
sg4
F0.0
sg5
F4.0
sg6
F-6.0
sb(dp2503
I00
F34.7
sI01
I-55
ss(i__main__
State
p2504
(dp2505
g3
F1.0
sg4
F10.0
sg5
F-1.0
sg6
F4.0
sb(dp2506
I00
F-393.7684415000001
sI01
F69.00323821212515
ss(i__main__
State
p2507
(dp2508
g3
F1.0
sg4
F10.0
sg5
F-1.0
sg6
F-6.0
sb(dp2509
I00
F-65.37
sI01
F0.0
ss(i__main__
State
p2510
(dp2511
g3
F7.0
sg4
F3.0
sg5
F-7.0
sg6
F-8.0
sb(dp2512
I00
I-39
sI01
F33.246963
ss(i__main__
State
p2513
(dp2514
g3
F5.0
sg4
F1.0
sg5
F-5.0
sg6
F8.0
sb(dp2515
I00
I-82
sI01
F-27.704868520000005
ss(i__main__
State
p2516
(dp2517
g3
F-2.0
sg4
F0.0
sg5
F2.0
sg6
F-4.0
sb(dp2518
I00
F16.89017815
sI01
F-32.6
ss(i__main__
State
p2519
(dp2520
g3
F0.0
sg4
F8.0
sg5
F0.0
sg6
F-6.0
sb(dp2521
I00
F-1000.0
sI01
F-999.0
ss(i__main__
State
p2522
(dp2523
g3
F2.0
sg4
F7.0
sg5
F-2.0
sg6
F4.0
sb(dp2524
I00
F-48.1
sI01
I-82
ss(i__main__
State
p2525
(dp2526
g3
F2.0
sg4
F9.0
sg5
F-2.0
sg6
F4.0
sb(dp2527
I00
F28.0
sI01
F10.0
ss(i__main__
State
p2528
(dp2529
g3
F-7.0
sg4
F4.0
sg5
F7.0
sg6
F-8.0
sb(dp2530
I00
F-70.1
sI01
F-55.5
ss(i__main__
State
p2531
(dp2532
g3
F4.0
sg4
F7.0
sg5
F-4.0
sg6
F-4.0
sb(dp2533
I00
F68.9534
sI01
I-60
ss(i__main__
State
p2534
(dp2535
g3
F-8.0
sg4
F4.0
sg5
F8.0
sg6
F0.0
sb(dp2536
I00
F43.425013005000004
sI01
F-83.43062207999999
ss(i__main__
State
p2537
(dp2538
g3
F3.0
sg4
F9.0
sg5
F-3.0
sg6
F2.0
sb(dp2539
I00
F38.1
sI01
F0.0
ss(i__main__
State
p2540
(dp2541
g3
F6.0
sg4
F8.0
sg5
F-6.0
sg6
F2.0
sb(dp2542
I00
F40.529291
sI01
F12.0
ss(i__main__
State
p2543
(dp2544
g3
F-8.0
sg4
F6.0
sg5
F8.0
sg6
F-8.0
sb(dp2545
I00
I-22
sI01
F9.533075772300636
ss(i__main__
State
p2546
(dp2547
g3
F-4.0
sg4
F2.0
sg5
F4.0
sg6
F-2.0
sb(dp2548
I00
F60.2
sI01
F-60.0
ss(i__main__
State
p2549
(dp2550
g3
F-7.0
sg4
F6.0
sg5
F7.0
sg6
F-8.0
sb(dp2551
I00
I-72
sI01
F4.311999999999999
ss(i__main__
State
p2552
(dp2553
g3
F8.0
sg4
F9.0
sg5
F-8.0
sg6
F-6.0
sb(dp2554
I00
F53.68470000000001
sI01
F0.0
ss(i__main__
State
p2555
(dp2556
g3
F4.0
sg4
F9.0
sg5
F-4.0
sg6
F2.0
sb(dp2557
I00
F47.087893339009504
sI01
F12.0
ss(i__main__
State
p2558
(dp2559
g3
F6.0
sg4
F6.0
sg5
F-6.0
sg6
F8.0
sb(dp2560
I00
I-47
sI01
F77.53
ss(i__main__
State
p2561
(dp2562
g3
F-6.0
sg4
F2.0
sg5
F6.0
sg6
F-6.0
sb(dp2563
I00
I23
sI01
F46.82
ss(i__main__
State
p2564
(dp2565
g3
F-4.0
sg4
F8.0
sg5
F4.0
sg6
F6.0
sb(dp2566
I00
F29.111
sI01
F0.0
ss(i__main__
State
p2567
(dp2568
g3
F-4.0
sg4
F1.0
sg5
F4.0
sg6
F4.0
sb(dp2569
I00
F19.285769000000002
sI01
I-4
ss(i__main__
State
p2570
(dp2571
g3
F-8.0
sg4
F10.0
sg5
F8.0
sg6
F4.0
sb(dp2572
I00
F31.57
sI01
F7.1000000000000005
ss(i__main__
State
p2573
(dp2574
g3
F7.0
sg4
F9.0
sg5
F-7.0
sg6
F-4.0
sb(dp2575
I00
F64.4676091
sI01
F0.0
ss(i__main__
State
p2576
(dp2577
g3
F8.0
sg4
F0.0
sg5
F-8.0
sg6
F0.0
sb(dp2578
I00
F41.7281581
sI01
F10.510000000000002
ss(i__main__
State
p2579
(dp2580
g3
F2.0
sg4
F5.0
sg5
F-2.0
sg6
F0.0
sb(dp2581
I00
F56.24
sI01
F57.569135610000004
ss(i__main__
State
p2582
(dp2583
g3
F-3.0
sg4
F2.0
sg5
F3.0
sg6
F-6.0
sb(dp2584
I00
F-83.3939
sI01
F15.9
ss(i__main__
State
p2585
(dp2586
g3
F-7.0
sg4
F1.0
sg5
F7.0
sg6
F0.0
sb(dp2587
I00
F62.492200000000004
sI01
F-28.559000000000005
ss(i__main__
State
p2588
(dp2589
g3
F-2.0
sg4
F8.0
sg5
F2.0
sg6
F0.0
sb(dp2590
I00
F21.9
sI01
F0.0
ss(i__main__
State
p2591
(dp2592
g3
F7.0
sg4
F3.0
sg5
F-7.0
sg6
F-4.0
sb(dp2593
I00
F-61.1
sI01
I72
ss(i__main__
State
p2594
(dp2595
g3
F-8.0
sg4
F2.0
sg5
F8.0
sg6
F4.0
sb(dp2596
I00
F19.6
sI01
F45.716733
ss(i__main__
State
p2597
(dp2598
g3
F0.0
sg4
F7.0
sg5
F0.0
sg6
F0.0
sb(dp2599
I00
I-89
sI01
F66.2107
ss(i__main__
State
p2600
(dp2601
g3
F0.0
sg4
F10.0
sg5
F0.0
sg6
F6.0
sb(dp2602
I00
F-2705.053
sI01
F-2699.8326754234504
ss(i__main__
State
p2603
(dp2604
g3
F-3.0
sg4
F0.0
sg5
F3.0
sg6
F-4.0
sb(dp2605
I00
F66.1
sI01
I-44
ss(i__main__
State
p2606
(dp2607
g3
F-7.0
sg4
F8.0
sg5
F7.0
sg6
F4.0
sb(dp2608
I00
F151.55948300711324
sI01
F0.0
ss(i__main__
State
p2609
(dp2610
g3
F0.0
sg4
F10.0
sg5
F0.0
sg6
F-6.0
sb(dp2611
I00
F-1000.0
sI01
F0.0
ss(i__main__
State
p2612
(dp2613
g3
F8.0
sg4
F2.0
sg5
F-8.0
sg6
F2.0
sb(dp2614
I00
F36.10359999999999
sI01
I1
ss(i__main__
State
p2615
(dp2616
g3
F2.0
sg4
F3.0
sg5
F-2.0
sg6
F-6.0
sb(dp2617
I00
I95
sI01
F87.4
ss(i__main__
State
p2618
(dp2619
g3
F5.0
sg4
F2.0
sg5
F-5.0
sg6
F8.0
sb(dp2620
I00
F-9.590427700000001
sI01
I-76
ss(i__main__
State
p2621
(dp2622
g3
F-8.0
sg4
F0.0
sg5
F8.0
sg6
F-4.0
sb(dp2623
I00
F65.95085
sI01
I-67
ss(i__main__
State
p2624
(dp2625
g3
F4.0
sg4
F4.0
sg5
F-4.0
sg6
F2.0
sb(dp2626
I00
I-7
sI01
F26.12
ss(i__main__
State
p2627
(dp2628
g3
F-3.0
sg4
F6.0
sg5
F3.0
sg6
F2.0
sb(dp2629
I00
F88.99832856568776
sI01
I-41
ss(i__main__
State
p2630
(dp2631
g3
F8.0
sg4
F9.0
sg5
F-8.0
sg6
F-2.0
sb(dp2632
I00
F10.0
sI01
F0.0
ss(i__main__
State
p2633
(dp2634
g3
F-2.0
sg4
F1.0
sg5
F2.0
sg6
F8.0
sb(dp2635
I00
F7.157217069
sI01
F-66.622
ss(i__main__
State
p2636
(dp2637
g3
F-5.0
sg4
F1.0
sg5
F5.0
sg6
F8.0
sb(dp2638
I00
F95.5
sI01
I-38
ss(i__main__
State
p2639
(dp2640
g3
F0.0
sg4
F9.0
sg5
F0.0
sg6
F-2.0
sb(dp2641
I00
F-162.9
sI01
F143.86579965431505
ss(i__main__
State
p2642
(dp2643
g3
F0.0
sg4
F6.0
sg5
F0.0
sg6
F-6.0
sb(dp2644
I00
F-5.314000000000001
sI01
I-54
ss(i__main__
State
p2645
(dp2646
g3
F-2.0
sg4
F6.0
sg5
F2.0
sg6
F-8.0
sb(dp2647
I00
F17.72
sI01
I5
ss(i__main__
State
p2648
(dp2649
g3
F-6.0
sg4
F3.0
sg5
F6.0
sg6
F4.0
sb(dp2650
I00
F-42.9
sI01
F39.742058
ss(i__main__
State
p2651
(dp2652
g3
F5.0
sg4
F8.0
sg5
F-5.0
sg6
F4.0
sb(dp2653
I00
F43.584475999999995
sI01
F0.0
ss(i__main__
State
p2654
(dp2655
g3
F-1.0
sg4
F8.0
sg5
F1.0
sg6
F4.0
sb(dp2656
I00
F36.250934040000004
sI01
F0.0
ss(i__main__
State
p2657
(dp2658
g3
F2.0
sg4
F2.0
sg5
F-2.0
sg6
F8.0
sb(dp2659
I00
F59.667106585
sI01
F56.5600048
ss(i__main__
State
p2660
(dp2661
g3
F1.0
sg4
F6.0
sg5
F-1.0
sg6
F0.0
sb(dp2662
I00
I-89
sI01
F27.267066000000003
ss(i__main__
State
p2663
(dp2664
g3
F5.0
sg4
F6.0
sg5
F-5.0
sg6
F-8.0
sb(dp2665
I00
I-79
sI01
F44.6932
ss(i__main__
State
p2666
(dp2667
g3
F-3.0
sg4
F5.0
sg5
F3.0
sg6
F6.0
sb(dp2668
I00
F54.98858432399999
sI01
I21
ss(i__main__
State
p2669
(dp2670
g3
F8.0
sg4
F10.0
sg5
F-8.0
sg6
F8.0
sb(dp2671
I00
F51.860420000000005
sI01
F0.0
ss(i__main__
State
p2672
(dp2673
g3
F1.0
sg4
F0.0
sg5
F-1.0
sg6
F6.0
sb(dp2674
I00
F70.9
sI01
I-12
ss(i__main__
State
p2675
(dp2676
g3
F2.0
sg4
F4.0
sg5
F-2.0
sg6
F4.0
sb(dp2677
I00
I-15
sI01
F44.30861392658063
ss(i__main__
State
p2678
(dp2679
g3
F5.0
sg4
F2.0
sg5
F-5.0
sg6
F6.0
sb(dp2680
I00
F-84.92
sI01
F29.289491799000004
ss(i__main__
State
p2681
(dp2682
g3
F7.0
sg4
F3.0
sg5
F-7.0
sg6
F6.0
sb(dp2683
I00
F65.40169999999999
sI01
I-92
ss(i__main__
State
p2684
(dp2685
g3
F-1.0
sg4
F3.0
sg5
F1.0
sg6
F8.0
sb(dp2686
I00
I15
sI01
F68.385
ss(i__main__
State
p2687
(dp2688
g3
F6.0
sg4
F0.0
sg5
F-6.0
sg6
F0.0
sb(dp2689
I00
F9.6
sI01
F71.91655200000001
ss(i__main__
State
p2690
(dp2691
g3
F-8.0
sg4
F8.0
sg5
F8.0
sg6
F6.0
sb(dp2692
I00
F147.55130906921897
sI01
F24.298766144
ss(i__main__
State
p2693
(dp2694
g3
F-1.0
sg4
F4.0
sg5
F1.0
sg6
F-2.0
sb(dp2695
I00
I-95
sI01
F-54.860097335
ss(i__main__
State
p2696
(dp2697
g3
F-2.0
sg4
F8.0
sg5
F2.0
sg6
F8.0
sb(dp2698
I00
F20.0
sI01
F0.0
ss(i__main__
State
p2699
(dp2700
g3
F7.0
sg4
F9.0
sg5
F-7.0
sg6
F6.0
sb(dp2701
I00
F10.0
sI01
F26.426902000000002
ss(i__main__
State
p2702
(dp2703
g3
F5.0
sg4
F2.0
sg5
F-5.0
sg6
F-2.0
sb(dp2704
I00
F26.718563774880003
sI01
I-65
ss(i__main__
State
p2705
(dp2706
g3
F-5.0
sg4
F1.0
sg5
F5.0
sg6
F4.0
sb(dp2707
I00
F-36.3
sI01
I-87
ss(i__main__
State
p2708
(dp2709
g3
F-8.0
sg4
F0.0
sg5
F8.0
sg6
F0.0
sb(dp2710
I00
F75.1550492
sI01
F-49.6
ss(i__main__
State
p2711
(dp2712
g3
F7.0
sg4
F4.0
sg5
F-7.0
sg6
F0.0
sb(dp2713
I00
F39.7
sI01
F77.5
ss(i__main__
State
p2714
(dp2715
g3
F5.0
sg4
F4.0
sg5
F-5.0
sg6
F0.0
sb(dp2716
I00
F64.53
sI01
I-84
ss(i__main__
State
p2717
(dp2718
g3
F6.0
sg4
F5.0
sg5
F-6.0
sg6
F-4.0
sb(dp2719
I00
F74.4
sI01
I42
ss(i__main__
State
p2720
(dp2721
g3
F0.0
sg4
F5.0
sg5
F0.0
sg6
F-6.0
sb(dp2722
I00
F48.5119306
sI01
I-77
ss(i__main__
State
p2723
(dp2724
g3
F-1.0
sg4
F9.0
sg5
F1.0
sg6
F-8.0
sb(dp2725
I00
F24.07049
sI01
F0.0
ss(i__main__
State
p2726
(dp2727
g3
F-6.0
sg4
F2.0
sg5
F6.0
sg6
F4.0
sb(dp2728
I00
F56.74003853
sI01
I8
ss(i__main__
State
p2729
(dp2730
g3
F-5.0
sg4
F2.0
sg5
F5.0
sg6
F0.0
sb(dp2731
I00
F42.7
sI01
I-44
ss(i__main__
State
p2732
(dp2733
g3
F-1.0
sg4
F4.0
sg5
F1.0
sg6
F0.0
sb(dp2734
I00
F26.1
sI01
I-51
ss(i__main__
State
p2735
(dp2736
g3
F8.0
sg4
F8.0
sg5
F-8.0
sg6
F2.0
sb(dp2737
I00
F59.72
sI01
F10.0
ss(i__main__
State
p2738
(dp2739
g3
F1.0
sg4
F10.0
sg5
F-1.0
sg6
F8.0
sb(dp2740
I00
F-72.9
sI01
F16.966
ss(i__main__
State
p2741
(dp2742
g3
F8.0
sg4
F5.0
sg5
F-8.0
sg6
F2.0
sb(dp2743
I00
I-96
sI01
F2.262008306000001
ss(i__main__
State
p2744
(dp2745
g3
F5.0
sg4
F8.0
sg5
F-5.0
sg6
F0.0
sb(dp2746
I00
F199.0939611252753
sI01
F21.200000000000003
ss(i__main__
State
p2747
(dp2748
g3
F1.0
sg4
F8.0
sg5
F-1.0
sg6
F-4.0
sb(dp2749
I00
F-326.51
sI01
F145.57599949000664
ss(i__main__
State
p2750
(dp2751
g3
F-3.0
sg4
F5.0
sg5
F3.0
sg6
F-8.0
sb(dp2752
I00
F55.17
sI01
I-16
ss(i__main__
State
p2753
(dp2754
g3
F-1.0
sg4
F7.0
sg5
F1.0
sg6
F6.0
sb(dp2755
I00
F38.009655084986
sI01
I-41
ss(i__main__
State
p2756
(dp2757
g3
F8.0
sg4
F10.0
sg5
F-8.0
sg6
F0.0
sb(dp2758
I00
F10.0
sI01
F34.177111149000005
ss(i__main__
State
p2759
(dp2760
g3
F-1.0
sg4
F8.0
sg5
F1.0
sg6
F-6.0
sb(dp2761
I00
F33.400999999999996
sI01
F0.0
ss(i__main__
State
p2762
(dp2763
g3
F-1.0
sg4
F1.0
sg5
F1.0
sg6
F4.0
sb(dp2764
I00
F69.16058093999999
sI01
F-3.2578999999999976
ss(i__main__
State
p2765
(dp2766
g3
F-6.0
sg4
F4.0
sg5
F6.0
sg6
F8.0
sb(dp2767
I00
F-4.5600000000000005
sI01
I-8
ss(i__main__
State
p2768
(dp2769
g3
F-2.0
sg4
F9.0
sg5
F2.0
sg6
F-4.0
sb(dp2770
I00
F38.793007710000005
sI01
F28.86758990245241
ss(i__main__
State
p2771
(dp2772
g3
F-3.0
sg4
F2.0
sg5
F3.0
sg6
F-8.0
sb(dp2773
I00
I-52
sI01
F70.1625
ss(i__main__
State
p2774
(dp2775
g3
F-5.0
sg4
F4.0
sg5
F5.0
sg6
F-4.0
sb(dp2776
I00
I-18
sI01
F55.005
ss(i__main__
State
p2777
(dp2778
g3
F-4.0
sg4
F10.0
sg5
F4.0
sg6
F4.0
sb(dp2779
I00
F31.913700000000006
sI01
F0.0
ss(i__main__
State
p2780
(dp2781
g3
F5.0
sg4
F0.0
sg5
F-5.0
sg6
F-2.0
sb(dp2782
I00
I3
sI01
F9.98504
ss(i__main__
State
p2783
(dp2784
g3
F5.0
sg4
F4.0
sg5
F-5.0
sg6
F8.0
sb(dp2785
I00
I-69
sI01
F41.724
ss(i__main__
State
p2786
(dp2787
g3
F-6.0
sg4
F5.0
sg5
F6.0
sg6
F2.0
sb(dp2788
I00
I-50
sI01
F-6.299035579999998
ss(i__main__
State
p2789
(dp2790
g3
F-4.0
sg4
F5.0
sg5
F4.0
sg6
F-8.0
sb(dp2791
I00
F8.9
sI01
F21.12023
ss(i__main__
State
p2792
(dp2793
g3
F-7.0
sg4
F8.0
sg5
F7.0
sg6
F-8.0
sb(dp2794
I00
F40.280100000000004
sI01
F32.77440122554878
ss(i__main__
State
p2795
(dp2796
g3
F6.0
sg4
F2.0
sg5
F-6.0
sg6
F2.0
sb(dp2797
I00
I5
sI01
F67.5
ss(i__main__
State
p2798
(dp2799
g3
F2.0
sg4
F1.0
sg5
F-2.0
sg6
F-4.0
sb(dp2800
I00
F73.95
sI01
I-62
ss(i__main__
State
p2801
(dp2802
g3
F-2.0
sg4
F10.0
sg5
F2.0
sg6
F-4.0
sb(dp2803
I00
F186.456090536346
sI01
F30.379900000000003
ss(i__main__
State
p2804
(dp2805
g3
F-7.0
sg4
F10.0
sg5
F7.0
sg6
F0.0
sb(dp2806
I00
F77.102188216
sI01
F16.7
ss(i__main__
State
p2807
(dp2808
g3
F-7.0
sg4
F1.0
sg5
F7.0
sg6
F-2.0
sb(dp2809
I00
I1
sI01
F60.75800000000001
ss(i__main__
State
p2810
(dp2811
g3
F-8.0
sg4
F4.0
sg5
F8.0
sg6
F-2.0
sb(dp2812
I00
I-61
sI01
F-47.13
ss(i__main__
State
p2813
(dp2814
g3
F-3.0
sg4
F9.0
sg5
F3.0
sg6
F-4.0
sb(dp2815
I00
F29.9
sI01
F0.0
ss(i__main__
State
p2816
(dp2817
g3
F-5.0
sg4
F10.0
sg5
F5.0
sg6
F0.0
sb(dp2818
I00
F0.0
sI01
F23.2469
ss(i__main__
State
p2819
(dp2820
g3
F1.0
sg4
F2.0
sg5
F-1.0
sg6
F-8.0
sb(dp2821
I00
F13.594344000000001
sI01
F13.741248199673743
ss(i__main__
State
p2822
(dp2823
g3
F-4.0
sg4
F8.0
sg5
F4.0
sg6
F4.0
sb(dp2824
I00
F24.24409
sI01
F95.82575383683788
ss(i__main__
State
p2825
(dp2826
g3
F8.0
sg4
F1.0
sg5
F-8.0
sg6
F2.0
sb(dp2827
I00
F70.5862
sI01
I-47
ss(i__main__
State
p2828
(dp2829
g3
F-5.0
sg4
F0.0
sg5
F5.0
sg6
F-8.0
sb(dp2830
I00
I-99
sI01
F57.77
ss(i__main__
State
p2831
(dp2832
g3
F6.0
sg4
F3.0
sg5
F-6.0
sg6
F0.0
sb(dp2833
I00
F-69.42
sI01
F42.02710899999999
ss(i__main__
State
p2834
(dp2835
g3
F7.0
sg4
F4.0
sg5
F-7.0
sg6
F6.0
sb(dp2836
I00
F73.0
sI01
F63.43
ss(i__main__
State
p2837
(dp2838
g3
F8.0
sg4
F9.0
sg5
F-8.0
sg6
F-8.0
sb(dp2839
I00
F0.0
sI01
F37.187271
ss(i__main__
State
p2840
(dp2841
g3
F2.0
sg4
F7.0
sg5
F-2.0
sg6
F8.0
sb(dp2842
I00
F71.1
sI01
I-73
ss(i__main__
State
p2843
(dp2844
g3
F2.0
sg4
F3.0
sg5
F-2.0
sg6
F8.0
sb(dp2845
I00
F-49.579332
sI01
F35.58546355125304
ss(i__main__
State
p2846
(dp2847
g3
F1.0
sg4
F10.0
sg5
F-1.0
sg6
F-4.0
sb(dp2848
I00
F-81.0
sI01
F31.880000000000003
ss(i__main__
State
p2849
(dp2850
g3
F3.0
sg4
F1.0
sg5
F-3.0
sg6
F-4.0
sb(dp2851
I00
F89.55196190000001
sI01
I-41
ss(i__main__
State
p2852
(dp2853
g3
F-5.0
sg4
F8.0
sg5
F5.0
sg6
F2.0
sb(dp2854
I00
F20.0
sI01
F0.0
ss(i__main__
State
p2855
(dp2856
g3
F-6.0
sg4
F4.0
sg5
F6.0
sg6
F6.0
sb(dp2857
I00
I-78
sI01
F27.515615238000002
ss(i__main__
State
p2858
(dp2859
g3
F6.0
sg4
F2.0
sg5
F-6.0
sg6
F4.0
sb(dp2860
I00
I-1
sI01
F41.56
ss(i__main__
State
p2861
(dp2862
g3
F-4.0
sg4
F9.0
sg5
F4.0
sg6
F-4.0
sb(dp2863
I00
F29.200000000000003
sI01
F12.0
ss(i__main__
State
p2864
(dp2865
g3
F2.0
sg4
F9.0
sg5
F-2.0
sg6
F0.0
sb(dp2866
I00
F-1000.0
sI01
F-999.1700000000001
ss(i__main__
State
p2867
(dp2868
g3
F-4.0
sg4
F7.0
sg5
F4.0
sg6
F-8.0
sb(dp2869
I00
F74.611
sI01
I39
ss(i__main__
State
p2870
(dp2871
g3
F5.0
sg4
F0.0
sg5
F-5.0
sg6
F-6.0
sb(dp2872
I00
I48
sI01
F48.19
ss(i__main__
State
p2873
(dp2874
g3
F8.0
sg4
F7.0
sg5
F-8.0
sg6
F6.0
sb(dp2875
I00
F-69.2
sI01
F43.845699999999994
ss(i__main__
State
p2876
(dp2877
g3
F-8.0
sg4
F3.0
sg5
F8.0
sg6
F0.0
sb(dp2878
I00
I-12
sI01
F36.572
ss(i__main__
State
p2879
(dp2880
g3
F8.0
sg4
F4.0
sg5
F-8.0
sg6
F-2.0
sb(dp2881
I00
F83.28999999999999
sI01
F35.577
ss(i__main__
State
p2882
(dp2883
g3
F3.0
sg4
F2.0
sg5
F-3.0
sg6
F-4.0
sb(dp2884
I00
F12.917
sI01
F10.19756
ss(i__main__
State
p2885
(dp2886
g3
F0.0
sg4
F8.0
sg5
F0.0
sg6
F6.0
sb(dp2887
I00
F-1899.0
sI01
F-1897.1
ss(i__main__
State
p2888
(dp2889
g3
F7.0
sg4
F10.0
sg5
F-7.0
sg6
F8.0
sb(dp2890
I00
F78.10000623
sI01
F0.0
ss(i__main__
State
p2891
(dp2892
g3
F1.0
sg4
F8.0
sg5
F-1.0
sg6
F0.0
sb(dp2893
I00
F-72.9
sI01
F10.0
ss(i__main__
State
p2894
(dp2895
g3
F-4.0
sg4
F10.0
sg5
F4.0
sg6
F-4.0
sb(dp2896
I00
F39.0
sI01
F9.638890000000002
ss(i__main__
State
p2897
(dp2898
g3
F-4.0
sg4
F9.0
sg5
F4.0
sg6
F6.0
sb(dp2899
I00
F10.0
sI01
F32.000929
ss(i__main__
State
p2900
(dp2901
g3
F0.0
sg4
F10.0
sg5
F0.0
sg6
F-2.0
sb(dp2902
I00
F-1898.056
sI01
F-1901.9700000000003
ss(i__main__
State
p2903
(dp2904
g3
F-4.0
sg4
F4.0
sg5
F4.0
sg6
F0.0
sb(dp2905
I00
I8
sI01
F38.6
ss(i__main__
State
p2906
(dp2907
g3
F7.0
sg4
F10.0
sg5
F-7.0
sg6
F6.0
sb(dp2908
I00
F70.4502496
sI01
F6.314
ss(i__main__
State
p2909
(dp2910
g3
F6.0
sg4
F3.0
sg5
F-6.0
sg6
F8.0
sb(dp2911
I00
F22.396
sI01
F15.379999999999999
ss(i__main__
State
p2912
(dp2913
g3
F-8.0
sg4
F10.0
sg5
F8.0
sg6
F6.0
sb(dp2914
I00
F50.381370000000004
sI01
F10.129999999999999
ss(i__main__
State
p2915
(dp2916
g3
F0.0
sg4
F2.0
sg5
F0.0
sg6
F8.0
sb(dp2917
I00
I-66
sI01
F1.5720000000000027
ss(i__main__
State
p2918
(dp2919
g3
F2.0
sg4
F0.0
sg5
F-2.0
sg6
F-2.0
sb(dp2920
I00
F-69.8
sI01
I6
ss(i__main__
State
p2921
(dp2922
g3
F4.0
sg4
F5.0
sg5
F-4.0
sg6
F-8.0
sb(dp2923
I00
F93.61930000000001
sI01
F-12.3015
ss(i__main__
State
p2924
(dp2925
g3
F2.0
sg4
F4.0
sg5
F-2.0
sg6
F-4.0
sb(dp2926
I00
F31.709999999999997
sI01
F77.54531929847
ss(i__main__
State
p2927
(dp2928
g3
F6.0
sg4
F10.0
sg5
F-6.0
sg6
F-6.0
sb(dp2929
I00
F36.19716153
sI01
F0.0
ss(i__main__
State
p2930
(dp2931
g3
F-5.0
sg4
F5.0
sg5
F5.0
sg6
F4.0
sb(dp2932
I00
F-6.367999532579999
sI01
F-14.131879250579999
ss(i__main__
State
p2933
(dp2934
g3
F5.0
sg4
F6.0
sg5
F-5.0
sg6
F4.0
sb(dp2935
I00
F-5.3999999999999995
sI01
F35.10920000000001
ss(i__main__
State
p2936
(dp2937
g3
F8.0
sg4
F8.0
sg5
F-8.0
sg6
F-6.0
sb(dp2938
I00
F86.93217221073036
sI01
F24.55784
ss(i__main__
State
p2939
(dp2940
g3
F1.0
sg4
F4.0
sg5
F-1.0
sg6
F6.0
sb(dp2941
I00
I2
sI01
F76.1
ss(i__main__
State
p2942
(dp2943
g3
F6.0
sg4
F9.0
sg5
F-6.0
sg6
F-2.0
sb(dp2944
I00
F-245.19200000000006
sI01
F44.470491
ss(i__main__
State
p2945
(dp2946
g3
F1.0
sg4
F4.0
sg5
F-1.0
sg6
F4.0
sb(dp2947
I00
I-2
sI01
F5.800000000000001
ss(i__main__
State
p2948
(dp2949
g3
F-3.0
sg4
F0.0
sg5
F3.0
sg6
F-8.0
sb(dp2950
I00
F76.5
sI01
I73
ss(i__main__
State
p2951
(dp2952
g3
F-3.0
sg4
F9.0
sg5
F3.0
sg6
F4.0
sb(dp2953
I00
F39.0
sI01
F27.4273444501184
ss(i__main__
State
p2954
(dp2955
g3
F-6.0
sg4
F6.0
sg5
F6.0
sg6
F6.0
sb(dp2956
I00
F54.80335765765989
sI01
F20.673000000000002
ss(i__main__
State
p2957
(dp2958
g3
F-4.0
sg4
F2.0
sg5
F4.0
sg6
F-8.0
sb(dp2959
I00
F95.33
sI01
I-32
ss(i__main__
State
p2960
(dp2961
g3
F6.0
sg4
F1.0
sg5
F-6.0
sg6
F6.0
sb(dp2962
I00
F46.3
sI01
I-56
ss(i__main__
State
p2963
(dp2964
g3
F1.0
sg4
F1.0
sg5
F-1.0
sg6
F0.0
sb(dp2965
I00
F88.36
sI01
I42
ss(i__main__
State
p2966
(dp2967
g3
F-4.0
sg4
F4.0
sg5
F4.0
sg6
F8.0
sb(dp2968
I00
I86
sI01
F-36.519999999999996
ss(i__main__
State
p2969
(dp2970
g3
F1.0
sg4
F8.0
sg5
F-1.0
sg6
F8.0
sb(dp2971
I00
F-319.03595400000006
sI01
F171.4130765034683
ss(i__main__
State
p2972
(dp2973
g3
F-1.0
sg4
F9.0
sg5
F1.0
sg6
F2.0
sb(dp2974
I00
F63.438
sI01
F0.0
ss(i__main__
State
p2975
(dp2976
g3
F-2.0
sg4
F5.0
sg5
F2.0
sg6
F-2.0
sb(dp2977
I00
I-77
sI01
F19.06903976
ss(i__main__
State
p2978
(dp2979
g3
F5.0
sg4
F10.0
sg5
F-5.0
sg6
F4.0
sb(dp2980
I00
F10.0
sI01
F0.0
ss(i__main__
State
p2981
(dp2982
g3
F0.0
sg4
F3.0
sg5
F0.0
sg6
F2.0
sb(dp2983
I00
F-20.5
sI01
F70.74526540818
ss(i__main__
State
p2984
(dp2985
g3
F-2.0
sg4
F2.0
sg5
F2.0
sg6
F8.0
sb(dp2986
I00
F-23.04
sI01
I34
ss(i__main__
State
p2987
(dp2988
g3
F5.0
sg4
F7.0
sg5
F-5.0
sg6
F-2.0
sb(dp2989
I00
F43.74
sI01
I4
ss(i__main__
State
p2990
(dp2991
g3
F4.0
sg4
F10.0
sg5
F-4.0
sg6
F8.0
sb(dp2992
I00
F31.17
sI01
F0.0
ss(i__main__
State
p2993
(dp2994
g3
F-2.0
sg4
F10.0
sg5
F2.0
sg6
F0.0
sb(dp2995
I00
F69.2014369
sI01
F13.3
ss(i__main__
State
p2996
(dp2997
g3
F4.0
sg4
F4.0
sg5
F-4.0
sg6
F4.0
sb(dp2998
I00
F31.380279
sI01
F-44.3
ss(i__main__
State
p2999
(dp3000
g3
F-8.0
sg4
F0.0
sg5
F8.0
sg6
F2.0
sb(dp3001
I00
I67
sI01
F-43.9
ss(i__main__
State
p3002
(dp3003
g3
F2.0
sg4
F4.0
sg5
F-2.0
sg6
F8.0
sb(dp3004
I00
F-28.5255454993405
sI01
F21.154110000000003
ss(i__main__
State
p3005
(dp3006
g3
F-5.0
sg4
F4.0
sg5
F5.0
sg6
F0.0
sb(dp3007
I00
I-76
sI01
F-48.205894
ss(i__main__
State
p3008
(dp3009
g3
F-2.0
sg4
F0.0
sg5
F2.0
sg6
F-8.0
sb(dp3010
I00
F73.02174309139883
sI01
F-35.48175494897825
ss(i__main__
State
p3011
(dp3012
g3
F-7.0
sg4
F7.0
sg5
F7.0
sg6
F2.0
sb(dp3013
I00
I-99
sI01
F-19.346999999999998
ss(i__main__
State
p3014
(dp3015
g3
F-2.0
sg4
F6.0
sg5
F2.0
sg6
F-2.0
sb(dp3016
I00
F22.399
sI01
I-97
ss(i__main__
State
p3017
(dp3018
g3
F-8.0
sg4
F5.0
sg5
F8.0
sg6
F4.0
sb(dp3019
I00
F-41.971569599999995
sI01
F-7.84
ss(i__main__
State
p3020
(dp3021
g3
F-7.0
sg4
F9.0
sg5
F7.0
sg6
F-8.0
sb(dp3022
I00
F110.19488356204369
sI01
F20.791
ss(i__main__
State
p3023
(dp3024
g3
F-1.0
sg4
F2.0
sg5
F1.0
sg6
F4.0
sb(dp3025
I00
F43.506903
sI01
I-87
ss(i__main__
State
p3026
(dp3027
g3
F-8.0
sg4
F6.0
sg5
F8.0
sg6
F-4.0
sb(dp3028
I00
I-24
sI01
F4.1
ss(i__main__
State
p3029
(dp3030
g3
F-8.0
sg4
F1.0
sg5
F8.0
sg6
F-4.0
sb(dp3031
I00
F35.077000000000005
sI01
F-9.899999999999999
ss(i__main__
State
p3032
(dp3033
g3
F-3.0
sg4
F5.0
sg5
F3.0
sg6
F0.0
sb(dp3034
I00
F75.02173218733755
sI01
F-32.869966
ss(i__main__
State
p3035
(dp3036
g3
F-1.0
sg4
F7.0
sg5
F1.0
sg6
F2.0
sb(dp3037
I00
F-71.0
sI01
I80
ss(i__main__
State
p3038
(dp3039
g3
F4.0
sg4
F1.0
sg5
F-4.0
sg6
F0.0
sb(dp3040
I00
I-35
sI01
F71.362884
ss(i__main__
State
p3041
(dp3042
g3
F-7.0
sg4
F7.0
sg5
F7.0
sg6
F-8.0
sb(dp3043
I00
F-19.8
sI01
F86.65627145304367
ss(i__main__
State
p3044
(dp3045
g3
F-7.0
sg4
F5.0
sg5
F7.0
sg6
F4.0
sb(dp3046
I00
I-14
sI01
F34.6
ss(i__main__
State
p3047
(dp3048
g3
F-2.0
sg4
F9.0
sg5
F2.0
sg6
F-6.0
sb(dp3049
I00
F30.0
sI01
F53.055515
ss(i__main__
State
p3050
(dp3051
g3
F2.0
sg4
F10.0
sg5
F-2.0
sg6
F2.0
sb(dp3052
I00
F102.726781915792
sI01
F33.784742300000005
ss(i__main__
State
p3053
(dp3054
g3
F-6.0
sg4
F7.0
sg5
F6.0
sg6
F-4.0
sb(dp3055
I00
F9.854716000000003
sI01
I-38
ss(i__main__
State
p3056
(dp3057
g3
F4.0
sg4
F0.0
sg5
F-4.0
sg6
F-2.0
sb(dp3058
I00
F-8.7201924431
sI01
F11.9146
ss(i__main__
State
p3059
(dp3060
g3
F1.0
sg4
F7.0
sg5
F-1.0
sg6
F2.0
sb(dp3061
I00
F39.11064546821
sI01
F-214.89000000000001
ss(i__main__
State
p3062
(dp3063
g3
F-2.0
sg4
F0.0
sg5
F2.0
sg6
F2.0
sb(dp3064
I00
F-88.5634
sI01
F-0.018971999999999767
ss(i__main__
State
p3065
(dp3066
g3
F7.0
sg4
F1.0
sg5
F-7.0
sg6
F8.0
sb(dp3067
I00
F23.436487800000002
sI01
F8.3
ss(i__main__
State
p3068
(dp3069
g3
F7.0
sg4
F7.0
sg5
F-7.0
sg6
F4.0
sb(dp3070
I00
F-53.3
sI01
I-67
ss(i__main__
State
p3071
(dp3072
g3
F-8.0
sg4
F1.0
sg5
F8.0
sg6
F6.0
sb(dp3073
I00
I-39
sI01
F15.100000000000001
ss(i__main__
State
p3074
(dp3075
g3
F1.0
sg4
F5.0
sg5
F-1.0
sg6
F-6.0
sb(dp3076
I00
F-5.772621910288992
sI01
F-44.258540710000005
ss(i__main__
State
p3077
(dp3078
g3
F-2.0
sg4
F7.0
sg5
F2.0
sg6
F4.0
sb(dp3079
I00
F70.1604
sI01
I-11
ss(i__main__
State
p3080
(dp3081
g3
F-2.0
sg4
F1.0
sg5
F2.0
sg6
F6.0
sb(dp3082
I00
F56.74939999999999
sI01
F65.59195430000001
ss(i__main__
State
p3083
(dp3084
g3
F-3.0
sg4
F2.0
sg5
F3.0
sg6
F8.0
sb(dp3085
I00
I-3
sI01
F47.41443443
ss(i__main__
State
p3086
(dp3087
g3
F4.0
sg4
F3.0
sg5
F-4.0
sg6
F6.0
sb(dp3088
I00
F70.168916
sI01
I-5
ss(i__main__
State
p3089
(dp3090
g3
F-5.0
sg4
F1.0
sg5
F5.0
sg6
F2.0
sb(dp3091
I00
F0.16349999999999953
sI01
F-57.8
ss(i__main__
State
p3092
(dp3093
g3
F5.0
sg4
F9.0
sg5
F-5.0
sg6
F0.0
sb(dp3094
I00
F-2703.83
sI01
F-1898.0
ss(i__main__
State
p3095
(dp3096
g3
F-3.0
sg4
F3.0
sg5
F3.0
sg6
F-6.0
sb(dp3097
I00
I-11
sI01
F49.477
ss(i__main__
State
p3098
(dp3099
g3
F4.0
sg4
F6.0
sg5
F-4.0
sg6
F-8.0
sb(dp3100
I00
F21.2085
sI01
I15
ss(i__main__
State
p3101
(dp3102
g3
F-3.0
sg4
F5.0
sg5
F3.0
sg6
F8.0
sb(dp3103
I00
I-35
sI01
F-1.5145999999999988
ss(i__main__
State
p3104
(dp3105
g3
F1.0
sg4
F4.0
sg5
F-1.0
sg6
F-8.0
sb(dp3106
I00
F-36.9040630266565
sI01
F-63.3131999
ss(i__main__
State
p3107
(dp3108
g3
F-7.0
sg4
F1.0
sg5
F7.0
sg6
F4.0
sb(dp3109
I00
F-87.3
sI01
F74.97855000000001
ss(i__main__
State
p3110
(dp3111
g3
F7.0
sg4
F4.0
sg5
F-7.0
sg6
F-8.0
sb(dp3112
I00
I-49
sI01
F73.8
ss(i__main__
State
p3113
(dp3114
g3
F-6.0
sg4
F1.0
sg5
F6.0
sg6
F-8.0
sb(dp3115
I00
F81.531
sI01
I-68
ss(i__main__
State
p3116
(dp3117
g3
F7.0
sg4
F0.0
sg5
F-7.0
sg6
F6.0
sb(dp3118
I00
I-96
sI01
F-76.1
ss(i__main__
State
p3119
(dp3120
g3
F-7.0
sg4
F10.0
sg5
F7.0
sg6
F-4.0
sb(dp3121
I00
F11.090000000000002
sI01
F0.0
ss(i__main__
State
p3122
(dp3123
g3
F-1.0
sg4
F10.0
sg5
F1.0
sg6
F-2.0
sb(dp3124
I00
F21.2236
sI01
F0.0
ss(i__main__
State
p3125
(dp3126
g3
F3.0
sg4
F3.0
sg5
F-3.0
sg6
F2.0
sb(dp3127
I00
F-50.8
sI01
F73.01166372819655
ss(i__main__
State
p3128
(dp3129
g3
F-2.0
sg4
F6.0
sg5
F2.0
sg6
F4.0
sb(dp3130
I00
F-44.6
sI01
F1.925014
ss(i__main__
State
p3131
(dp3132
g3
F-3.0
sg4
F6.0
sg5
F3.0
sg6
F4.0
sb(dp3133
I00
F90.7
sI01
I86
ss(i__main__
State
p3134
(dp3135
g3
F6.0
sg4
F3.0
sg5
F-6.0
sg6
F6.0
sb(dp3136
I00
I13
sI01
F69.5
ss(i__main__
State
p3137
(dp3138
g3
F7.0
sg4
F10.0
sg5
F-7.0
sg6
F-8.0
sb(dp3139
I00
F12.4079434
sI01
F51.724288
ss(i__main__
State
p3140
(dp3141
g3
F7.0
sg4
F1.0
sg5
F-7.0
sg6
F0.0
sb(dp3142
I00
F11.788400908000002
sI01
I-29
ss(i__main__
State
p3143
(dp3144
g3
F6.0
sg4
F2.0
sg5
F-6.0
sg6
F0.0
sb(dp3145
I00
I-83
sI01
F-29.2
ss(i__main__
State
p3146
(dp3147
g3
F-4.0
sg4
F0.0
sg5
F4.0
sg6
F2.0
sb(dp3148
I00
I-85
sI01
F-36.7
ss(i__main__
State
p3149
(dp3150
g3
F6.0
sg4
F5.0
sg5
F-6.0
sg6
F-8.0
sb(dp3151
I00
F26.568
sI01
I44
ss(i__main__
State
p3152
(dp3153
g3
F-2.0
sg4
F10.0
sg5
F2.0
sg6
F-6.0
sb(dp3154
I00
F10.0
sI01
F0.0
ss(i__main__
State
p3155
(dp3156
g3
F-5.0
sg4
F8.0
sg5
F5.0
sg6
F4.0
sb(dp3157
I00
F10.0
sI01
F0.0
ss(i__main__
State
p3158
(dp3159
g3
F3.0
sg4
F2.0
sg5
F-3.0
sg6
F0.0
sb(dp3160
I00
I-40
sI01
F-81.8
ss(i__main__
State
p3161
(dp3162
g3
F-1.0
sg4
F1.0
sg5
F1.0
sg6
F0.0
sb(dp3163
I00
F-75.8
sI01
F39.97
ss(i__main__
State
p3164
(dp3165
g3
F6.0
sg4
F5.0
sg5
F-6.0
sg6
F-6.0
sb(dp3166
I00
F56.0341
sI01
I-58
ss(i__main__
State
p3167
(dp3168
g3
F-4.0
sg4
F7.0
sg5
F4.0
sg6
F-2.0
sb(dp3169
I00
I-48
sI01
F36.69377251672164
ss(i__main__
State
p3170
(dp3171
g3
F2.0
sg4
F1.0
sg5
F-2.0
sg6
F8.0
sb(dp3172
I00
F20.6861176458
sI01
F32.785010476891024
ss(i__main__
State
p3173
(dp3174
g3
F6.0
sg4
F8.0
sg5
F-6.0
sg6
F6.0
sb(dp3175
I00
F11.0
sI01
F50.01
ss(i__main__
State
p3176
(dp3177
g3
F3.0
sg4
F6.0
sg5
F-3.0
sg6
F6.0
sb(dp3178
I00
I-49
sI01
F79.55
ss(i__main__
State
p3179
(dp3180
g3
F0.0
sg4
F8.0
sg5
F0.0
sg6
F8.0
sb(dp3181
I00
F-2698.827
sI01
F-1898.8000000000002
ss(i__main__
State
p3182
(dp3183
g3
F8.0
sg4
F9.0
sg5
F-8.0
sg6
F8.0
sb(dp3184
I00
F87.45010934477399
sI01
F0.0
ss(i__main__
State
p3185
(dp3186
g3
F4.0
sg4
F6.0
sg5
F-4.0
sg6
F-4.0
sb(dp3187
I00
F71.3053
sI01
I-96
ss(i__main__
State
p3188
(dp3189
g3
F7.0
sg4
F4.0
sg5
F-7.0
sg6
F-4.0
sb(dp3190
I00
I22
sI01
F50.7
ss(i__main__
State
p3191
(dp3192
g3
F-6.0
sg4
F0.0
sg5
F6.0
sg6
F8.0
sb(dp3193
I00
F4.8665
sI01
I-29
ss(i__main__
State
p3194
(dp3195
g3
F-5.0
sg4
F8.0
sg5
F5.0
sg6
F-2.0
sb(dp3196
I00
F10.0
sI01
F0.0
ss(i__main__
State
p3197
(dp3198
g3
F-4.0
sg4
F9.0
sg5
F4.0
sg6
F0.0
sb(dp3199
I00
F-1899.0
sI01
F-1892.4865918199998
ss(i__main__
State
p3200
(dp3201
g3
F-6.0
sg4
F7.0
sg5
F6.0
sg6
F-8.0
sb(dp3202
I00
F77.40941
sI01
F-62.1
ss(i__main__
State
p3203
(dp3204
g3
F-8.0
sg4
F10.0
sg5
F8.0
sg6
F0.0
sb(dp3205
I00
F12.076
sI01
F33.6794
ss(i__main__
State
p3206
(dp3207
g3
F3.0
sg4
F1.0
sg5
F-3.0
sg6
F6.0
sb(dp3208
I00
I-90
sI01
F13.238500000000002
ss(i__main__
State
p3209
(dp3210
g3
F-6.0
sg4
F4.0
sg5
F6.0
sg6
F-8.0
sb(dp3211
I00
F1.7285999999999992
sI01
I-81
ss(i__main__
State
p3212
(dp3213
g3
F0.0
sg4
F2.0
sg5
F0.0
sg6
F-6.0
sb(dp3214
I00
F21.1
sI01
F40.385220000000004
ss(i__main__
State
p3215
(dp3216
g3
F3.0
sg4
F5.0
sg5
F-3.0
sg6
F-6.0
sb(dp3217
I00
F77.8575103
sI01
I62
ss(i__main__
State
p3218
(dp3219
g3
F5.0
sg4
F1.0
sg5
F-5.0
sg6
F4.0
sb(dp3220
I00
F-13.3
sI01
F44.19396781094103
ss(i__main__
State
p3221
(dp3222
g3
F7.0
sg4
F10.0
sg5
F-7.0
sg6
F-4.0
sb(dp3223
I00
F20.11
sI01
F0.0
ss(i__main__
State
p3224
(dp3225
g3
F8.0
sg4
F7.0
sg5
F-8.0
sg6
F-2.0
sb(dp3226
I00
I-48
sI01
F60.302310000000006
ss(i__main__
State
p3227
(dp3228
g3
F-8.0
sg4
F2.0
sg5
F8.0
sg6
F8.0
sb(dp3229
I00
F42.2141912685479
sI01
F0.49706999999999946
ss(i__main__
State
p3230
(dp3231
g3
F-6.0
sg4
F9.0
sg5
F6.0
sg6
F6.0
sb(dp3232
I00
F32.923320000000004
sI01
F0.0
ss(i__main__
State
p3233
(dp3234
g3
F7.0
sg4
F2.0
sg5
F-7.0
sg6
F2.0
sb(dp3235
I00
F64.12
sI01
I32
ss(i__main__
State
p3236
(dp3237
g3
F-7.0
sg4
F4.0
sg5
F7.0
sg6
F-4.0
sb(dp3238
I00
I-70
sI01
F16.8792975
ss(i__main__
State
p3239
(dp3240
g3
F8.0
sg4
F2.0
sg5
F-8.0
sg6
F6.0
sb(dp3241
I00
I-57
sI01
F-13.882999999999997
ss(i__main__
State
p3242
(dp3243
g3
F-7.0
sg4
F2.0
sg5
F7.0
sg6
F2.0
sb(dp3244
I00
F62.74474559999999
sI01
F68.16926
ss(i__main__
State
p3245
(dp3246
g3
F5.0
sg4
F9.0
sg5
F-5.0
sg6
F-8.0
sb(dp3247
I00
F10.0
sI01
F125.77025616296001
ss(i__main__
State
p3248
(dp3249
g3
F-2.0
sg4
F10.0
sg5
F2.0
sg6
F6.0
sb(dp3250
I00
F10.0
sI01
F37.56
ss(i__main__
State
p3251
(dp3252
g3
F2.0
sg4
F1.0
sg5
F-2.0
sg6
F0.0
sb(dp3253
I00
I-58
sI01
F-61.759
ss(i__main__
State
p3254
(dp3255
g3
F4.0
sg4
F0.0
sg5
F-4.0
sg6
F-6.0
sb(dp3256
I00
F29.803475476
sI01
F-1.299999999999999
ss(i__main__
State
p3257
(dp3258
g3
F0.0
sg4
F8.0
sg5
F0.0
sg6
F0.0
sb(dp3259
I00
F-1897.1
sI01
F-2700.958
ss(i__main__
State
p3260
(dp3261
g3
F-2.0
sg4
F4.0
sg5
F2.0
sg6
F8.0
sb(dp3262
I00
F-28.359999999999996
sI01
F-48.8
ss(i__main__
State
p3263
(dp3264
g3
F1.0
sg4
F7.0
sg5
F-1.0
sg6
F8.0
sb(dp3265
I00
I62
sI01
F-152.99
ss(i__main__
State
p3266
(dp3267
g3
F4.0
sg4
F5.0
sg5
F-4.0
sg6
F-2.0
sb(dp3268
I00
F40.56714
sI01
F-64.213
ss(i__main__
State
p3269
(dp3270
g3
F-5.0
sg4
F6.0
sg5
F5.0
sg6
F6.0
sb(dp3271
I00
F51.913302182397494
sI01
F-42.88190183458825
ss(i__main__
State
p3272
(dp3273
g3
F1.0
sg4
F9.0
sg5
F-1.0
sg6
F6.0
sb(dp3274
I00
F10.0
sI01
F-80.08000000000001
ss(i__main__
State
p3275
(dp3276
g3
F5.0
sg4
F8.0
sg5
F-5.0
sg6
F-6.0
sb(dp3277
I00
F40.0
sI01
F0.0
ss(i__main__
State
p3278
(dp3279
g3
F-4.0
sg4
F9.0
sg5
F4.0
sg6
F8.0
sb(dp3280
I00
F76.00525481
sI01
F0.0
ss(i__main__
State
p3281
(dp3282
g3
F5.0
sg4
F10.0
sg5
F-5.0
sg6
F2.0
sb(dp3283
I00
F153.23270271001783
sI01
F28.573999999999998
ss(i__main__
State
p3284
(dp3285
g3
F3.0
sg4
F9.0
sg5
F-3.0
sg6
F-2.0
sb(dp3286
I00
F19.0
sI01
F41.01202632520001
ss(i__main__
State
p3287
(dp3288
g3
F2.0
sg4
F6.0
sg5
F-2.0
sg6
F6.0
sb(dp3289
I00
I-15
sI01
F15.2
ss(i__main__
State
p3290
(dp3291
g3
F4.0
sg4
F1.0
sg5
F-4.0
sg6
F6.0
sb(dp3292
I00
I-100
sI01
F-85.2
ss(i__main__
State
p3293
(dp3294
g3
F-1.0
sg4
F3.0
sg5
F1.0
sg6
F-6.0
sb(dp3295
I00
F-9.4
sI01
F-49.7
ss(i__main__
State
p3296
(dp3297
g3
F-1.0
sg4
F0.0
sg5
F1.0
sg6
F8.0
sb(dp3298
I00
F58.216384133018934
sI01
F-26.118606
ss(i__main__
State
p3299
(dp3300
g3
F-6.0
sg4
F8.0
sg5
F6.0
sg6
F2.0
sb(dp3301
I00
F135.25531654855496
sI01
F11.0
ss(i__main__
State
p3302
(dp3303
g3
F-3.0
sg4
F0.0
sg5
F3.0
sg6
F-2.0
sb(dp3304
I00
F32.31
sI01
F51.2805142
ss(i__main__
State
p3305
(dp3306
g3
F-1.0
sg4
F10.0
sg5
F1.0
sg6
F2.0
sb(dp3307
I00
F40.31230000000001
sI01
F0.0
ss(i__main__
State
p3308
(dp3309
g3
F8.0
sg4
F5.0
sg5
F-8.0
sg6
F8.0
sb(dp3310
I00
I-24
sI01
F48.2
ss(i__main__
State
p3311
(dp3312
g3
F-3.0
sg4
F0.0
sg5
F3.0
sg6
F-6.0
sb(dp3313
I00
F70.5680578475399
sI01
F-24.548198430269004
ss(i__main__
State
p3314
(dp3315
g3
F1.0
sg4
F2.0
sg5
F-1.0
sg6
F0.0
sb(dp3316
I00
I-69
sI01
F65.47099937682
ss(i__main__
State
p3317
(dp3318
g3
F-7.0
sg4
F2.0
sg5
F7.0
sg6
F6.0
sb(dp3319
I00
F10.107330905715088
sI01
I-37
ss(i__main__
State
p3320
(dp3321
g3
F3.0
sg4
F5.0
sg5
F-3.0
sg6
F6.0
sb(dp3322
I00
F35.9
sI01
I3
ss(i__main__
State
p3323
(dp3324
g3
F-7.0
sg4
F8.0
sg5
F7.0
sg6
F0.0
sb(dp3325
I00
F79.91903188900001
sI01
F31.8
ss(i__main__
State
p3326
(dp3327
g3
F-5.0
sg4
F0.0
sg5
F5.0
sg6
F8.0
sb(dp3328
I00
F-34.037000000000006
sI01
I-98
ss(i__main__
State
p3329
(dp3330
g3
F5.0
sg4
F3.0
sg5
F-5.0
sg6
F2.0
sb(dp3331
I00
F7.1
sI01
F2.7300000000000004
ss(i__main__
State
p3332
(dp3333
g3
F-5.0
sg4
F1.0
sg5
F5.0
sg6
F-2.0
sb(dp3334
I00
F55.59515247829507
sI01
I-63
ss(i__main__
State
p3335
(dp3336
g3
F1.0
sg4
F5.0
sg5
F-1.0
sg6
F2.0
sb(dp3337
I00
I-96
sI01
F0.4530394000000024
ss(i__main__
State
p3338
(dp3339
g3
F0.0
sg4
F5.0
sg5
F0.0
sg6
F2.0
sb(dp3340
I00
I-36
sI01
F-8.0316
ss(i__main__
State
p3341
(dp3342
g3
F-3.0
sg4
F4.0
sg5
F3.0
sg6
F-2.0
sb(dp3343
I00
F-28.8
sI01
I-37
ss(i__main__
State
p3344
(dp3345
g3
F-2.0
sg4
F3.0
sg5
F2.0
sg6
F-2.0
sb(dp3346
I00
F72.76140477781999
sI01
F9.870000000000001
ss(i__main__
State
p3347
(dp3348
g3
F-8.0
sg4
F3.0
sg5
F8.0
sg6
F-8.0
sb(dp3349
I00
F-73.2
sI01
I-26
ss(i__main__
State
p3350
(dp3351
g3
F1.0
sg4
F7.0
sg5
F-1.0
sg6
F-2.0
sb(dp3352
I00
F21.616500000000002
sI01
F-181.0
ss(i__main__
State
p3353
(dp3354
g3
F-6.0
sg4
F3.0
sg5
F6.0
sg6
F0.0
sb(dp3355
I00
I15
sI01
F43.21340000000001
ss(i__main__
State
p3356
(dp3357
g3
F-7.0
sg4
F3.0
sg5
F7.0
sg6
F8.0
sb(dp3358
I00
I18
sI01
F-17.2
ss(i__main__
State
p3359
(dp3360
g3
F-3.0
sg4
F8.0
sg5
F3.0
sg6
F0.0
sb(dp3361
I00
F0.0
sI01
F21.9
ss(i__main__
State
p3362
(dp3363
g3
F2.0
sg4
F10.0
sg5
F-2.0
sg6
F-2.0
sb(dp3364
I00
F97.59678749380001
sI01
F30.475382472
ss(i__main__
State
p3365
(dp3366
g3
F0.0
sg4
F3.0
sg5
F0.0
sg6
F4.0
sb(dp3367
I00
F55.9052
sI01
I-83
ss(i__main__
State
p3368
(dp3369
g3
F8.0
sg4
F10.0
sg5
F-8.0
sg6
F4.0
sb(dp3370
I00
F81.04559915
sI01
F0.8
ss(i__main__
State
p3371
(dp3372
g3
F-8.0
sg4
F4.0
sg5
F8.0
sg6
F4.0
sb(dp3373
I00
I-95
sI01
F85.5
ss(i__main__
State
p3374
(dp3375
g3
F-1.0
sg4
F0.0
sg5
F1.0
sg6
F0.0
sb(dp3376
I00
F-11.924
sI01
I-56
ss(i__main__
State
p3377
(dp3378
g3
F-2.0
sg4
F4.0
sg5
F2.0
sg6
F-2.0
sb(dp3379
I00
I-58
sI01
F74.47761060754704
ss(i__main__
State
p3380
(dp3381
g3
F-5.0
sg4
F9.0
sg5
F5.0
sg6
F0.0
sb(dp3382
I00
F-1895.3118341
sI01
F-1899.0
ss(i__main__
State
p3383
(dp3384
g3
F8.0
sg4
F3.0
sg5
F-8.0
sg6
F6.0
sb(dp3385
I00
F65.201454
sI01
I-33
ss(i__main__
State
p3386
(dp3387
g3
F7.0
sg4
F5.0
sg5
F-7.0
sg6
F8.0
sb(dp3388
I00
F81.8
sI01
F85.2170418
ss(i__main__
State
p3389
(dp3390
g3
F1.0
sg4
F7.0
sg5
F-1.0
sg6
F-8.0
sb(dp3391
I00
F-29.9
sI01
F55.8
ss(i__main__
State
p3392
(dp3393
g3
F-8.0
sg4
F9.0
sg5
F8.0
sg6
F6.0
sb(dp3394
I00
F38.680353145976305
sI01
F0.0
ss(i__main__
State
p3395
(dp3396
g3
F4.0
sg4
F3.0
sg5
F-4.0
sg6
F-8.0
sb(dp3397
I00
I66
sI01
F14.9
ss(i__main__
State
p3398
(dp3399
g3
F-2.0
sg4
F6.0
sg5
F2.0
sg6
F2.0
sb(dp3400
I00
F65.9
sI01
I39
ss(i__main__
State
p3401
(dp3402
g3
F-3.0
sg4
F1.0
sg5
F3.0
sg6
F6.0
sb(dp3403
I00
F-22.549999999999997
sI01
F48.5069
ss(i__main__
State
p3404
(dp3405
g3
F-5.0
sg4
F4.0
sg5
F5.0
sg6
F4.0
sb(dp3406
I00
F-4.663610019999998
sI01
F38.62602688120664
ss(i__main__
State
p3407
(dp3408
g3
F0.0
sg4
F9.0
sg5
F0.0
sg6
F6.0
sb(dp3409
I00
F33.8
sI01
F0.0
ss(i__main__
State
p3410
(dp3411
g3
F-2.0
sg4
F0.0
sg5
F2.0
sg6
F4.0
sb(dp3412
I00
I-92
sI01
F48.041000000000004
ss(i__main__
State
p3413
(dp3414
g3
F8.0
sg4
F3.0
sg5
F-8.0
sg6
F-6.0
sb(dp3415
I00
I14
sI01
F43.9
ss(i__main__
State
p3416
(dp3417
g3
F-1.0
sg4
F2.0
sg5
F1.0
sg6
F-4.0
sb(dp3418
I00
F-19.31
sI01
I-5
ss(i__main__
State
p3419
(dp3420
g3
F-7.0
sg4
F3.0
sg5
F7.0
sg6
F0.0
sb(dp3421
I00
I-29
sI01
F41.046730000000004
ss(i__main__
State
p3422
(dp3423
g3
F-5.0
sg4
F3.0
sg5
F5.0
sg6
F6.0
sb(dp3424
I00
I-13
sI01
F17.84
ss(i__main__
State
p3425
(dp3426
g3
F-8.0
sg4
F7.0
sg5
F8.0
sg6
F-2.0
sb(dp3427
I00
F48.19027860500001
sI01
F-58.3
ss(i__main__
State
p3428
(dp3429
g3
F-6.0
sg4
F10.0
sg5
F6.0
sg6
F4.0
sb(dp3430
I00
F134.52171057219434
sI01
F9.3
ss(i__main__
State
p3431
(dp3432
g3
F-6.0
sg4
F7.0
sg5
F6.0
sg6
F8.0
sb(dp3433
I00
F14.181683963342
sI01
I-41
ss(i__main__
State
p3434
(dp3435
g3
F-5.0
sg4
F10.0
sg5
F5.0
sg6
F2.0
sb(dp3436
I00
F147.97635972243094
sI01
F41.723000000000006
ss(i__main__
State
p3437
(dp3438
g3
F2.0
sg4
F3.0
sg5
F-2.0
sg6
F4.0
sb(dp3439
I00
I22
sI01
F85.5
ss(i__main__
State
p3440
(dp3441
g3
F4.0
sg4
F8.0
sg5
F-4.0
sg6
F0.0
sb(dp3442
I00
F11.0
sI01
F39.9
ss(i__main__
State
p3443
(dp3444
g3
F-2.0
sg4
F8.0
sg5
F2.0
sg6
F-6.0
sb(dp3445
I00
F54.64515469933584
sI01
F0.0
ss(i__main__
State
p3446
(dp3447
g3
F0.0
sg4
F1.0
sg5
F0.0
sg6
F-6.0
sb(dp3448
I00
F34.24706889452
sI01
I-52
ss(i__main__
State
p3449
(dp3450
g3
F-6.0
sg4
F6.0
sg5
F6.0
sg6
F-6.0
sb(dp3451
I00
F10.202470800000002
sI01
I-90
ss(i__main__
State
p3452
(dp3453
g3
F-1.0
sg4
F6.0
sg5
F1.0
sg6
F6.0
sb(dp3454
I00
F12.104839999999998
sI01
F-66.5
ss(i__main__
State
p3455
(dp3456
g3
F2.0
sg4
F0.0
sg5
F-2.0
sg6
F8.0
sb(dp3457
I00
I-2
sI01
F32.038956531
ss(i__main__
State
p3458
(dp3459
g3
F-8.0
sg4
F9.0
sg5
F8.0
sg6
F0.0
sb(dp3460
I00
F-1898.9
sI01
F-2705.89911
ss(i__main__
State
p3461
(dp3462
g3
F1.0
sg4
F0.0
sg5
F-1.0
sg6
F-2.0
sb(dp3463
I00
F26.4
sI01
I-85
ss(i__main__
State
p3464
(dp3465
g3
F-7.0
sg4
F6.0
sg5
F7.0
sg6
F4.0
sb(dp3466
I00
I11
sI01
F53.741455558
ss(i__main__
State
p3467
(dp3468
g3
F8.0
sg4
F5.0
sg5
F-8.0
sg6
F-8.0
sb(dp3469
I00
F-69.8
sI01
F-33.169999999999995
ss(i__main__
State
p3470
(dp3471
g3
F-6.0
sg4
F4.0
sg5
F6.0
sg6
F2.0
sb(dp3472
I00
I-25
sI01
F38.1
ss(i__main__
State
p3473
(dp3474
g3
F3.0
sg4
F0.0
sg5
F-3.0
sg6
F4.0
sb(dp3475
I00
F-27.2
sI01
F70.5
ss(i__main__
State
p3476
(dp3477
g3
F-3.0
sg4
F7.0
sg5
F3.0
sg6
F-4.0
sb(dp3478
I00
F-84.96
sI01
F-24.633020571059355
ss(i__main__
State
p3479
(dp3480
g3
F0.0
sg4
F0.0
sg5
F0.0
sg6
F6.0
sb(dp3481
I00
F32.47255081097469
sI01
F22.08948
ss(i__main__
State
p3482
(dp3483
g3
F-5.0
sg4
F2.0
sg5
F5.0
sg6
F8.0
sb(dp3484
I00
I-14
sI01
F71.95622
ss(i__main__
State
p3485
(dp3486
g3
F-1.0
sg4
F3.0
sg5
F1.0
sg6
F6.0
sb(dp3487
I00
I-71
sI01
F6.210800000000001
ss(i__main__
State
p3488
(dp3489
g3
F-3.0
sg4
F9.0
sg5
F3.0
sg6
F2.0
sb(dp3490
I00
F10.0
sI01
F11.0
ss(i__main__
State
p3491
(dp3492
g3
F3.0
sg4
F9.0
sg5
F-3.0
sg6
F4.0
sb(dp3493
I00
F96.40122921837626
sI01
F0.0
ss(i__main__
State
p3494
(dp3495
g3
F8.0
sg4
F5.0
sg5
F-8.0
sg6
F-4.0
sb(dp3496
I00
F59.5
sI01
F45.3
ss(i__main__
State
p3497
(dp3498
g3
F3.0
sg4
F5.0
sg5
F-3.0
sg6
F-4.0
sb(dp3499
I00
I23
sI01
F42.769999999999996
ss(i__main__
State
p3500
(dp3501
g3
F3.0
sg4
F2.0
sg5
F-3.0
sg6
F-6.0
sb(dp3502
I00
I-60
sI01
F66.3
ss(i__main__
State
p3503
(dp3504
g3
F2.0
sg4
F0.0
sg5
F-2.0
sg6
F2.0
sb(dp3505
I00
F37.546144326699995
sI01
F37.165
ss(i__main__
State
p3506
(dp3507
g3
F-7.0
sg4
F8.0
sg5
F7.0
sg6
F-6.0
sb(dp3508
I00
F0.0
sI01
F22.158473992000005
ss(i__main__
State
p3509
(dp3510
g3
F7.0
sg4
F10.0
sg5
F-7.0
sg6
F4.0
sb(dp3511
I00
F0.0
sI01
F59.800290000000004
ss(i__main__
State
p3512
(dp3513
g3
F-6.0
sg4
F7.0
sg5
F6.0
sg6
F0.0
sb(dp3514
I00
F29.387
sI01
I-53
ss(i__main__
State
p3515
(dp3516
g3
F-5.0
sg4
F10.0
sg5
F5.0
sg6
F6.0
sb(dp3517
I00
F0.0
sI01
F36.9534
ss(i__main__
State
p3518
(dp3519
g3
F0.0
sg4
F10.0
sg5
F0.0
sg6
F-4.0
sb(dp3520
I00
F-1899.0
sI01
F-1895.33
ss(i__main__
State
p3521
(dp3522
g3
F2.0
sg4
F7.0
sg5
F-2.0
sg6
F-4.0
sb(dp3523
I00
F-16.165949999999995
sI01
F-32.3
ss(i__main__
State
p3524
(dp3525
g3
F4.0
sg4
F8.0
sg5
F-4.0
sg6
F8.0
sb(dp3526
I00
F130.77382297533603
sI01
F12.0
ss(i__main__
State
p3527
(dp3528
g3
F4.0
sg4
F8.0
sg5
F-4.0
sg6
F4.0
sb(dp3529
I00
F10.0
sI01
F0.0
ss(i__main__
State
p3530
(dp3531
g3
F-4.0
sg4
F3.0
sg5
F4.0
sg6
F-8.0
sb(dp3532
I00
F56.714212010000004
sI01
F60.4055
ss(i__main__
State
p3533
(dp3534
g3
F-3.0
sg4
F6.0
sg5
F3.0
sg6
F-4.0
sb(dp3535
I00
F35.6415174
sI01
F-38.765521899999996
ss(i__main__
State
p3536
(dp3537
g3
F8.0
sg4
F9.0
sg5
F-8.0
sg6
F-4.0
sb(dp3538
I00
F32.781934355800004
sI01
F162.4815344073264
ss(i__main__
State
p3539
(dp3540
g3
F5.0
sg4
F8.0
sg5
F-5.0
sg6
F8.0
sb(dp3541
I00
F30.380000000000003
sI01
F0.0
ss(i__main__
State
p3542
(dp3543
g3
F7.0
sg4
F7.0
sg5
F-7.0
sg6
F2.0
sb(dp3544
I00
F-49.68
sI01
F70.04114359960289
ss(i__main__
State
p3545
(dp3546
g3
F4.0
sg4
F6.0
sg5
F-4.0
sg6
F-6.0
sb(dp3547
I00
I8
sI01
F84.3
ss(i__main__
State
p3548
(dp3549
g3
F2.0
sg4
F8.0
sg5
F-2.0
sg6
F4.0
sb(dp3550
I00
F20.0
sI01
F0.0
ss(i__main__
State
p3551
(dp3552
g3
F2.0
sg4
F9.0
sg5
F-2.0
sg6
F2.0
sb(dp3553
I00
F10.0
sI01
F0.0
ss(i__main__
State
p3554
(dp3555
g3
F5.0
sg4
F6.0
sg5
F-5.0
sg6
F8.0
sb(dp3556
I00
F66.73830000000001
sI01
F67.126737
ss(i__main__
State
p3557
(dp3558
g3
F2.0
sg4
F3.0
sg5
F-2.0
sg6
F-4.0
sb(dp3559
I00
I-12
sI01
F82.62176458
ss(i__main__
State
p3560
(dp3561
g3
F2.0
sg4
F6.0
sg5
F-2.0
sg6
F0.0
sb(dp3562
I00
F-68.582691753
sI01
I-97
ss(i__main__
State
p3563
(dp3564
g3
F3.0
sg4
F9.0
sg5
F-3.0
sg6
F-8.0
sb(dp3565
I00
F39.9
sI01
F11.0
ss(i__main__
State
p3566
(dp3567
g3
F-5.0
sg4
F0.0
sg5
F5.0
sg6
F-2.0
sb(dp3568
I00
F-3.6111000000000004
sI01
F-13.281382999999998
ss(i__main__
State
p3569
(dp3570
g3
F0.0
sg4
F6.0
sg5
F0.0
sg6
F8.0
sb(dp3571
I00
F19.470469
sI01
F45.56353215135807
ss(i__main__
State
p3572
(dp3573
g3
F4.0
sg4
F10.0
sg5
F-4.0
sg6
F6.0
sb(dp3574
I00
F10.0
sI01
F0.0
ss(i__main__
State
p3575
(dp3576
g3
F3.0
sg4
F3.0
sg5
F-3.0
sg6
F-8.0
sb(dp3577
I00
F-3.0999999999999996
sI01
F39.9
ss(i__main__
State
p3578
(dp3579
g3
F5.0
sg4
F9.0
sg5
F-5.0
sg6
F8.0
sb(dp3580
I00
F50.47156700000001
sI01
F0.0
ss(i__main__
State
p3581
(dp3582
g3
F-6.0
sg4
F4.0
sg5
F6.0
sg6
F4.0
sb(dp3583
I00
I73
sI01
F-58.6
ss(i__main__
State
p3584
(dp3585
g3
F-3.0
sg4
F4.0
sg5
F3.0
sg6
F-6.0
sb(dp3586
I00
I-5
sI01
F-42.4
ss(i__main__
State
p3587
(dp3588
g3
F0.0
sg4
F0.0
sg5
F0.0
sg6
F-2.0
sb(dp3589
I00
I14
sI01
F59.248
ss(i__main__
State
p3590
(dp3591
g3
F-3.0
sg4
F1.0
sg5
F3.0
sg6
F8.0
sb(dp3592
I00
F-9.069052300000001
sI01
F-62.4
ss(i__main__
State
p3593
(dp3594
g3
F7.0
sg4
F8.0
sg5
F-7.0
sg6
F4.0
sb(dp3595
I00
F57.290000000000006
sI01
F0.0
ss(i__main__
State
p3596
(dp3597
g3
F-8.0
sg4
F6.0
sg5
F8.0
sg6
F8.0
sb(dp3598
I00
F19.7209
sI01
I11
ss(i__main__
State
p3599
(dp3600
g3
F5.0
sg4
F7.0
sg5
F-5.0
sg6
F-6.0
sb(dp3601
I00
F39.4478
sI01
F19.47
ss(i__main__
State
p3602
(dp3603
g3
F-2.0
sg4
F4.0
sg5
F2.0
sg6
F6.0
sb(dp3604
I00
F31.393197000000008
sI01
F0.25699999999999923
ss(i__main__
State
p3605
(dp3606
g3
F6.0
sg4
F4.0
sg5
F-6.0
sg6
F-6.0
sb(dp3607
I00
F18.0
sI01
F84.412125
ss(i__main__
State
p3608
(dp3609
g3
F-3.0
sg4
F7.0
sg5
F3.0
sg6
F8.0
sb(dp3610
I00
I-79
sI01
F28.445700000000002
ss(i__main__
State
p3611
(dp3612
g3
F4.0
sg4
F9.0
sg5
F-4.0
sg6
F4.0
sb(dp3613
I00
F20.0
sI01
F0.0
ss(i__main__
State
p3614
(dp3615
g3
F2.0
sg4
F5.0
sg5
F-2.0
sg6
F6.0
sb(dp3616
I00
F-59.66
sI01
I-86
ss(i__main__
State
p3617
(dp3618
g3
F6.0
sg4
F4.0
sg5
F-6.0
sg6
F-4.0
sb(dp3619
I00
F-11.560099999999998
sI01
F-74.83
ss(i__main__
State
p3620
(dp3621
g3
F5.0
sg4
F1.0
sg5
F-5.0
sg6
F2.0
sb(dp3622
I00
F33.40322999999999
sI01
F36.0
ss(i__main__
State
p3623
(dp3624
g3
F-7.0
sg4
F6.0
sg5
F7.0
sg6
F-2.0
sb(dp3625
I00
I-99
sI01
F-56.5
ss(i__main__
State
p3626
(dp3627
g3
F0.0
sg4
F7.0
sg5
F0.0
sg6
F2.0
sb(dp3628
I00
F18.63146
sI01
F-49.18
ss(i__main__
State
p3629
(dp3630
g3
F0.0
sg4
F10.0
sg5
F0.0
sg6
F4.0
sb(dp3631
I00
F-1000.0
sI01
F-1896.0562677370604
ss(i__main__
State
p3632
(dp3633
g3
F4.0
sg4
F8.0
sg5
F-4.0
sg6
F-8.0
sb(dp3634
I00
F34.51
sI01
F0.0
ss(i__main__
State
p3635
(dp3636
g3
F-5.0
sg4
F6.0
sg5
F5.0
sg6
F0.0
sb(dp3637
I00
F44.65
sI01
F38.16525955981554
ss(i__main__
State
p3638
(dp3639
g3
F-4.0
sg4
F1.0
sg5
F4.0
sg6
F-8.0
sb(dp3640
I00
I-23
sI01
F10.087517900000002
ss(i__main__
State
p3641
(dp3642
g3
F-4.0
sg4
F4.0
sg5
F4.0
sg6
F-8.0
sb(dp3643
I00
F46.5825231
sI01
I-19
ss(i__main__
State
p3644
(dp3645
g3
F-3.0
sg4
F2.0
sg5
F3.0
sg6
F0.0
sb(dp3646
I00
F11.4
sI01
F25.20036580338
ss(i__main__
State
p3647
(dp3648
g3
F6.0
sg4
F9.0
sg5
F-6.0
sg6
F-6.0
sb(dp3649
I00
F142.85928709279753
sI01
F42.773145864
ss(i__main__
State
p3650
(dp3651
g3
F-4.0
sg4
F10.0
sg5
F4.0
sg6
F-6.0
sb(dp3652
I00
F71.05913871
sI01
F0.0
ss(i__main__
State
p3653
(dp3654
g3
F-5.0
sg4
F8.0
sg5
F5.0
sg6
F-8.0
sb(dp3655
I00
F47.759
sI01
F15.001667000000001
ss(i__main__
State
p3656
(dp3657
g3
F1.0
sg4
F0.0
sg5
F-1.0
sg6
F2.0
sb(dp3658
I00
F44.489
sI01
I46
ss(i__main__
State
p3659
(dp3660
g3
F-5.0
sg4
F7.0
sg5
F5.0
sg6
F6.0
sb(dp3661
I00
F-14.6260462497
sI01
F-86.3
ss(i__main__
State
p3662
(dp3663
g3
F0.0
sg4
F9.0
sg5
F0.0
sg6
F-4.0
sb(dp3664
I00
F69.86515029
sI01
F0.0
ss(i__main__
State
p3665
(dp3666
g3
F0.0
sg4
F6.0
sg5
F0.0
sg6
F-8.0
sb(dp3667
I00
I-46
sI01
F44.010000000000005
ss(i__main__
State
p3668
(dp3669
g3
F8.0
sg4
F6.0
sg5
F-8.0
sg6
F2.0
sb(dp3670
I00
I35
sI01
F-45.7
ss(i__main__
State
p3671
(dp3672
g3
F-1.0
sg4
F8.0
sg5
F1.0
sg6
F2.0
sb(dp3673
I00
F50.0001
sI01
F12.0
ss(i__main__
State
p3674
(dp3675
g3
F3.0
sg4
F10.0
sg5
F-3.0
sg6
F-2.0
sb(dp3676
I00
F83.263854437004
sI01
F0.0
ss(i__main__
State
p3677
(dp3678
g3
F1.0
sg4
F6.0
sg5
F-1.0
sg6
F2.0
sb(dp3679
I00
F-22.1186
sI01
F54.6089374795
ss(i__main__
State
p3680
(dp3681
g3
F6.0
sg4
F7.0
sg5
F-6.0
sg6
F4.0
sb(dp3682
I00
F61.2
sI01
F-60.204604638340435
ss(i__main__
State
p3683
(dp3684
g3
F8.0
sg4
F0.0
sg5
F-8.0
sg6
F-8.0
sb(dp3685
I00
I-28
sI01
F44.3023
ss(i__main__
State
p3686
(dp3687
g3
F1.0
sg4
F0.0
sg5
F-1.0
sg6
F4.0
sb(dp3688
I00
F4.5019175546828505
sI01
F-75.9
ss(i__main__
State
p3689
(dp3690
g3
F3.0
sg4
F4.0
sg5
F-3.0
sg6
F-8.0
sb(dp3691
I00
F-33.9
sI01
F25.98427582
ss(i__main__
State
p3692
(dp3693
g3
F-7.0
sg4
F0.0
sg5
F7.0
sg6
F6.0
sb(dp3694
I00
F-6.0
sI01
I-60
ss(i__main__
State
p3695
(dp3696
g3
F-3.0
sg4
F7.0
sg5
F3.0
sg6
F0.0
sb(dp3697
I00
F-53.4
sI01
F-44.1
ss(i__main__
State
p3698
(dp3699
g3
F-1.0
sg4
F4.0
sg5
F1.0
sg6
F-4.0
sb(dp3700
I00
F43.603151801407016
sI01
F-49.707
ss(i__main__
State
p3701
(dp3702
g3
F3.0
sg4
F6.0
sg5
F-3.0
sg6
F-8.0
sb(dp3703
I00
I24
sI01
F-62.9
ss(i__main__
State
p3704
(dp3705
g3
F-7.0
sg4
F5.0
sg5
F7.0
sg6
F-4.0
sb(dp3706
I00
I-100
sI01
F36.49450108
ss(i__main__
State
p3707
(dp3708
g3
F-4.0
sg4
F8.0
sg5
F4.0
sg6
F-4.0
sb(dp3709
I00
F10.0
sI01
F0.0
ss(i__main__
State
p3710
(dp3711
g3
F-5.0
sg4
F1.0
sg5
F5.0
sg6
F6.0
sb(dp3712
I00
F-2.594985199999998
sI01
I-17
ss(i__main__
State
p3713
(dp3714
g3
F-8.0
sg4
F10.0
sg5
F8.0
sg6
F-6.0
sb(dp3715
I00
F13.351051869908
sI01
F17.91
ss(i__main__
State
p3716
(dp3717
g3
F-8.0
sg4
F0.0
sg5
F8.0
sg6
F8.0
sb(dp3718
I00
F16.4986
sI01
F-36.9
ss(i__main__
State
p3719
(dp3720
g3
F6.0
sg4
F10.0
sg5
F-6.0
sg6
F6.0
sb(dp3721
I00
F30.020000000000003
sI01
F0.0
ss(i__main__
State
p3722
(dp3723
g3
F-1.0
sg4
F9.0
sg5
F1.0
sg6
F-6.0
sb(dp3724
I00
F49.675515661
sI01
F187.86524898339886
ss(i__main__
State
p3725
(dp3726
g3
F2.0
sg4
F4.0
sg5
F-2.0
sg6
F-8.0
sb(dp3727
I00
F-50.801468805
sI01
F11.593390296020337
ss(i__main__
State
p3728
(dp3729
g3
F8.0
sg4
F0.0
sg5
F-8.0
sg6
F6.0
sb(dp3730
I00
I-29
sI01
F-30.243000000000002
ss(i__main__
State
p3731
(dp3732
g3
F2.0
sg4
F8.0
sg5
F-2.0
sg6
F0.0
sb(dp3733
I00
F38.019999999999996
sI01
F11.0
ss(i__main__
State
p3734
(dp3735
g3
F3.0
sg4
F8.0
sg5
F-3.0
sg6
F-4.0
sb(dp3736
I00
F10.0
sI01
F10.0
ss(i__main__
State
p3737
(dp3738
g3
F-5.0
sg4
F3.0
sg5
F5.0
sg6
F-4.0
sb(dp3739
I00
F-70.59467
sI01
I-72
ss(i__main__
State
p3740
(dp3741
g3
F-1.0
sg4
F7.0
sg5
F1.0
sg6
F4.0
sb(dp3742
I00
F-14.39
sI01
F40.747901144
ss(i__main__
State
p3743
(dp3744
g3
F7.0
sg4
F1.0
sg5
F-7.0
sg6
F4.0
sb(dp3745
I00
F31.8
sI01
F68.63101640000001
ss(i__main__
State
p3746
(dp3747
g3
F-1.0
sg4
F5.0
sg5
F1.0
sg6
F-4.0
sb(dp3748
I00
F36.5841299
sI01
I-29
ss(i__main__
State
p3749
(dp3750
g3
F-3.0
sg4
F1.0
sg5
F3.0
sg6
F-6.0
sb(dp3751
I00
F86.18245051021752
sI01
F-64.25503
ss(i__main__
State
p3752
(dp3753
g3
F-3.0
sg4
F8.0
sg5
F3.0
sg6
F4.0
sb(dp3754
I00
F30.0
sI01
F0.0
ss(i__main__
State
p3755
(dp3756
g3
F8.0
sg4
F6.0
sg5
F-8.0
sg6
F-8.0
sb(dp3757
I00
I-35
sI01
F-1.297769999999999
ss(i__main__
State
p3758
(dp3759
g3
F4.0
sg4
F1.0
sg5
F-4.0
sg6
F-4.0
sb(dp3760
I00
F29.32758
sI01
F5.800000000000001
ss(i__main__
State
p3761
(dp3762
g3
F7.0
sg4
F8.0
sg5
F-7.0
sg6
F0.0
sb(dp3763
I00
F49.061490000000006
sI01
F20.0
ss(i__main__
State
p3764
(dp3765
g3
F6.0
sg4
F6.0
sg5
F-6.0
sg6
F-2.0
sb(dp3766
I00
F18.577
sI01
I-98
ss(i__main__
State
p3767
(dp3768
g3
F-5.0
sg4
F2.0
sg5
F5.0
sg6
F-2.0
sb(dp3769
I00
I-100
sI01
F67.47888
ss(i__main__
State
p3770
(dp3771
g3
F6.0
sg4
F6.0
sg5
F-6.0
sg6
F-8.0
sb(dp3772
I00
F50.25817
sI01
F60.43680600000001
ss(i__main__
State
p3773
(dp3774
g3
F8.0
sg4
F5.0
sg5
F-8.0
sg6
F0.0
sb(dp3775
I00
F31.697145
sI01
F-58.171769999999995
ss(i__main__
State
p3776
(dp3777
g3
F-2.0
sg4
F8.0
sg5
F2.0
sg6
F-4.0
sb(dp3778
I00
F44.218999999999994
sI01
F0.0
ss(i__main__
State
p3779
(dp3780
g3
F-4.0
sg4
F4.0
sg5
F4.0
sg6
F-6.0
sb(dp3781
I00
I-83
sI01
F30.240000000000002
ss(i__main__
State
p3782
(dp3783
g3
F-6.0
sg4
F6.0
sg5
F6.0
sg6
F-2.0
sb(dp3784
I00
I-96
sI01
F9.63
ss(i__main__
State
p3785
(dp3786
g3
F5.0
sg4
F10.0
sg5
F-5.0
sg6
F-8.0
sb(dp3787
I00
F33.54691532513
sI01
F0.0
ss(i__main__
State
p3788
(dp3789
g3
F2.0
sg4
F10.0
sg5
F-2.0
sg6
F-8.0
sb(dp3790
I00
F39.62
sI01
F0.0
ss(i__main__
State
p3791
(dp3792
g3
F1.0
sg4
F3.0
sg5
F-1.0
sg6
F-6.0
sb(dp3793
I00
F34.8
sI01
I-39
ss(i__main__
State
p3794
(dp3795
g3
F-5.0
sg4
F3.0
sg5
F5.0
sg6
F0.0
sb(dp3796
I00
I-68
sI01
F-50.1
ss(i__main__
State
p3797
(dp3798
g3
F-3.0
sg4
F10.0
sg5
F3.0
sg6
F2.0
sb(dp3799
I00
F21.108400000000003
sI01
F72.971166
ss(i__main__
State
p3800
(dp3801
g3
F3.0
sg4
F8.0
sg5
F-3.0
sg6
F2.0
sb(dp3802
I00
F20.0
sI01
F0.0
ss(i__main__
State
p3803
(dp3804
g3
F-3.0
sg4
F4.0
sg5
F3.0
sg6
F0.0
sb(dp3805
I00
F-35.0
sI01
F69.22749999999999
ss(i__main__
State
p3806
(dp3807
g3
F5.0
sg4
F3.0
sg5
F-5.0
sg6
F-6.0
sb(dp3808
I00
F-72.5
sI01
I29
ss(i__main__
State
p3809
(dp3810
g3
F-4.0
sg4
F8.0
sg5
F4.0
sg6
F8.0
sb(dp3811
I00
F42.0279
sI01
F0.0
ss(i__main__
State
p3812
(dp3813
g3
F6.0
sg4
F3.0
sg5
F-6.0
sg6
F2.0
sb(dp3814
I00
I52
sI01
F59.2087006755
ss(i__main__
State
p3815
(dp3816
g3
F8.0
sg4
F1.0
sg5
F-8.0
sg6
F6.0
sb(dp3817
I00
F67.39721119999999
sI01
I-41
ss(i__main__
State
p3818
(dp3819
g3
F-5.0
sg4
F6.0
sg5
F5.0
sg6
F-8.0
sb(dp3820
I00
F40.39588
sI01
F43.231
ss(i__main__
State
p3821
(dp3822
g3
F4.0
sg4
F10.0
sg5
F-4.0
sg6
F-8.0
sb(dp3823
I00
F37.2873
sI01
F0.0
ss(i__main__
State
p3824
(dp3825
g3
F1.0
sg4
F1.0
sg5
F-1.0
sg6
F4.0
sb(dp3826
I00
I-35
sI01
F2.1160200000000016
ss(i__main__
State
p3827
(dp3828
g3
F-5.0
sg4
F8.0
sg5
F5.0
sg6
F0.0
sb(dp3829
I00
F129.83469616721635
sI01
F64.886063988
ss(i__main__
State
p3830
(dp3831
g3
F-6.0
sg4
F7.0
sg5
F6.0
sg6
F6.0
sb(dp3832
I00
F87.10839999999999
sI01
F-24.854
ss(i__main__
State
p3833
(dp3834
g3
F7.0
sg4
F8.0
sg5
F-7.0
sg6
F8.0
sb(dp3835
I00
F38.38
sI01
F11.0
ss(i__main__
State
p3836
(dp3837
g3
F-4.0
sg4
F7.0
sg5
F4.0
sg6
F-6.0
sb(dp3838
I00
F-47.0
sI01
F44.92676390959001
ss(i__main__
State
p3839
(dp3840
g3
F5.0
sg4
F9.0
sg5
F-5.0
sg6
F-4.0
sb(dp3841
I00
F126.81091670276179
sI01
F54.0018322447
ss(i__main__
State
p3842
(dp3843
g3
F2.0
sg4
F3.0
sg5
F-2.0
sg6
F-2.0
sb(dp3844
I00
F40.833021998
sI01
I-37
ss(i__main__
State
p3845
(dp3846
g3
F4.0
sg4
F6.0
sg5
F-4.0
sg6
F4.0
sb(dp3847
I00
F-16.2
sI01
I-28
ss(i__main__
State
p3848
(dp3849
g3
F0.0
sg4
F8.0
sg5
F0.0
sg6
F-4.0
sb(dp3850
I00
F-1899.0
sI01
F-1000.0
ss(i__main__
State
p3851
(dp3852
g3
F-7.0
sg4
F3.0
sg5
F7.0
sg6
F-4.0
sb(dp3853
I00
I24
sI01
F67.71000000000001
ss(i__main__
State
p3854
(dp3855
g3
F7.0
sg4
F3.0
sg5
F-7.0
sg6
F8.0
sb(dp3856
I00
F69.69999999999999
sI01
F85.828114
ss(i__main__
State
p3857
(dp3858
g3
F-4.0
sg4
F4.0
sg5
F4.0
sg6
F2.0
sb(dp3859
I00
I-68
sI01
F-1.51638
ss(i__main__
State
p3860
(dp3861
g3
F-7.0
sg4
F8.0
sg5
F7.0
sg6
F6.0
sb(dp3862
I00
F0.0
sI01
F21.9
ss(i__main__
State
p3863
(dp3864
g3
F-6.0
sg4
F10.0
sg5
F6.0
sg6
F0.0
sb(dp3865
I00
F40.0
sI01
F16.2
ss(i__main__
State
p3866
(dp3867
g3
F-4.0
sg4
F9.0
sg5
F4.0
sg6
F4.0
sb(dp3868
I00
F11.0
sI01
F11.11
ss(i__main__
State
p3869
(dp3870
g3
F6.0
sg4
F1.0
sg5
F-6.0
sg6
F2.0
sb(dp3871
I00
F-31.346204869304998
sI01
F37.67160339614336
ss(i__main__
State
p3872
(dp3873
g3
F4.0
sg4
F4.0
sg5
F-4.0
sg6
F-8.0
sb(dp3874
I00
F50.65085661781
sI01
I-11
ss(i__main__
State
p3875
(dp3876
g3
F-3.0
sg4
F4.0
sg5
F3.0
sg6
F8.0
sb(dp3877
I00
F-37.0778731
sI01
F57.06528300000001
ss(i__main__
State
p3878
(dp3879
g3
F-7.0
sg4
F9.0
sg5
F7.0
sg6
F0.0
sb(dp3880
I00
F-999.0
sI01
F-1893.2325
ss(i__main__
State
p3881
(dp3882
g3
F3.0
sg4
F10.0
sg5
F-3.0
sg6
F-6.0
sb(dp3883
I00
F68.36064
sI01
F0.0
ss(i__main__
State
p3884
(dp3885
g3
F-8.0
sg4
F9.0
sg5
F8.0
sg6
F-4.0
sb(dp3886
I00
F10.0
sI01
F35.22384655604606
ss(i__main__
State
p3887
(dp3888
g3
F-6.0
sg4
F8.0
sg5
F6.0
sg6
F6.0
sb(dp3889
I00
F49.213245511000004
sI01
F22.112610000000004
ss(i__main__
State
p3890
(dp3891
g3
F3.0
sg4
F3.0
sg5
F-3.0
sg6
F-2.0
sb(dp3892
I00
I-50
sI01
F54.279099
ss(i__main__
State
p3893
(dp3894
g3
F0.0
sg4
F2.0
sg5
F0.0
sg6
F6.0
sb(dp3895
I00
F45.25739
sI01
F-48.777
ss(i__main__
State
p3896
(dp3897
g3
F-6.0
sg4
F5.0
sg5
F6.0
sg6
F-6.0
sb(dp3898
I00
F-30.7128
sI01
F6.686880000000002
ss(i__main__
State
p3899
(dp3900
g3
F5.0
sg4
F8.0
sg5
F-5.0
sg6
F-2.0
sb(dp3901
I00
F49.99
sI01
F10.0
ss(i__main__
State
p3902
(dp3903
g3
F8.0
sg4
F7.0
sg5
F-8.0
sg6
F-6.0
sb(dp3904
I00
F-8.816134485156363
sI01
F9.976416807009226
ss(i__main__
State
p3905
(dp3906
g3
F-5.0
sg4
F8.0
sg5
F5.0
sg6
F8.0
sb(dp3907
I00
F20.0
sI01
F11.11
ss(i__main__
State
p3908
(dp3909
g3
F-6.0
sg4
F9.0
sg5
F6.0
sg6
F2.0
sb(dp3910
I00
F21.0
sI01
F68.19383189000001
ss(i__main__
State
p3911
(dp3912
g3
F-5.0
sg4
F3.0
sg5
F5.0
sg6
F8.0
sb(dp3913
I00
F60.967822
sI01
F71.208
ss(i__main__
State
p3914
(dp3915
g3
F-1.0
sg4
F7.0
sg5
F1.0
sg6
F-4.0
sb(dp3916
I00
I21
sI01
F80.2
ss(i__main__
State
p3917
(dp3918
g3
F5.0
sg4
F6.0
sg5
F-5.0
sg6
F6.0
sb(dp3919
I00
F-28.1
sI01
F41.454447255511695
ss(i__main__
State
p3920
(dp3921
g3
F2.0
sg4
F2.0
sg5
F-2.0
sg6
F0.0
sb(dp3922
I00
F80.40735000000001
sI01
I-66
ss(i__main__
State
p3923
(dp3924
g3
F-8.0
sg4
F7.0
sg5
F8.0
sg6
F2.0
sb(dp3925
I00
F69.88215693606
sI01
I-53
ss(i__main__
State
p3926
(dp3927
g3
F7.0
sg4
F2.0
sg5
F-7.0
sg6
F6.0
sb(dp3928
I00
F-23.6163936
sI01
I-46
ss(i__main__
State
p3929
(dp3930
g3
F5.0
sg4
F3.0
sg5
F-5.0
sg6
F6.0
sb(dp3931
I00
F55.6
sI01
F36.4
ss(i__main__
State
p3932
(dp3933
g3
F3.0
sg4
F4.0
sg5
F-3.0
sg6
F-2.0
sb(dp3934
I00
F86.83254000000001
sI01
F21.17
ss(i__main__
State
p3935
(dp3936
g3
F6.0
sg4
F5.0
sg5
F-6.0
sg6
F2.0
sb(dp3937
I00
F84.5
sI01
F14.13
ss(i__main__
State
p3938
(dp3939
g3
F-3.0
sg4
F7.0
sg5
F3.0
sg6
F6.0
sb(dp3940
I00
F28.681320999999993
sI01
I-79
ss(i__main__
State
p3941
(dp3942
g3
F-4.0
sg4
F2.0
sg5
F4.0
sg6
F2.0
sb(dp3943
I00
F-65.6
sI01
I33
ss(i__main__
State
p3944
(dp3945
g3
F8.0
sg4
F9.0
sg5
F-8.0
sg6
F4.0
sb(dp3946
I00
F29.2399
sI01
F10.0
ss(i__main__
State
p3947
(dp3948
g3
F2.0
sg4
F5.0
sg5
F-2.0
sg6
F8.0
sb(dp3949
I00
F-4.059999999999997
sI01
I-39
ss(i__main__
State
p3950
(dp3951
g3
F-8.0
sg4
F3.0
sg5
F8.0
sg6
F-4.0
sb(dp3952
I00
F17.8
sI01
I-53
ss(i__main__
State
p3953
(dp3954
g3
F-3.0
sg4
F8.0
sg5
F3.0
sg6
F-2.0
sb(dp3955
I00
F20.0
sI01
F-72.9
ss(i__main__
State
p3956
(dp3957
g3
F-6.0
sg4
F2.0
sg5
F6.0
sg6
F-2.0
sb(dp3958
I00
I-57
sI01
F-2.8529999999999998
ss(i__main__
State
p3959
(dp3960
g3
F4.0
sg4
F8.0
sg5
F-4.0
sg6
F-2.0
sb(dp3961
I00
F30.0
sI01
F0.0
ss(i__main__
State
p3962
(dp3963
g3
F1.0
sg4
F8.0
sg5
F-1.0
sg6
F6.0
sb(dp3964
I00
F-81.0
sI01
F0.0
ss(i__main__
State
p3965
(dp3966
g3
F5.0
sg4
F10.0
sg5
F-5.0
sg6
F6.0
sb(dp3967
I00
F30.0
sI01
F0.0
ss(i__main__
State
p3968
(dp3969
g3
F1.0
sg4
F1.0
sg5
F-1.0
sg6
F-2.0
sb(dp3970
I00
F-47.83
sI01
I-78
ss(i__main__
State
p3971
(dp3972
g3
F0.0
sg4
F4.0
sg5
F0.0
sg6
F-2.0
sb(dp3973
I00
F-81.6
sI01
F51.597181035
ss(i__main__
State
p3974
(dp3975
g3
F6.0
sg4
F7.0
sg5
F-6.0
sg6
F2.0
sb(dp3976
I00
F-2.9
sI01
I-27
ss(i__main__
State
p3977
(dp3978
g3
F0.0
sg4
F1.0
sg5
F0.0
sg6
F2.0
sb(dp3979
I00
I-15
sI01
F-2.7620439999999995
ss(i__main__
State
p3980
(dp3981
g3
F7.0
sg4
F5.0
sg5
F-7.0
sg6
F4.0
sb(dp3982
I00
F21.1292
sI01
F43.403546234000004
ss(i__main__
State
p3983
(dp3984
g3
F-3.0
sg4
F9.0
sg5
F3.0
sg6
F0.0
sb(dp3985
I00
F-1000.0
sI01
F-998.0700000000002
ss(i__main__
State
p3986
(dp3987
g3
F-2.0
sg4
F7.0
sg5
F2.0
sg6
F-2.0
sb(dp3988
I00
F-42.84
sI01
I-94
ss(i__main__
State
p3989
(dp3990
g3
F-5.0
sg4
F9.0
sg5
F5.0
sg6
F4.0
sb(dp3991
I00
F30.29119
sI01
F0.0
ss(i__main__
State
p3992
(dp3993
g3
F2.0
sg4
F8.0
sg5
F-2.0
sg6
F8.0
sb(dp3994
I00
F10.0
sI01
F0.0
ss(i__main__
State
p3995
(dp3996
g3
F-6.0
sg4
F6.0
sg5
F6.0
sg6
F8.0
sb(dp3997
I00
F-27.576
sI01
F65.907590648
ss(i__main__
State
p3998
(dp3999
g3
F-4.0
sg4
F3.0
sg5
F4.0
sg6
F8.0
sb(dp4000
I00
F11.9149
sI01
I-70
ss(i__main__
State
p4001
(dp4002
g3
F4.0
sg4
F2.0
sg5
F-4.0
sg6
F4.0
sb(dp4003
I00
I-6
sI01
F92.78
ss(i__main__
State
p4004
(dp4005
g3
F4.0
sg4
F3.0
sg5
F-4.0
sg6
F4.0
sb(dp4006
I00
F18.98
sI01
I-23
ss(i__main__
State
p4007
(dp4008
g3
F3.0
sg4
F8.0
sg5
F-3.0
sg6
F-6.0
sb(dp4009
I00
F56.73
sI01
F30.080000000000005
ss(i__main__
State
p4010
(dp4011
g3
F-1.0
sg4
F2.0
sg5
F1.0
sg6
F6.0
sb(dp4012
I00
F50.2
sI01
I41
ss(i__main__
State
p4013
(dp4014
g3
F6.0
sg4
F4.0
sg5
F-6.0
sg6
F2.0
sb(dp4015
I00
F-10.43
sI01
I-42
ss(i__main__
State
p4016
(dp4017
g3
F-3.0
sg4
F6.0
sg5
F3.0
sg6
F0.0
sb(dp4018
I00
F21.436941379999997
sI01
I-20
ss(i__main__
State
p4019
(dp4020
g3
F-1.0
sg4
F7.0
sg5
F1.0
sg6
F-6.0
sb(dp4021
I00
I-93
sI01
F66.17
ss(i__main__
State
p4022
(dp4023
g3
F-2.0
sg4
F9.0
sg5
F2.0
sg6
F0.0
sb(dp4024
I00
F-1899.0
sI01
F-1896.6940000000002
ss(i__main__
State
p4025
(dp4026
g3
F-3.0
sg4
F8.0
sg5
F3.0
sg6
F2.0
sb(dp4027
I00
F104.13378533672942
sI01
F11.100000000000001
ss(i__main__
State
p4028
(dp4029
g3
F6.0
sg4
F5.0
sg5
F-6.0
sg6
F6.0
sb(dp4030
I00
F-1.2059999999999986
sI01
I-38
ss(i__main__
State
p4031
(dp4032
g3
F1.0
sg4
F4.0
sg5
F-1.0
sg6
F2.0
sb(dp4033
I00
I26
sI01
F69.0
ss(i__main__
State
p4034
(dp4035
g3
F8.0
sg4
F10.0
sg5
F-8.0
sg6
F-6.0
sb(dp4036
I00
F20.0
sI01
F0.0
ss(i__main__
State
p4037
(dp4038
g3
F-4.0
sg4
F5.0
sg5
F4.0
sg6
F8.0
sb(dp4039
I00
F59.26010999999999
sI01
F-14.570086
ss(i__main__
State
p4040
(dp4041
g3
F2.0
sg4
F10.0
sg5
F-2.0
sg6
F0.0
sb(dp4042
I00
F92.16744747870801
sI01
F15.0
ss(i__main__
State
p4043
(dp4044
g3
F6.0
sg4
F6.0
sg5
F-6.0
sg6
F6.0
sb(dp4045
I00
F38.49488278940001
sI01
I-72
ss(i__main__
State
p4046
(dp4047
g3
F-6.0
sg4
F3.0
sg5
F6.0
sg6
F-4.0
sb(dp4048
I00
F40.996423494000005
sI01
F-36.88
ss(i__main__
State
p4049
(dp4050
g3
F-1.0
sg4
F9.0
sg5
F1.0
sg6
F4.0
sb(dp4051
I00
F10.0
sI01
F0.0
ss(i__main__
State
p4052
(dp4053
g3
F1.0
sg4
F7.0
sg5
F-1.0
sg6
F0.0
sb(dp4054
I00
F10.3466
sI01
I-21
ss(i__main__
State
p4055
(dp4056
g3
F-1.0
sg4
F6.0
sg5
F1.0
sg6
F-4.0
sb(dp4057
I00
F-65.4
sI01
F-29.110000000000003
ss(i__main__
State
p4058
(dp4059
g3
F1.0
sg4
F5.0
sg5
F-1.0
sg6
F-4.0
sb(dp4060
I00
F29.218270600000004
sI01
F-40.18
ss(i__main__
State
p4061
(dp4062
g3
F-2.0
sg4
F1.0
sg5
F2.0
sg6
F-4.0
sb(dp4063
I00
F75.157246
sI01
F-50.6
ss(i__main__
State
p4064
(dp4065
g3
F2.0
sg4
F8.0
sg5
F-2.0
sg6
F-6.0
sb(dp4066
I00
F151.51481421065264
sI01
F0.0
ss.