(dp0
(i__main__
State
p1
(dp2
S'y1'
p3
F8.0
sS'x'
p4
F3.0
sS'y3'
p5
F-3.0
sS'y2'
p6
F-6.0
sb(dp7
I00
F1438.913032914153
sI01
F86.59783827752304
ss(i__main__
State
p8
(dp9
g3
F4.0
sg4
F7.0
sg5
F-7.0
sg6
F7.0
sb(dp10
I00
F771.9399640397469
sI01
F1576.0677645710743
ss(i__main__
State
p11
(dp12
g3
F-7.0
sg4
F5.0
sg5
F-1.0
sg6
F-4.0
sb(dp13
I00
F523.9120764456726
sI01
F314.5971820417583
ss(i__main__
State
p14
(dp15
g3
F-5.0
sg4
F2.0
sg5
F1.0
sg6
F-2.0
sb(dp16
I00
F1209.6727356718495
sI01
F275.6714121918441
ss(i__main__
State
p17
(dp18
g3
F7.0
sg4
F6.0
sg5
F-4.0
sg6
F-7.0
sb(dp19
I00
F1454.4934925587804
sI01
F963.4803413687694
ss(i__main__
State
p20
(dp21
g3
F0.0
sg4
F7.0
sg5
F6.0
sg6
F3.0
sb(dp22
I00
F1660.7237454297087
sI01
F2097.5666780200586
ss(i__main__
State
p23
(dp24
g3
F-1.0
sg4
F3.0
sg5
F5.0
sg6
F2.0
sb(dp25
I00
F-15.19306731664512
sI01
F293.4137164251955
ss(i__main__
State
p26
(dp27
g3
F1.0
sg4
F4.0
sg5
F7.0
sg6
F4.0
sb(dp28
I00
F424.9498016591108
sI01
F720.1008819440246
ss(i__main__
State
p29
(dp30
g3
F-1.0
sg4
F7.0
sg5
F5.0
sg6
F2.0
sb(dp31
I00
F1978.513000118911
sI01
F-5659.749530358072
ss(i__main__
State
p32
(dp33
g3
F-1.0
sg4
F5.0
sg5
F5.0
sg6
F2.0
sb(dp34
I00
F1737.9867005098138
sI01
F1490.4358323563943
ss(i__main__
State
p35
(dp36
g3
F-6.0
sg4
F5.0
sg5
F0.0
sg6
F-3.0
sb(dp37
I00
F442.0697703409189
sI01
F755.9894090698673
ss(i__main__
State
p38
(dp39
g3
F-2.0
sg4
F8.0
sg5
F4.0
sg6
F1.0
sb(dp40
I00
F920.864306305211
sI01
F1497.982117866428
ss(i__main__
State
p41
(dp42
g3
F6.0
sg4
F0.0
sg5
F-5.0
sg6
F-8.0
sb(dp43
I00
F1437.7523013431269
sI01
F526.204803132116
ss(i__main__
State
p44
(dp45
g3
F6.0
sg4
F4.0
sg5
F-5.0
sg6
F-8.0
sb(dp46
I00
F711.9814451976545
sI01
F1483.0364273324112
ss(i__main__
State
p47
(dp48
g3
F-4.0
sg4
F7.0
sg5
F2.0
sg6
F-1.0
sb(dp49
I00
F1070.5291882986119
sI01
F-4912.979807865975
ss(i__main__
State
p50
(dp51
g3
F-3.0
sg4
F2.0
sg5
F3.0
sg6
F0.0
sb(dp52
I00
F929.9540521447104
sI01
F602.6400599438772
ss(i__main__
State
p53
(dp54
g3
F5.0
sg4
F0.0
sg5
F-6.0
sg6
F8.0
sb(dp55
I00
F1203.1948742409122
sI01
F234.12037760005632
ss(i__main__
State
p56
(dp57
g3
F3.0
sg4
F2.0
sg5
F-8.0
sg6
F6.0
sb(dp58
I00
F904.9284378728264
sI01
F1469.4278902687226
ss(i__main__
State
p59
(dp60
g3
F3.0
sg4
F3.0
sg5
F-8.0
sg6
F6.0
sb(dp61
I00
F1421.3707504066072
sI01
F1498.2371202170707
ss(i__main__
State
p62
(dp63
g3
F2.0
sg4
F0.0
sg5
F8.0
sg6
F5.0
sb(dp64
I00
F670.1628216661584
sI01
F116.55048329346691
ss(i__main__
State
p65
(dp66
g3
F4.0
sg4
F4.0
sg5
F-7.0
sg6
F7.0
sb(dp67
I00
F1513.9298617370578
sI01
F1397.7087760464633
ss(i__main__
State
p68
(dp69
g3
F-2.0
sg4
F2.0
sg5
F4.0
sg6
F1.0
sb(dp70
I00
F1193.4803163446281
sI01
F120.9718345383955
ss(i__main__
State
p71
(dp72
g3
F-4.0
sg4
F2.0
sg5
F2.0
sg6
F-1.0
sb(dp73
I00
F694.7867759015732
sI01
F1628.2048566477833
ss(i__main__
State
p74
(dp75
g3
F-6.0
sg4
F3.0
sg5
F0.0
sg6
F-3.0
sb(dp76
I00
F1058.2814021459203
sI01
F1844.0235778956533
ss(i__main__
State
p77
(dp78
g3
F2.0
sg4
F8.0
sg5
F8.0
sg6
F5.0
sb(dp79
I00
F2106.504582373824
sI01
F721.0171798192289
ss(i__main__
State
p80
(dp81
g3
F6.0
sg4
F1.0
sg5
F-5.0
sg6
F-8.0
sb(dp82
I00
F121.45450691112208
sI01
F865.0579559143105
ss(i__main__
State
p83
(dp84
g3
F5.0
sg4
F6.0
sg5
F-6.0
sg6
F8.0
sb(dp85
I00
F491.2392545307214
sI01
F164.99067054890213
ss(i__main__
State
p86
(dp87
g3
F8.0
sg4
F1.0
sg5
F-3.0
sg6
F-6.0
sb(dp88
I00
F728.4437606095873
sI01
F1677.1749226245552
ss(i__main__
State
p89
(dp90
g3
F-5.0
sg4
F5.0
sg5
F1.0
sg6
F-2.0
sb(dp91
I00
F1091.7441084765935
sI01
F342.4594119465899
ss(i__main__
State
p92
(dp93
g3
F-5.0
sg4
F8.0
sg5
F1.0
sg6
F-2.0
sb(dp94
I00
F1597.9677785180843
sI01
F1357.104519078817
ss(i__main__
State
p95
(dp96
g3
F0.0
sg4
F1.0
sg5
F6.0
sg6
F3.0
sb(dp97
I00
F1301.0690051331196
sI01
F1455.4452489042667
ss(i__main__
State
p98
(dp99
g3
F5.0
sg4
F8.0
sg5
F-6.0
sg6
F8.0
sb(dp100
I00
F1898.1472156950006
sI01
F1244.3134158074708
ss(i__main__
State
p101
(dp102
g3
F3.0
sg4
F6.0
sg5
F-8.0
sg6
F6.0
sb(dp103
I00
F865.4325251079653
sI01
F47.19823914559364
ss(i__main__
State
p104
(dp105
g3
F3.0
sg4
F1.0
sg5
F-8.0
sg6
F6.0
sb(dp106
I00
F186.4657198374303
sI01
F431.92276771553674
ss(i__main__
State
p107
(dp108
g3
F8.0
sg4
F4.0
sg5
F-3.0
sg6
F-6.0
sb(dp109
I00
F69.29814383655034
sI01
F1224.37823622404
ss(i__main__
State
p110
(dp111
g3
F6.0
sg4
F3.0
sg5
F-5.0
sg6
F-8.0
sb(dp112
I00
F206.37777234532615
sI01
F609.3614405330131
ss(i__main__
State
p113
(dp114
g3
F8.0
sg4
F8.0
sg5
F-3.0
sg6
F-6.0
sb(dp115
I00
F1726.7041197394824
sI01
F1041.7211152063887
ss(i__main__
State
p116
(dp117
g3
F7.0
sg4
F8.0
sg5
F-4.0
sg6
F-7.0
sb(dp118
I00
F1766.2658511048562
sI01
F1002.0487609527913
ss(i__main__
State
p119
(dp120
g3
F-7.0
sg4
F8.0
sg5
F-1.0
sg6
F-4.0
sb(dp121
I00
F-8605.181739715856
sI01
F1610.0323480365369
ss(i__main__
State
p122
(dp123
g3
F-6.0
sg4
F8.0
sg5
F0.0
sg6
F-3.0
sb(dp124
I00
F-8451.167328722488
sI01
F-9109.710865930003
ss(i__main__
State
p125
(dp126
g3
F4.0
sg4
F1.0
sg5
F-7.0
sg6
F7.0
sb(dp127
I00
F117.54343890971576
sI01
F718.0818071321677
ss(i__main__
State
p128
(dp129
g3
F-5.0
sg4
F3.0
sg5
F1.0
sg6
F-2.0
sb(dp130
I00
F315.9443517835828
sI01
F1409.313844863662
ss(i__main__
State
p131
(dp132
g3
F6.0
sg4
F6.0
sg5
F-5.0
sg6
F-8.0
sb(dp133
I00
F437.69069369965706
sI01
F1070.0773505194957
ss(i__main__
State
p134
(dp135
g3
F-8.0
sg4
F6.0
sg5
F-2.0
sg6
F-5.0
sb(dp136
I00
F1486.8392937234821
sI01
F1566.3408400716976
ss(i__main__
State
p137
(dp138
g3
F6.0
sg4
F7.0
sg5
F-5.0
sg6
F-8.0
sb(dp139
I00
F126.57424960085676
sI01
F1177.6708202830323
ss(i__main__
State
p140
(dp141
g3
F1.0
sg4
F3.0
sg5
F7.0
sg6
F4.0
sb(dp142
I00
F852.0470246765908
sI01
F1176.733715581112
ss(i__main__
State
p143
(dp144
g3
F1.0
sg4
F1.0
sg5
F7.0
sg6
F4.0
sb(dp145
I00
F938.5269025778716
sI01
F1380.6173672823627
ss(i__main__
State
p146
(dp147
g3
F2.0
sg4
F5.0
sg5
F8.0
sg6
F5.0
sb(dp148
I00
F1099.5777729343895
sI01
F376.7792963456623
ss(i__main__
State
p149
(dp150
g3
F0.0
sg4
F2.0
sg5
F6.0
sg6
F3.0
sb(dp151
I00
F1452.361897513692
sI01
F1035.6385266339553
ss(i__main__
State
p152
(dp153
g3
F1.0
sg4
F5.0
sg5
F7.0
sg6
F4.0
sb(dp154
I00
F905.5150509244952
sI01
F287.32973367978883
ss(i__main__
State
p155
(dp156
g3
F2.0
sg4
F6.0
sg5
F8.0
sg6
F5.0
sb(dp157
I00
F223.58263116422026
sI01
F1153.9303421612453
ss(i__main__
State
p158
(dp159
g3
F-1.0
sg4
F1.0
sg5
F5.0
sg6
F2.0
sb(dp160
I00
F1300.7720974594197
sI01
F1421.3395735308166
ss(i__main__
State
p161
(dp162
g3
F2.0
sg4
F7.0
sg5
F8.0
sg6
F5.0
sb(dp163
I00
F1072.363809725437
sI01
F1930.9324791459535
ss(i__main__
State
p164
(dp165
g3
F-7.0
sg4
F1.0
sg5
F-1.0
sg6
F-4.0
sb(dp166
I00
F408.572250064119
sI01
F14.272130100450235
ss(i__main__
State
p167
(dp168
g3
F-5.0
sg4
F6.0
sg5
F1.0
sg6
F-2.0
sb(dp169
I00
F977.6918935168686
sI01
F459.18306630921194
ss(i__main__
State
p170
(dp171
g3
F-6.0
sg4
F7.0
sg5
F0.0
sg6
F-3.0
sb(dp172
I00
F1347.6168173238673
sI01
F1588.7839105504872
ss(i__main__
State
p173
(dp174
g3
F3.0
sg4
F4.0
sg5
F-8.0
sg6
F6.0
sb(dp175
I00
F1457.7030163539557
sI01
F778.5194119777826
ss(i__main__
State
p176
(dp177
g3
F7.0
sg4
F4.0
sg5
F-4.0
sg6
F-7.0
sb(dp178
I00
F984.9594324208236
sI01
F687.2652212984198
ss(i__main__
State
p179
(dp180
g3
F8.0
sg4
F2.0
sg5
F-3.0
sg6
F-6.0
sb(dp181
I00
F932.9503624050786
sI01
F1577.3494572600302
ss(i__main__
State
p182
(dp183
g3
F1.0
sg4
F7.0
sg5
F7.0
sg6
F4.0
sb(dp184
I00
F942.6079089171641
sI01
F1986.2004779172266
ss(i__main__
State
p185
(dp186
g3
F-1.0
sg4
F4.0
sg5
F5.0
sg6
F2.0
sb(dp187
I00
F195.01560204510577
sI01
F1627.2809321659108
ss(i__main__
State
p188
(dp189
g3
F-3.0
sg4
F0.0
sg5
F3.0
sg6
F0.0
sb(dp190
I00
F1416.579744709612
sI01
F1324.4534332507674
ss(i__main__
State
p191
(dp192
g3
F-8.0
sg4
F4.0
sg5
F-2.0
sg6
F-5.0
sb(dp193
I00
F47.5083859608757
sI01
F238.28078957853316
ss(i__main__
State
p194
(dp195
g3
F1.0
sg4
F2.0
sg5
F7.0
sg6
F4.0
sb(dp196
I00
F1379.640698598977
sI01
F1474.45930949566
ss(i__main__
State
p197
(dp198
g3
F5.0
sg4
F4.0
sg5
F-6.0
sg6
F8.0
sb(dp199
I00
F1423.9786850157643
sI01
F1530.064398345958
ss(i__main__
State
p200
(dp201
g3
F-2.0
sg4
F5.0
sg5
F4.0
sg6
F1.0
sb(dp202
I00
F1061.4339273680473
sI01
F1696.5355138281407
ss(i__main__
State
p203
(dp204
g3
F-8.0
sg4
F2.0
sg5
F-2.0
sg6
F-5.0
sb(dp205
I00
F1058.4291707857208
sI01
F1745.3826506442276
ss(i__main__
State
p206
(dp207
g3
F-5.0
sg4
F0.0
sg5
F1.0
sg6
F-2.0
sb(dp208
I00
F1168.5076242502064
sI01
F532.212243148432
ss(i__main__
State
p209
(dp210
g3
F1.0
sg4
F8.0
sg5
F7.0
sg6
F4.0
sb(dp211
I00
F2148.16400439822
sI01
F571.0074763127179
ss(i__main__
State
p212
(dp213
g3
F0.0
sg4
F5.0
sg5
F6.0
sg6
F3.0
sb(dp214
I00
F676.6588327073164
sI01
F1782.556793034227
ss(i__main__
State
p215
(dp216
g3
F-4.0
sg4
F3.0
sg5
F2.0
sg6
F-1.0
sb(dp217
I00
F916.6445953714159
sI01
F74.88246151132148
ss(i__main__
State
p218
(dp219
g3
F-8.0
sg4
F5.0
sg5
F-2.0
sg6
F-5.0
sb(dp220
I00
F339.40815515061456
sI01
F1489.59254677229
ss(i__main__
State
p221
(dp222
g3
F-3.0
sg4
F6.0
sg5
F3.0
sg6
F0.0
sb(dp223
I00
F656.2390223044315
sI01
F1346.9555569631145
ss(i__main__
State
p224
(dp225
g3
F7.0
sg4
F3.0
sg5
F-4.0
sg6
F-7.0
sb(dp226
I00
F892.29663997259
sI01
F233.70111194658674
ss(i__main__
State
p227
(dp228
g3
F5.0
sg4
F5.0
sg5
F-6.0
sg6
F8.0
sb(dp229
I00
F1449.0535248237265
sI01
F835.701544528411
ss(i__main__
State
p230
(dp231
g3
F-5.0
sg4
F7.0
sg5
F1.0
sg6
F-2.0
sb(dp232
I00
F752.2828573513794
sI01
F1430.9091663803292
ss(i__main__
State
p233
(dp234
g3
F-4.0
sg4
F4.0
sg5
F2.0
sg6
F-1.0
sb(dp235
I00
F388.0119330186751
sI01
F1846.270288933917
ss(i__main__
State
p236
(dp237
g3
F3.0
sg4
F7.0
sg5
F-8.0
sg6
F6.0
sb(dp238
I00
F1389.7338654632795
sI01
F910.9815241017743
ss(i__main__
State
p239
(dp240
g3
F7.0
sg4
F0.0
sg5
F-4.0
sg6
F-7.0
sb(dp241
I00
F673.287835520962
sI01
F1595.6096898232904
ss(i__main__
State
p242
(dp243
g3
F-6.0
sg4
F6.0
sg5
F0.0
sg6
F-3.0
sb(dp244
I00
F762.5530147555276
sI01
F976.424931159801
ss(i__main__
State
p245
(dp246
g3
F-6.0
sg4
F0.0
sg5
F0.0
sg6
F-3.0
sb(dp247
I00
F1013.3798349389959
sI01
F1556.5989449603958
ss(i__main__
State
p248
(dp249
g3
F-8.0
sg4
F0.0
sg5
F-2.0
sg6
F-5.0
sb(dp250
I00
F1288.6812133591834
sI01
F116.10464138310903
ss(i__main__
State
p251
(dp252
g3
F6.0
sg4
F8.0
sg5
F-5.0
sg6
F-8.0
sb(dp253
I00
F1827.4607386713662
sI01
F1449.3534216857702
ss(i__main__
State
p254
(dp255
g3
F-3.0
sg4
F3.0
sg5
F3.0
sg6
F0.0
sb(dp256
I00
F1151.5898550884028
sI01
F1671.1591617410265
ss(i__main__
State
p257
(dp258
g3
F0.0
sg4
F0.0
sg5
F6.0
sg6
F3.0
sb(dp259
I00
F653.8816345267736
sI01
F1312.979859208484
ss(i__main__
State
p260
(dp261
g3
F5.0
sg4
F2.0
sg5
F-6.0
sg6
F8.0
sb(dp262
I00
F1197.0168391161253
sI01
F281.61594775932355
ss(i__main__
State
p263
(dp264
g3
F-8.0
sg4
F3.0
sg5
F-2.0
sg6
F-5.0
sb(dp265
I00
F1710.376047018925
sI01
F225.50028807364254
ss(i__main__
State
p266
(dp267
g3
F-2.0
sg4
F7.0
sg5
F4.0
sg6
F1.0
sb(dp268
I00
F1672.82800557822
sI01
F508.88683972773873
ss(i__main__
State
p269
(dp270
g3
F0.0
sg4
F6.0
sg5
F6.0
sg6
F3.0
sb(dp271
I00
F1008.7703764659007
sI01
F1830.2293716939857
ss(i__main__
State
p272
(dp273
g3
F-2.0
sg4
F1.0
sg5
F4.0
sg6
F1.0
sb(dp274
I00
F1378.9216910961532
sI01
F1212.3654172264905
ss(i__main__
State
p275
(dp276
g3
F-4.0
sg4
F8.0
sg5
F2.0
sg6
F-1.0
sb(dp277
I00
F-8528.364007251685
sI01
F1507.3372975358147
ss(i__main__
State
p278
(dp279
g3
F-8.0
sg4
F1.0
sg5
F-2.0
sg6
F-5.0
sb(dp280
I00
F103.18934747381013
sI01
F1212.489375494292
ss(i__main__
State
p281
(dp282
g3
F-3.0
sg4
F1.0
sg5
F3.0
sg6
F0.0
sb(dp283
I00
F1333.4899270104406
sI01
F980.338282401031
ss(i__main__
State
p284
(dp285
g3
F7.0
sg4
F7.0
sg5
F-4.0
sg6
F-7.0
sb(dp286
I00
F646.5206865416875
sI01
F1363.8118376368088
ss(i__main__
State
p287
(dp288
g3
F-3.0
sg4
F7.0
sg5
F3.0
sg6
F0.0
sb(dp289
I00
F943.2292299597761
sI01
F1378.9635513144542
ss(i__main__
State
p290
(dp291
g3
F4.0
sg4
F5.0
sg5
F-7.0
sg6
F7.0
sb(dp292
I00
F1155.7727142397198
sI01
F275.69756857957077
ss(i__main__
State
p293
(dp294
g3
F4.0
sg4
F0.0
sg5
F-7.0
sg6
F7.0
sb(dp295
I00
F474.5954579369435
sI01
F1002.0124894722265
ss(i__main__
State
p296
(dp297
g3
F6.0
sg4
F5.0
sg5
F-5.0
sg6
F-8.0
sb(dp298
I00
F1538.7899989586167
sI01
F1399.6791279276745
ss(i__main__
State
p299
(dp300
g3
F-5.0
sg4
F4.0
sg5
F1.0
sg6
F-2.0
sb(dp301
I00
F1606.2799919944785
sI01
F1872.1471397981236
ss(i__main__
State
p302
(dp303
g3
F-3.0
sg4
F8.0
sg5
F3.0
sg6
F0.0
sb(dp304
I00
F-8568.119156005403
sI01
F-8931.137566794947
ss(i__main__
State
p305
(dp306
g3
F-1.0
sg4
F0.0
sg5
F5.0
sg6
F2.0
sb(dp307
I00
F1241.093868300352
sI01
F1441.9160491048333
ss(i__main__
State
p308
(dp309
g3
F-8.0
sg4
F7.0
sg5
F-2.0
sg6
F-5.0
sb(dp310
I00
F1539.0574190176387
sI01
F1324.2005950567377
ss(i__main__
State
p311
(dp312
g3
F-1.0
sg4
F2.0
sg5
F5.0
sg6
F2.0
sb(dp313
I00
F1355.997202951215
sI01
F276.87105968205293
ss(i__main__
State
p314
(dp315
g3
F5.0
sg4
F3.0
sg5
F-6.0
sg6
F8.0
sb(dp316
I00
F206.9607476939943
sI01
F1291.7178303183005
ss(i__main__
State
p317
(dp318
g3
F-1.0
sg4
F6.0
sg5
F5.0
sg6
F2.0
sb(dp319
I00
F1521.1594597176972
sI01
F2025.5885509298028
ss(i__main__
State
p320
(dp321
g3
F-7.0
sg4
F4.0
sg5
F-1.0
sg6
F-4.0
sb(dp322
I00
F349.98010537146894
sI01
F403.067364409151
ss(i__main__
State
p323
(dp324
g3
F-4.0
sg4
F1.0
sg5
F2.0
sg6
F-1.0
sb(dp325
I00
F1114.0989344524928
sI01
F160.0542210394287
ss(i__main__
State
p326
(dp327
g3
F1.0
sg4
F0.0
sg5
F7.0
sg6
F4.0
sb(dp328
I00
F233.8784745922124
sI01
F872.2997349328236
ss(i__main__
State
p329
(dp330
g3
F8.0
sg4
F5.0
sg5
F-3.0
sg6
F-6.0
sb(dp331
I00
F1418.8045752447665
sI01
F1556.6227653753153
ss(i__main__
State
p332
(dp333
g3
F3.0
sg4
F0.0
sg5
F-8.0
sg6
F6.0
sb(dp334
I00
F858.6737521652566
sI01
F330.74430966634714
ss(i__main__
State
p335
(dp336
g3
F7.0
sg4
F1.0
sg5
F-4.0
sg6
F-7.0
sb(dp337
I00
F389.700535237502
sI01
F1007.8390095841792
ss(i__main__
State
p338
(dp339
g3
F4.0
sg4
F2.0
sg5
F-7.0
sg6
F7.0
sb(dp340
I00
F1061.3347914874387
sI01
F407.0398062130373
ss(i__main__
State
p341
(dp342
g3
F-6.0
sg4
F4.0
sg5
F0.0
sg6
F-3.0
sb(dp343
I00
F1512.4925948020104
sI01
F423.7271660576594
ss(i__main__
State
p344
(dp345
g3
F-4.0
sg4
F5.0
sg5
F2.0
sg6
F-1.0
sb(dp346
I00
F1906.4092632993816
sI01
F994.7846779763449
ss(i__main__
State
p347
(dp348
g3
F-3.0
sg4
F4.0
sg5
F3.0
sg6
F0.0
sb(dp349
I00
F159.70375844986904
sI01
F757.5310286177307
ss(i__main__
State
p350
(dp351
g3
F0.0
sg4
F3.0
sg5
F6.0
sg6
F3.0
sb(dp352
I00
F593.2042749747598
sI01
F193.73735973693616
ss(i__main__
State
p353
(dp354
g3
F4.0
sg4
F3.0
sg5
F-7.0
sg6
F7.0
sb(dp355
I00
F1121.7841246181042
sI01
F1507.525002082177
ss(i__main__
State
p356
(dp357
g3
F-4.0
sg4
F6.0
sg5
F2.0
sg6
F-1.0
sb(dp358
I00
F678.6440077233624
sI01
F1182.684770960586
ss(i__main__
State
p359
(dp360
g3
F-6.0
sg4
F2.0
sg5
F0.0
sg6
F-3.0
sb(dp361
I00
F443.0416662225682
sI01
F-28.244084507230944
ss(i__main__
State
p362
(dp363
g3
F-7.0
sg4
F6.0
sg5
F-1.0
sg6
F-4.0
sb(dp364
I00
F704.3868081523465
sI01
F1552.4939027127903
ss(i__main__
State
p365
(dp366
g3
F6.0
sg4
F2.0
sg5
F-5.0
sg6
F-8.0
sb(dp367
I00
F1317.0864229495173
sI01
F460.9471546063271
ss(i__main__
State
p368
(dp369
g3
F3.0
sg4
F5.0
sg5
F-8.0
sg6
F6.0
sb(dp370
I00
F577.3179733397967
sI01
F1300.455510655038
ss(i__main__
State
p371
(dp372
g3
F-8.0
sg4
F8.0
sg5
F-2.0
sg6
F-5.0
sb(dp373
I00
F1667.8927868484107
sI01
F1292.2943720677863
ss(i__main__
State
p374
(dp375
g3
F-2.0
sg4
F0.0
sg5
F4.0
sg6
F1.0
sb(dp376
I00
F1426.470021301573
sI01
F1336.796065251156
ss(i__main__
State
p377
(dp378
g3
F2.0
sg4
F2.0
sg5
F8.0
sg6
F5.0
sb(dp379
I00
F1434.8272046642812
sI01
F1331.1772566267025
ss(i__main__
State
p380
(dp381
g3
F5.0
sg4
F1.0
sg5
F-6.0
sg6
F8.0
sb(dp382
I00
F520.1171600253282
sI01
F1129.6885870760366
ss(i__main__
State
p383
(dp384
g3
F-2.0
sg4
F4.0
sg5
F4.0
sg6
F1.0
sb(dp385
I00
F1186.0387872662475
sI01
F1708.1762745964577
ss(i__main__
State
p386
(dp387
g3
F-7.0
sg4
F2.0
sg5
F-1.0
sg6
F-4.0
sb(dp388
I00
F72.38896621489934
sI01
F1630.0450781235702
ss(i__main__
State
p389
(dp390
g3
F2.0
sg4
F4.0
sg5
F8.0
sg6
F5.0
sb(dp391
I00
F1320.8136893715157
sI01
F672.2188505105922
ss(i__main__
State
p392
(dp393
g3
F-2.0
sg4
F3.0
sg5
F4.0
sg6
F1.0
sb(dp394
I00
F22.18726181890098
sI01
F1419.2714719327964
ss(i__main__
State
p395
(dp396
g3
F7.0
sg4
F5.0
sg5
F-4.0
sg6
F-7.0
sb(dp397
I00
F1547.0972123290603
sI01
F1419.3804713853056
ss(i__main__
State
p398
(dp399
g3
F-4.0
sg4
F0.0
sg5
F2.0
sg6
F-1.0
sb(dp400
I00
F1203.766993109198
sI01
F1294.0360141089293
ss(i__main__
State
p401
(dp402
g3
F8.0
sg4
F7.0
sg5
F-3.0
sg6
F-6.0
sb(dp403
I00
F477.1880765114011
sI01
F1299.4098388143786
ss(i__main__
State
p404
(dp405
g3
F-2.0
sg4
F6.0
sg5
F4.0
sg6
F1.0
sb(dp406
I00
F1975.2881809355001
sI01
F1741.820632700634
ss(i__main__
State
p407
(dp408
g3
F-6.0
sg4
F1.0
sg5
F0.0
sg6
F-3.0
sb(dp409
I00
F651.559072392254
sI01
F841.5123959043368
ss(i__main__
State
p410
(dp411
g3
F2.0
sg4
F1.0
sg5
F8.0
sg6
F5.0
sb(dp412
I00
F105.34409754747915
sI01
F1215.6368972450039
ss(i__main__
State
p413
(dp414
g3
F4.0
sg4
F8.0
sg5
F-7.0
sg6
F7.0
sb(dp415
I00
F1973.510968645931
sI01
F1093.0726435654547
ss(i__main__
State
p416
(dp417
g3
F7.0
sg4
F2.0
sg5
F-4.0
sg6
F-7.0
sb(dp418
I00
F1413.7139025951446
sI01
F971.8765441057635
ss(i__main__
State
p419
(dp420
g3
F2.0
sg4
F3.0
sg5
F8.0
sg6
F5.0
sb(dp421
I00
F1487.2897229216758
sI01
F1386.4802213693006
ss(i__main__
State
p422
(dp423
g3
F0.0
sg4
F4.0
sg5
F6.0
sg6
F3.0
sb(dp424
I00
F475.0619815251692
sI01
F220.33224939230854
ss(i__main__
State
p425
(dp426
g3
F-1.0
sg4
F8.0
sg5
F5.0
sg6
F2.0
sb(dp427
I00
F-6420.300746625484
sI01
F1116.9744344911353
ss(i__main__
State
p428
(dp429
g3
F8.0
sg4
F6.0
sg5
F-3.0
sg6
F-6.0
sb(dp430
I00
F1340.2153704270315
sI01
F1501.5159253401998
ss(i__main__
State
p431
(dp432
g3
F5.0
sg4
F7.0
sg5
F-6.0
sg6
F8.0
sb(dp433
I00
F707.3801774511901
sI01
F1643.7322567427796
ss(i__main__
State
p434
(dp435
g3
F-7.0
sg4
F7.0
sg5
F-1.0
sg6
F-4.0
sb(dp436
I00
F1578.3250999620648
sI01
F-8514.304232890025
ss(i__main__
State
p437
(dp438
g3
F-7.0
sg4
F3.0
sg5
F-1.0
sg6
F-4.0
sb(dp439
I00
F1811.8712966128433
sI01
F1147.637335137255
ss(i__main__
State
p440
(dp441
g3
F-5.0
sg4
F1.0
sg5
F1.0
sg6
F-2.0
sb(dp442
I00
F879.1197130657933
sI01
F1592.7859509462141
ss(i__main__
State
p443
(dp444
g3
F0.0
sg4
F8.0
sg5
F6.0
sg6
F3.0
sb(dp445
I00
F-8001.54097740302
sI01
F-8156.899810104742
ss(i__main__
State
p446
(dp447
g3
F4.0
sg4
F6.0
sg5
F-7.0
sg6
F7.0
sb(dp448
I00
F150.44018739243694
sI01
F1493.8051182729855
ss(i__main__
State
p449
(dp450
g3
F-3.0
sg4
F5.0
sg5
F3.0
sg6
F0.0
sb(dp451
I00
F1447.6313468775495
sI01
F1944.8403848023554
ss(i__main__
State
p452
(dp453
g3
F1.0
sg4
F6.0
sg5
F7.0
sg6
F4.0
sb(dp454
I00
F894.2359064811722
sI01
F1840.3956433734018
ss(i__main__
State
p455
(dp456
g3
F8.0
sg4
F0.0
sg5
F-3.0
sg6
F-6.0
sb(dp457
I00
F1096.7566595328317
sI01
F592.0456442643267
ss(i__main__
State
p458
(dp459
g3
F3.0
sg4
F8.0
sg5
F-8.0
sg6
F6.0
sb(dp460
I00
F2046.9812265146352
sI01
F806.9320379297649
ss(i__main__
State
p461
(dp462
g3
F-7.0
sg4
F0.0
sg5
F-1.0
sg6
F-4.0
sb(dp463
I00
F1446.1461657335924
sI01
F564.141031322438
ss.