(dp0
(i__main__
State
p1
(dp2
S'y1'
p3
F1.0
sS'x'
p4
F7.0
sS'y3'
p5
F-1.0
sS'y2'
p6
F-6.0
sb(dp7
I00
F48.34910215727962
sI01
I37
ss(i__main__
State
p8
(dp9
g3
F6.0
sg4
F5.0
sg5
F-6.0
sg6
F-2.0
sb(dp10
I00
F-93.0895
sI01
F-20.013199999999998
ss(i__main__
State
p11
(dp12
g3
F1.0
sg4
F9.0
sg5
F-1.0
sg6
F-8.0
sb(dp13
I00
F42.92456201
sI01
F-81.43
ss(i__main__
State
p14
(dp15
g3
F7.0
sg4
F6.0
sg5
F-7.0
sg6
F0.0
sb(dp16
I00
F55.405619867
sI01
F-5.5
ss(i__main__
State
p17
(dp18
g3
F-7.0
sg4
F0.0
sg5
F7.0
sg6
F-8.0
sb(dp19
I00
F77.0405
sI01
F-89.4019
ss(i__main__
State
p20
(dp21
g3
F2.0
sg4
F6.0
sg5
F-2.0
sg6
F4.0
sb(dp22
I00
F77.32
sI01
F80.2
ss(i__main__
State
p23
(dp24
g3
F-1.0
sg4
F10.0
sg5
F1.0
sg6
F-8.0
sb(dp25
I00
F130.90380777802795
sI01
F21.588
ss(i__main__
State
p26
(dp27
g3
F8.0
sg4
F8.0
sg5
F-8.0
sg6
F2.0
sb(dp28
I00
F134.446057868355
sI01
F11.100000000000001
ss(i__main__
State
p29
(dp30
g3
F-8.0
sg4
F10.0
sg5
F8.0
sg6
F-6.0
sb(dp31
I00
F112.1443137712
sI01
F18.05
ss(i__main__
State
p32
(dp33
g3
F5.0
sg4
F1.0
sg5
F-5.0
sg6
F6.0
sb(dp34
I00
F17.130000000000003
sI01
I-24
ss(i__main__
State
p35
(dp36
g3
F3.0
sg4
F0.0
sg5
F-3.0
sg6
F2.0
sb(dp37
I00
F-20.518939314113997
sI01
F68.05206463518547
ss(i__main__
State
p38
(dp39
g3
F6.0
sg4
F1.0
sg5
F-6.0
sg6
F-2.0
sb(dp40
I00
F43.307758
sI01
F20.43437
ss(i__main__
State
p41
(dp42
g3
F-6.0
sg4
F1.0
sg5
F6.0
sg6
F-6.0
sb(dp43
I00
F-47.79
sI01
F-0.3126496599999977
ss(i__main__
State
p44
(dp45
g3
F0.0
sg4
F8.0
sg5
F0.0
sg6
F2.0
sb(dp46
I00
F-1000.0
sI01
F-1000.0
ss(i__main__
State
p47
(dp48
g3
F7.0
sg4
F10.0
sg5
F-7.0
sg6
F-6.0
sb(dp49
I00
F32.01602
sI01
F0.0
ss(i__main__
State
p50
(dp51
g3
F4.0
sg4
F2.0
sg5
F-4.0
sg6
F2.0
sb(dp52
I00
F32.844899999999996
sI01
F-44.8
ss(i__main__
State
p53
(dp54
g3
F4.0
sg4
F7.0
sg5
F-4.0
sg6
F-2.0
sb(dp55
I00
F67.83386136
sI01
F86.69519305
ss(i__main__
State
p56
(dp57
g3
F-1.0
sg4
F3.0
sg5
F1.0
sg6
F-8.0
sb(dp58
I00
F-7.3135481979999994
sI01
F69.79843130399348
ss(i__main__
State
p59
(dp60
g3
F-2.0
sg4
F1.0
sg5
F2.0
sg6
F-6.0
sb(dp61
I00
I-97
sI01
F8.780000000000001
ss(i__main__
State
p62
(dp63
g3
F-3.0
sg4
F3.0
sg5
F3.0
sg6
F0.0
sb(dp64
I00
F61.19269590000001
sI01
I48
ss(i__main__
State
p65
(dp66
g3
F4.0
sg4
F1.0
sg5
F-4.0
sg6
F-6.0
sb(dp67
I00
F17.4
sI01
I-19
ss(i__main__
State
p68
(dp69
g3
F1.0
sg4
F9.0
sg5
F-1.0
sg6
F8.0
sb(dp70
I00
F111.98437912272436
sI01
F0.0
ss(i__main__
State
p71
(dp72
g3
F-1.0
sg4
F6.0
sg5
F1.0
sg6
F8.0
sb(dp73
I00
F-42.1241
sI01
F-28.724693600000002
ss(i__main__
State
p74
(dp75
g3
F-5.0
sg4
F9.0
sg5
F5.0
sg6
F2.0
sb(dp76
I00
F63.943430000000006
sI01
F34.875107430174204
ss(i__main__
State
p77
(dp78
g3
F4.0
sg4
F9.0
sg5
F-4.0
sg6
F8.0
sb(dp79
I00
F55.42424726151065
sI01
F13.0
ss(i__main__
State
p80
(dp81
g3
F0.0
sg4
F9.0
sg5
F0.0
sg6
F4.0
sb(dp82
I00
F96.538168582643
sI01
F21.54043
ss(i__main__
State
p83
(dp84
g3
F-5.0
sg4
F3.0
sg5
F5.0
sg6
F4.0
sb(dp85
I00
I-95
sI01
F29.952424478
ss(i__main__
State
p86
(dp87
g3
F5.0
sg4
F10.0
sg5
F-5.0
sg6
F-2.0
sb(dp88
I00
F84.8730401687254
sI01
F14.572016035550002
ss(i__main__
State
p89
(dp90
g3
F-2.0
sg4
F9.0
sg5
F2.0
sg6
F-4.0
sb(dp91
I00
F103.32769319106579
sI01
F0.0
ss(i__main__
State
p92
(dp93
g3
F-2.0
sg4
F2.0
sg5
F2.0
sg6
F-6.0
sb(dp94
I00
F-83.9
sI01
F-50.3
ss(i__main__
State
p95
(dp96
g3
F-7.0
sg4
F8.0
sg5
F7.0
sg6
F-2.0
sb(dp97
I00
F116.06628173912371
sI01
F-72.69030000000002
ss(i__main__
State
p98
(dp99
g3
F-1.0
sg4
F0.0
sg5
F1.0
sg6
F6.0
sb(dp100
I00
F51.88546213114999
sI01
F43.862500000000004
ss(i__main__
State
p101
(dp102
g3
F8.0
sg4
F8.0
sg5
F-8.0
sg6
F4.0
sb(dp103
I00
F10.0
sI01
F81.60515466000001
ss(i__main__
State
p104
(dp105
g3
F5.0
sg4
F10.0
sg5
F-5.0
sg6
F-4.0
sb(dp106
I00
F10.0
sI01
F53.877468400000005
ss(i__main__
State
p107
(dp108
g3
F6.0
sg4
F9.0
sg5
F-6.0
sg6
F6.0
sb(dp109
I00
F31.0
sI01
F0.0
ss(i__main__
State
p110
(dp111
g3
F7.0
sg4
F9.0
sg5
F-7.0
sg6
F8.0
sb(dp112
I00
F30.4799
sI01
F0.0
ss(i__main__
State
p113
(dp114
g3
F5.0
sg4
F6.0
sg5
F-5.0
sg6
F-2.0
sb(dp115
I00
F37.84423
sI01
F-10.975496632103999
ss(i__main__
State
p116
(dp117
g3
F2.0
sg4
F7.0
sg5
F-2.0
sg6
F-2.0
sb(dp118
I00
F27.737916752059803
sI01
I-98
ss(i__main__
State
p119
(dp120
g3
F-4.0
sg4
F3.0
sg5
F4.0
sg6
F-6.0
sb(dp121
I00
F56.973
sI01
I58
ss(i__main__
State
p122
(dp123
g3
F3.0
sg4
F10.0
sg5
F-3.0
sg6
F8.0
sb(dp124
I00
F10.0
sI01
F0.0
ss(i__main__
State
p125
(dp126
g3
F-8.0
sg4
F10.0
sg5
F8.0
sg6
F-4.0
sb(dp127
I00
F0.0
sI01
F38.456587
ss(i__main__
State
p128
(dp129
g3
F7.0
sg4
F10.0
sg5
F-7.0
sg6
F2.0
sb(dp130
I00
F92.053167974
sI01
F5.5
ss(i__main__
State
p131
(dp132
g3
F2.0
sg4
F7.0
sg5
F-2.0
sg6
F8.0
sb(dp133
I00
F46.72416799999999
sI01
F-15.9
ss(i__main__
State
p134
(dp135
g3
F-5.0
sg4
F4.0
sg5
F5.0
sg6
F8.0
sb(dp136
I00
F-43.17
sI01
F19.925627
ss(i__main__
State
p137
(dp138
g3
F3.0
sg4
F7.0
sg5
F-3.0
sg6
F-2.0
sb(dp139
I00
F41.8806922744398
sI01
F-53.1929406064
ss(i__main__
State
p140
(dp141
g3
F4.0
sg4
F9.0
sg5
F-4.0
sg6
F6.0
sb(dp142
I00
F20.0
sI01
F0.0
ss(i__main__
State
p143
(dp144
g3
F4.0
sg4
F7.0
sg5
F-4.0
sg6
F6.0
sb(dp145
I00
I-50
sI01
F82.203262429932
ss(i__main__
State
p146
(dp147
g3
F7.0
sg4
F5.0
sg5
F-7.0
sg6
F0.0
sb(dp148
I00
F7.437473500000002
sI01
F-5.3615495863959985
ss(i__main__
State
p149
(dp150
g3
F-7.0
sg4
F2.0
sg5
F7.0
sg6
F8.0
sb(dp151
I00
I-90
sI01
F-21.512041000000004
ss(i__main__
State
p152
(dp153
g3
F2.0
sg4
F9.0
sg5
F-2.0
sg6
F8.0
sb(dp154
I00
F47.39011000000001
sI01
F10.0
ss(i__main__
State
p155
(dp156
g3
F5.0
sg4
F6.0
sg5
F-5.0
sg6
F2.0
sb(dp157
I00
F-3.1999999999999997
sI01
F-63.422
ss(i__main__
State
p158
(dp159
g3
F-4.0
sg4
F4.0
sg5
F4.0
sg6
F-6.0
sb(dp160
I00
F2.5999999999999996
sI01
I-26
ss(i__main__
State
p161
(dp162
g3
F0.0
sg4
F6.0
sg5
F0.0
sg6
F-2.0
sb(dp163
I00
F21.139136671000003
sI01
F-72.071
ss(i__main__
State
p164
(dp165
g3
F-7.0
sg4
F10.0
sg5
F7.0
sg6
F0.0
sb(dp166
I00
F25.214121251504004
sI01
F82.58536686927465
ss(i__main__
State
p167
(dp168
g3
F6.0
sg4
F7.0
sg5
F-6.0
sg6
F6.0
sb(dp169
I00
F50.356506148319994
sI01
F-37.234928066799995
ss(i__main__
State
p170
(dp171
g3
F1.0
sg4
F10.0
sg5
F-1.0
sg6
F8.0
sb(dp172
I00
F0.0
sI01
F15.9
ss(i__main__
State
p173
(dp174
g3
F3.0
sg4
F2.0
sg5
F-3.0
sg6
F6.0
sb(dp175
I00
F22.643121600000008
sI01
F-25.129999999999995
ss(i__main__
State
p176
(dp177
g3
F2.0
sg4
F8.0
sg5
F-2.0
sg6
F4.0
sb(dp178
I00
F10.0
sI01
F157.24249655511656
ss(i__main__
State
p179
(dp180
g3
F-2.0
sg4
F5.0
sg5
F2.0
sg6
F-4.0
sb(dp181
I00
F73.682976
sI01
F-62.099999999999994
ss(i__main__
State
p182
(dp183
g3
F2.0
sg4
F4.0
sg5
F-2.0
sg6
F-6.0
sb(dp184
I00
F85.4
sI01
I-60
ss(i__main__
State
p185
(dp186
g3
F-2.0
sg4
F0.0
sg5
F2.0
sg6
F-6.0
sb(dp187
I00
I-53
sI01
F9.5
ss(i__main__
State
p188
(dp189
g3
F-6.0
sg4
F3.0
sg5
F6.0
sg6
F-8.0
sb(dp190
I00
F32.844648615808815
sI01
I18
ss(i__main__
State
p191
(dp192
g3
F6.0
sg4
F6.0
sg5
F-6.0
sg6
F6.0
sb(dp193
I00
F61.981
sI01
I-60
ss(i__main__
State
p194
(dp195
g3
F2.0
sg4
F2.0
sg5
F-2.0
sg6
F4.0
sb(dp196
I00
F91.8
sI01
I49
ss(i__main__
State
p197
(dp198
g3
F-3.0
sg4
F5.0
sg5
F3.0
sg6
F-4.0
sb(dp199
I00
I-95
sI01
F-41.980000000000004
ss(i__main__
State
p200
(dp201
g3
F-3.0
sg4
F5.0
sg5
F3.0
sg6
F2.0
sb(dp202
I00
I70
sI01
F95.2
ss(i__main__
State
p203
(dp204
g3
F8.0
sg4
F2.0
sg5
F-8.0
sg6
F-4.0
sb(dp205
I00
F6.034534715447399
sI01
F-35.79947632
ss(i__main__
State
p206
(dp207
g3
F4.0
sg4
F7.0
sg5
F-4.0
sg6
F8.0
sb(dp208
I00
I-22
sI01
F79.59
ss(i__main__
State
p209
(dp210
g3
F1.0
sg4
F3.0
sg5
F-1.0
sg6
F8.0
sb(dp211
I00
F44.03593
sI01
F43.52129
ss(i__main__
State
p212
(dp213
g3
F-5.0
sg4
F0.0
sg5
F5.0
sg6
F-8.0
sb(dp214
I00
F45.89763000000001
sI01
I0
ss(i__main__
State
p215
(dp216
g3
F-8.0
sg4
F0.0
sg5
F8.0
sg6
F2.0
sb(dp217
I00
F48.252469564531744
sI01
F-53.2
ss(i__main__
State
p218
(dp219
g3
F5.0
sg4
F7.0
sg5
F-5.0
sg6
F2.0
sb(dp220
I00
F23.427
sI01
I-21
ss(i__main__
State
p221
(dp222
g3
F2.0
sg4
F1.0
sg5
F-2.0
sg6
F-8.0
sb(dp223
I00
F96.3
sI01
I15
ss(i__main__
State
p224
(dp225
g3
F-8.0
sg4
F4.0
sg5
F8.0
sg6
F-6.0
sb(dp226
I00
I31
sI01
F59.779811
ss(i__main__
State
p227
(dp228
g3
F-3.0
sg4
F0.0
sg5
F3.0
sg6
F6.0
sb(dp229
I00
F-11.167081185
sI01
I-76
ss(i__main__
State
p230
(dp231
g3
F6.0
sg4
F1.0
sg5
F-6.0
sg6
F8.0
sb(dp232
I00
F-50.120999999999995
sI01
F2.230503713046011
ss(i__main__
State
p233
(dp234
g3
F2.0
sg4
F4.0
sg5
F-2.0
sg6
F8.0
sb(dp235
I00
F48.012139999999995
sI01
F13.3998965776405
ss(i__main__
State
p236
(dp237
g3
F3.0
sg4
F1.0
sg5
F-3.0
sg6
F-8.0
sb(dp238
I00
F46.8956862
sI01
I-95
ss(i__main__
State
p239
(dp240
g3
F-6.0
sg4
F7.0
sg5
F6.0
sg6
F4.0
sb(dp241
I00
F10.8649
sI01
F-19.238
ss(i__main__
State
p242
(dp243
g3
F8.0
sg4
F1.0
sg5
F-8.0
sg6
F0.0
sb(dp244
I00
F-69.85
sI01
F10.379600545019999
ss(i__main__
State
p245
(dp246
g3
F5.0
sg4
F8.0
sg5
F-5.0
sg6
F2.0
sb(dp247
I00
F10.0
sI01
F0.0
ss(i__main__
State
p248
(dp249
g3
F0.0
sg4
F2.0
sg5
F0.0
sg6
F4.0
sb(dp250
I00
F-2.3000000000000007
sI01
I-7
ss(i__main__
State
p251
(dp252
g3
F-4.0
sg4
F3.0
sg5
F4.0
sg6
F2.0
sb(dp253
I00
F35.72604168
sI01
F37.0186392
ss(i__main__
State
p254
(dp255
g3
F5.0
sg4
F8.0
sg5
F-5.0
sg6
F-4.0
sb(dp256
I00
F159.64126767569178
sI01
F19.0
ss(i__main__
State
p257
(dp258
g3
F6.0
sg4
F1.0
sg5
F-6.0
sg6
F-6.0
sb(dp259
I00
F12.744055000000001
sI01
I-74
ss(i__main__
State
p260
(dp261
g3
F3.0
sg4
F3.0
sg5
F-3.0
sg6
F8.0
sb(dp262
I00
I-86
sI01
F30.539099999999998
ss(i__main__
State
p263
(dp264
g3
F0.0
sg4
F4.0
sg5
F0.0
sg6
F-6.0
sb(dp265
I00
I-17
sI01
F74.23086899999998
ss(i__main__
State
p266
(dp267
g3
F-3.0
sg4
F2.0
sg5
F3.0
sg6
F-8.0
sb(dp268
I00
F39.052
sI01
F77.581
ss(i__main__
State
p269
(dp270
g3
F7.0
sg4
F10.0
sg5
F-7.0
sg6
F-2.0
sb(dp271
I00
F21.0
sI01
F0.0
ss(i__main__
State
p272
(dp273
g3
F1.0
sg4
F8.0
sg5
F-1.0
sg6
F4.0
sb(dp274
I00
F-72.411881
sI01
F98.58357947238152
ss(i__main__
State
p275
(dp276
g3
F-2.0
sg4
F10.0
sg5
F2.0
sg6
F4.0
sb(dp277
I00
F73.24436555000001
sI01
F0.0
ss(i__main__
State
p278
(dp279
g3
F-2.0
sg4
F6.0
sg5
F2.0
sg6
F-6.0
sb(dp280
I00
I-93
sI01
F-36.269
ss(i__main__
State
p281
(dp282
g3
F-1.0
sg4
F0.0
sg5
F1.0
sg6
F-8.0
sb(dp283
I00
F-52.1
sI01
F-20.0
ss(i__main__
State
p284
(dp285
g3
F4.0
sg4
F4.0
sg5
F-4.0
sg6
F8.0
sb(dp286
I00
I75
sI01
F74.1392075108
ss(i__main__
State
p287
(dp288
g3
F5.0
sg4
F5.0
sg5
F-5.0
sg6
F2.0
sb(dp289
I00
F55.49399999999999
sI01
F58.643
ss(i__main__
State
p290
(dp291
g3
F-5.0
sg4
F3.0
sg5
F5.0
sg6
F-6.0
sb(dp292
I00
I-92
sI01
F88.76
ss(i__main__
State
p293
(dp294
g3
F-8.0
sg4
F5.0
sg5
F8.0
sg6
F8.0
sb(dp295
I00
F-53.19221
sI01
F16.156954051200003
ss(i__main__
State
p296
(dp297
g3
F3.0
sg4
F2.0
sg5
F-3.0
sg6
F-4.0
sb(dp298
I00
F32.66
sI01
I-74
ss(i__main__
State
p299
(dp300
g3
F-5.0
sg4
F7.0
sg5
F5.0
sg6
F-2.0
sb(dp301
I00
F57.992981
sI01
I-92
ss(i__main__
State
p302
(dp303
g3
F1.0
sg4
F4.0
sg5
F-1.0
sg6
F8.0
sb(dp304
I00
I-70
sI01
F62.665411000000006
ss(i__main__
State
p305
(dp306
g3
F-1.0
sg4
F5.0
sg5
F1.0
sg6
F2.0
sb(dp307
I00
F62.924372616
sI01
F-49.1184
ss(i__main__
State
p308
(dp309
g3
F-5.0
sg4
F9.0
sg5
F5.0
sg6
F-4.0
sb(dp310
I00
F95.1029223093335
sI01
F10.0
ss(i__main__
State
p311
(dp312
g3
F4.0
sg4
F3.0
sg5
F-4.0
sg6
F-6.0
sb(dp313
I00
F24.168906475079503
sI01
F-53.783159999999995
ss(i__main__
State
p314
(dp315
g3
F6.0
sg4
F6.0
sg5
F-6.0
sg6
F0.0
sb(dp316
I00
F7.5
sI01
F51.723
ss(i__main__
State
p317
(dp318
g3
F7.0
sg4
F8.0
sg5
F-7.0
sg6
F-6.0
sb(dp319
I00
F21.0
sI01
F0.0
ss(i__main__
State
p320
(dp321
g3
F-2.0
sg4
F7.0
sg5
F2.0
sg6
F0.0
sb(dp322
I00
F-81.52
sI01
F36.569100105389026
ss(i__main__
State
p323
(dp324
g3
F-2.0
sg4
F10.0
sg5
F2.0
sg6
F-2.0
sb(dp325
I00
F61.3945333
sI01
F0.0
ss(i__main__
State
p326
(dp327
g3
F1.0
sg4
F8.0
sg5
F-1.0
sg6
F-8.0
sb(dp328
I00
F0.0
sI01
F37.34828891000001
ss(i__main__
State
p329
(dp330
g3
F4.0
sg4
F8.0
sg5
F-4.0
sg6
F2.0
sb(dp331
I00
F0.0
sI01
F22.28
ss(i__main__
State
p332
(dp333
g3
F-3.0
sg4
F3.0
sg5
F3.0
sg6
F-2.0
sb(dp334
I00
F83.42371600000001
sI01
F-7.708520000000001
ss(i__main__
State
p335
(dp336
g3
F5.0
sg4
F7.0
sg5
F-5.0
sg6
F4.0
sb(dp337
I00
I-21
sI01
F67.23308722625094
ss(i__main__
State
p338
(dp339
g3
F8.0
sg4
F9.0
sg5
F-8.0
sg6
F-6.0
sb(dp340
I00
F39.99
sI01
F0.0
ss(i__main__
State
p341
(dp342
g3
F6.0
sg4
F9.0
sg5
F-6.0
sg6
F2.0
sb(dp343
I00
F10.0
sI01
F0.0
ss(i__main__
State
p344
(dp345
g3
F0.0
sg4
F4.0
sg5
F0.0
sg6
F0.0
sb(dp346
I00
I-70
sI01
F76.6630561656
ss(i__main__
State
p347
(dp348
g3
F3.0
sg4
F9.0
sg5
F-3.0
sg6
F6.0
sb(dp349
I00
F59.487010999999995
sI01
F13.264500000000002
ss(i__main__
State
p350
(dp351
g3
F3.0
sg4
F5.0
sg5
F-3.0
sg6
F-2.0
sb(dp352
I00
I-65
sI01
F69.35000000000001
ss(i__main__
State
p353
(dp354
g3
F7.0
sg4
F10.0
sg5
F-7.0
sg6
F6.0
sb(dp355
I00
F11.40007
sI01
F0.0
ss(i__main__
State
p356
(dp357
g3
F-4.0
sg4
F5.0
sg5
F4.0
sg6
F4.0
sb(dp358
I00
I-8
sI01
F68.27074
ss(i__main__
State
p359
(dp360
g3
F7.0
sg4
F7.0
sg5
F-7.0
sg6
F0.0
sb(dp361
I00
F-34.8220821732
sI01
F-13.138
ss(i__main__
State
p362
(dp363
g3
F4.0
sg4
F5.0
sg5
F-4.0
sg6
F-6.0
sb(dp364
I00
F58.2658215696914
sI01
F6.700000000000001
ss(i__main__
State
p365
(dp366
g3
F-7.0
sg4
F10.0
sg5
F7.0
sg6
F-6.0
sb(dp367
I00
F10.0
sI01
F0.0
ss(i__main__
State
p368
(dp369
g3
F-6.0
sg4
F7.0
sg5
F6.0
sg6
F-2.0
sb(dp370
I00
F-29.995000000000005
sI01
F-35.3396
ss(i__main__
State
p371
(dp372
g3
F8.0
sg4
F8.0
sg5
F-8.0
sg6
F-8.0
sb(dp373
I00
F11.0
sI01
F33.87729144000001
ss(i__main__
State
p374
(dp375
g3
F-1.0
sg4
F10.0
sg5
F1.0
sg6
F6.0
sb(dp376
I00
F10.0
sI01
F31.766403889500005
ss(i__main__
State
p377
(dp378
g3
F5.0
sg4
F5.0
sg5
F-5.0
sg6
F-6.0
sb(dp379
I00
F84.00999999999999
sI01
I77
ss(i__main__
State
p380
(dp381
g3
F2.0
sg4
F1.0
sg5
F-2.0
sg6
F4.0
sb(dp382
I00
F71.37938956017247
sI01
F34.38
ss(i__main__
State
p383
(dp384
g3
F-1.0
sg4
F3.0
sg5
F1.0
sg6
F-2.0
sb(dp385
I00
F46.938442
sI01
I-96
ss(i__main__
State
p386
(dp387
g3
F-6.0
sg4
F2.0
sg5
F6.0
sg6
F-2.0
sb(dp388
I00
F34.534590435411005
sI01
F-57.18
ss(i__main__
State
p389
(dp390
g3
F-2.0
sg4
F0.0
sg5
F2.0
sg6
F0.0
sb(dp391
I00
I28
sI01
F-17.409999999999997
ss(i__main__
State
p392
(dp393
g3
F-5.0
sg4
F6.0
sg5
F5.0
sg6
F4.0
sb(dp394
I00
I29
sI01
F67.1
ss(i__main__
State
p395
(dp396
g3
F-1.0
sg4
F6.0
sg5
F1.0
sg6
F2.0
sb(dp397
I00
F18.244320000000002
sI01
F18.795021093153398
ss(i__main__
State
p398
(dp399
g3
F6.0
sg4
F7.0
sg5
F-6.0
sg6
F-6.0
sb(dp400
I00
F-22.747277999999998
sI01
F98.87583655415918
ss(i__main__
State
p401
(dp402
g3
F4.0
sg4
F2.0
sg5
F-4.0
sg6
F-2.0
sb(dp403
I00
F16.9733
sI01
F-21.51141
ss(i__main__
State
p404
(dp405
g3
F0.0
sg4
F6.0
sg5
F0.0
sg6
F4.0
sb(dp406
I00
F-10.41
sI01
F48.363572633575
ss(i__main__
State
p407
(dp408
g3
F-7.0
sg4
F8.0
sg5
F7.0
sg6
F2.0
sb(dp409
I00
F69.07172669
sI01
F10.0
ss(i__main__
State
p410
(dp411
g3
F-5.0
sg4
F9.0
sg5
F5.0
sg6
F-6.0
sb(dp412
I00
F41.478977560000004
sI01
F25.9217
ss(i__main__
State
p413
(dp414
g3
F-3.0
sg4
F6.0
sg5
F3.0
sg6
F-8.0
sb(dp415
I00
F59.9
sI01
I-30
ss(i__main__
State
p416
(dp417
g3
F-2.0
sg4
F3.0
sg5
F2.0
sg6
F6.0
sb(dp418
I00
F37.317090799999995
sI01
I-4
ss(i__main__
State
p419
(dp420
g3
F3.0
sg4
F5.0
sg5
F-3.0
sg6
F4.0
sb(dp421
I00
I-92
sI01
F-37.1331
ss(i__main__
State
p422
(dp423
g3
F-3.0
sg4
F0.0
sg5
F3.0
sg6
F-8.0
sb(dp424
I00
F9.1441
sI01
F73.33255682015
ss(i__main__
State
p425
(dp426
g3
F-3.0
sg4
F7.0
sg5
F3.0
sg6
F-8.0
sb(dp427
I00
F10.4
sI01
F54.0184382972
ss(i__main__
State
p428
(dp429
g3
F8.0
sg4
F1.0
sg5
F-8.0
sg6
F4.0
sb(dp430
I00
I-48
sI01
F67.5
ss(i__main__
State
p431
(dp432
g3
F-3.0
sg4
F4.0
sg5
F3.0
sg6
F-4.0
sb(dp433
I00
F46.44925128903621
sI01
F8.977141224402652
ss(i__main__
State
p434
(dp435
g3
F-7.0
sg4
F9.0
sg5
F7.0
sg6
F-2.0
sb(dp436
I00
F-89.9
sI01
F20.065240554356105
ss(i__main__
State
p437
(dp438
g3
F-4.0
sg4
F3.0
sg5
F4.0
sg6
F6.0
sb(dp439
I00
I-92
sI01
F83.81491
ss(i__main__
State
p440
(dp441
g3
F5.0
sg4
F8.0
sg5
F-5.0
sg6
F-8.0
sb(dp442
I00
F10.0
sI01
F10.0
ss(i__main__
State
p443
(dp444
g3
F0.0
sg4
F10.0
sg5
F0.0
sg6
F0.0
sb(dp445
I00
F-4079.0482742
sI01
F-3434.6638000000003
ss(i__main__
State
p446
(dp447
g3
F6.0
sg4
F8.0
sg5
F-6.0
sg6
F0.0
sb(dp448
I00
F0.0
sI01
F91.68232830000001
ss(i__main__
State
p449
(dp450
g3
F3.0
sg4
F3.0
sg5
F-3.0
sg6
F-4.0
sb(dp451
I00
F48.03568881249881
sI01
F-28.59
ss(i__main__
State
p452
(dp453
g3
F5.0
sg4
F3.0
sg5
F-5.0
sg6
F0.0
sb(dp454
I00
F92.58986
sI01
F18.3
ss(i__main__
State
p455
(dp456
g3
F-6.0
sg4
F5.0
sg5
F6.0
sg6
F-8.0
sb(dp457
I00
F16.9
sI01
F38.939677
ss(i__main__
State
p458
(dp459
g3
F-6.0
sg4
F9.0
sg5
F6.0
sg6
F0.0
sb(dp460
I00
F-1000.0
sI01
F-1000.0
ss(i__main__
State
p461
(dp462
g3
F-3.0
sg4
F10.0
sg5
F3.0
sg6
F-4.0
sb(dp463
I00
F90.82106055759999
sI01
F3.3400000000000007
ss(i__main__
State
p464
(dp465
g3
F8.0
sg4
F5.0
sg5
F-8.0
sg6
F6.0
sb(dp466
I00
I-78
sI01
F54.356603646536
ss(i__main__
State
p467
(dp468
g3
F1.0
sg4
F0.0
sg5
F-1.0
sg6
F0.0
sb(dp469
I00
F-28.836
sI01
F75.10596609999999
ss(i__main__
State
p470
(dp471
g3
F-2.0
sg4
F3.0
sg5
F2.0
sg6
F-4.0
sb(dp472
I00
F24.568856800000006
sI01
I-77
ss(i__main__
State
p473
(dp474
g3
F-2.0
sg4
F2.0
sg5
F2.0
sg6
F8.0
sb(dp475
I00
F81.928
sI01
I2
ss(i__main__
State
p476
(dp477
g3
F7.0
sg4
F7.0
sg5
F-7.0
sg6
F-4.0
sb(dp478
I00
F41.0
sI01
I-67
ss(i__main__
State
p479
(dp480
g3
F0.0
sg4
F9.0
sg5
F0.0
sg6
F-8.0
sb(dp481
I00
F103.86256405207057
sI01
F10.0
ss(i__main__
State
p482
(dp483
g3
F-3.0
sg4
F6.0
sg5
F3.0
sg6
F-2.0
sb(dp484
I00
I94
sI01
F95.8
ss(i__main__
State
p485
(dp486
g3
F3.0
sg4
F8.0
sg5
F-3.0
sg6
F0.0
sb(dp487
I00
F134.001945535419
sI01
F31.89
ss(i__main__
State
p488
(dp489
g3
F8.0
sg4
F10.0
sg5
F-8.0
sg6
F-8.0
sb(dp490
I00
F10.0
sI01
F0.0
ss(i__main__
State
p491
(dp492
g3
F-6.0
sg4
F0.0
sg5
F6.0
sg6
F0.0
sb(dp493
I00
F77.950364
sI01
I73
ss(i__main__
State
p494
(dp495
g3
F-1.0
sg4
F9.0
sg5
F1.0
sg6
F-2.0
sb(dp496
I00
F10.0
sI01
F27.999851000000003
ss(i__main__
State
p497
(dp498
g3
F-2.0
sg4
F0.0
sg5
F2.0
sg6
F-8.0
sb(dp499
I00
I20
sI01
F57.54240208
ss(i__main__
State
p500
(dp501
g3
F2.0
sg4
F2.0
sg5
F-2.0
sg6
F2.0
sb(dp502
I00
F-78.1863
sI01
F52.59480125564
ss(i__main__
State
p503
(dp504
g3
F-2.0
sg4
F4.0
sg5
F2.0
sg6
F-4.0
sb(dp505
I00
F24.602999999999998
sI01
F36.21099
ss(i__main__
State
p506
(dp507
g3
F-8.0
sg4
F3.0
sg5
F8.0
sg6
F6.0
sb(dp508
I00
F-22.583
sI01
I-74
ss(i__main__
State
p509
(dp510
g3
F8.0
sg4
F9.0
sg5
F-8.0
sg6
F-2.0
sb(dp511
I00
F-72.7
sI01
F0.0
ss(i__main__
State
p512
(dp513
g3
F4.0
sg4
F0.0
sg5
F-4.0
sg6
F6.0
sb(dp514
I00
F-75.0
sI01
F-23.069311999999996
ss(i__main__
State
p515
(dp516
g3
F2.0
sg4
F1.0
sg5
F-2.0
sg6
F-2.0
sb(dp517
I00
F71.4
sI01
I9
ss(i__main__
State
p518
(dp519
g3
F3.0
sg4
F1.0
sg5
F-3.0
sg6
F2.0
sb(dp520
I00
F56.50294707370951
sI01
F-0.5999999999999996
ss(i__main__
State
p521
(dp522
g3
F4.0
sg4
F2.0
sg5
F-4.0
sg6
F8.0
sb(dp523
I00
I-64
sI01
F16.7
ss(i__main__
State
p524
(dp525
g3
F4.0
sg4
F5.0
sg5
F-4.0
sg6
F8.0
sb(dp526
I00
F79.626417575
sI01
I-80
ss(i__main__
State
p527
(dp528
g3
F6.0
sg4
F5.0
sg5
F-6.0
sg6
F4.0
sb(dp529
I00
F59.388040307999994
sI01
I28
ss(i__main__
State
p530
(dp531
g3
F-6.0
sg4
F8.0
sg5
F6.0
sg6
F-6.0
sb(dp532
I00
F109.40511617000001
sI01
F35.212
ss(i__main__
State
p533
(dp534
g3
F6.0
sg4
F0.0
sg5
F-6.0
sg6
F6.0
sb(dp535
I00
F44.238
sI01
I99
ss(i__main__
State
p536
(dp537
g3
F8.0
sg4
F7.0
sg5
F-8.0
sg6
F8.0
sb(dp538
I00
F69.7382133283
sI01
F15.50206261
ss(i__main__
State
p539
(dp540
g3
F4.0
sg4
F8.0
sg5
F-4.0
sg6
F-6.0
sb(dp541
I00
F0.0
sI01
F10.0
ss(i__main__
State
p542
(dp543
g3
F-1.0
sg4
F9.0
sg5
F1.0
sg6
F0.0
sb(dp544
I00
F-1899.0
sI01
F-1899.0
ss(i__main__
State
p545
(dp546
g3
F1.0
sg4
F7.0
sg5
F-1.0
sg6
F4.0
sb(dp547
I00
F38.520889999999994
sI01
F-117.511881
ss(i__main__
State
p548
(dp549
g3
F7.0
sg4
F9.0
sg5
F-7.0
sg6
F-8.0
sb(dp550
I00
F0.0
sI01
F33.223895299999995
ss(i__main__
State
p551
(dp552
g3
F5.0
sg4
F2.0
sg5
F-5.0
sg6
F4.0
sb(dp553
I00
I-97
sI01
F-38.649
ss(i__main__
State
p554
(dp555
g3
F-3.0
sg4
F8.0
sg5
F3.0
sg6
F-2.0
sb(dp556
I00
F76.94000980000001
sI01
F-80.33034393642001
ss(i__main__
State
p557
(dp558
g3
F4.0
sg4
F1.0
sg5
F-4.0
sg6
F-2.0
sb(dp559
I00
F79.0
sI01
I1
ss(i__main__
State
p560
(dp561
g3
F-8.0
sg4
F5.0
sg5
F8.0
sg6
F-6.0
sb(dp562
I00
I-38
sI01
F10.889759999999999
ss(i__main__
State
p563
(dp564
g3
F6.0
sg4
F0.0
sg5
F-6.0
sg6
F-4.0
sb(dp565
I00
F44.42553546362127
sI01
I-44
ss(i__main__
State
p566
(dp567
g3
F1.0
sg4
F5.0
sg5
F-1.0
sg6
F-8.0
sb(dp568
I00
F37.031692384953374
sI01
F-73.7
ss(i__main__
State
p569
(dp570
g3
F6.0
sg4
F7.0
sg5
F-6.0
sg6
F-2.0
sb(dp571
I00
F45.5731743
sI01
I17
ss(i__main__
State
p572
(dp573
g3
F0.0
sg4
F3.0
sg5
F0.0
sg6
F-4.0
sb(dp574
I00
F34.17
sI01
F-18.2
ss(i__main__
State
p575
(dp576
g3
F7.0
sg4
F9.0
sg5
F-7.0
sg6
F2.0
sb(dp577
I00
F32.1801
sI01
F0.0
ss(i__main__
State
p578
(dp579
g3
F-5.0
sg4
F1.0
sg5
F5.0
sg6
F0.0
sb(dp580
I00
F-24.862638699999998
sI01
I-58
ss(i__main__
State
p581
(dp582
g3
F-8.0
sg4
F3.0
sg5
F8.0
sg6
F4.0
sb(dp583
I00
F73.1
sI01
I96
ss(i__main__
State
p584
(dp585
g3
F-3.0
sg4
F10.0
sg5
F3.0
sg6
F2.0
sb(dp586
I00
F30.04
sI01
F14.16
ss(i__main__
State
p587
(dp588
g3
F4.0
sg4
F10.0
sg5
F-4.0
sg6
F-6.0
sb(dp589
I00
F71.52886162
sI01
F14.213026
ss(i__main__
State
p590
(dp591
g3
F3.0
sg4
F7.0
sg5
F-3.0
sg6
F4.0
sb(dp592
I00
I-68
sI01
F51.3
ss(i__main__
State
p593
(dp594
g3
F-5.0
sg4
F8.0
sg5
F5.0
sg6
F6.0
sb(dp595
I00
F50.0496
sI01
F10.0
ss(i__main__
State
p596
(dp597
g3
F1.0
sg4
F8.0
sg5
F-1.0
sg6
F-2.0
sb(dp598
I00
F-400.2143779600001
sI01
F-179.9
ss(i__main__
State
p599
(dp600
g3
F-7.0
sg4
F9.0
sg5
F7.0
sg6
F6.0
sb(dp601
I00
F36.088962956
sI01
F0.0
ss(i__main__
State
p602
(dp603
g3
F8.0
sg4
F4.0
sg5
F-8.0
sg6
F2.0
sb(dp604
I00
I-92
sI01
F-45.5
ss(i__main__
State
p605
(dp606
g3
F6.0
sg4
F9.0
sg5
F-6.0
sg6
F8.0
sb(dp607
I00
F0.0
sI01
F88.66880995620001
ss(i__main__
State
p608
(dp609
g3
F-4.0
sg4
F9.0
sg5
F4.0
sg6
F2.0
sb(dp610
I00
F55.08596193498397
sI01
F0.0
ss(i__main__
State
p611
(dp612
g3
F0.0
sg4
F2.0
sg5
F0.0
sg6
F-4.0
sb(dp613
I00
F37.6198
sI01
F-2.582399999999999
ss(i__main__
State
p614
(dp615
g3
F6.0
sg4
F3.0
sg5
F-6.0
sg6
F-2.0
sb(dp616
I00
F0.7000000000000011
sI01
I-90
ss(i__main__
State
p617
(dp618
g3
F-3.0
sg4
F6.0
sg5
F3.0
sg6
F6.0
sb(dp619
I00
F53.711999999999996
sI01
F28.7
ss(i__main__
State
p620
(dp621
g3
F-6.0
sg4
F5.0
sg5
F6.0
sg6
F-4.0
sb(dp622
I00
I9
sI01
F29.046785841000005
ss(i__main__
State
p623
(dp624
g3
F7.0
sg4
F8.0
sg5
F-7.0
sg6
F-2.0
sb(dp625
I00
F27.2094046
sI01
F0.0
ss(i__main__
State
p626
(dp627
g3
F8.0
sg4
F5.0
sg5
F-8.0
sg6
F2.0
sb(dp628
I00
F-43.44
sI01
I-66
ss(i__main__
State
p629
(dp630
g3
F-6.0
sg4
F4.0
sg5
F6.0
sg6
F0.0
sb(dp631
I00
F-35.811
sI01
F48.9
ss(i__main__
State
p632
(dp633
g3
F-1.0
sg4
F10.0
sg5
F1.0
sg6
F0.0
sb(dp634
I00
F23.8
sI01
F103.60328915088269
ss(i__main__
State
p635
(dp636
g3
F-6.0
sg4
F10.0
sg5
F6.0
sg6
F2.0
sb(dp637
I00
F46.992942000000006
sI01
F0.0
ss(i__main__
State
p638
(dp639
g3
F0.0
sg4
F5.0
sg5
F0.0
sg6
F4.0
sb(dp640
I00
F10.5
sI01
I-60
ss(i__main__
State
p641
(dp642
g3
F-8.0
sg4
F0.0
sg5
F8.0
sg6
F-6.0
sb(dp643
I00
F20.71122
sI01
I-1
ss(i__main__
State
p644
(dp645
g3
F3.0
sg4
F4.0
sg5
F-3.0
sg6
F4.0
sb(dp646
I00
F54.253370000000004
sI01
F-61.97470500000001
ss(i__main__
State
p647
(dp648
g3
F0.0
sg4
F1.0
sg5
F0.0
sg6
F-4.0
sb(dp649
I00
F79.16
sI01
I24
ss(i__main__
State
p650
(dp651
g3
F3.0
sg4
F0.0
sg5
F-3.0
sg6
F0.0
sb(dp652
I00
I-71
sI01
F-5.199999999999999
ss(i__main__
State
p653
(dp654
g3
F-6.0
sg4
F10.0
sg5
F6.0
sg6
F-4.0
sb(dp655
I00
F17.5658367326
sI01
F50.479723043999996
ss(i__main__
State
p656
(dp657
g3
F-2.0
sg4
F4.0
sg5
F2.0
sg6
F2.0
sb(dp658
I00
F19.7
sI01
I-89
ss(i__main__
State
p659
(dp660
g3
F-3.0
sg4
F6.0
sg5
F3.0
sg6
F8.0
sb(dp661
I00
F47.174383560899905
sI01
F-49.2699993
ss(i__main__
State
p662
(dp663
g3
F6.0
sg4
F0.0
sg5
F-6.0
sg6
F-6.0
sb(dp664
I00
F88.6
sI01
F-7.34975
ss(i__main__
State
p665
(dp666
g3
F-1.0
sg4
F6.0
sg5
F1.0
sg6
F4.0
sb(dp667
I00
F10.265970600000003
sI01
F-42.5
ss(i__main__
State
p668
(dp669
g3
F6.0
sg4
F8.0
sg5
F-6.0
sg6
F-2.0
sb(dp670
I00
F10.0
sI01
F0.0
ss(i__main__
State
p671
(dp672
g3
F-3.0
sg4
F9.0
sg5
F3.0
sg6
F-6.0
sb(dp673
I00
F0.0
sI01
F32.7187
ss(i__main__
State
p674
(dp675
g3
F-5.0
sg4
F0.0
sg5
F5.0
sg6
F8.0
sb(dp676
I00
F23.720135129363005
sI01
I-96
ss(i__main__
State
p677
(dp678
g3
F0.0
sg4
F6.0
sg5
F0.0
sg6
F2.0
sb(dp679
I00
F-56.8085292
sI01
F51.300400392532886
ss(i__main__
State
p680
(dp681
g3
F2.0
sg4
F9.0
sg5
F-2.0
sg6
F-6.0
sb(dp682
I00
F147.24179084870815
sI01
F12.511495
ss(i__main__
State
p683
(dp684
g3
F-4.0
sg4
F0.0
sg5
F4.0
sg6
F-6.0
sb(dp685
I00
F-14.940641923507
sI01
I-62
ss(i__main__
State
p686
(dp687
g3
F-7.0
sg4
F10.0
sg5
F7.0
sg6
F-8.0
sb(dp688
I00
F117.99510746016001
sI01
F19.630000000000003
ss(i__main__
State
p689
(dp690
g3
F4.0
sg4
F7.0
sg5
F-4.0
sg6
F-4.0
sb(dp691
I00
F58.793548524163
sI01
F-82.6
ss(i__main__
State
p692
(dp693
g3
F1.0
sg4
F6.0
sg5
F-1.0
sg6
F8.0
sb(dp694
I00
I-57
sI01
F-1.9527999999999994
ss(i__main__
State
p695
(dp696
g3
F5.0
sg4
F6.0
sg5
F-5.0
sg6
F-4.0
sb(dp697
I00
I-50
sI01
F-50.4
ss(i__main__
State
p698
(dp699
g3
F-3.0
sg4
F3.0
sg5
F3.0
sg6
F2.0
sb(dp700
I00
F-22.4
sI01
F28.74058522
ss(i__main__
State
p701
(dp702
g3
F-8.0
sg4
F10.0
sg5
F8.0
sg6
F4.0
sb(dp703
I00
F29.55
sI01
F0.0
ss(i__main__
State
p704
(dp705
g3
F0.0
sg4
F10.0
sg5
F0.0
sg6
F6.0
sb(dp706
I00
F-2706.0380990000003
sI01
F-1907.989
ss(i__main__
State
p707
(dp708
g3
F7.0
sg4
F8.0
sg5
F-7.0
sg6
F4.0
sb(dp709
I00
F147.25525791467498
sI01
F10.0
ss(i__main__
State
p710
(dp711
g3
F4.0
sg4
F4.0
sg5
F-4.0
sg6
F2.0
sb(dp712
I00
I-96
sI01
F-2.5
ss(i__main__
State
p713
(dp714
g3
F0.0
sg4
F10.0
sg5
F0.0
sg6
F-6.0
sb(dp715
I00
F-2706.0881
sI01
F-1004.3000000000001
ss(i__main__
State
p716
(dp717
g3
F7.0
sg4
F3.0
sg5
F-7.0
sg6
F6.0
sb(dp718
I00
F-64.1955693811
sI01
F77.9917460791133
ss(i__main__
State
p719
(dp720
g3
F3.0
sg4
F2.0
sg5
F-3.0
sg6
F0.0
sb(dp721
I00
I-22
sI01
F44.1677668
ss(i__main__
State
p722
(dp723
g3
F7.0
sg4
F4.0
sg5
F-7.0
sg6
F0.0
sb(dp724
I00
F16.66847286
sI01
I-86
ss(i__main__
State
p725
(dp726
g3
F8.0
sg4
F6.0
sg5
F-8.0
sg6
F-4.0
sb(dp727
I00
I-52
sI01
F-17.174893999999995
ss(i__main__
State
p728
(dp729
g3
F-1.0
sg4
F4.0
sg5
F1.0
sg6
F0.0
sb(dp730
I00
F-17.3
sI01
I-82
ss(i__main__
State
p731
(dp732
g3
F6.0
sg4
F4.0
sg5
F-6.0
sg6
F2.0
sb(dp733
I00
F33.42513509947321
sI01
F-60.54800000000001
ss(i__main__
State
p734
(dp735
g3
F-7.0
sg4
F6.0
sg5
F7.0
sg6
F2.0
sb(dp736
I00
F47.528042662260006
sI01
I8
ss(i__main__
State
p737
(dp738
g3
F-1.0
sg4
F8.0
sg5
F1.0
sg6
F-6.0
sb(dp739
I00
F11.0
sI01
F32.41116232030378
ss(i__main__
State
p740
(dp741
g3
F-4.0
sg4
F10.0
sg5
F4.0
sg6
F4.0
sb(dp742
I00
F30.019999999999996
sI01
F0.0
ss(i__main__
State
p743
(dp744
g3
F7.0
sg4
F10.0
sg5
F-7.0
sg6
F0.0
sb(dp745
I00
F20.0
sI01
F0.0
ss(i__main__
State
p746
(dp747
g3
F-3.0
sg4
F2.0
sg5
F3.0
sg6
F6.0
sb(dp748
I00
F-8.733184909999999
sI01
I-69
ss(i__main__
State
p749
(dp750
g3
F1.0
sg4
F2.0
sg5
F-1.0
sg6
F-8.0
sb(dp751
I00
F4.093999999999999
sI01
F5.170914
ss(i__main__
State
p752
(dp753
g3
F-7.0
sg4
F10.0
sg5
F7.0
sg6
F2.0
sb(dp754
I00
F12.0
sI01
F0.0
ss(i__main__
State
p755
(dp756
g3
F5.0
sg4
F1.0
sg5
F-5.0
sg6
F-8.0
sb(dp757
I00
I64
sI01
F72.711
ss(i__main__
State
p758
(dp759
g3
F-5.0
sg4
F8.0
sg5
F5.0
sg6
F2.0
sb(dp760
I00
F20.0
sI01
F0.0
ss(i__main__
State
p761
(dp762
g3
F4.0
sg4
F7.0
sg5
F-4.0
sg6
F4.0
sb(dp763
I00
F-65.1
sI01
F30.602
ss(i__main__
State
p764
(dp765
g3
F8.0
sg4
F7.0
sg5
F-8.0
sg6
F6.0
sb(dp766
I00
F-1.2999999999999998
sI01
I-88
ss(i__main__
State
p767
(dp768
g3
F-8.0
sg4
F3.0
sg5
F8.0
sg6
F0.0
sb(dp769
I00
F-8.2
sI01
F-75.9
ss(i__main__
State
p770
(dp771
g3
F-4.0
sg4
F4.0
sg5
F4.0
sg6
F0.0
sb(dp772
I00
F-31.185200000000002
sI01
F-40.63683
ss(i__main__
State
p773
(dp774
g3
F-4.0
sg4
F9.0
sg5
F4.0
sg6
F6.0
sb(dp775
I00
F50.65499913
sI01
F11.0
ss(i__main__
State
p776
(dp777
g3
F-8.0
sg4
F10.0
sg5
F8.0
sg6
F6.0
sb(dp778
I00
F66.998209
sI01
F0.0
ss(i__main__
State
p779
(dp780
g3
F6.0
sg4
F3.0
sg5
F-6.0
sg6
F-6.0
sb(dp781
I00
F-96.4
sI01
F53.87
ss(i__main__
State
p782
(dp783
g3
F-4.0
sg4
F6.0
sg5
F4.0
sg6
F0.0
sb(dp784
I00
I46
sI01
F42.975792000000006
ss(i__main__
State
p785
(dp786
g3
F-5.0
sg4
F5.0
sg5
F5.0
sg6
F4.0
sb(dp787
I00
F73.2
sI01
I8
ss(i__main__
State
p788
(dp789
g3
F-1.0
sg4
F7.0
sg5
F1.0
sg6
F-4.0
sb(dp790
I00
F-30.04904358305
sI01
F24.3
ss(i__main__
State
p791
(dp792
g3
F3.0
sg4
F0.0
sg5
F-3.0
sg6
F-8.0
sb(dp793
I00
I-81
sI01
F63.47965
ss(i__main__
State
p794
(dp795
g3
F-2.0
sg4
F5.0
sg5
F2.0
sg6
F-2.0
sb(dp796
I00
F-49.53
sI01
F86.82314250200001
ss(i__main__
State
p797
(dp798
g3
F5.0
sg4
F7.0
sg5
F-5.0
sg6
F-2.0
sb(dp799
I00
F63.543177779339764
sI01
F48.254404
ss(i__main__
State
p800
(dp801
g3
F2.0
sg4
F0.0
sg5
F-2.0
sg6
F-8.0
sb(dp802
I00
F-87.0
sI01
I31
ss(i__main__
State
p803
(dp804
g3
F-1.0
sg4
F2.0
sg5
F1.0
sg6
F4.0
sb(dp805
I00
F52.85036220499999
sI01
F23.594701
ss(i__main__
State
p806
(dp807
g3
F-3.0
sg4
F5.0
sg5
F3.0
sg6
F0.0
sb(dp808
I00
F-41.5
sI01
F-73.0
ss(i__main__
State
p809
(dp810
g3
F8.0
sg4
F2.0
sg5
F-8.0
sg6
F-2.0
sb(dp811
I00
F-12.1
sI01
F26.26597881790872
ss(i__main__
State
p812
(dp813
g3
F1.0
sg4
F7.0
sg5
F-1.0
sg6
F2.0
sb(dp814
I00
F-35.950215262387196
sI01
F-383.52876800000007
ss(i__main__
State
p815
(dp816
g3
F-2.0
sg4
F10.0
sg5
F2.0
sg6
F8.0
sb(dp817
I00
F85.398657939732
sI01
F0.0
ss(i__main__
State
p818
(dp819
g3
F7.0
sg4
F2.0
sg5
F-7.0
sg6
F8.0
sb(dp820
I00
F40.94362393171
sI01
F38.24736478333
ss(i__main__
State
p821
(dp822
g3
F-5.0
sg4
F0.0
sg5
F5.0
sg6
F4.0
sb(dp823
I00
F40.87
sI01
I30
ss(i__main__
State
p824
(dp825
g3
F1.0
sg4
F4.0
sg5
F-1.0
sg6
F-8.0
sb(dp826
I00
F16.022070000000003
sI01
F-59.9
ss(i__main__
State
p827
(dp828
g3
F-7.0
sg4
F1.0
sg5
F7.0
sg6
F4.0
sb(dp829
I00
F65.67656576999998
sI01
F19.41
ss(i__main__
State
p830
(dp831
g3
F-7.0
sg4
F10.0
sg5
F7.0
sg6
F-4.0
sb(dp832
I00
F10.0
sI01
F24.321534054
ss(i__main__
State
p833
(dp834
g3
F8.0
sg4
F1.0
sg5
F-8.0
sg6
F2.0
sb(dp835
I00
F-65.10548581124
sI01
I-20
ss(i__main__
State
p836
(dp837
g3
F-5.0
sg4
F6.0
sg5
F5.0
sg6
F-4.0
sb(dp838
I00
I-63
sI01
F53.1001
ss(i__main__
State
p839
(dp840
g3
F-4.0
sg4
F7.0
sg5
F4.0
sg6
F-2.0
sb(dp841
I00
I-49
sI01
F-15.987897999999998
ss(i__main__
State
p842
(dp843
g3
F-8.0
sg4
F6.0
sg5
F8.0
sg6
F8.0
sb(dp844
I00
F-23.031999999999996
sI01
F-5.594445701722549
ss(i__main__
State
p845
(dp846
g3
F-4.0
sg4
F2.0
sg5
F4.0
sg6
F-2.0
sb(dp847
I00
F35.02892
sI01
F20.3
ss(i__main__
State
p848
(dp849
g3
F-7.0
sg4
F6.0
sg5
F7.0
sg6
F-4.0
sb(dp850
I00
I-93
sI01
F13.8
ss(i__main__
State
p851
(dp852
g3
F-8.0
sg4
F1.0
sg5
F8.0
sg6
F-8.0
sb(dp853
I00
I-99
sI01
F67.7658301
ss(i__main__
State
p854
(dp855
g3
F7.0
sg4
F10.0
sg5
F-7.0
sg6
F-4.0
sb(dp856
I00
F126.94133448283482
sI01
F13.9893
ss(i__main__
State
p857
(dp858
g3
F-6.0
sg4
F9.0
sg5
F6.0
sg6
F6.0
sb(dp859
I00
F103.41963458487483
sI01
F12.649000000000001
ss(i__main__
State
p860
(dp861
g3
F8.0
sg4
F2.0
sg5
F-8.0
sg6
F6.0
sb(dp862
I00
F42.25716108
sI01
F-70.50013679999999
ss(i__main__
State
p863
(dp864
g3
F-7.0
sg4
F3.0
sg5
F7.0
sg6
F-8.0
sb(dp865
I00
F80.24400000000001
sI01
F2.7638999999999996
ss(i__main__
State
p866
(dp867
g3
F6.0
sg4
F6.0
sg5
F-6.0
sg6
F-4.0
sb(dp868
I00
F70.493425
sI01
I43
ss(i__main__
State
p869
(dp870
g3
F-4.0
sg4
F9.0
sg5
F4.0
sg6
F8.0
sb(dp871
I00
F79.1252608202
sI01
F11.0
ss(i__main__
State
p872
(dp873
g3
F-5.0
sg4
F10.0
sg5
F5.0
sg6
F2.0
sb(dp874
I00
F149.2129934452634
sI01
F0.0
ss(i__main__
State
p875
(dp876
g3
F-1.0
sg4
F0.0
sg5
F1.0
sg6
F8.0
sb(dp877
I00
F-4.842870699999996
sI01
I-95
ss(i__main__
State
p878
(dp879
g3
F4.0
sg4
F10.0
sg5
F-4.0
sg6
F8.0
sb(dp880
I00
F79.22030322
sI01
F18.2743
ss(i__main__
State
p881
(dp882
g3
F7.0
sg4
F8.0
sg5
F-7.0
sg6
F0.0
sb(dp883
I00
F12.0
sI01
F0.0
ss(i__main__
State
p884
(dp885
g3
F1.0
sg4
F5.0
sg5
F-1.0
sg6
F2.0
sb(dp886
I00
F-41.2
sI01
F70.5042090427125
ss(i__main__
State
p887
(dp888
g3
F-7.0
sg4
F3.0
sg5
F7.0
sg6
F8.0
sb(dp889
I00
F58.406966999999995
sI01
I32
ss(i__main__
State
p890
(dp891
g3
F-8.0
sg4
F10.0
sg5
F8.0
sg6
F8.0
sb(dp892
I00
F10.0
sI01
F128.39081468087463
ss(i__main__
State
p893
(dp894
g3
F-2.0
sg4
F4.0
sg5
F2.0
sg6
F-2.0
sb(dp895
I00
F11.9
sI01
I4
ss(i__main__
State
p896
(dp897
g3
F1.0
sg4
F6.0
sg5
F-1.0
sg6
F-8.0
sb(dp898
I00
I-74
sI01
F-15.0201705
ss(i__main__
State
p899
(dp900
g3
F4.0
sg4
F3.0
sg5
F-4.0
sg6
F-8.0
sb(dp901
I00
F83.677136808071
sI01
F-27.354226
ss(i__main__
State
p902
(dp903
g3
F-2.0
sg4
F6.0
sg5
F2.0
sg6
F2.0
sb(dp904
I00
F74.33500000000001
sI01
F51.8
ss(i__main__
State
p905
(dp906
g3
F-3.0
sg4
F1.0
sg5
F3.0
sg6
F6.0
sb(dp907
I00
I-38
sI01
F58.998008557999995
ss(i__main__
State
p908
(dp909
g3
F-1.0
sg4
F2.0
sg5
F1.0
sg6
F-4.0
sb(dp910
I00
F61.08682000000001
sI01
F-70.1
ss(i__main__
State
p911
(dp912
g3
F-6.0
sg4
F7.0
sg5
F6.0
sg6
F8.0
sb(dp913
I00
F-6.699999999999999
sI01
I99
ss(i__main__
State
p914
(dp915
g3
F5.0
sg4
F10.0
sg5
F-5.0
sg6
F2.0
sb(dp916
I00
F49.37700000000001
sI01
F0.0
ss(i__main__
State
p917
(dp918
g3
F4.0
sg4
F8.0
sg5
F-4.0
sg6
F0.0
sb(dp919
I00
F86.75527310199942
sI01
F0.0
ss(i__main__
State
p920
(dp921
g3
F0.0
sg4
F1.0
sg5
F0.0
sg6
F-6.0
sb(dp922
I00
F-18.468428
sI01
F43.097300000000004
ss(i__main__
State
p923
(dp924
g3
F2.0
sg4
F5.0
sg5
F-2.0
sg6
F-4.0
sb(dp925
I00
I90
sI01
F27.83
ss(i__main__
State
p926
(dp927
g3
F-8.0
sg4
F9.0
sg5
F8.0
sg6
F0.0
sb(dp928
I00
F-1895.85106
sI01
F-1893.1425610400001
ss(i__main__
State
p929
(dp930
g3
F0.0
sg4
F0.0
sg5
F0.0
sg6
F6.0
sb(dp931
I00
F47.749703
sI01
F91.1
ss(i__main__
State
p932
(dp933
g3
F3.0
sg4
F9.0
sg5
F-3.0
sg6
F4.0
sb(dp934
I00
F36.5577
sI01
F0.0
ss(i__main__
State
p935
(dp936
g3
F3.0
sg4
F5.0
sg5
F-3.0
sg6
F-4.0
sb(dp937
I00
F-42.16
sI01
F68.21726467794997
ss(i__main__
State
p938
(dp939
g3
F7.0
sg4
F10.0
sg5
F-7.0
sg6
F4.0
sb(dp940
I00
F64.3192717
sI01
F0.0
ss(i__main__
State
p941
(dp942
g3
F1.0
sg4
F10.0
sg5
F-1.0
sg6
F6.0
sb(dp943
I00
F-90.23000000000002
sI01
F0.0
ss(i__main__
State
p944
(dp945
g3
F5.0
sg4
F8.0
sg5
F-5.0
sg6
F8.0
sb(dp946
I00
F131.0310641363
sI01
F12.0
ss(i__main__
State
p947
(dp948
g3
F7.0
sg4
F7.0
sg5
F-7.0
sg6
F2.0
sb(dp949
I00
F-39.066199999999995
sI01
F1.6802674900000039
ss(i__main__
State
p950
(dp951
g3
F-1.0
sg4
F7.0
sg5
F1.0
sg6
F-2.0
sb(dp952
I00
F17.3
sI01
I-3
ss(i__main__
State
p953
(dp954
g3
F8.0
sg4
F7.0
sg5
F-8.0
sg6
F2.0
sb(dp955
I00
F48.832913436320005
sI01
F39.41976226415
ss(i__main__
State
p956
(dp957
g3
F0.0
sg4
F6.0
sg5
F0.0
sg6
F8.0
sb(dp958
I00
I-14
sI01
F16.7
ss(i__main__
State
p959
(dp960
g3
F-4.0
sg4
F2.0
sg5
F4.0
sg6
F-8.0
sb(dp961
I00
F-37.1
sI01
F58.4
ss(i__main__
State
p962
(dp963
g3
F7.0
sg4
F4.0
sg5
F-7.0
sg6
F6.0
sb(dp964
I00
F24.859
sI01
F7.655595818474
ss(i__main__
State
p965
(dp966
g3
F0.0
sg4
F0.0
sg5
F0.0
sg6
F-2.0
sb(dp967
I00
F24.572381911803106
sI01
I-39
ss(i__main__
State
p968
(dp969
g3
F-3.0
sg4
F1.0
sg5
F3.0
sg6
F8.0
sb(dp970
I00
F-58.987
sI01
F-1.6999999999999993
ss(i__main__
State
p971
(dp972
g3
F7.0
sg4
F0.0
sg5
F-7.0
sg6
F8.0
sb(dp973
I00
F60.19
sI01
I-12
ss(i__main__
State
p974
(dp975
g3
F2.0
sg4
F5.0
sg5
F-2.0
sg6
F6.0
sb(dp976
I00
F-20.8
sI01
F13.85295
ss(i__main__
State
p977
(dp978
g3
F7.0
sg4
F6.0
sg5
F-7.0
sg6
F-2.0
sb(dp979
I00
F28.220000000000002
sI01
F-64.0
ss(i__main__
State
p980
(dp981
g3
F-5.0
sg4
F5.0
sg5
F5.0
sg6
F8.0
sb(dp982
I00
I-21
sI01
F38.2
ss(i__main__
State
p983
(dp984
g3
F-6.0
sg4
F2.0
sg5
F6.0
sg6
F-8.0
sb(dp985
I00
F-19.9
sI01
F6.42724
ss(i__main__
State
p986
(dp987
g3
F-1.0
sg4
F8.0
sg5
F1.0
sg6
F2.0
sb(dp988
I00
F0.0
sI01
F36.52873834
ss(i__main__
State
p989
(dp990
g3
F-7.0
sg4
F8.0
sg5
F7.0
sg6
F0.0
sb(dp991
I00
F76.06715480000001
sI01
F0.0
ss(i__main__
State
p992
(dp993
g3
F1.0
sg4
F6.0
sg5
F-1.0
sg6
F2.0
sb(dp994
I00
F-30.85305965
sI01
F54.640868450599996
ss(i__main__
State
p995
(dp996
g3
F2.0
sg4
F4.0
sg5
F-2.0
sg6
F6.0
sb(dp997
I00
F23.019640000000003
sI01
I-36
ss(i__main__
State
p998
(dp999
g3
F-3.0
sg4
F7.0
sg5
F3.0
sg6
F0.0
sb(dp1000
I00
F-51.66
sI01
F28.1683455603428
ss(i__main__
State
p1001
(dp1002
g3
F-1.0
sg4
F4.0
sg5
F1.0
sg6
F-4.0
sb(dp1003
I00
I-81
sI01
F51.857119999999995
ss(i__main__
State
p1004
(dp1005
g3
F6.0
sg4
F2.0
sg5
F-6.0
sg6
F8.0
sb(dp1006
I00
F-50.8277442
sI01
I-80
ss(i__main__
State
p1007
(dp1008
g3
F-1.0
sg4
F1.0
sg5
F1.0
sg6
F6.0
sb(dp1009
I00
I-12
sI01
F12.051000000000002
ss(i__main__
State
p1010
(dp1011
g3
F-4.0
sg4
F8.0
sg5
F4.0
sg6
F6.0
sb(dp1012
I00
F40.319008709600006
sI01
F0.0
ss(i__main__
State
p1013
(dp1014
g3
F5.0
sg4
F3.0
sg5
F-5.0
sg6
F-6.0
sb(dp1015
I00
I75
sI01
F81.78651545377956
ss(i__main__
State
p1016
(dp1017
g3
F8.0
sg4
F1.0
sg5
F-8.0
sg6
F6.0
sb(dp1018
I00
F46.75446894381436
sI01
F50.738895060000004
ss(i__main__
State
p1019
(dp1020
g3
F5.0
sg4
F6.0
sg5
F-5.0
sg6
F-8.0
sb(dp1021
I00
F65.357145
sI01
I-50
ss(i__main__
State
p1022
(dp1023
g3
F-4.0
sg4
F7.0
sg5
F4.0
sg6
F-6.0
sb(dp1024
I00
F50.0
sI01
F22.61
ss(i__main__
State
p1025
(dp1026
g3
F-7.0
sg4
F9.0
sg5
F7.0
sg6
F-4.0
sb(dp1027
I00
F85.55901388000001
sI01
F11.0
ss(i__main__
State
p1028
(dp1029
g3
F2.0
sg4
F3.0
sg5
F-2.0
sg6
F-2.0
sb(dp1030
I00
F64.51858675340652
sI01
I7
ss(i__main__
State
p1031
(dp1032
g3
F4.0
sg4
F6.0
sg5
F-4.0
sg6
F4.0
sb(dp1033
I00
F33.995
sI01
I-98
ss(i__main__
State
p1034
(dp1035
g3
F-8.0
sg4
F9.0
sg5
F8.0
sg6
F-4.0
sb(dp1036
I00
F29.9
sI01
F90.46085226057001
ss(i__main__
State
p1037
(dp1038
g3
F-6.0
sg4
F8.0
sg5
F6.0
sg6
F6.0
sb(dp1039
I00
F11.0
sI01
F162.49297689315003
ss(i__main__
State
p1040
(dp1041
g3
F3.0
sg4
F3.0
sg5
F-3.0
sg6
F-2.0
sb(dp1042
I00
F-50.7
sI01
F-43.4
ss(i__main__
State
p1043
(dp1044
g3
F-5.0
sg4
F8.0
sg5
F5.0
sg6
F8.0
sb(dp1045
I00
F88.32774089071
sI01
F11.0
ss(i__main__
State
p1046
(dp1047
g3
F-6.0
sg4
F9.0
sg5
F6.0
sg6
F2.0
sb(dp1048
I00
F0.0
sI01
F20.0
ss(i__main__
State
p1049
(dp1050
g3
F-5.0
sg4
F2.0
sg5
F5.0
sg6
F-6.0
sb(dp1051
I00
F83.654
sI01
I-14
ss(i__main__
State
p1052
(dp1053
g3
F8.0
sg4
F5.0
sg5
F-8.0
sg6
F8.0
sb(dp1054
I00
F-29.7
sI01
F9.242
ss(i__main__
State
p1055
(dp1056
g3
F-5.0
sg4
F10.0
sg5
F5.0
sg6
F6.0
sb(dp1057
I00
F14.0
sI01
F30.5450799
ss(i__main__
State
p1058
(dp1059
g3
F4.0
sg4
F2.0
sg5
F-4.0
sg6
F4.0
sb(dp1060
I00
F-15.724179269999993
sI01
F-80.55951999999999
ss(i__main__
State
p1061
(dp1062
g3
F-1.0
sg4
F7.0
sg5
F1.0
sg6
F-6.0
sb(dp1063
I00
F-14.217041999999998
sI01
F-74.7
ss(i__main__
State
p1064
(dp1065
g3
F3.0
sg4
F8.0
sg5
F-3.0
sg6
F2.0
sb(dp1066
I00
F120.29352723156457
sI01
F0.0
ss(i__main__
State
p1067
(dp1068
g3
F8.0
sg4
F10.0
sg5
F-8.0
sg6
F-6.0
sb(dp1069
I00
F139.62730295013438
sI01
F28.979449
ss(i__main__
State
p1070
(dp1071
g3
F-2.0
sg4
F1.0
sg5
F2.0
sg6
F-4.0
sb(dp1072
I00
I11
sI01
F32.487208
ss(i__main__
State
p1073
(dp1074
g3
F7.0
sg4
F6.0
sg5
F-7.0
sg6
F8.0
sb(dp1075
I00
F72.332690145901
sI01
F21.774
ss(i__main__
State
p1076
(dp1077
g3
F-2.0
sg4
F5.0
sg5
F2.0
sg6
F4.0
sb(dp1078
I00
F36.935934419999995
sI01
F5.2272
ss(i__main__
State
p1079
(dp1080
g3
F6.0
sg4
F10.0
sg5
F-6.0
sg6
F2.0
sb(dp1081
I00
F37.462378
sI01
F0.0
ss(i__main__
State
p1082
(dp1083
g3
F8.0
sg4
F3.0
sg5
F-8.0
sg6
F-2.0
sb(dp1084
I00
F75.2348713114206
sI01
I-53
ss(i__main__
State
p1085
(dp1086
g3
F-3.0
sg4
F1.0
sg5
F3.0
sg6
F-4.0
sb(dp1087
I00
F-82.5
sI01
F-10.4
ss(i__main__
State
p1088
(dp1089
g3
F-8.0
sg4
F7.0
sg5
F8.0
sg6
F-6.0
sb(dp1090
I00
F56.73474554
sI01
I-26
ss(i__main__
State
p1091
(dp1092
g3
F-8.0
sg4
F8.0
sg5
F8.0
sg6
F-8.0
sb(dp1093
I00
F10.0
sI01
F0.0
ss(i__main__
State
p1094
(dp1095
g3
F-4.0
sg4
F1.0
sg5
F4.0
sg6
F-4.0
sb(dp1096
I00
F51.6275996
sI01
F50.86517616000001
ss(i__main__
State
p1097
(dp1098
g3
F-8.0
sg4
F1.0
sg5
F8.0
sg6
F4.0
sb(dp1099
I00
F67.0602909278
sI01
F66.3414585012
ss(i__main__
State
p1100
(dp1101
g3
F3.0
sg4
F1.0
sg5
F-3.0
sg6
F0.0
sb(dp1102
I00
I-86
sI01
F-1.9349877634899988
ss(i__main__
State
p1103
(dp1104
g3
F6.0
sg4
F2.0
sg5
F-6.0
sg6
F-6.0
sb(dp1105
I00
F-52.089
sI01
I-93
ss(i__main__
State
p1106
(dp1107
g3
F2.0
sg4
F6.0
sg5
F-2.0
sg6
F-8.0
sb(dp1108
I00
F-47.910000000000004
sI01
F24.766684807388202
ss(i__main__
State
p1109
(dp1110
g3
F5.0
sg4
F9.0
sg5
F-5.0
sg6
F-4.0
sb(dp1111
I00
F0.0
sI01
F11.0
ss(i__main__
State
p1112
(dp1113
g3
F6.0
sg4
F8.0
sg5
F-6.0
sg6
F-8.0
sb(dp1114
I00
F32.9099
sI01
F78.0749181643
ss(i__main__
State
p1115
(dp1116
g3
F5.0
sg4
F9.0
sg5
F-5.0
sg6
F-6.0
sb(dp1117
I00
F104.4371921016
sI01
F10.0
ss(i__main__
State
p1118
(dp1119
g3
F-8.0
sg4
F3.0
sg5
F8.0
sg6
F8.0
sb(dp1120
I00
I-91
sI01
F-40.0
ss(i__main__
State
p1121
(dp1122
g3
F-8.0
sg4
F6.0
sg5
F8.0
sg6
F6.0
sb(dp1123
I00
F40.915430179985044
sI01
F10.640614
ss(i__main__
State
p1124
(dp1125
g3
F2.0
sg4
F3.0
sg5
F-2.0
sg6
F6.0
sb(dp1126
I00
F61.749977200000004
sI01
I-33
ss(i__main__
State
p1127
(dp1128
g3
F3.0
sg4
F7.0
sg5
F-3.0
sg6
F-8.0
sb(dp1129
I00
F5.199999999999999
sI01
F43.80716948430542
ss(i__main__
State
p1130
(dp1131
g3
F-4.0
sg4
F0.0
sg5
F4.0
sg6
F8.0
sb(dp1132
I00
F-65.856
sI01
F14.7747341275
ss(i__main__
State
p1133
(dp1134
g3
F7.0
sg4
F6.0
sg5
F-7.0
sg6
F-6.0
sb(dp1135
I00
F45.77
sI01
I13
ss(i__main__
State
p1136
(dp1137
g3
F-4.0
sg4
F8.0
sg5
F4.0
sg6
F-8.0
sb(dp1138
I00
F97.3535861805154
sI01
F0.0
ss(i__main__
State
p1139
(dp1140
g3
F4.0
sg4
F9.0
sg5
F-4.0
sg6
F0.0
sb(dp1141
I00
F-1000.0
sI01
F-1000.0
ss(i__main__
State
p1142
(dp1143
g3
F-2.0
sg4
F7.0
sg5
F2.0
sg6
F-8.0
sb(dp1144
I00
I-67
sI01
F-12.573056900000001
ss(i__main__
State
p1145
(dp1146
g3
F7.0
sg4
F9.0
sg5
F-7.0
sg6
F-2.0
sb(dp1147
I00
F10.0
sI01
F34.6205
ss(i__main__
State
p1148
(dp1149
g3
F-7.0
sg4
F1.0
sg5
F7.0
sg6
F2.0
sb(dp1150
I00
F50.112441341334005
sI01
F1.197000000000001
ss(i__main__
State
p1151
(dp1152
g3
F-4.0
sg4
F8.0
sg5
F4.0
sg6
F0.0
sb(dp1153
I00
F10.0
sI01
F73.7691108
ss(i__main__
State
p1154
(dp1155
g3
F2.0
sg4
F10.0
sg5
F-2.0
sg6
F-4.0
sb(dp1156
I00
F42.065816340000005
sI01
F0.0
ss(i__main__
State
p1157
(dp1158
g3
F5.0
sg4
F4.0
sg5
F-5.0
sg6
F-6.0
sb(dp1159
I00
F32.6313966393
sI01
F9.609999999999998
ss(i__main__
State
p1160
(dp1161
g3
F-8.0
sg4
F2.0
sg5
F8.0
sg6
F6.0
sb(dp1162
I00
I-37
sI01
F28.568126
ss(i__main__
State
p1163
(dp1164
g3
F6.0
sg4
F5.0
sg5
F-6.0
sg6
F-8.0
sb(dp1165
I00
F29.6
sI01
I-60
ss(i__main__
State
p1166
(dp1167
g3
F3.0
sg4
F10.0
sg5
F-3.0
sg6
F0.0
sb(dp1168
I00
F36.8943
sI01
F0.0
ss(i__main__
State
p1169
(dp1170
g3
F1.0
sg4
F1.0
sg5
F-1.0
sg6
F-2.0
sb(dp1171
I00
F-47.56
sI01
I-64
ss(i__main__
State
p1172
(dp1173
g3
F7.0
sg4
F9.0
sg5
F-7.0
sg6
F0.0
sb(dp1174
I00
F-1000.0
sI01
F-1895.3000000000002
ss(i__main__
State
p1175
(dp1176
g3
F0.0
sg4
F7.0
sg5
F0.0
sg6
F-6.0
sb(dp1177
I00
F-62.910000000000004
sI01
F6.144566999999999
ss(i__main__
State
p1178
(dp1179
g3
F-3.0
sg4
F10.0
sg5
F3.0
sg6
F0.0
sb(dp1180
I00
F91.42761816000001
sI01
F37.5379
ss(i__main__
State
p1181
(dp1182
g3
F-4.0
sg4
F1.0
sg5
F4.0
sg6
F-8.0
sb(dp1183
I00
I4
sI01
F20.307000000000002
ss(i__main__
State
p1184
(dp1185
g3
F3.0
sg4
F0.0
sg5
F-3.0
sg6
F6.0
sb(dp1186
I00
F-25.63
sI01
F36.74
ss(i__main__
State
p1187
(dp1188
g3
F6.0
sg4
F10.0
sg5
F-6.0
sg6
F4.0
sb(dp1189
I00
F78.69966946
sI01
F27.3
ss(i__main__
State
p1190
(dp1191
g3
F3.0
sg4
F7.0
sg5
F-3.0
sg6
F6.0
sb(dp1192
I00
F11.1762
sI01
I-29
ss(i__main__
State
p1193
(dp1194
g3
F-6.0
sg4
F2.0
sg5
F6.0
sg6
F6.0
sb(dp1195
I00
F-32.6104
sI01
F87.869451
ss(i__main__
State
p1196
(dp1197
g3
F-3.0
sg4
F5.0
sg5
F3.0
sg6
F-6.0
sb(dp1198
I00
F17.489392000000002
sI01
I-37
ss(i__main__
State
p1199
(dp1200
g3
F7.0
sg4
F8.0
sg5
F-7.0
sg6
F-4.0
sb(dp1201
I00
F10.0
sI01
F0.0
ss(i__main__
State
p1202
(dp1203
g3
F-8.0
sg4
F2.0
sg5
F8.0
sg6
F-4.0
sb(dp1204
I00
F50.0138991940644
sI01
F-52.2
ss(i__main__
State
p1205
(dp1206
g3
F5.0
sg4
F9.0
sg5
F-5.0
sg6
F4.0
sb(dp1207
I00
F20.0
sI01
F0.0
ss(i__main__
State
p1208
(dp1209
g3
F2.0
sg4
F5.0
sg5
F-2.0
sg6
F-6.0
sb(dp1210
I00
F17.608189939400003
sI01
F-78.209252719
ss(i__main__
State
p1211
(dp1212
g3
F8.0
sg4
F4.0
sg5
F-8.0
sg6
F0.0
sb(dp1213
I00
F31.26348
sI01
F-29.299999999999997
ss(i__main__
State
p1214
(dp1215
g3
F-3.0
sg4
F3.0
sg5
F3.0
sg6
F-8.0
sb(dp1216
I00
I-29
sI01
F26.4
ss(i__main__
State
p1217
(dp1218
g3
F2.0
sg4
F9.0
sg5
F-2.0
sg6
F0.0
sb(dp1219
I00
F-1899.0
sI01
F-2698.7769912000003
ss(i__main__
State
p1220
(dp1221
g3
F0.0
sg4
F0.0
sg5
F0.0
sg6
F0.0
sb(dp1222
I00
F75.005845921
sI01
F67.14397
ss(i__main__
State
p1223
(dp1224
g3
F-8.0
sg4
F6.0
sg5
F8.0
sg6
F0.0
sb(dp1225
I00
I-91
sI01
F33.427531281
ss(i__main__
State
p1226
(dp1227
g3
F-4.0
sg4
F2.0
sg5
F4.0
sg6
F6.0
sb(dp1228
I00
F-5.524057348799995
sI01
I-54
ss(i__main__
State
p1229
(dp1230
g3
F3.0
sg4
F1.0
sg5
F-3.0
sg6
F-2.0
sb(dp1231
I00
F57.8967
sI01
I54
ss(i__main__
State
p1232
(dp1233
g3
F-6.0
sg4
F9.0
sg5
F6.0
sg6
F-2.0
sb(dp1234
I00
F-319.759
sI01
F90.14840564840668
ss(i__main__
State
p1235
(dp1236
g3
F3.0
sg4
F6.0
sg5
F-3.0
sg6
F4.0
sb(dp1237
I00
F23.3
sI01
F38.249010000000006
ss(i__main__
State
p1238
(dp1239
g3
F-6.0
sg4
F5.0
sg5
F6.0
sg6
F8.0
sb(dp1240
I00
F80.1
sI01
I90
ss(i__main__
State
p1241
(dp1242
g3
F1.0
sg4
F10.0
sg5
F-1.0
sg6
F0.0
sb(dp1243
I00
F10.0
sI01
F0.0
ss(i__main__
State
p1244
(dp1245
g3
F8.0
sg4
F8.0
sg5
F-8.0
sg6
F6.0
sb(dp1246
I00
F114.02497709509998
sI01
F20.0
ss(i__main__
State
p1247
(dp1248
g3
F6.0
sg4
F8.0
sg5
F-6.0
sg6
F-4.0
sb(dp1249
I00
F40.5087965272
sI01
F11.0
ss(i__main__
State
p1250
(dp1251
g3
F0.0
sg4
F0.0
sg5
F0.0
sg6
F-8.0
sb(dp1252
I00
F6.69
sI01
F66.88167166561418
ss(i__main__
State
p1253
(dp1254
g3
F-8.0
sg4
F9.0
sg5
F8.0
sg6
F-8.0
sb(dp1255
I00
F40.0
sI01
F0.0
ss(i__main__
State
p1256
(dp1257
g3
F0.0
sg4
F1.0
sg5
F0.0
sg6
F6.0
sb(dp1258
I00
I-40
sI01
F84.3
ss(i__main__
State
p1259
(dp1260
g3
F-4.0
sg4
F8.0
sg5
F4.0
sg6
F-2.0
sb(dp1261
I00
F22.0
sI01
F10.0
ss(i__main__
State
p1262
(dp1263
g3
F1.0
sg4
F3.0
sg5
F-1.0
sg6
F-6.0
sb(dp1264
I00
F41.89
sI01
I-87
ss(i__main__
State
p1265
(dp1266
g3
F-7.0
sg4
F10.0
sg5
F7.0
sg6
F4.0
sb(dp1267
I00
F61.30986800000001
sI01
F0.0
ss(i__main__
State
p1268
(dp1269
g3
F-1.0
sg4
F8.0
sg5
F1.0
sg6
F8.0
sb(dp1270
I00
F36.0617
sI01
F14.717740000000001
ss(i__main__
State
p1271
(dp1272
g3
F1.0
sg4
F6.0
sg5
F-1.0
sg6
F4.0
sb(dp1273
I00
I-92
sI01
F-36.8182
ss(i__main__
State
p1274
(dp1275
g3
F-2.0
sg4
F4.0
sg5
F2.0
sg6
F0.0
sb(dp1276
I00
I-2
sI01
F9.5
ss(i__main__
State
p1277
(dp1278
g3
F-6.0
sg4
F1.0
sg5
F6.0
sg6
F-2.0
sb(dp1279
I00
F-60.1852
sI01
F76.89123562614
ss(i__main__
State
p1280
(dp1281
g3
F-2.0
sg4
F9.0
sg5
F2.0
sg6
F-8.0
sb(dp1282
I00
F22.180000000000003
sI01
F99.34077880186601
ss(i__main__
State
p1283
(dp1284
g3
F-8.0
sg4
F8.0
sg5
F8.0
sg6
F2.0
sb(dp1285
I00
F78.92334870000002
sI01
F13.100000000000001
ss(i__main__
State
p1286
(dp1287
g3
F-1.0
sg4
F4.0
sg5
F1.0
sg6
F-6.0
sb(dp1288
I00
F-3.531984000000002
sI01
I-93
ss(i__main__
State
p1289
(dp1290
g3
F-5.0
sg4
F10.0
sg5
F5.0
sg6
F-6.0
sb(dp1291
I00
F20.98
sI01
F0.0
ss(i__main__
State
p1292
(dp1293
g3
F-3.0
sg4
F9.0
sg5
F3.0
sg6
F-8.0
sb(dp1294
I00
F56.283822633629605
sI01
F10.918800000000001
ss(i__main__
State
p1295
(dp1296
g3
F-8.0
sg4
F2.0
sg5
F8.0
sg6
F-2.0
sb(dp1297
I00
F60.82973
sI01
I8
ss(i__main__
State
p1298
(dp1299
g3
F-5.0
sg4
F7.0
sg5
F5.0
sg6
F-6.0
sb(dp1300
I00
F29.473564509
sI01
F60.117821252768
ss(i__main__
State
p1301
(dp1302
g3
F3.0
sg4
F3.0
sg5
F-3.0
sg6
F0.0
sb(dp1303
I00
F26.5224
sI01
F-10.500399999999999
ss(i__main__
State
p1304
(dp1305
g3
F-2.0
sg4
F10.0
sg5
F2.0
sg6
F-8.0
sb(dp1306
I00
F0.0
sI01
F36.868050632000006
ss(i__main__
State
p1307
(dp1308
g3
F5.0
sg4
F9.0
sg5
F-5.0
sg6
F2.0
sb(dp1309
I00
F85.17818210000001
sI01
F0.0
ss(i__main__
State
p1310
(dp1311
g3
F1.0
sg4
F10.0
sg5
F-1.0
sg6
F-4.0
sb(dp1312
I00
F-80.17000000000002
sI01
F49.350172752
ss(i__main__
State
p1313
(dp1314
g3
F5.0
sg4
F3.0
sg5
F-5.0
sg6
F4.0
sb(dp1315
I00
F9.5
sI01
F57.7209582
ss(i__main__
State
p1316
(dp1317
g3
F-4.0
sg4
F2.0
sg5
F4.0
sg6
F0.0
sb(dp1318
I00
I-37
sI01
F3.5008932212053003
ss(i__main__
State
p1319
(dp1320
g3
F-2.0
sg4
F8.0
sg5
F2.0
sg6
F-8.0
sb(dp1321
I00
F53.19511
sI01
F10.0
ss(i__main__
State
p1322
(dp1323
g3
F-6.0
sg4
F8.0
sg5
F6.0
sg6
F4.0
sb(dp1324
I00
F30.28
sI01
F0.0
ss(i__main__
State
p1325
(dp1326
g3
F-7.0
sg4
F8.0
sg5
F7.0
sg6
F6.0
sb(dp1327
I00
F0.0
sI01
F44.0312
ss(i__main__
State
p1328
(dp1329
g3
F0.0
sg4
F3.0
sg5
F0.0
sg6
F6.0
sb(dp1330
I00
I-62
sI01
F-2.2535691605400006
ss(i__main__
State
p1331
(dp1332
g3
F-8.0
sg4
F9.0
sg5
F8.0
sg6
F-6.0
sb(dp1333
I00
F11.0
sI01
F0.0
ss(i__main__
State
p1334
(dp1335
g3
F-5.0
sg4
F9.0
sg5
F5.0
sg6
F6.0
sb(dp1336
I00
F11.0
sI01
F139.85836549765088
ss(i__main__
State
p1337
(dp1338
g3
F4.0
sg4
F5.0
sg5
F-4.0
sg6
F-4.0
sb(dp1339
I00
F-30.069999999999997
sI01
F-82.3
ss(i__main__
State
p1340
(dp1341
g3
F-1.0
sg4
F1.0
sg5
F1.0
sg6
F-6.0
sb(dp1342
I00
F-30.59754
sI01
F67.24695079586265
ss(i__main__
State
p1343
(dp1344
g3
F4.0
sg4
F1.0
sg5
F-4.0
sg6
F4.0
sb(dp1345
I00
F48.0
sI01
F17.259999999999998
ss(i__main__
State
p1346
(dp1347
g3
F1.0
sg4
F4.0
sg5
F-1.0
sg6
F0.0
sb(dp1348
I00
F-50.016
sI01
F-6.106713
ss(i__main__
State
p1349
(dp1350
g3
F-3.0
sg4
F9.0
sg5
F3.0
sg6
F8.0
sb(dp1351
I00
F52.59824972007
sI01
F0.0
ss(i__main__
State
p1352
(dp1353
g3
F6.0
sg4
F6.0
sg5
F-6.0
sg6
F8.0
sb(dp1354
I00
F58.195228
sI01
I-75
ss(i__main__
State
p1355
(dp1356
g3
F-1.0
sg4
F6.0
sg5
F1.0
sg6
F-2.0
sb(dp1357
I00
F33.299321000000006
sI01
F-56.59380640377199
ss(i__main__
State
p1358
(dp1359
g3
F-2.0
sg4
F7.0
sg5
F2.0
sg6
F8.0
sb(dp1360
I00
F50.42038425829999
sI01
F-12.571587659999999
ss(i__main__
State
p1361
(dp1362
g3
F8.0
sg4
F6.0
sg5
F-8.0
sg6
F-2.0
sb(dp1363
I00
F55.18261311
sI01
F35.5862
ss(i__main__
State
p1364
(dp1365
g3
F-8.0
sg4
F8.0
sg5
F8.0
sg6
F0.0
sb(dp1366
I00
F135.719742742037
sI01
F41.6380317
ss(i__main__
State
p1367
(dp1368
g3
F6.0
sg4
F5.0
sg5
F-6.0
sg6
F-4.0
sb(dp1369
I00
F83.9
sI01
I33
ss(i__main__
State
p1370
(dp1371
g3
F-5.0
sg4
F8.0
sg5
F5.0
sg6
F-4.0
sb(dp1372
I00
F71.6924224
sI01
F28.173892616214005
ss(i__main__
State
p1373
(dp1374
g3
F1.0
sg4
F9.0
sg5
F-1.0
sg6
F-6.0
sb(dp1375
I00
F59.1894320053
sI01
F0.0
ss(i__main__
State
p1376
(dp1377
g3
F-2.0
sg4
F0.0
sg5
F2.0
sg6
F6.0
sb(dp1378
I00
F81.2
sI01
I-70
ss(i__main__
State
p1379
(dp1380
g3
F3.0
sg4
F2.0
sg5
F-3.0
sg6
F4.0
sb(dp1381
I00
I-34
sI01
F32.232732
ss(i__main__
State
p1382
(dp1383
g3
F6.0
sg4
F10.0
sg5
F-6.0
sg6
F8.0
sb(dp1384
I00
F27.60376
sI01
F0.0
ss(i__main__
State
p1385
(dp1386
g3
F2.0
sg4
F6.0
sg5
F-2.0
sg6
F2.0
sb(dp1387
I00
F-48.9
sI01
F57.267854
ss(i__main__
State
p1388
(dp1389
g3
F7.0
sg4
F7.0
sg5
F-7.0
sg6
F8.0
sb(dp1390
I00
F27.883372
sI01
I-27
ss(i__main__
State
p1391
(dp1392
g3
F-7.0
sg4
F5.0
sg5
F7.0
sg6
F6.0
sb(dp1393
I00
F15.653509861230003
sI01
F6.948686184518334
ss(i__main__
State
p1394
(dp1395
g3
F-8.0
sg4
F7.0
sg5
F8.0
sg6
F-4.0
sb(dp1396
I00
F19.0612
sI01
F-17.1
ss(i__main__
State
p1397
(dp1398
g3
F-1.0
sg4
F10.0
sg5
F1.0
sg6
F-6.0
sb(dp1399
I00
F10.0
sI01
F0.0
ss(i__main__
State
p1400
(dp1401
g3
F8.0
sg4
F7.0
sg5
F-8.0
sg6
F4.0
sb(dp1402
I00
F55.1
sI01
I-73
ss(i__main__
State
p1403
(dp1404
g3
F5.0
sg4
F0.0
sg5
F-5.0
sg6
F-2.0
sb(dp1405
I00
F51.36555964398219
sI01
F44.0
ss(i__main__
State
p1406
(dp1407
g3
F5.0
sg4
F2.0
sg5
F-5.0
sg6
F0.0
sb(dp1408
I00
I-14
sI01
F40.22571567
ss(i__main__
State
p1409
(dp1410
g3
F5.0
sg4
F0.0
sg5
F-5.0
sg6
F6.0
sb(dp1411
I00
F44.3
sI01
F22.475
ss(i__main__
State
p1412
(dp1413
g3
F-5.0
sg4
F7.0
sg5
F5.0
sg6
F-4.0
sb(dp1414
I00
F-6.300000000000001
sI01
I41
ss(i__main__
State
p1415
(dp1416
g3
F-4.0
sg4
F9.0
sg5
F4.0
sg6
F-6.0
sb(dp1417
I00
F104.28390032849026
sI01
F0.0
ss(i__main__
State
p1418
(dp1419
g3
F-4.0
sg4
F4.0
sg5
F4.0
sg6
F-2.0
sb(dp1420
I00
F32.96
sI01
F28.678859688147753
ss(i__main__
State
p1421
(dp1422
g3
F4.0
sg4
F0.0
sg5
F-4.0
sg6
F-2.0
sb(dp1423
I00
F-85.3
sI01
F5.4922869789940005
ss(i__main__
State
p1424
(dp1425
g3
F0.0
sg4
F8.0
sg5
F0.0
sg6
F4.0
sb(dp1426
I00
F-2707.0
sI01
F-2702.846566
ss(i__main__
State
p1427
(dp1428
g3
F3.0
sg4
F5.0
sg5
F-3.0
sg6
F2.0
sb(dp1429
I00
I99
sI01
F-5.789999999999999
ss(i__main__
State
p1430
(dp1431
g3
F3.0
sg4
F9.0
sg5
F-3.0
sg6
F-6.0
sb(dp1432
I00
F51.90122000000001
sI01
F0.0
ss(i__main__
State
p1433
(dp1434
g3
F-3.0
sg4
F0.0
sg5
F3.0
sg6
F-6.0
sb(dp1435
I00
F-79.933447285708
sI01
F-4.578148159999996
ss(i__main__
State
p1436
(dp1437
g3
F1.0
sg4
F2.0
sg5
F-1.0
sg6
F4.0
sb(dp1438
I00
I-73
sI01
F-53.308614139999996
ss(i__main__
State
p1439
(dp1440
g3
F2.0
sg4
F0.0
sg5
F-2.0
sg6
F8.0
sb(dp1441
I00
I-7
sI01
F-15.61633
ss(i__main__
State
p1442
(dp1443
g3
F2.0
sg4
F3.0
sg5
F-2.0
sg6
F8.0
sb(dp1444
I00
I-54
sI01
F70.73
ss(i__main__
State
p1445
(dp1446
g3
F-7.0
sg4
F10.0
sg5
F7.0
sg6
F-2.0
sb(dp1447
I00
F110.83392303347217
sI01
F31.014557132000004
ss(i__main__
State
p1448
(dp1449
g3
F-6.0
sg4
F9.0
sg5
F6.0
sg6
F4.0
sb(dp1450
I00
F30.2838
sI01
F53.86083630594412
ss(i__main__
State
p1451
(dp1452
g3
F-3.0
sg4
F10.0
sg5
F3.0
sg6
F-6.0
sb(dp1453
I00
F23.03132
sI01
F73.21300963032
ss(i__main__
State
p1454
(dp1455
g3
F-7.0
sg4
F5.0
sg5
F7.0
sg6
F-2.0
sb(dp1456
I00
I-9
sI01
F52.1241689
ss(i__main__
State
p1457
(dp1458
g3
F-7.0
sg4
F6.0
sg5
F7.0
sg6
F-2.0
sb(dp1459
I00
F-4.606258111999997
sI01
I-91
ss(i__main__
State
p1460
(dp1461
g3
F-5.0
sg4
F6.0
sg5
F5.0
sg6
F-6.0
sb(dp1462
I00
F42.495722544609
sI01
F26.98429
ss(i__main__
State
p1463
(dp1464
g3
F2.0
sg4
F10.0
sg5
F-2.0
sg6
F-6.0
sb(dp1465
I00
F61.875797646
sI01
F0.0
ss(i__main__
State
p1466
(dp1467
g3
F1.0
sg4
F0.0
sg5
F-1.0
sg6
F-6.0
sb(dp1468
I00
I-100
sI01
F11.53
ss(i__main__
State
p1469
(dp1470
g3
F8.0
sg4
F4.0
sg5
F-8.0
sg6
F-6.0
sb(dp1471
I00
I-22
sI01
F0.4713013000000017
ss(i__main__
State
p1472
(dp1473
g3
F-5.0
sg4
F10.0
sg5
F5.0
sg6
F-2.0
sb(dp1474
I00
F44.20631
sI01
F0.0
ss(i__main__
State
p1475
(dp1476
g3
F6.0
sg4
F9.0
sg5
F-6.0
sg6
F4.0
sb(dp1477
I00
F41.7119
sI01
F0.0
ss(i__main__
State
p1478
(dp1479
g3
F3.0
sg4
F5.0
sg5
F-3.0
sg6
F8.0
sb(dp1480
I00
I-54
sI01
F15.235339
ss(i__main__
State
p1481
(dp1482
g3
F-5.0
sg4
F6.0
sg5
F5.0
sg6
F0.0
sb(dp1483
I00
F3.2878848223645556
sI01
I-89
ss(i__main__
State
p1484
(dp1485
g3
F0.0
sg4
F7.0
sg5
F0.0
sg6
F-4.0
sb(dp1486
I00
F-51.4
sI01
F56.94766473023459
ss(i__main__
State
p1487
(dp1488
g3
F5.0
sg4
F2.0
sg5
F-5.0
sg6
F8.0
sb(dp1489
I00
F0.9656000000000038
sI01
F91.23517717800839
ss(i__main__
State
p1490
(dp1491
g3
F0.0
sg4
F10.0
sg5
F0.0
sg6
F8.0
sb(dp1492
I00
F-2703.07298608
sI01
F-1904.3700000000003
ss(i__main__
State
p1493
(dp1494
g3
F-5.0
sg4
F10.0
sg5
F5.0
sg6
F0.0
sb(dp1495
I00
F24.689281
sI01
F42.069051432
ss(i__main__
State
p1496
(dp1497
g3
F1.0
sg4
F0.0
sg5
F-1.0
sg6
F8.0
sb(dp1498
I00
F76.65842438534551
sI01
I37
ss(i__main__
State
p1499
(dp1500
g3
F-7.0
sg4
F3.0
sg5
F7.0
sg6
F-6.0
sb(dp1501
I00
I-74
sI01
F23.312034117180538
ss(i__main__
State
p1502
(dp1503
g3
F-4.0
sg4
F0.0
sg5
F4.0
sg6
F4.0
sb(dp1504
I00
F45.568
sI01
F-28.65684676
ss(i__main__
State
p1505
(dp1506
g3
F2.0
sg4
F9.0
sg5
F-2.0
sg6
F6.0
sb(dp1507
I00
F117.10246191134748
sI01
F10.0
ss(i__main__
State
p1508
(dp1509
g3
F0.0
sg4
F6.0
sg5
F0.0
sg6
F-4.0
sb(dp1510
I00
F72.0754421
sI01
I15
ss(i__main__
State
p1511
(dp1512
g3
F7.0
sg4
F8.0
sg5
F-7.0
sg6
F2.0
sb(dp1513
I00
F76.06336058000001
sI01
F11.0
ss(i__main__
State
p1514
(dp1515
g3
F2.0
sg4
F2.0
sg5
F-2.0
sg6
F-8.0
sb(dp1516
I00
F32.93991915
sI01
F-14.6
ss(i__main__
State
p1517
(dp1518
g3
F3.0
sg4
F4.0
sg5
F-3.0
sg6
F-4.0
sb(dp1519
I00
F37.282889999999995
sI01
F-71.1
ss(i__main__
State
p1520
(dp1521
g3
F2.0
sg4
F8.0
sg5
F-2.0
sg6
F6.0
sb(dp1522
I00
F10.0
sI01
F0.0
ss(i__main__
State
p1523
(dp1524
g3
F-5.0
sg4
F3.0
sg5
F5.0
sg6
F-2.0
sb(dp1525
I00
F-70.186
sI01
F3.702000000000001
ss(i__main__
State
p1526
(dp1527
g3
F2.0
sg4
F4.0
sg5
F-2.0
sg6
F-4.0
sb(dp1528
I00
F55.68397810895999
sI01
I-69
ss(i__main__
State
p1529
(dp1530
g3
F6.0
sg4
F6.0
sg5
F-6.0
sg6
F4.0
sb(dp1531
I00
F53.2
sI01
F-81.90705384178793
ss(i__main__
State
p1532
(dp1533
g3
F-3.0
sg4
F1.0
sg5
F3.0
sg6
F4.0
sb(dp1534
I00
I-54
sI01
F61.1141
ss(i__main__
State
p1535
(dp1536
g3
F-5.0
sg4
F2.0
sg5
F5.0
sg6
F4.0
sb(dp1537
I00
I-93
sI01
F13.5
ss(i__main__
State
p1538
(dp1539
g3
F-3.0
sg4
F0.0
sg5
F3.0
sg6
F-4.0
sb(dp1540
I00
I-53
sI01
F74.00223
ss(i__main__
State
p1541
(dp1542
g3
F5.0
sg4
F7.0
sg5
F-5.0
sg6
F0.0
sb(dp1543
I00
F36.8146994461
sI01
F8.31
ss(i__main__
State
p1544
(dp1545
g3
F0.0
sg4
F5.0
sg5
F0.0
sg6
F-4.0
sb(dp1546
I00
I63
sI01
F60.00895517000001
ss(i__main__
State
p1547
(dp1548
g3
F8.0
sg4
F6.0
sg5
F-8.0
sg6
F4.0
sb(dp1549
I00
F32.347
sI01
I-41
ss(i__main__
State
p1550
(dp1551
g3
F-5.0
sg4
F1.0
sg5
F5.0
sg6
F-8.0
sb(dp1552
I00
F-9.134792442999998
sI01
F-71.0
ss(i__main__
State
p1553
(dp1554
g3
F-3.0
sg4
F4.0
sg5
F3.0
sg6
F-8.0
sb(dp1555
I00
I-87
sI01
F92.8909
ss(i__main__
State
p1556
(dp1557
g3
F-3.0
sg4
F4.0
sg5
F3.0
sg6
F4.0
sb(dp1558
I00
F54.2003569
sI01
I-92
ss(i__main__
State
p1559
(dp1560
g3
F-1.0
sg4
F7.0
sg5
F1.0
sg6
F0.0
sb(dp1561
I00
I-97
sI01
F4.36111
ss(i__main__
State
p1562
(dp1563
g3
F4.0
sg4
F1.0
sg5
F-4.0
sg6
F-8.0
sb(dp1564
I00
F91.1564783
sI01
I33
ss(i__main__
State
p1565
(dp1566
g3
F4.0
sg4
F5.0
sg5
F-4.0
sg6
F0.0
sb(dp1567
I00
F28.8
sI01
I-95
ss(i__main__
State
p1568
(dp1569
g3
F8.0
sg4
F7.0
sg5
F-8.0
sg6
F0.0
sb(dp1570
I00
F67.8098536
sI01
I67
ss(i__main__
State
p1571
(dp1572
g3
F5.0
sg4
F0.0
sg5
F-5.0
sg6
F-6.0
sb(dp1573
I00
F16.93
sI01
F-1.0
ss(i__main__
State
p1574
(dp1575
g3
F0.0
sg4
F2.0
sg5
F0.0
sg6
F2.0
sb(dp1576
I00
F5.204335
sI01
I-85
ss(i__main__
State
p1577
(dp1578
g3
F4.0
sg4
F10.0
sg5
F-4.0
sg6
F-4.0
sb(dp1579
I00
F20.0
sI01
F0.0
ss(i__main__
State
p1580
(dp1581
g3
F-4.0
sg4
F9.0
sg5
F4.0
sg6
F-2.0
sb(dp1582
I00
F-72.9
sI01
F12.581571
ss(i__main__
State
p1583
(dp1584
g3
F7.0
sg4
F6.0
sg5
F-7.0
sg6
F-4.0
sb(dp1585
I00
F11.3207846749
sI01
F-11.8656024
ss(i__main__
State
p1586
(dp1587
g3
F1.0
sg4
F8.0
sg5
F-1.0
sg6
F2.0
sb(dp1588
I00
F-89.89000000000001
sI01
F90.32058098042612
ss(i__main__
State
p1589
(dp1590
g3
F-6.0
sg4
F2.0
sg5
F6.0
sg6
F-6.0
sb(dp1591
I00
F-24.1559
sI01
I-87
ss(i__main__
State
p1592
(dp1593
g3
F-3.0
sg4
F7.0
sg5
F3.0
sg6
F2.0
sb(dp1594
I00
I-50
sI01
F10.654152954
ss(i__main__
State
p1595
(dp1596
g3
F2.0
sg4
F0.0
sg5
F-2.0
sg6
F-4.0
sb(dp1597
I00
F78.6
sI01
I75
ss(i__main__
State
p1598
(dp1599
g3
F1.0
sg4
F1.0
sg5
F-1.0
sg6
F6.0
sb(dp1600
I00
F16.0
sI01
F71.29372444217805
ss(i__main__
State
p1601
(dp1602
g3
F8.0
sg4
F0.0
sg5
F-8.0
sg6
F4.0
sb(dp1603
I00
I19
sI01
F25.5959126766015
ss(i__main__
State
p1604
(dp1605
g3
F-5.0
sg4
F3.0
sg5
F5.0
sg6
F-8.0
sb(dp1606
I00
F11.957115180000002
sI01
F-24.7
ss(i__main__
State
p1607
(dp1608
g3
F-6.0
sg4
F0.0
sg5
F6.0
sg6
F2.0
sb(dp1609
I00
I-70
sI01
F19.442822288999995
ss(i__main__
State
p1610
(dp1611
g3
F-5.0
sg4
F1.0
sg5
F5.0
sg6
F8.0
sb(dp1612
I00
I-58
sI01
F23.713324
ss(i__main__
State
p1613
(dp1614
g3
F-1.0
sg4
F1.0
sg5
F1.0
sg6
F-4.0
sb(dp1615
I00
I-59
sI01
F-8.684383999999998
ss(i__main__
State
p1616
(dp1617
g3
F-5.0
sg4
F2.0
sg5
F5.0
sg6
F-8.0
sb(dp1618
I00
F-3.9000000000000004
sI01
I-76
ss(i__main__
State
p1619
(dp1620
g3
F-2.0
sg4
F9.0
sg5
F2.0
sg6
F4.0
sb(dp1621
I00
F67.35209106
sI01
F31.511477600000003
ss(i__main__
State
p1622
(dp1623
g3
F-7.0
sg4
F5.0
sg5
F7.0
sg6
F0.0
sb(dp1624
I00
I-60
sI01
F-9.7
ss(i__main__
State
p1625
(dp1626
g3
F-1.0
sg4
F5.0
sg5
F1.0
sg6
F4.0
sb(dp1627
I00
F-46.333
sI01
F78.887930293103
ss(i__main__
State
p1628
(dp1629
g3
F-5.0
sg4
F9.0
sg5
F5.0
sg6
F-2.0
sb(dp1630
I00
F19.0
sI01
F0.0
ss(i__main__
State
p1631
(dp1632
g3
F-4.0
sg4
F5.0
sg5
F4.0
sg6
F-4.0
sb(dp1633
I00
F49.315713200000005
sI01
F-19.78554405
ss(i__main__
State
p1634
(dp1635
g3
F6.0
sg4
F9.0
sg5
F-6.0
sg6
F0.0
sb(dp1636
I00
F-998.0
sI01
F0.0
ss(i__main__
State
p1637
(dp1638
g3
F0.0
sg4
F4.0
sg5
F0.0
sg6
F2.0
sb(dp1639
I00
F-11.5
sI01
F24.906341727014
ss(i__main__
State
p1640
(dp1641
g3
F1.0
sg4
F9.0
sg5
F-1.0
sg6
F-4.0
sb(dp1642
I00
F156.11718427867055
sI01
F-81.0
ss(i__main__
State
p1643
(dp1644
g3
F4.0
sg4
F6.0
sg5
F-4.0
sg6
F6.0
sb(dp1645
I00
F85.26391647112841
sI01
F-28.2
ss(i__main__
State
p1646
(dp1647
g3
F-2.0
sg4
F5.0
sg5
F2.0
sg6
F8.0
sb(dp1648
I00
F-43.5
sI01
F0.20000000000000107
ss(i__main__
State
p1649
(dp1650
g3
F6.0
sg4
F8.0
sg5
F-6.0
sg6
F4.0
sb(dp1651
I00
F79.268852248
sI01
F33.6119
ss(i__main__
State
p1652
(dp1653
g3
F6.0
sg4
F2.0
sg5
F-6.0
sg6
F6.0
sb(dp1654
I00
F93.51214243080625
sI01
I45
ss(i__main__
State
p1655
(dp1656
g3
F-7.0
sg4
F1.0
sg5
F7.0
sg6
F-6.0
sb(dp1657
I00
F-29.46381
sI01
F22.316200887423904
ss(i__main__
State
p1658
(dp1659
g3
F6.0
sg4
F4.0
sg5
F-6.0
sg6
F-6.0
sb(dp1660
I00
F78.98
sI01
I-52
ss(i__main__
State
p1661
(dp1662
g3
F-8.0
sg4
F10.0
sg5
F8.0
sg6
F-2.0
sb(dp1663
I00
F22.19
sI01
F0.0
ss(i__main__
State
p1664
(dp1665
g3
F-8.0
sg4
F4.0
sg5
F8.0
sg6
F2.0
sb(dp1666
I00
F68.91204448580001
sI01
F70.84
ss(i__main__
State
p1667
(dp1668
g3
F2.0
sg4
F1.0
sg5
F-2.0
sg6
F2.0
sb(dp1669
I00
I92
sI01
F45.01
ss(i__main__
State
p1670
(dp1671
g3
F7.0
sg4
F4.0
sg5
F-7.0
sg6
F8.0
sb(dp1672
I00
I-43
sI01
F-50.9
ss(i__main__
State
p1673
(dp1674
g3
F4.0
sg4
F2.0
sg5
F-4.0
sg6
F6.0
sb(dp1675
I00
I-4
sI01
F78.503
ss(i__main__
State
p1676
(dp1677
g3
F-2.0
sg4
F6.0
sg5
F2.0
sg6
F0.0
sb(dp1678
I00
F76.71929
sI01
F47.0
ss(i__main__
State
p1679
(dp1680
g3
F-1.0
sg4
F3.0
sg5
F1.0
sg6
F-4.0
sb(dp1681
I00
F19.7101
sI01
F80.1
ss(i__main__
State
p1682
(dp1683
g3
F8.0
sg4
F10.0
sg5
F-8.0
sg6
F-4.0
sb(dp1684
I00
F10.0
sI01
F108.4908333006
ss(i__main__
State
p1685
(dp1686
g3
F6.0
sg4
F10.0
sg5
F-6.0
sg6
F-2.0
sb(dp1687
I00
F110.05105459738941
sI01
F24.686700000000002
ss(i__main__
State
p1688
(dp1689
g3
F-3.0
sg4
F3.0
sg5
F3.0
sg6
F4.0
sb(dp1690
I00
F13.600000000000001
sI01
F75.442051
ss(i__main__
State
p1691
(dp1692
g3
F-2.0
sg4
F5.0
sg5
F2.0
sg6
F6.0
sb(dp1693
I00
I-45
sI01
F73.0344993877568
ss(i__main__
State
p1694
(dp1695
g3
F8.0
sg4
F4.0
sg5
F-8.0
sg6
F4.0
sb(dp1696
I00
F16.8859
sI01
F24.648480968
ss(i__main__
State
p1697
(dp1698
g3
F8.0
sg4
F3.0
sg5
F-8.0
sg6
F-4.0
sb(dp1699
I00
I-62
sI01
F4.049875643969998
ss(i__main__
State
p1700
(dp1701
g3
F0.0
sg4
F9.0
sg5
F0.0
sg6
F0.0
sb(dp1702
I00
F-3433.11
sI01
F-3426.0458924
ss(i__main__
State
p1703
(dp1704
g3
F8.0
sg4
F6.0
sg5
F-8.0
sg6
F8.0
sb(dp1705
I00
F-21.521327099999997
sI01
F59.02823819662984
ss(i__main__
State
p1706
(dp1707
g3
F-7.0
sg4
F9.0
sg5
F7.0
sg6
F8.0
sb(dp1708
I00
F30.0
sI01
F182.27222148041858
ss(i__main__
State
p1709
(dp1710
g3
F4.0
sg4
F9.0
sg5
F-4.0
sg6
F-4.0
sb(dp1711
I00
F92.235587185
sI01
F0.0
ss(i__main__
State
p1712
(dp1713
g3
F-8.0
sg4
F0.0
sg5
F8.0
sg6
F0.0
sb(dp1714
I00
F1.3672275880000027
sI01
F-31.7
ss(i__main__
State
p1715
(dp1716
g3
F-6.0
sg4
F8.0
sg5
F6.0
sg6
F-2.0
sb(dp1717
I00
F64.3317516
sI01
F-341.81
ss(i__main__
State
p1718
(dp1719
g3
F-8.0
sg4
F4.0
sg5
F8.0
sg6
F-8.0
sb(dp1720
I00
I42
sI01
F-32.653689299999996
ss(i__main__
State
p1721
(dp1722
g3
F0.0
sg4
F10.0
sg5
F0.0
sg6
F-2.0
sb(dp1723
I00
F-1895.95911394
sI01
F-1884.51
ss(i__main__
State
p1724
(dp1725
g3
F2.0
sg4
F7.0
sg5
F-2.0
sg6
F-6.0
sb(dp1726
I00
F-20.6
sI01
I-54
ss(i__main__
State
p1727
(dp1728
g3
F2.0
sg4
F7.0
sg5
F-2.0
sg6
F4.0
sb(dp1729
I00
F51.7
sI01
I-66
ss(i__main__
State
p1730
(dp1731
g3
F-7.0
sg4
F4.0
sg5
F7.0
sg6
F-8.0
sb(dp1732
I00
F-3.9792599999999965
sI01
I-84
ss(i__main__
State
p1733
(dp1734
g3
F-8.0
sg4
F4.0
sg5
F8.0
sg6
F0.0
sb(dp1735
I00
I80
sI01
F74.1
ss(i__main__
State
p1736
(dp1737
g3
F3.0
sg4
F7.0
sg5
F-3.0
sg6
F-6.0
sb(dp1738
I00
F61.0
sI01
I-24
ss(i__main__
State
p1739
(dp1740
g3
F6.0
sg4
F8.0
sg5
F-6.0
sg6
F2.0
sb(dp1741
I00
F31.200000000000003
sI01
F11.0
ss(i__main__
State
p1742
(dp1743
g3
F7.0
sg4
F6.0
sg5
F-7.0
sg6
F-8.0
sb(dp1744
I00
F68.52408600000001
sI01
F-34.88758780149
ss(i__main__
State
p1745
(dp1746
g3
F-4.0
sg4
F5.0
sg5
F4.0
sg6
F-2.0
sb(dp1747
I00
I-100
sI01
F-33.695167773011875
ss(i__main__
State
p1748
(dp1749
g3
F4.0
sg4
F9.0
sg5
F-4.0
sg6
F2.0
sb(dp1750
I00
F10.0
sI01
F0.0
ss(i__main__
State
p1751
(dp1752
g3
F3.0
sg4
F4.0
sg5
F-3.0
sg6
F0.0
sb(dp1753
I00
F-15.985
sI01
I-47
ss(i__main__
State
p1754
(dp1755
g3
F7.0
sg4
F9.0
sg5
F-7.0
sg6
F-4.0
sb(dp1756
I00
F36.91
sI01
F0.0
ss(i__main__
State
p1757
(dp1758
g3
F-3.0
sg4
F9.0
sg5
F3.0
sg6
F2.0
sb(dp1759
I00
F23.656070748720005
sI01
F0.0
ss(i__main__
State
p1760
(dp1761
g3
F5.0
sg4
F1.0
sg5
F-5.0
sg6
F0.0
sb(dp1762
I00
F-13.392
sI01
F41.3695
ss(i__main__
State
p1763
(dp1764
g3
F-7.0
sg4
F2.0
sg5
F7.0
sg6
F-8.0
sb(dp1765
I00
I29
sI01
F60.3
ss(i__main__
State
p1766
(dp1767
g3
F-3.0
sg4
F0.0
sg5
F3.0
sg6
F4.0
sb(dp1768
I00
F17.079632748614433
sI01
F-26.394735367999992
ss(i__main__
State
p1769
(dp1770
g3
F0.0
sg4
F9.0
sg5
F0.0
sg6
F-2.0
sb(dp1771
I00
F-155.61
sI01
F141.61733242967208
ss(i__main__
State
p1772
(dp1773
g3
F0.0
sg4
F6.0
sg5
F0.0
sg6
F-6.0
sb(dp1774
I00
F-35.83
sI01
I-67
ss(i__main__
State
p1775
(dp1776
g3
F-6.0
sg4
F4.0
sg5
F6.0
sg6
F4.0
sb(dp1777
I00
F-28.619999999999997
sI01
F26.32158483215376
ss(i__main__
State
p1778
(dp1779
g3
F8.0
sg4
F3.0
sg5
F-8.0
sg6
F2.0
sb(dp1780
I00
I-70
sI01
F81.7
ss(i__main__
State
p1781
(dp1782
g3
F-2.0
sg4
F8.0
sg5
F2.0
sg6
F8.0
sb(dp1783
I00
F42.1799
sI01
F36.94174485536
ss(i__main__
State
p1784
(dp1785
g3
F7.0
sg4
F9.0
sg5
F-7.0
sg6
F6.0
sb(dp1786
I00
F89.46881814000001
sI01
F10.0
ss(i__main__
State
p1787
(dp1788
g3
F-5.0
sg4
F1.0
sg5
F5.0
sg6
F4.0
sb(dp1789
I00
F69.0
sI01
F90.47471
ss(i__main__
State
p1790
(dp1791
g3
F-2.0
sg4
F5.0
sg5
F2.0
sg6
F-8.0
sb(dp1792
I00
F34.087543999999994
sI01
F34.933828926
ss(i__main__
State
p1793
(dp1794
g3
F-1.0
sg4
F9.0
sg5
F1.0
sg6
F-8.0
sb(dp1795
I00
F29.29933
sI01
F0.0
ss(i__main__
State
p1796
(dp1797
g3
F-2.0
sg4
F1.0
sg5
F2.0
sg6
F0.0
sb(dp1798
I00
I-91
sI01
F53.6808
ss(i__main__
State
p1799
(dp1800
g3
F-2.0
sg4
F0.0
sg5
F2.0
sg6
F-2.0
sb(dp1801
I00
F-23.860999999999997
sI01
F55.1
ss(i__main__
State
p1802
(dp1803
g3
F-3.0
sg4
F5.0
sg5
F3.0
sg6
F-8.0
sb(dp1804
I00
F9.8
sI01
I78
ss(i__main__
State
p1805
(dp1806
g3
F8.0
sg4
F10.0
sg5
F-8.0
sg6
F0.0
sb(dp1807
I00
F85.595084872
sI01
F13.3
ss(i__main__
State
p1808
(dp1809
g3
F-4.0
sg4
F5.0
sg5
F4.0
sg6
F-8.0
sb(dp1810
I00
F92.1
sI01
I72
ss(i__main__
State
p1811
(dp1812
g3
F-4.0
sg4
F3.0
sg5
F4.0
sg6
F-2.0
sb(dp1813
I00
I-67
sI01
F61.2
ss(i__main__
State
p1814
(dp1815
g3
F2.0
sg4
F1.0
sg5
F-2.0
sg6
F-4.0
sb(dp1816
I00
F-87.1
sI01
I12
ss(i__main__
State
p1817
(dp1818
g3
F-5.0
sg4
F3.0
sg5
F5.0
sg6
F2.0
sb(dp1819
I00
I-24
sI01
F27.286856953406673
ss(i__main__
State
p1820
(dp1821
g3
F-8.0
sg4
F4.0
sg5
F8.0
sg6
F-2.0
sb(dp1822
I00
F6.33492
sI01
I-92
ss(i__main__
State
p1823
(dp1824
g3
F-4.0
sg4
F6.0
sg5
F4.0
sg6
F8.0
sb(dp1825
I00
I2
sI01
F30.0243478
ss(i__main__
State
p1826
(dp1827
g3
F3.0
sg4
F1.0
sg5
F-3.0
sg6
F-4.0
sb(dp1828
I00
F-72.8
sI01
F65.6031
ss(i__main__
State
p1829
(dp1830
g3
F-6.0
sg4
F4.0
sg5
F6.0
sg6
F6.0
sb(dp1831
I00
F-91.1
sI01
F62.070326388
ss(i__main__
State
p1832
(dp1833
g3
F-8.0
sg4
F7.0
sg5
F8.0
sg6
F8.0
sb(dp1834
I00
I-88
sI01
F47.9
ss(i__main__
State
p1835
(dp1836
g3
F4.0
sg4
F8.0
sg5
F-4.0
sg6
F8.0
sb(dp1837
I00
F93.8655330896905
sI01
F28.93274746775911
ss(i__main__
State
p1838
(dp1839
g3
F3.0
sg4
F6.0
sg5
F-3.0
sg6
F0.0
sb(dp1840
I00
F-27.733999599999997
sI01
I-90
ss(i__main__
State
p1841
(dp1842
g3
F-7.0
sg4
F10.0
sg5
F7.0
sg6
F6.0
sb(dp1843
I00
F159.5276842455809
sI01
F13.008000000000001
ss(i__main__
State
p1844
(dp1845
g3
F6.0
sg4
F3.0
sg5
F-6.0
sg6
F8.0
sb(dp1846
I00
F61.08262313739001
sI01
I-50
ss(i__main__
State
p1847
(dp1848
g3
F0.0
sg4
F2.0
sg5
F0.0
sg6
F8.0
sb(dp1849
I00
F11.3454067802
sI01
F72.23865800401812
ss(i__main__
State
p1850
(dp1851
g3
F0.0
sg4
F4.0
sg5
F0.0
sg6
F-2.0
sb(dp1852
I00
F79.8
sI01
I-26
ss(i__main__
State
p1853
(dp1854
g3
F6.0
sg4
F9.0
sg5
F-6.0
sg6
F-2.0
sb(dp1855
I00
F-72.50573000000001
sI01
F19.742655629753003
ss(i__main__
State
p1856
(dp1857
g3
F-4.0
sg4
F5.0
sg5
F4.0
sg6
F2.0
sb(dp1858
I00
F-69.3
sI01
F-51.2
ss(i__main__
State
p1859
(dp1860
g3
F1.0
sg4
F8.0
sg5
F-1.0
sg6
F8.0
sb(dp1861
I00
F10.0
sI01
F0.0
ss(i__main__
State
p1862
(dp1863
g3
F-1.0
sg4
F9.0
sg5
F1.0
sg6
F2.0
sb(dp1864
I00
F64.02711568000001
sI01
F16.2933416
ss(i__main__
State
p1865
(dp1866
g3
F-2.0
sg4
F10.0
sg5
F2.0
sg6
F0.0
sb(dp1867
I00
F30.0
sI01
F93.08524576871
ss(i__main__
State
p1868
(dp1869
g3
F-2.0
sg4
F6.0
sg5
F2.0
sg6
F-2.0
sb(dp1870
I00
I-84
sI01
F13.059486405
ss(i__main__
State
p1871
(dp1872
g3
F-7.0
sg4
F7.0
sg5
F7.0
sg6
F-8.0
sb(dp1873
I00
I-97
sI01
F77.4
ss(i__main__
State
p1874
(dp1875
g3
F-2.0
sg4
F9.0
sg5
F2.0
sg6
F-6.0
sb(dp1876
I00
F21.18
sI01
F12.9933
ss(i__main__
State
p1877
(dp1878
g3
F-1.0
sg4
F0.0
sg5
F1.0
sg6
F-4.0
sb(dp1879
I00
F-15.576999999999998
sI01
I-59
ss(i__main__
State
p1880
(dp1881
g3
F6.0
sg4
F0.0
sg5
F-6.0
sg6
F-2.0
sb(dp1882
I00
F38.7432
sI01
I-56
ss(i__main__
State
p1883
(dp1884
g3
F8.0
sg4
F0.0
sg5
F-8.0
sg6
F-4.0
sb(dp1885
I00
I-78
sI01
F75.32664
ss(i__main__
State
p1886
(dp1887
g3
F1.0
sg4
F5.0
sg5
F-1.0
sg6
F-6.0
sb(dp1888
I00
I-44
sI01
F-27.46161
ss(i__main__
State
p1889
(dp1890
g3
F7.0
sg4
F4.0
sg5
F-7.0
sg6
F-8.0
sb(dp1891
I00
F-54.7
sI01
F4.411022000000003
ss(i__main__
State
p1892
(dp1893
g3
F3.0
sg4
F3.0
sg5
F-3.0
sg6
F2.0
sb(dp1894
I00
I-65
sI01
F-37.59
ss(i__main__
State
p1895
(dp1896
g3
F-2.0
sg4
F6.0
sg5
F2.0
sg6
F4.0
sb(dp1897
I00
I23
sI01
F63.31398
ss(i__main__
State
p1898
(dp1899
g3
F-2.0
sg4
F10.0
sg5
F2.0
sg6
F-6.0
sb(dp1900
I00
F109.13394609737601
sI01
F49.55662000000001
ss(i__main__
State
p1901
(dp1902
g3
F5.0
sg4
F8.0
sg5
F-5.0
sg6
F4.0
sb(dp1903
I00
F77.07119718502639
sI01
F0.0
ss(i__main__
State
p1904
(dp1905
g3
F5.0
sg4
F0.0
sg5
F-5.0
sg6
F0.0
sb(dp1906
I00
F7.065518222700002
sI01
F28.395
ss(i__main__
State
p1907
(dp1908
g3
F1.0
sg4
F8.0
sg5
F-1.0
sg6
F-4.0
sb(dp1909
I00
F10.0
sI01
F0.0
ss(i__main__
State
p1910
(dp1911
g3
F0.0
sg4
F4.0
sg5
F0.0
sg6
F4.0
sb(dp1912
I00
I62
sI01
F7.66
ss(i__main__
State
p1913
(dp1914
g3
F-4.0
sg4
F9.0
sg5
F4.0
sg6
F0.0
sb(dp1915
I00
F-1897.0900000000001
sI01
F-1881.4520601544168
ss(i__main__
State
p1916
(dp1917
g3
F6.0
sg4
F1.0
sg5
F-6.0
sg6
F6.0
sb(dp1918
I00
I-25
sI01
F87.37815543292272
ss(i__main__
State
p1919
(dp1920
g3
F-6.0
sg4
F4.0
sg5
F6.0
sg6
F-8.0
sb(dp1921
I00
F90.545
sI01
I6
ss(i__main__
State
p1922
(dp1923
g3
F4.0
sg4
F10.0
sg5
F-4.0
sg6
F0.0
sb(dp1924
I00
F0.0
sI01
F88.5330586063467
ss(i__main__
State
p1925
(dp1926
g3
F0.0
sg4
F2.0
sg5
F0.0
sg6
F-6.0
sb(dp1927
I00
F-11.826099999999999
sI01
I-51
ss(i__main__
State
p1928
(dp1929
g3
F3.0
sg4
F5.0
sg5
F-3.0
sg6
F-6.0
sb(dp1930
I00
F64.8
sI01
I26
ss(i__main__
State
p1931
(dp1932
g3
F8.0
sg4
F7.0
sg5
F-8.0
sg6
F-2.0
sb(dp1933
I00
F9.711199999999998
sI01
I-60
ss(i__main__
State
p1934
(dp1935
g3
F-7.0
sg4
F4.0
sg5
F7.0
sg6
F-4.0
sb(dp1936
I00
I-50
sI01
F10.207991661000001
ss(i__main__
State
p1937
(dp1938
g3
F7.0
sg4
F2.0
sg5
F-7.0
sg6
F2.0
sb(dp1939
I00
F-71.9042
sI01
F15.3034490526
ss(i__main__
State
p1940
(dp1941
g3
F4.0
sg4
F5.0
sg5
F-4.0
sg6
F-2.0
sb(dp1942
I00
F46.660016600000006
sI01
F39.752134999999996
ss(i__main__
State
p1943
(dp1944
g3
F-7.0
sg4
F6.0
sg5
F7.0
sg6
F-8.0
sb(dp1945
I00
F25.2406
sI01
F32.118930399999996
ss(i__main__
State
p1946
(dp1947
g3
F-7.0
sg4
F3.0
sg5
F7.0
sg6
F0.0
sb(dp1948
I00
F11.40836542453172
sI01
F69.7294
ss(i__main__
State
p1949
(dp1950
g3
F4.0
sg4
F1.0
sg5
F-4.0
sg6
F6.0
sb(dp1951
I00
F-69.9
sI01
F39.40839915
ss(i__main__
State
p1952
(dp1953
g3
F-1.0
sg4
F10.0
sg5
F1.0
sg6
F2.0
sb(dp1954
I00
F60.684605000000005
sI01
F15.4987495
ss(i__main__
State
p1955
(dp1956
g3
F8.0
sg4
F6.0
sg5
F-8.0
sg6
F-8.0
sb(dp1957
I00
F-32.58
sI01
F52.619465707464
ss(i__main__
State
p1958
(dp1959
g3
F0.0
sg4
F5.0
sg5
F0.0
sg6
F2.0
sb(dp1960
I00
F-1.516339796399997
sI01
F-51.9
ss(i__main__
State
p1961
(dp1962
g3
F1.0
sg4
F7.0
sg5
F-1.0
sg6
F-2.0
sb(dp1963
I00
I-39
sI01
F-27.0
ss(i__main__
State
p1964
(dp1965
g3
F8.0
sg4
F3.0
sg5
F-8.0
sg6
F6.0
sb(dp1966
I00
I-27
sI01
F-18.7
ss(i__main__
State
p1967
(dp1968
g3
F-7.0
sg4
F0.0
sg5
F7.0
sg6
F-4.0
sb(dp1969
I00
I-61
sI01
F6.442210200000003
ss(i__main__
State
p1970
(dp1971
g3
F8.0
sg4
F9.0
sg5
F-8.0
sg6
F4.0
sb(dp1972
I00
F31.0
sI01
F10.0
ss(i__main__
State
p1973
(dp1974
g3
F-2.0
sg4
F0.0
sg5
F2.0
sg6
F4.0
sb(dp1975
I00
F-38.164246500000004
sI01
I-86
ss(i__main__
State
p1976
(dp1977
g3
F-2.0
sg4
F8.0
sg5
F2.0
sg6
F-6.0
sb(dp1978
I00
F38.1
sI01
F11.100000000000001
ss(i__main__
State
p1979
(dp1980
g3
F-1.0
sg4
F6.0
sg5
F1.0
sg6
F6.0
sb(dp1981
I00
F0.21687852000000163
sI01
I-80
ss(i__main__
State
p1982
(dp1983
g3
F5.0
sg4
F5.0
sg5
F-5.0
sg6
F4.0
sb(dp1984
I00
F26.0225
sI01
I-4
ss(i__main__
State
p1985
(dp1986
g3
F3.0
sg4
F0.0
sg5
F-3.0
sg6
F4.0
sb(dp1987
I00
F55.69960561989774
sI01
F34.67533306999999
ss(i__main__
State
p1988
(dp1989
g3
F0.0
sg4
F6.0
sg5
F0.0
sg6
F0.0
sb(dp1990
I00
F39.717488
sI01
I-14
ss(i__main__
State
p1991
(dp1992
g3
F3.0
sg4
F2.0
sg5
F-3.0
sg6
F-6.0
sb(dp1993
I00
I-59
sI01
F-28.3840283384
ss(i__main__
State
p1994
(dp1995
g3
F-4.0
sg4
F4.0
sg5
F4.0
sg6
F4.0
sb(dp1996
I00
F-45.44267
sI01
F-3.3841477999999996
ss(i__main__
State
p1997
(dp1998
g3
F-7.0
sg4
F1.0
sg5
F7.0
sg6
F0.0
sb(dp1999
I00
I-65
sI01
F56.03457767333
ss(i__main__
State
p2000
(dp2001
g3
F7.0
sg4
F7.0
sg5
F-7.0
sg6
F-2.0
sb(dp2002
I00
F0.8000000000000007
sI01
F64.0137956
ss(i__main__
State
p2003
(dp2004
g3
F5.0
sg4
F10.0
sg5
F-5.0
sg6
F6.0
sb(dp2005
I00
F75.2140887
sI01
F15.990000000000002
ss(i__main__
State
p2006
(dp2007
g3
F2.0
sg4
F9.0
sg5
F-2.0
sg6
F-8.0
sb(dp2008
I00
F30.336151200000003
sI01
F29.62
ss(i__main__
State
p2009
(dp2010
g3
F3.0
sg4
F6.0
sg5
F-3.0
sg6
F-4.0
sb(dp2011
I00
F77.75322335202
sI01
I47
ss(i__main__
State
p2012
(dp2013
g3
F-7.0
sg4
F0.0
sg5
F7.0
sg6
F-2.0
sb(dp2014
I00
F69.37123015479999
sI01
I-55
ss(i__main__
State
p2015
(dp2016
g3
F3.0
sg4
F5.0
sg5
F-3.0
sg6
F0.0
sb(dp2017
I00
F-24.6
sI01
F20.311766
ss(i__main__
State
p2018
(dp2019
g3
F3.0
sg4
F9.0
sg5
F-3.0
sg6
F-8.0
sb(dp2020
I00
F95.26723256477285
sI01
F0.0
ss(i__main__
State
p2021
(dp2022
g3
F5.0
sg4
F9.0
sg5
F-5.0
sg6
F8.0
sb(dp2023
I00
F40.1018
sI01
F0.0
ss(i__main__
State
p2024
(dp2025
g3
F5.0
sg4
F7.0
sg5
F-5.0
sg6
F-6.0
sb(dp2026
I00
F40.568328
sI01
I-24
ss(i__main__
State
p2027
(dp2028
g3
F-3.0
sg4
F7.0
sg5
F3.0
sg6
F8.0
sb(dp2029
I00
F49.12101827032917
sI01
F-40.3
ss(i__main__
State
p2030
(dp2031
g3
F0.0
sg4
F7.0
sg5
F0.0
sg6
F2.0
sb(dp2032
I00
F54.81619032374247
sI01
I-83
ss(i__main__
State
p2033
(dp2034
g3
F0.0
sg4
F10.0
sg5
F0.0
sg6
F4.0
sb(dp2035
I00
F-1000.0
sI01
F-994.948
ss(i__main__
State
p2036
(dp2037
g3
F6.0
sg4
F9.0
sg5
F-6.0
sg6
F-6.0
sb(dp2038
I00
F0.0
sI01
F32.55524
ss(i__main__
State
p2039
(dp2040
g3
F-5.0
sg4
F7.0
sg5
F5.0
sg6
F6.0
sb(dp2041
I00
F41.4
sI01
I-100
ss(i__main__
State
p2042
(dp2043
g3
F3.0
sg4
F10.0
sg5
F-3.0
sg6
F-8.0
sb(dp2044
I00
F68.304342748
sI01
F37.29584800000001
ss(i__main__
State
p2045
(dp2046
g3
F1.0
sg4
F0.0
sg5
F-1.0
sg6
F4.0
sb(dp2047
I00
F91.3756
sI01
F-38.8
ss(i__main__
State
p2048
(dp2049
g3
F3.0
sg4
F1.0
sg5
F-3.0
sg6
F4.0
sb(dp2050
I00
I-22
sI01
F20.577999999999996
ss(i__main__
State
p2051
(dp2052
g3
F5.0
sg4
F5.0
sg5
F-5.0
sg6
F-4.0
sb(dp2053
I00
F66.924384
sI01
I-24
ss(i__main__
State
p2054
(dp2055
g3
F3.0
sg4
F8.0
sg5
F-3.0
sg6
F-6.0
sb(dp2056
I00
F94.64761125967999
sI01
F13.071000000000002
ss(i__main__
State
p2057
(dp2058
g3
F-1.0
sg4
F4.0
sg5
F1.0
sg6
F6.0
sb(dp2059
I00
F79.8
sI01
I-73
ss(i__main__
State
p2060
(dp2061
g3
F-1.0
sg4
F8.0
sg5
F1.0
sg6
F-8.0
sb(dp2062
I00
F20.0
sI01
F0.0
ss(i__main__
State
p2063
(dp2064
g3
F-3.0
sg4
F8.0
sg5
F3.0
sg6
F4.0
sb(dp2065
I00
F30.608145424600004
sI01
F0.0
ss(i__main__
State
p2066
(dp2067
g3
F-2.0
sg4
F6.0
sg5
F2.0
sg6
F-8.0
sb(dp2068
I00
F-11.672098859999998
sI01
I-65
ss(i__main__
State
p2069
(dp2070
g3
F-3.0
sg4
F8.0
sg5
F3.0
sg6
F2.0
sb(dp2071
I00
F147.65032447461914
sI01
F10.0
ss(i__main__
State
p2072
(dp2073
g3
F1.0
sg4
F2.0
sg5
F-1.0
sg6
F-6.0
sb(dp2074
I00
F34.8072
sI01
F29.29
ss(i__main__
State
p2075
(dp2076
g3
F5.0
sg4
F8.0
sg5
F-5.0
sg6
F0.0
sb(dp2077
I00
F10.0
sI01
F0.0
ss(i__main__
State
p2078
(dp2079
g3
F0.0
sg4
F8.0
sg5
F0.0
sg6
F-4.0
sb(dp2080
I00
F-1895.2
sI01
F-1000.0
ss(i__main__
State
p2081
(dp2082
g3
F-7.0
sg4
F3.0
sg5
F7.0
sg6
F-4.0
sb(dp2083
I00
I-25
sI01
F-5.0
ss(i__main__
State
p2084
(dp2085
g3
F4.0
sg4
F0.0
sg5
F-4.0
sg6
F2.0
sb(dp2086
I00
F60.44470035720681
sI01
I29
ss(i__main__
State
p2087
(dp2088
g3
F7.0
sg4
F3.0
sg5
F-7.0
sg6
F8.0
sb(dp2089
I00
F-19.0207123
sI01
I-77
ss(i__main__
State
p2090
(dp2091
g3
F-4.0
sg4
F9.0
sg5
F4.0
sg6
F4.0
sb(dp2092
I00
F51.8769082167108
sI01
F0.0
ss(i__main__
State
p2093
(dp2094
g3
F6.0
sg4
F1.0
sg5
F-6.0
sg6
F2.0
sb(dp2095
I00
I33
sI01
F-31.4
ss(i__main__
State
p2096
(dp2097
g3
F2.0
sg4
F4.0
sg5
F-2.0
sg6
F4.0
sb(dp2098
I00
F-53.11
sI01
I-6
ss(i__main__
State
p2099
(dp2100
g3
F3.0
sg4
F4.0
sg5
F-3.0
sg6
F8.0
sb(dp2101
I00
F50.71570781
sI01
F70.30451893840001
ss(i__main__
State
p2102
(dp2103
g3
F3.0
sg4
F1.0
sg5
F-3.0
sg6
F6.0
sb(dp2104
I00
F35.3
sI01
I-2
ss(i__main__
State
p2105
(dp2106
g3
F-5.0
sg4
F5.0
sg5
F5.0
sg6
F6.0
sb(dp2107
I00
F20.8
sI01
F29.525684
ss(i__main__
State
p2108
(dp2109
g3
F-8.0
sg4
F7.0
sg5
F8.0
sg6
F2.0
sb(dp2110
I00
F1.4000000000000004
sI01
I-97
ss(i__main__
State
p2111
(dp2112
g3
F7.0
sg4
F2.0
sg5
F-7.0
sg6
F6.0
sb(dp2113
I00
I-75
sI01
F41.8
ss(i__main__
State
p2114
(dp2115
g3
F-3.0
sg4
F4.0
sg5
F3.0
sg6
F-2.0
sb(dp2116
I00
I-49
sI01
F8.365380000000002
ss(i__main__
State
p2117
(dp2118
g3
F5.0
sg4
F7.0
sg5
F-5.0
sg6
F-4.0
sb(dp2119
I00
F88.49127125499999
sI01
F9.39
ss(i__main__
State
p2120
(dp2121
g3
F2.0
sg4
F8.0
sg5
F-2.0
sg6
F8.0
sb(dp2122
I00
F21.4805241
sI01
F14.292456201
ss(i__main__
State
p2123
(dp2124
g3
F2.0
sg4
F0.0
sg5
F-2.0
sg6
F-6.0
sb(dp2125
I00
I79
sI01
F86.20711992
ss(i__main__
State
p2126
(dp2127
g3
F-7.0
sg4
F4.0
sg5
F7.0
sg6
F2.0
sb(dp2128
I00
F53.8477611
sI01
F69.38999999999999
ss(i__main__
State
p2129
(dp2130
g3
F-1.0
sg4
F2.0
sg5
F1.0
sg6
F6.0
sb(dp2131
I00
I-74
sI01
F-55.9
ss(i__main__
State
p2132
(dp2133
g3
F5.0
sg4
F2.0
sg5
F-5.0
sg6
F-2.0
sb(dp2134
I00
F0.81
sI01
I-93
ss(i__main__
State
p2135
(dp2136
g3
F-4.0
sg4
F5.0
sg5
F4.0
sg6
F8.0
sb(dp2137
I00
F4.300000000000001
sI01
I-7
ss(i__main__
State
p2138
(dp2139
g3
F6.0
sg4
F5.0
sg5
F-6.0
sg6
F2.0
sb(dp2140
I00
I-67
sI01
F37.028321500000004
ss(i__main__
State
p2141
(dp2142
g3
F-1.0
sg4
F9.0
sg5
F1.0
sg6
F4.0
sb(dp2143
I00
F10.0
sI01
F0.0
ss(i__main__
State
p2144
(dp2145
g3
F1.0
sg4
F7.0
sg5
F-1.0
sg6
F0.0
sb(dp2146
I00
F70.716927170598
sI01
F-51.84
ss(i__main__
State
p2147
(dp2148
g3
F-5.0
sg4
F4.0
sg5
F5.0
sg6
F0.0
sb(dp2149
I00
F67.05
sI01
F57.36441351379256
ss(i__main__
State
p2150
(dp2151
g3
F-6.0
sg4
F6.0
sg5
F6.0
sg6
F0.0
sb(dp2152
I00
I-41
sI01
F53.55991383
ss(i__main__
State
p2153
(dp2154
g3
F7.0
sg4
F0.0
sg5
F-7.0
sg6
F-8.0
sb(dp2155
I00
F76.66000000000001
sI01
F70.12599999999999
ss(i__main__
State
p2156
(dp2157
g3
F-2.0
sg4
F2.0
sg5
F2.0
sg6
F-4.0
sb(dp2158
I00
F63.11427793864435
sI01
F-50.85450000000001
ss(i__main__
State
p2159
(dp2160
g3
F-6.0
sg4
F10.0
sg5
F6.0
sg6
F-2.0
sb(dp2161
I00
F10.0
sI01
F0.0
ss(i__main__
State
p2162
(dp2163
g3
F1.0
sg4
F4.0
sg5
F-1.0
sg6
F-2.0
sb(dp2164
I00
F25.21490744
sI01
F30.490465994908607
ss(i__main__
State
p2165
(dp2166
g3
F3.0
sg4
F1.0
sg5
F-3.0
sg6
F8.0
sb(dp2167
I00
F-62.3
sI01
F-0.602834999999998
ss(i__main__
State
p2168
(dp2169
g3
F-7.0
sg4
F7.0
sg5
F7.0
sg6
F4.0
sb(dp2170
I00
I-79
sI01
F-40.99315499889
ss(i__main__
State
p2171
(dp2172
g3
F-5.0
sg4
F6.0
sg5
F5.0
sg6
F-2.0
sb(dp2173
I00
F-18.4937484
sI01
F-71.886019
ss(i__main__
State
p2174
(dp2175
g3
F-8.0
sg4
F9.0
sg5
F8.0
sg6
F4.0
sb(dp2176
I00
F11.201
sI01
F0.0
ss(i__main__
State
p2177
(dp2178
g3
F-7.0
sg4
F5.0
sg5
F7.0
sg6
F8.0
sb(dp2179
I00
F24.662606328000003
sI01
F-75.0
ss(i__main__
State
p2180
(dp2181
g3
F0.0
sg4
F3.0
sg5
F0.0
sg6
F-8.0
sb(dp2182
I00
I-61
sI01
F-13.20613
ss(i__main__
State
p2183
(dp2184
g3
F7.0
sg4
F5.0
sg5
F-7.0
sg6
F-2.0
sb(dp2185
I00
F36.9666
sI01
F-65.6
ss(i__main__
State
p2186
(dp2187
g3
F-4.0
sg4
F2.0
sg5
F4.0
sg6
F-4.0
sb(dp2188
I00
I-67
sI01
F15.690000000000001
ss(i__main__
State
p2189
(dp2190
g3
F4.0
sg4
F10.0
sg5
F-4.0
sg6
F-2.0
sb(dp2191
I00
F20.0
sI01
F0.0
ss(i__main__
State
p2192
(dp2193
g3
F-1.0
sg4
F5.0
sg5
F1.0
sg6
F8.0
sb(dp2194
I00
F79.90787472
sI01
F73.610556
ss(i__main__
State
p2195
(dp2196
g3
F-8.0
sg4
F1.0
sg5
F8.0
sg6
F-2.0
sb(dp2197
I00
F54.37695113070001
sI01
I27
ss(i__main__
State
p2198
(dp2199
g3
F3.0
sg4
F7.0
sg5
F-3.0
sg6
F0.0
sb(dp2200
I00
I-85
sI01
F2.705762917856404
ss(i__main__
State
p2201
(dp2202
g3
F3.0
sg4
F10.0
sg5
F-3.0
sg6
F6.0
sb(dp2203
I00
F48.3645
sI01
F0.0
ss(i__main__
State
p2204
(dp2205
g3
F8.0
sg4
F4.0
sg5
F-8.0
sg6
F-2.0
sb(dp2206
I00
F31.1
sI01
I-8
ss(i__main__
State
p2207
(dp2208
g3
F1.0
sg4
F5.0
sg5
F-1.0
sg6
F4.0
sb(dp2209
I00
F57.434205999999996
sI01
F73.38350000000001
ss(i__main__
State
p2210
(dp2211
g3
F8.0
sg4
F0.0
sg5
F-8.0
sg6
F2.0
sb(dp2212
I00
F-11.168184317216
sI01
F34.689013636000006
ss(i__main__
State
p2213
(dp2214
g3
F-2.0
sg4
F8.0
sg5
F2.0
sg6
F2.0
sb(dp2215
I00
F30.009999999999998
sI01
F46.052080000000004
ss(i__main__
State
p2216
(dp2217
g3
F6.0
sg4
F0.0
sg5
F-6.0
sg6
F0.0
sb(dp2218
I00
F-54.67
sI01
F71.99654323
ss(i__main__
State
p2219
(dp2220
g3
F-8.0
sg4
F8.0
sg5
F8.0
sg6
F-2.0
sb(dp2221
I00
F96.5058469
sI01
F0.0
ss(i__main__
State
p2222
(dp2223
g3
F-2.0
sg4
F9.0
sg5
F2.0
sg6
F6.0
sb(dp2224
I00
F14.26572965113
sI01
F0.0
ss(i__main__
State
p2225
(dp2226
g3
F-6.0
sg4
F10.0
sg5
F6.0
sg6
F8.0
sb(dp2227
I00
F125.13193908219401
sI01
F34.96
ss(i__main__
State
p2228
(dp2229
g3
F-6.0
sg4
F1.0
sg5
F6.0
sg6
F0.0
sb(dp2230
I00
F30.07556323215644
sI01
I-72
ss(i__main__
State
p2231
(dp2232
g3
F1.0
sg4
F6.0
sg5
F-1.0
sg6
F-6.0
sb(dp2233
I00
F-27.158
sI01
F26.869262926827012
ss(i__main__
State
p2234
(dp2235
g3
F-1.0
sg4
F2.0
sg5
F1.0
sg6
F-2.0
sb(dp2236
I00
I-93
sI01
F22.753563837999998
ss(i__main__
State
p2237
(dp2238
g3
F-4.0
sg4
F8.0
sg5
F4.0
sg6
F2.0
sb(dp2239
I00
F109.37813019286307
sI01
F52.94176742690294
ss(i__main__
State
p2240
(dp2241
g3
F0.0
sg4
F1.0
sg5
F0.0
sg6
F-8.0
sb(dp2242
I00
F73.58427
sI01
I26
ss(i__main__
State
p2243
(dp2244
g3
F8.0
sg4
F2.0
sg5
F-8.0
sg6
F8.0
sb(dp2245
I00
F95.90910000000001
sI01
I-47
ss(i__main__
State
p2246
(dp2247
g3
F8.0
sg4
F4.0
sg5
F-8.0
sg6
F8.0
sb(dp2248
I00
F5.28284
sI01
F-12.6
ss(i__main__
State
p2249
(dp2250
g3
F-3.0
sg4
F0.0
sg5
F3.0
sg6
F0.0
sb(dp2251
I00
I21
sI01
F64.77891
ss(i__main__
State
p2252
(dp2253
g3
F-1.0
sg4
F3.0
sg5
F1.0
sg6
F4.0
sb(dp2254
I00
F35.5
sI01
F-30.7844156596
ss(i__main__
State
p2255
(dp2256
g3
F-6.0
sg4
F5.0
sg5
F6.0
sg6
F0.0
sb(dp2257
I00
I-33
sI01
F60.42680337996
ss(i__main__
State
p2258
(dp2259
g3
F1.0
sg4
F10.0
sg5
F-1.0
sg6
F-2.0
sb(dp2260
I00
F-333.6648
sI01
F64.225986676
ss(i__main__
State
p2261
(dp2262
g3
F-7.0
sg4
F1.0
sg5
F7.0
sg6
F-8.0
sb(dp2263
I00
F-31.20083166
sI01
F-58.989978303760005
ss(i__main__
State
p2264
(dp2265
g3
F-3.0
sg4
F9.0
sg5
F3.0
sg6
F-2.0
sb(dp2266
I00
F19.0
sI01
F103.84703229195203
ss(i__main__
State
p2267
(dp2268
g3
F-8.0
sg4
F6.0
sg5
F8.0
sg6
F-4.0
sb(dp2269
I00
F70.185763311
sI01
I57
ss(i__main__
State
p2270
(dp2271
g3
F7.0
sg4
F8.0
sg5
F-7.0
sg6
F-8.0
sb(dp2272
I00
F45.38500111
sI01
F30.13758
ss(i__main__
State
p2273
(dp2274
g3
F6.0
sg4
F0.0
sg5
F-6.0
sg6
F-8.0
sb(dp2275
I00
F73.60300000000001
sI01
I42
ss(i__main__
State
p2276
(dp2277
g3
F8.0
sg4
F4.0
sg5
F-8.0
sg6
F-8.0
sb(dp2278
I00
I39
sI01
F81.972136
ss(i__main__
State
p2279
(dp2280
g3
F-3.0
sg4
F2.0
sg5
F3.0
sg6
F-2.0
sb(dp2281
I00
F-71.37392747300001
sI01
F66.24377805973893
ss(i__main__
State
p2282
(dp2283
g3
F8.0
sg4
F10.0
sg5
F-8.0
sg6
F-2.0
sb(dp2284
I00
F20.0
sI01
F71.80342613081001
ss(i__main__
State
p2285
(dp2286
g3
F2.0
sg4
F2.0
sg5
F-2.0
sg6
F-2.0
sb(dp2287
I00
F-17.356299999999997
sI01
I-26
ss(i__main__
State
p2288
(dp2289
g3
F-1.0
sg4
F8.0
sg5
F1.0
sg6
F0.0
sb(dp2290
I00
F43.622909
sI01
F0.0
ss(i__main__
State
p2291
(dp2292
g3
F1.0
sg4
F8.0
sg5
F-1.0
sg6
F-6.0
sb(dp2293
I00
F-72.7
sI01
F95.50611128497002
ss(i__main__
State
p2294
(dp2295
g3
F0.0
sg4
F7.0
sg5
F0.0
sg6
F4.0
sb(dp2296
I00
F52.58132686407
sI01
F-70.576401
ss(i__main__
State
p2297
(dp2298
g3
F-8.0
sg4
F7.0
sg5
F8.0
sg6
F6.0
sb(dp2299
I00
F-79.341386
sI01
F-26.9
ss(i__main__
State
p2300
(dp2301
g3
F4.0
sg4
F4.0
sg5
F-4.0
sg6
F6.0
sb(dp2302
I00
F50.086258511362
sI01
F-26.38
ss(i__main__
State
p2303
(dp2304
g3
F-1.0
sg4
F5.0
sg5
F1.0
sg6
F-8.0
sb(dp2305
I00
I-15
sI01
F-12.26
ss(i__main__
State
p2306
(dp2307
g3
F-1.0
sg4
F1.0
sg5
F1.0
sg6
F0.0
sb(dp2308
I00
I16
sI01
F48.53439099999999
ss(i__main__
State
p2309
(dp2310
g3
F-2.0
sg4
F7.0
sg5
F2.0
sg6
F6.0
sb(dp2311
I00
F24.16181980114247
sI01
F14.6
ss(i__main__
State
p2312
(dp2313
g3
F4.0
sg4
F9.0
sg5
F-4.0
sg6
F-2.0
sb(dp2314
I00
F-179.3137
sI01
F12.261000000000001
ss(i__main__
State
p2315
(dp2316
g3
F5.0
sg4
F3.0
sg5
F-5.0
sg6
F-8.0
sb(dp2317
I00
F-19.509319708979998
sI01
I-38
ss(i__main__
State
p2318
(dp2319
g3
F5.0
sg4
F6.0
sg5
F-5.0
sg6
F-6.0
sb(dp2320
I00
I-29
sI01
F67.15500230331699
ss(i__main__
State
p2321
(dp2322
g3
F-1.0
sg4
F8.0
sg5
F1.0
sg6
F-2.0
sb(dp2323
I00
F129.25475344985605
sI01
F10.0
ss(i__main__
State
p2324
(dp2325
g3
F-6.0
sg4
F8.0
sg5
F6.0
sg6
F-4.0
sb(dp2326
I00
F103.44063982573999
sI01
F19.0
ss(i__main__
State
p2327
(dp2328
g3
F5.0
sg4
F9.0
sg5
F-5.0
sg6
F-2.0
sb(dp2329
I00
F19.0
sI01
F0.0
ss(i__main__
State
p2330
(dp2331
g3
F7.0
sg4
F1.0
sg5
F-7.0
sg6
F2.0
sb(dp2332
I00
I-81
sI01
F-36.489999999999995
ss(i__main__
State
p2333
(dp2334
g3
F-4.0
sg4
F2.0
sg5
F4.0
sg6
F8.0
sb(dp2335
I00
F-68.5
sI01
F-22.34282496899999
ss(i__main__
State
p2336
(dp2337
g3
F-3.0
sg4
F2.0
sg5
F3.0
sg6
F2.0
sb(dp2338
I00
I-65
sI01
F85.90202
ss(i__main__
State
p2339
(dp2340
g3
F-7.0
sg4
F4.0
sg5
F7.0
sg6
F-6.0
sb(dp2341
I00
I-42
sI01
F47.70502
ss(i__main__
State
p2342
(dp2343
g3
F-5.0
sg4
F5.0
sg5
F5.0
sg6
F-8.0
sb(dp2344
I00
I54
sI01
F81.8
ss(i__main__
State
p2345
(dp2346
g3
F-5.0
sg4
F0.0
sg5
F5.0
sg6
F6.0
sb(dp2347
I00
I9
sI01
F75.13696166
ss(i__main__
State
p2348
(dp2349
g3
F-3.0
sg4
F9.0
sg5
F3.0
sg6
F0.0
sb(dp2350
I00
F-2707.1
sI01
F-1898.3700000000001
ss(i__main__
State
p2351
(dp2352
g3
F-8.0
sg4
F1.0
sg5
F8.0
sg6
F-6.0
sb(dp2353
I00
I-93
sI01
F-18.61956010999999
ss(i__main__
State
p2354
(dp2355
g3
F-4.0
sg4
F1.0
sg5
F4.0
sg6
F2.0
sb(dp2356
I00
F82.64138000000001
sI01
I-42
ss(i__main__
State
p2357
(dp2358
g3
F-4.0
sg4
F0.0
sg5
F4.0
sg6
F-4.0
sb(dp2359
I00
F29.485015271459606
sI01
I-87
ss(i__main__
State
p2360
(dp2361
g3
F8.0
sg4
F8.0
sg5
F-8.0
sg6
F8.0
sb(dp2362
I00
F51.4209502109
sI01
F12.211300000000001
ss(i__main__
State
p2363
(dp2364
g3
F-6.0
sg4
F8.0
sg5
F6.0
sg6
F-8.0
sb(dp2365
I00
F0.0
sI01
F105.02999304806
ss(i__main__
State
p2366
(dp2367
g3
F7.0
sg4
F1.0
sg5
F-7.0
sg6
F-6.0
sb(dp2368
I00
F21.53
sI01
I-92
ss(i__main__
State
p2369
(dp2370
g3
F-1.0
sg4
F7.0
sg5
F1.0
sg6
F-8.0
sb(dp2371
I00
I-63
sI01
F-35.152
ss(i__main__
State
p2372
(dp2373
g3
F-8.0
sg4
F7.0
sg5
F8.0
sg6
F4.0
sb(dp2374
I00
F34.7
sI01
F58.055463825800004
ss(i__main__
State
p2375
(dp2376
g3
F-7.0
sg4
F4.0
sg5
F7.0
sg6
F-2.0
sb(dp2377
I00
I-10
sI01
F87.5
ss(i__main__
State
p2378
(dp2379
g3
F3.0
sg4
F0.0
sg5
F-3.0
sg6
F-4.0
sb(dp2380
I00
F-16.567506
sI01
I-94
ss(i__main__
State
p2381
(dp2382
g3
F8.0
sg4
F3.0
sg5
F-8.0
sg6
F0.0
sb(dp2383
I00
I-94
sI01
F15.069200000000002
ss(i__main__
State
p2384
(dp2385
g3
F7.0
sg4
F9.0
sg5
F-7.0
sg6
F4.0
sb(dp2386
I00
F21.9
sI01
F0.0
ss(i__main__
State
p2387
(dp2388
g3
F-2.0
sg4
F5.0
sg5
F2.0
sg6
F-6.0
sb(dp2389
I00
I13
sI01
F21.8
ss(i__main__
State
p2390
(dp2391
g3
F-2.0
sg4
F1.0
sg5
F2.0
sg6
F2.0
sb(dp2392
I00
I-50
sI01
F-26.5
ss(i__main__
State
p2393
(dp2394
g3
F-7.0
sg4
F2.0
sg5
F7.0
sg6
F0.0
sb(dp2395
I00
F45.618769494446
sI01
F45.206592693230725
ss(i__main__
State
p2396
(dp2397
g3
F5.0
sg4
F2.0
sg5
F-5.0
sg6
F-8.0
sb(dp2398
I00
F-43.994
sI01
F9.093252646020701
ss(i__main__
State
p2399
(dp2400
g3
F6.0
sg4
F10.0
sg5
F-6.0
sg6
F0.0
sb(dp2401
I00
F50.06575
sI01
F0.0
ss(i__main__
State
p2402
(dp2403
g3
F-1.0
sg4
F2.0
sg5
F1.0
sg6
F0.0
sb(dp2404
I00
I-23
sI01
F56.21017
ss(i__main__
State
p2405
(dp2406
g3
F-6.0
sg4
F2.0
sg5
F6.0
sg6
F2.0
sb(dp2407
I00
F3.3
sI01
F-70.65043
ss(i__main__
State
p2408
(dp2409
g3
F8.0
sg4
F10.0
sg5
F-8.0
sg6
F2.0
sb(dp2410
I00
F22.75573
sI01
F97.17230478460779
ss(i__main__
State
p2411
(dp2412
g3
F6.0
sg4
F5.0
sg5
F-6.0
sg6
F8.0
sb(dp2413
I00
F-14.5724908026498
sI01
I-79
ss(i__main__
State
p2414
(dp2415
g3
F4.0
sg4
F2.0
sg5
F-4.0
sg6
F-8.0
sb(dp2416
I00
F58.42145325600001
sI01
I-48
ss(i__main__
State
p2417
(dp2418
g3
F-3.0
sg4
F6.0
sg5
F3.0
sg6
F2.0
sb(dp2419
I00
F40.674
sI01
F59.382
ss(i__main__
State
p2420
(dp2421
g3
F7.0
sg4
F10.0
sg5
F-7.0
sg6
F8.0
sb(dp2422
I00
F20.0
sI01
F0.0
ss(i__main__
State
p2423
(dp2424
g3
F-7.0
sg4
F4.0
sg5
F7.0
sg6
F8.0
sb(dp2425
I00
F-46.2
sI01
I-65
ss(i__main__
State
p2426
(dp2427
g3
F-6.0
sg4
F6.0
sg5
F6.0
sg6
F-8.0
sb(dp2428
I00
I-94
sI01
F-62.7
ss(i__main__
State
p2429
(dp2430
g3
F6.0
sg4
F4.0
sg5
F-6.0
sg6
F4.0
sb(dp2431
I00
I-2
sI01
F75.3481
ss(i__main__
State
p2432
(dp2433
g3
F-6.0
sg4
F9.0
sg5
F6.0
sg6
F-4.0
sb(dp2434
I00
F0.0
sI01
F131.5284765690316
ss(i__main__
State
p2435
(dp2436
g3
F-6.0
sg4
F5.0
sg5
F6.0
sg6
F4.0
sb(dp2437
I00
F-29.521448326259993
sI01
F-59.1514708
ss(i__main__
State
p2438
(dp2439
g3
F6.0
sg4
F2.0
sg5
F-6.0
sg6
F-8.0
sb(dp2440
I00
F39.26820423684399
sI01
F-46.15
ss(i__main__
State
p2441
(dp2442
g3
F6.0
sg4
F8.0
sg5
F-6.0
sg6
F-6.0
sb(dp2443
I00
F166.98439696613576
sI01
F10.0
ss(i__main__
State
p2444
(dp2445
g3
F-8.0
sg4
F9.0
sg5
F8.0
sg6
F2.0
sb(dp2446
I00
F30.0
sI01
F11.61
ss(i__main__
State
p2447
(dp2448
g3
F-5.0
sg4
F7.0
sg5
F5.0
sg6
F2.0
sb(dp2449
I00
F5.8225500000000014
sI01
F-6.09
ss(i__main__
State
p2450
(dp2451
g3
F-4.0
sg4
F10.0
sg5
F4.0
sg6
F2.0
sb(dp2452
I00
F89.88626780000001
sI01
F29.73
ss(i__main__
State
p2453
(dp2454
g3
F4.0
sg4
F6.0
sg5
F-4.0
sg6
F-8.0
sb(dp2455
I00
F42.565
sI01
I-92
ss(i__main__
State
p2456
(dp2457
g3
F2.0
sg4
F3.0
sg5
F-2.0
sg6
F0.0
sb(dp2458
I00
F-9.1
sI01
I-100
ss(i__main__
State
p2459
(dp2460
g3
F1.0
sg4
F9.0
sg5
F-1.0
sg6
F2.0
sb(dp2461
I00
F35.53035148965
sI01
F0.0
ss(i__main__
State
p2462
(dp2463
g3
F-4.0
sg4
F7.0
sg5
F4.0
sg6
F4.0
sb(dp2464
I00
F-68.5
sI01
F-38.69
ss(i__main__
State
p2465
(dp2466
g3
F-6.0
sg4
F0.0
sg5
F6.0
sg6
F8.0
sb(dp2467
I00
I-60
sI01
F47.1397623
ss(i__main__
State
p2468
(dp2469
g3
F-4.0
sg4
F8.0
sg5
F4.0
sg6
F-6.0
sb(dp2470
I00
F85.2001274
sI01
F13.962000000000002
ss(i__main__
State
p2471
(dp2472
g3
F-5.0
sg4
F0.0
sg5
F5.0
sg6
F2.0
sb(dp2473
I00
I8
sI01
F29.1
ss(i__main__
State
p2474
(dp2475
g3
F-5.0
sg4
F4.0
sg5
F5.0
sg6
F2.0
sb(dp2476
I00
F46.19781266814237
sI01
F19.817855167374
ss(i__main__
State
p2477
(dp2478
g3
F-2.0
sg4
F10.0
sg5
F2.0
sg6
F2.0
sb(dp2479
I00
F30.0
sI01
F11.707963274861443
ss(i__main__
State
p2480
(dp2481
g3
F-2.0
sg4
F3.0
sg5
F2.0
sg6
F-6.0
sb(dp2482
I00
F42.350198
sI01
F74.14240459607659
ss(i__main__
State
p2483
(dp2484
g3
F-6.0
sg4
F8.0
sg5
F6.0
sg6
F0.0
sb(dp2485
I00
F63.076305969
sI01
F11.0
ss(i__main__
State
p2486
(dp2487
g3
F5.0
sg4
F4.0
sg5
F-5.0
sg6
F-8.0
sb(dp2488
I00
F74.243
sI01
I-100
ss(i__main__
State
p2489
(dp2490
g3
F-7.0
sg4
F7.0
sg5
F7.0
sg6
F-6.0
sb(dp2491
I00
F53.5428
sI01
I-4
ss(i__main__
State
p2492
(dp2493
g3
F-4.0
sg4
F6.0
sg5
F4.0
sg6
F6.0
sb(dp2494
I00
I-63
sI01
F31.581000000000003
ss(i__main__
State
p2495
(dp2496
g3
F8.0
sg4
F0.0
sg5
F-8.0
sg6
F-6.0
sb(dp2497
I00
F-28.18916
sI01
F-52.7382
ss(i__main__
State
p2498
(dp2499
g3
F7.0
sg4
F0.0
sg5
F-7.0
sg6
F4.0
sb(dp2500
I00
F-49.230000000000004
sI01
F60.92697797957686
ss(i__main__
State
p2501
(dp2502
g3
F1.0
sg4
F1.0
sg5
F-1.0
sg6
F-8.0
sb(dp2503
I00
F-21.217239999999997
sI01
I-63
ss(i__main__
State
p2504
(dp2505
g3
F-6.0
sg4
F4.0
sg5
F6.0
sg6
F-6.0
sb(dp2506
I00
I-35
sI01
F-2.5999999999999996
ss(i__main__
State
p2507
(dp2508
g3
F-2.0
sg4
F4.0
sg5
F2.0
sg6
F-6.0
sb(dp2509
I00
F60.29685255021731
sI01
F-47.28
ss(i__main__
State
p2510
(dp2511
g3
F1.0
sg4
F6.0
sg5
F-1.0
sg6
F-4.0
sb(dp2512
I00
F-17.092527190000002
sI01
F-37.778999999999996
ss(i__main__
State
p2513
(dp2514
g3
F-2.0
sg4
F6.0
sg5
F2.0
sg6
F6.0
sb(dp2515
I00
F66.9722830086269
sI01
F66.64878081402
ss(i__main__
State
p2516
(dp2517
g3
F-1.0
sg4
F2.0
sg5
F1.0
sg6
F-8.0
sb(dp2518
I00
F-7.920000000000002
sI01
F25.292187599306658
ss(i__main__
State
p2519
(dp2520
g3
F3.0
sg4
F10.0
sg5
F-3.0
sg6
F-4.0
sb(dp2521
I00
F77.83803036
sI01
F0.0
ss(i__main__
State
p2522
(dp2523
g3
F-7.0
sg4
F6.0
sg5
F7.0
sg6
F-6.0
sb(dp2524
I00
F61.834177999999994
sI01
F-59.362199999999994
ss(i__main__
State
p2525
(dp2526
g3
F5.0
sg4
F9.0
sg5
F-5.0
sg6
F6.0
sb(dp2527
I00
F49.45999714602705
sI01
F23.8
ss(i__main__
State
p2528
(dp2529
g3
F2.0
sg4
F5.0
sg5
F-2.0
sg6
F-8.0
sb(dp2530
I00
F32.1
sI01
F50.70923441800001
ss(i__main__
State
p2531
(dp2532
g3
F-7.0
sg4
F5.0
sg5
F7.0
sg6
F-8.0
sb(dp2533
I00
F-14.7
sI01
I-91
ss(i__main__
State
p2534
(dp2535
g3
F4.0
sg4
F8.0
sg5
F-4.0
sg6
F-8.0
sb(dp2536
I00
F121.00512821566
sI01
F25.253580000000003
ss(i__main__
State
p2537
(dp2538
g3
F0.0
sg4
F0.0
sg5
F0.0
sg6
F2.0
sb(dp2539
I00
I-65
sI01
F69.24
ss(i__main__
State
p2540
(dp2541
g3
F-7.0
sg4
F2.0
sg5
F7.0
sg6
F-6.0
sb(dp2542
I00
I-10
sI01
F-80.8
ss(i__main__
State
p2543
(dp2544
g3
F3.0
sg4
F9.0
sg5
F-3.0
sg6
F8.0
sb(dp2545
I00
F41.773868728000004
sI01
F0.0
ss(i__main__
State
p2546
(dp2547
g3
F4.0
sg4
F10.0
sg5
F-4.0
sg6
F2.0
sb(dp2548
I00
F0.0
sI01
F105.13093025866871
ss(i__main__
State
p2549
(dp2550
g3
F-4.0
sg4
F2.0
sg5
F4.0
sg6
F4.0
sb(dp2551
I00
F59.08
sI01
I-4
ss(i__main__
State
p2552
(dp2553
g3
F3.0
sg4
F5.0
sg5
F-3.0
sg6
F-8.0
sb(dp2554
I00
F52.02330276960001
sI01
F42.38849999999999
ss(i__main__
State
p2555
(dp2556
g3
F8.0
sg4
F7.0
sg5
F-8.0
sg6
F-4.0
sb(dp2557
I00
F72.76383086
sI01
I-55
ss(i__main__
State
p2558
(dp2559
g3
F7.0
sg4
F4.0
sg5
F-7.0
sg6
F-2.0
sb(dp2560
I00
F-13.534960893108003
sI01
I-14
ss(i__main__
State
p2561
(dp2562
g3
F-8.0
sg4
F9.0
sg5
F8.0
sg6
F-2.0
sb(dp2563
I00
F-319.67800000000005
sI01
F75.470561414
ss(i__main__
State
p2564
(dp2565
g3
F7.0
sg4
F2.0
sg5
F-7.0
sg6
F0.0
sb(dp2566
I00
F26.779999999999998
sI01
I-68
ss(i__main__
State
p2567
(dp2568
g3
F1.0
sg4
F10.0
sg5
F-1.0
sg6
F2.0
sb(dp2569
I00
F19.0
sI01
F105.87674629300001
ss(i__main__
State
p2570
(dp2571
g3
F1.0
sg4
F10.0
sg5
F-1.0
sg6
F-8.0
sb(dp2572
I00
F-81.0
sI01
F28.9987
ss(i__main__
State
p2573
(dp2574
g3
F-7.0
sg4
F3.0
sg5
F7.0
sg6
F2.0
sb(dp2575
I00
F-76.8
sI01
F-38.350986732143994
ss(i__main__
State
p2576
(dp2577
g3
F5.0
sg4
F0.0
sg5
F-5.0
sg6
F2.0
sb(dp2578
I00
I15
sI01
F34.61
ss(i__main__
State
p2579
(dp2580
g3
F0.0
sg4
F0.0
sg5
F0.0
sg6
F-6.0
sb(dp2581
I00
F2.813999999999999
sI01
F-65.8
ss(i__main__
State
p2582
(dp2583
g3
F5.0
sg4
F10.0
sg5
F-5.0
sg6
F4.0
sb(dp2584
I00
F10.0
sI01
F19.745904000000003
ss(i__main__
State
p2585
(dp2586
g3
F-4.0
sg4
F1.0
sg5
F4.0
sg6
F6.0
sb(dp2587
I00
F-85.37
sI01
F71.37969144555014
ss(i__main__
State
p2588
(dp2589
g3
F8.0
sg4
F6.0
sg5
F-8.0
sg6
F-6.0
sb(dp2590
I00
F54.5918216567
sI01
I-70
ss(i__main__
State
p2591
(dp2592
g3
F2.0
sg4
F5.0
sg5
F-2.0
sg6
F2.0
sb(dp2593
I00
F37.2665
sI01
I-46
ss(i__main__
State
p2594
(dp2595
g3
F0.0
sg4
F1.0
sg5
F0.0
sg6
F4.0
sb(dp2596
I00
F36.23700000000001
sI01
I-64
ss(i__main__
State
p2597
(dp2598
g3
F1.0
sg4
F3.0
sg5
F-1.0
sg6
F-8.0
sb(dp2599
I00
F40.718970000000006
sI01
I-19
ss(i__main__
State
p2600
(dp2601
g3
F5.0
sg4
F7.0
sg5
F-5.0
sg6
F8.0
sb(dp2602
I00
F-40.1820312048
sI01
F-75.97453527554
ss(i__main__
State
p2603
(dp2604
g3
F7.0
sg4
F5.0
sg5
F-7.0
sg6
F6.0
sb(dp2605
I00
F-7.482104230000001
sI01
F-30.384389999999996
ss(i__main__
State
p2606
(dp2607
g3
F8.0
sg4
F3.0
sg5
F-8.0
sg6
F4.0
sb(dp2608
I00
F78.36375565093898
sI01
F59.699
ss(i__main__
State
p2609
(dp2610
g3
F7.0
sg4
F0.0
sg5
F-7.0
sg6
F-2.0
sb(dp2611
I00
F70.59659327
sI01
F-63.482812
ss(i__main__
State
p2612
(dp2613
g3
F4.0
sg4
F3.0
sg5
F-4.0
sg6
F6.0
sb(dp2614
I00
F84.98100000000001
sI01
I-25
ss(i__main__
State
p2615
(dp2616
g3
F3.0
sg4
F8.0
sg5
F-3.0
sg6
F-8.0
sb(dp2617
I00
F10.0
sI01
F105.19443909880826
ss(i__main__
State
p2618
(dp2619
g3
F-1.0
sg4
F8.0
sg5
F1.0
sg6
F6.0
sb(dp2620
I00
F52.942281
sI01
F0.0
ss(i__main__
State
p2621
(dp2622
g3
F1.0
sg4
F6.0
sg5
F-1.0
sg6
F6.0
sb(dp2623
I00
F-63.2
sI01
F-1.6999999999999993
ss(i__main__
State
p2624
(dp2625
g3
F-1.0
sg4
F7.0
sg5
F1.0
sg6
F8.0
sb(dp2626
I00
F72.814
sI01
F-67.16499999999999
ss(i__main__
State
p2627
(dp2628
g3
F1.0
sg4
F7.0
sg5
F-1.0
sg6
F-4.0
sb(dp2629
I00
F-2.7642999999999995
sI01
I55
ss(i__main__
State
p2630
(dp2631
g3
F2.0
sg4
F4.0
sg5
F-2.0
sg6
F2.0
sb(dp2632
I00
I-64
sI01
F42.6629
ss(i__main__
State
p2633
(dp2634
g3
F-1.0
sg4
F4.0
sg5
F1.0
sg6
F-8.0
sb(dp2635
I00
F-41.2862139243
sI01
F7.5
ss(i__main__
State
p2636
(dp2637
g3
F5.0
sg4
F2.0
sg5
F-5.0
sg6
F-4.0
sb(dp2638
I00
I-94
sI01
F-8.642999999999997
ss(i__main__
State
p2639
(dp2640
g3
F2.0
sg4
F8.0
sg5
F-2.0
sg6
F-8.0
sb(dp2641
I00
F97.7944112145662
sI01
F26.805788303999996
ss(i__main__
State
p2642
(dp2643
g3
F-7.0
sg4
F5.0
sg5
F7.0
sg6
F2.0
sb(dp2644
I00
I-26
sI01
F52.64
ss(i__main__
State
p2645
(dp2646
g3
F-4.0
sg4
F6.0
sg5
F4.0
sg6
F-6.0
sb(dp2647
I00
F-51.8
sI01
I-88
ss(i__main__
State
p2648
(dp2649
g3
F7.0
sg4
F7.0
sg5
F-7.0
sg6
F-8.0
sb(dp2650
I00
F27.853429000000002
sI01
F97.49579594967672
ss(i__main__
State
p2651
(dp2652
g3
F-2.0
sg4
F3.0
sg5
F2.0
sg6
F8.0
sb(dp2653
I00
F-22.2
sI01
I-45
ss(i__main__
State
p2654
(dp2655
g3
F-5.0
sg4
F4.0
sg5
F5.0
sg6
F-6.0
sb(dp2656
I00
F13.1
sI01
F51.69867275000001
ss(i__main__
State
p2657
(dp2658
g3
F-6.0
sg4
F4.0
sg5
F6.0
sg6
F8.0
sb(dp2659
I00
F19.802879999999995
sI01
I-4
ss(i__main__
State
p2660
(dp2661
g3
F-6.0
sg4
F9.0
sg5
F6.0
sg6
F-8.0
sb(dp2662
I00
F72.97722097577301
sI01
F0.0
ss(i__main__
State
p2663
(dp2664
g3
F7.0
sg4
F0.0
sg5
F-7.0
sg6
F2.0
sb(dp2665
I00
F25.79
sI01
I-86
ss(i__main__
State
p2666
(dp2667
g3
F-8.0
sg4
F1.0
sg5
F8.0
sg6
F6.0
sb(dp2668
I00
F-30.808982
sI01
F56.1111
ss(i__main__
State
p2669
(dp2670
g3
F6.0
sg4
F6.0
sg5
F-6.0
sg6
F-6.0
sb(dp2671
I00
F-68.9
sI01
F44.40348655
ss(i__main__
State
p2672
(dp2673
g3
F4.0
sg4
F6.0
sg5
F-4.0
sg6
F0.0
sb(dp2674
I00
F42.934
sI01
F-61.24363298279532
ss(i__main__
State
p2675
(dp2676
g3
F-5.0
sg4
F5.0
sg5
F5.0
sg6
F-2.0
sb(dp2677
I00
F83.7680996
sI01
I51
ss(i__main__
State
p2678
(dp2679
g3
F-3.0
sg4
F8.0
sg5
F3.0
sg6
F-8.0
sb(dp2680
I00
F0.0
sI01
F77.141503516382
ss(i__main__
State
p2681
(dp2682
g3
F-4.0
sg4
F7.0
sg5
F4.0
sg6
F0.0
sb(dp2683
I00
I-25
sI01
F61.3
ss(i__main__
State
p2684
(dp2685
g3
F-4.0
sg4
F10.0
sg5
F4.0
sg6
F-2.0
sb(dp2686
I00
F67.685707819
sI01
F29.554992900000002
ss(i__main__
State
p2687
(dp2688
g3
F0.0
sg4
F3.0
sg5
F0.0
sg6
F8.0
sb(dp2689
I00
I9
sI01
F81.33
ss(i__main__
State
p2690
(dp2691
g3
F3.0
sg4
F0.0
sg5
F-3.0
sg6
F8.0
sb(dp2692
I00
F-7.7
sI01
I-48
ss(i__main__
State
p2693
(dp2694
g3
F-6.0
sg4
F1.0
sg5
F6.0
sg6
F6.0
sb(dp2695
I00
I41
sI01
F41.561
ss(i__main__
State
p2696
(dp2697
g3
F1.0
sg4
F4.0
sg5
F-1.0
sg6
F6.0
sb(dp2698
I00
F-1.0200000000000014
sI01
I-37
ss(i__main__
State
p2699
(dp2700
g3
F2.0
sg4
F10.0
sg5
F-2.0
sg6
F4.0
sb(dp2701
I00
F10.0
sI01
F0.0
ss(i__main__
State
p2702
(dp2703
g3
F-2.0
sg4
F2.0
sg5
F2.0
sg6
F6.0
sb(dp2704
I00
I-15
sI01
F22.003943446999997
ss(i__main__
State
p2705
(dp2706
g3
F-7.0
sg4
F5.0
sg5
F7.0
sg6
F-6.0
sb(dp2707
I00
F40.0
sI01
I-88
ss(i__main__
State
p2708
(dp2709
g3
F-3.0
sg4
F8.0
sg5
F3.0
sg6
F0.0
sb(dp2710
I00
F83.81765013182324
sI01
F25.802352900000002
ss(i__main__
State
p2711
(dp2712
g3
F5.0
sg4
F4.0
sg5
F-5.0
sg6
F-4.0
sb(dp2713
I00
F-28.480000000000004
sI01
F-79.575
ss(i__main__
State
p2714
(dp2715
g3
F5.0
sg4
F2.0
sg5
F-5.0
sg6
F2.0
sb(dp2716
I00
F13.42713217
sI01
F52.630900000000004
ss(i__main__
State
p2717
(dp2718
g3
F3.0
sg4
F8.0
sg5
F-3.0
sg6
F6.0
sb(dp2719
I00
F29.429245620099998
sI01
F0.0
ss(i__main__
State
p2720
(dp2721
g3
F7.0
sg4
F0.0
sg5
F-7.0
sg6
F0.0
sb(dp2722
I00
F30.2171642641
sI01
F6.9
ss(i__main__
State
p2723
(dp2724
g3
F4.0
sg4
F4.0
sg5
F-4.0
sg6
F-6.0
sb(dp2725
I00
F10.3413
sI01
I-1
ss(i__main__
State
p2726
(dp2727
g3
F-5.0
sg4
F2.0
sg5
F5.0
sg6
F-4.0
sb(dp2728
I00
F28.02665
sI01
F25.86956
ss(i__main__
State
p2729
(dp2730
g3
F2.0
sg4
F6.0
sg5
F-2.0
sg6
F0.0
sb(dp2731
I00
F11.419
sI01
I-13
ss(i__main__
State
p2732
(dp2733
g3
F-1.0
sg4
F10.0
sg5
F1.0
sg6
F-4.0
sb(dp2734
I00
F40.536151
sI01
F0.0
ss(i__main__
State
p2735
(dp2736
g3
F-5.0
sg4
F0.0
sg5
F5.0
sg6
F-4.0
sb(dp2737
I00
F-16.407674
sI01
F30.01133446856
ss(i__main__
State
p2738
(dp2739
g3
F6.0
sg4
F3.0
sg5
F-6.0
sg6
F4.0
sb(dp2740
I00
I-19
sI01
F57.8829066648
ss(i__main__
State
p2741
(dp2742
g3
F-7.0
sg4
F3.0
sg5
F7.0
sg6
F-2.0
sb(dp2743
I00
F73.7
sI01
F-11.0
ss(i__main__
State
p2744
(dp2745
g3
F4.0
sg4
F0.0
sg5
F-4.0
sg6
F0.0
sb(dp2746
I00
F56.836892523153544
sI01
F18.746553394616406
ss(i__main__
State
p2747
(dp2748
g3
F-4.0
sg4
F9.0
sg5
F4.0
sg6
F-8.0
sb(dp2749
I00
F52.008043495100004
sI01
F20.0
ss(i__main__
State
p2750
(dp2751
g3
F7.0
sg4
F2.0
sg5
F-7.0
sg6
F-2.0
sb(dp2752
I00
F-78.5
sI01
F-5.515647406499392
ss(i__main__
State
p2753
(dp2754
g3
F-7.0
sg4
F4.0
sg5
F7.0
sg6
F0.0
sb(dp2755
I00
F82.072581821
sI01
I54
ss(i__main__
State
p2756
(dp2757
g3
F-8.0
sg4
F3.0
sg5
F8.0
sg6
F-2.0
sb(dp2758
I00
F48.05449999999999
sI01
F48.126348
ss(i__main__
State
p2759
(dp2760
g3
F8.0
sg4
F7.0
sg5
F-8.0
sg6
F-8.0
sb(dp2761
I00
F24.722083960343816
sI01
F-61.2
ss(i__main__
State
p2762
(dp2763
g3
F-7.0
sg4
F2.0
sg5
F7.0
sg6
F4.0
sb(dp2764
I00
F-40.632
sI01
F34.6
ss(i__main__
State
p2765
(dp2766
g3
F2.0
sg4
F6.0
sg5
F-2.0
sg6
F-4.0
sb(dp2767
I00
F46.423
sI01
F47.4
ss(i__main__
State
p2768
(dp2769
g3
F-8.0
sg4
F9.0
sg5
F8.0
sg6
F8.0
sb(dp2770
I00
F64.13740136800001
sI01
F0.0
ss(i__main__
State
p2771
(dp2772
g3
F1.0
sg4
F2.0
sg5
F-1.0
sg6
F6.0
sb(dp2773
I00
I-16
sI01
F83.49
ss(i__main__
State
p2774
(dp2775
g3
F-4.0
sg4
F10.0
sg5
F4.0
sg6
F8.0
sb(dp2776
I00
F10.0
sI01
F45.90691
ss(i__main__
State
p2777
(dp2778
g3
F-8.0
sg4
F6.0
sg5
F8.0
sg6
F2.0
sb(dp2779
I00
F77.6
sI01
I-86
ss(i__main__
State
p2780
(dp2781
g3
F1.0
sg4
F9.0
sg5
F-1.0
sg6
F4.0
sb(dp2782
I00
F71.26994988804012
sI01
F-90.0
ss(i__main__
State
p2783
(dp2784
g3
F-3.0
sg4
F6.0
sg5
F3.0
sg6
F-4.0
sb(dp2785
I00
I29
sI01
F-76.9
ss(i__main__
State
p2786
(dp2787
g3
F-7.0
sg4
F4.0
sg5
F7.0
sg6
F4.0
sb(dp2788
I00
F-34.2
sI01
I-79
ss(i__main__
State
p2789
(dp2790
g3
F-5.0
sg4
F8.0
sg5
F5.0
sg6
F0.0
sb(dp2791
I00
F50.030774
sI01
F0.0
ss(i__main__
State
p2792
(dp2793
g3
F8.0
sg4
F4.0
sg5
F-8.0
sg6
F6.0
sb(dp2794
I00
I-18
sI01
F30.0
ss(i__main__
State
p2795
(dp2796
g3
F0.0
sg4
F9.0
sg5
F0.0
sg6
F8.0
sb(dp2797
I00
F21.0
sI01
F139.8720199025045
ss(i__main__
State
p2798
(dp2799
g3
F8.0
sg4
F8.0
sg5
F-8.0
sg6
F-2.0
sb(dp2800
I00
F10.0
sI01
F0.0
ss(i__main__
State
p2801
(dp2802
g3
F8.0
sg4
F6.0
sg5
F-8.0
sg6
F0.0
sb(dp2803
I00
F-30.0
sI01
F-2.67152591
ss(i__main__
State
p2804
(dp2805
g3
F-5.0
sg4
F1.0
sg5
F5.0
sg6
F-4.0
sb(dp2806
I00
F-60.61302836
sI01
F-19.19292925
ss(i__main__
State
p2807
(dp2808
g3
F-6.0
sg4
F6.0
sg5
F6.0
sg6
F2.0
sb(dp2809
I00
F29.853207994024725
sI01
F-53.089999999999996
ss(i__main__
State
p2810
(dp2811
g3
F7.0
sg4
F0.0
sg5
F-7.0
sg6
F-6.0
sb(dp2812
I00
F38.69738716160356
sI01
I-56
ss(i__main__
State
p2813
(dp2814
g3
F5.0
sg4
F10.0
sg5
F-5.0
sg6
F8.0
sb(dp2815
I00
F40.0
sI01
F17.588
ss(i__main__
State
p2816
(dp2817
g3
F2.0
sg4
F10.0
sg5
F-2.0
sg6
F-8.0
sb(dp2818
I00
F10.0
sI01
F0.0
ss(i__main__
State
p2819
(dp2820
g3
F-1.0
sg4
F0.0
sg5
F1.0
sg6
F2.0
sb(dp2821
I00
I-22
sI01
F33.094804393
ss(i__main__
State
p2822
(dp2823
g3
F1.0
sg4
F0.0
sg5
F-1.0
sg6
F-8.0
sb(dp2824
I00
I-15
sI01
F66.554
ss(i__main__
State
p2825
(dp2826
g3
F-7.0
sg4
F7.0
sg5
F7.0
sg6
F6.0
sb(dp2827
I00
F-57.8
sI01
F64.24699999999999
ss(i__main__
State
p2828
(dp2829
g3
F-5.0
sg4
F4.0
sg5
F5.0
sg6
F6.0
sb(dp2830
I00
F12.786600000000002
sI01
I-12
ss(i__main__
State
p2831
(dp2832
g3
F4.0
sg4
F4.0
sg5
F-4.0
sg6
F-2.0
sb(dp2833
I00
F-16.561
sI01
F54.70505
ss(i__main__
State
p2834
(dp2835
g3
F1.0
sg4
F5.0
sg5
F-1.0
sg6
F8.0
sb(dp2836
I00
F34.846397502
sI01
I34
ss(i__main__
State
p2837
(dp2838
g3
F0.0
sg4
F7.0
sg5
F0.0
sg6
F-2.0
sb(dp2839
I00
I-15
sI01
F59.472611
ss(i__main__
State
p2840
(dp2841
g3
F7.0
sg4
F5.0
sg5
F-7.0
sg6
F-4.0
sb(dp2842
I00
F-24.363637999999998
sI01
F-61.486657789999995
ss(i__main__
State
p2843
(dp2844
g3
F-8.0
sg4
F10.0
sg5
F8.0
sg6
F-8.0
sb(dp2845
I00
F161.60735436797736
sI01
F22.400426
ss(i__main__
State
p2846
(dp2847
g3
F3.0
sg4
F7.0
sg5
F-3.0
sg6
F2.0
sb(dp2848
I00
F-29.1
sI01
F41.32038112127357
ss(i__main__
State
p2849
(dp2850
g3
F4.0
sg4
F7.0
sg5
F-4.0
sg6
F2.0
sb(dp2851
I00
F-8.7
sI01
F47.562050572900006
ss(i__main__
State
p2852
(dp2853
g3
F-4.0
sg4
F0.0
sg5
F4.0
sg6
F6.0
sb(dp2854
I00
F18.916841628468006
sI01
F-64.2166
ss(i__main__
State
p2855
(dp2856
g3
F-5.0
sg4
F7.0
sg5
F5.0
sg6
F-8.0
sb(dp2857
I00
F-73.3
sI01
F-4.052083599999996
ss(i__main__
State
p2858
(dp2859
g3
F2.0
sg4
F9.0
sg5
F-2.0
sg6
F4.0
sb(dp2860
I00
F10.0
sI01
F0.0
ss(i__main__
State
p2861
(dp2862
g3
F-2.0
sg4
F8.0
sg5
F2.0
sg6
F0.0
sb(dp2863
I00
F130.3778786596405
sI01
F11.15099956
ss(i__main__
State
p2864
(dp2865
g3
F-5.0
sg4
F3.0
sg5
F5.0
sg6
F-4.0
sb(dp2866
I00
F-12.129999999999999
sI01
F51.43676
ss(i__main__
State
p2867
(dp2868
g3
F-6.0
sg4
F0.0
sg5
F6.0
sg6
F6.0
sb(dp2869
I00
F-33.99
sI01
I-94
ss(i__main__
State
p2870
(dp2871
g3
F-6.0
sg4
F1.0
sg5
F6.0
sg6
F2.0
sb(dp2872
I00
F24.973613
sI01
F3.4600000000000004
ss(i__main__
State
p2873
(dp2874
g3
F2.0
sg4
F4.0
sg5
F-2.0
sg6
F-2.0
sb(dp2875
I00
F53.52564599999999
sI01
I-43
ss(i__main__
State
p2876
(dp2877
g3
F-2.0
sg4
F1.0
sg5
F2.0
sg6
F8.0
sb(dp2878
I00
I-88
sI01
F-6.474499999999999
ss(i__main__
State
p2879
(dp2880
g3
F-4.0
sg4
F5.0
sg5
F4.0
sg6
F-6.0
sb(dp2881
I00
I-68
sI01
F48.475
ss(i__main__
State
p2882
(dp2883
g3
F-5.0
sg4
F8.0
sg5
F5.0
sg6
F4.0
sb(dp2884
I00
F151.01222511899428
sI01
F0.0
ss(i__main__
State
p2885
(dp2886
g3
F-6.0
sg4
F2.0
sg5
F6.0
sg6
F8.0
sb(dp2887
I00
I-9
sI01
F18.036
ss(i__main__
State
p2888
(dp2889
g3
F-3.0
sg4
F5.0
sg5
F3.0
sg6
F6.0
sb(dp2890
I00
F-82.5
sI01
F-7.033008199999997
ss(i__main__
State
p2891
(dp2892
g3
F8.0
sg4
F10.0
sg5
F-8.0
sg6
F8.0
sb(dp2893
I00
F10.0
sI01
F74.47355
ss(i__main__
State
p2894
(dp2895
g3
F5.0
sg4
F2.0
sg5
F-5.0
sg6
F6.0
sb(dp2896
I00
F55.3
sI01
F87.88
ss(i__main__
State
p2897
(dp2898
g3
F2.0
sg4
F5.0
sg5
F-2.0
sg6
F8.0
sb(dp2899
I00
F38.319996002627214
sI01
F-17.9493128
ss(i__main__
State
p2900
(dp2901
g3
F0.0
sg4
F1.0
sg5
F0.0
sg6
F2.0
sb(dp2902
I00
I-78
sI01
F74.88831008999999
ss(i__main__
State
p2903
(dp2904
g3
F1.0
sg4
F3.0
sg5
F-1.0
sg6
F4.0
sb(dp2905
I00
F37.06
sI01
F46.49809868282
ss(i__main__
State
p2906
(dp2907
g3
F7.0
sg4
F2.0
sg5
F-7.0
sg6
F-4.0
sb(dp2908
I00
F64.49654531
sI01
F-31.6
ss(i__main__
State
p2909
(dp2910
g3
F0.0
sg4
F5.0
sg5
F0.0
sg6
F-6.0
sb(dp2911
I00
F-68.2
sI01
F13.486672334575953
ss(i__main__
State
p2912
(dp2913
g3
F-5.0
sg4
F2.0
sg5
F5.0
sg6
F0.0
sb(dp2914
I00
F2.67
sI01
F87.4892
ss(i__main__
State
p2915
(dp2916
g3
F-3.0
sg4
F0.0
sg5
F3.0
sg6
F2.0
sb(dp2917
I00
F-16.4132
sI01
F35.954362207
ss(i__main__
State
p2918
(dp2919
g3
F-1.0
sg4
F7.0
sg5
F1.0
sg6
F6.0
sb(dp2920
I00
F57.00650195346248
sI01
F-45.10200999999999
ss(i__main__
State
p2921
(dp2922
g3
F6.0
sg4
F4.0
sg5
F-6.0
sg6
F8.0
sb(dp2923
I00
F-0.7499999999999982
sI01
F63.386437974959
ss(i__main__
State
p2924
(dp2925
g3
F8.0
sg4
F5.0
sg5
F-8.0
sg6
F-4.0
sb(dp2926
I00
F48.2303
sI01
F-39.900999999999996
ss(i__main__
State
p2927
(dp2928
g3
F5.0
sg4
F4.0
sg5
F-5.0
sg6
F8.0
sb(dp2929
I00
I-92
sI01
F35.8
ss(i__main__
State
p2930
(dp2931
g3
F-6.0
sg4
F5.0
sg5
F6.0
sg6
F2.0
sb(dp2932
I00
F-27.959115339051056
sI01
I-96
ss(i__main__
State
p2933
(dp2934
g3
F6.0
sg4
F2.0
sg5
F-6.0
sg6
F2.0
sb(dp2935
I00
I-10
sI01
F13.04
ss(i__main__
State
p2936
(dp2937
g3
F-3.0
sg4
F6.0
sg5
F3.0
sg6
F-6.0
sb(dp2938
I00
F-30.040257785999994
sI01
F-92.7
ss(i__main__
State
p2939
(dp2940
g3
F-3.0
sg4
F9.0
sg5
F3.0
sg6
F-4.0
sb(dp2941
I00
F29.62
sI01
F0.0
ss(i__main__
State
p2942
(dp2943
g3
F5.0
sg4
F0.0
sg5
F-5.0
sg6
F-8.0
sb(dp2944
I00
I-22
sI01
F-10.6
ss(i__main__
State
p2945
(dp2946
g3
F6.0
sg4
F3.0
sg5
F-6.0
sg6
F0.0
sb(dp2947
I00
F-63.4
sI01
F40.07381169905561
ss(i__main__
State
p2948
(dp2949
g3
F3.0
sg4
F3.0
sg5
F-3.0
sg6
F4.0
sb(dp2950
I00
F58.3303948
sI01
I-97
ss(i__main__
State
p2951
(dp2952
g3
F7.0
sg4
F4.0
sg5
F-7.0
sg6
F4.0
sb(dp2953
I00
F5.199999999999999
sI01
I15
ss(i__main__
State
p2954
(dp2955
g3
F-3.0
sg4
F2.0
sg5
F3.0
sg6
F-4.0
sb(dp2956
I00
F24.8
sI01
F-68.7
ss(i__main__
State
p2957
(dp2958
g3
F8.0
sg4
F5.0
sg5
F-8.0
sg6
F0.0
sb(dp2959
I00
I-87
sI01
F-18.893299999999996
ss(i__main__
State
p2960
(dp2961
g3
F6.0
sg4
F10.0
sg5
F-6.0
sg6
F-6.0
sb(dp2962
I00
F44.697357000000004
sI01
F0.0
ss(i__main__
State
p2963
(dp2964
g3
F5.0
sg4
F6.0
sg5
F-5.0
sg6
F4.0
sb(dp2965
I00
F10.372765000000003
sI01
F-53.2
ss(i__main__
State
p2966
(dp2967
g3
F-8.0
sg4
F3.0
sg5
F8.0
sg6
F-6.0
sb(dp2968
I00
F49.155952936611996
sI01
F-17.61237
ss(i__main__
State
p2969
(dp2970
g3
F0.0
sg4
F3.0
sg5
F0.0
sg6
F2.0
sb(dp2971
I00
F-12.334999999999997
sI01
F71.26234725
ss(i__main__
State
p2972
(dp2973
g3
F6.0
sg4
F7.0
sg5
F-6.0
sg6
F0.0
sb(dp2974
I00
F20.99
sI01
F88.2
ss(i__main__
State
p2975
(dp2976
g3
F1.0
sg4
F1.0
sg5
F-1.0
sg6
F0.0
sb(dp2977
I00
I52
sI01
F45.083
ss(i__main__
State
p2978
(dp2979
g3
F4.0
sg4
F4.0
sg5
F-4.0
sg6
F4.0
sb(dp2980
I00
I-44
sI01
F-24.701407643448597
ss(i__main__
State
p2981
(dp2982
g3
F-8.0
sg4
F5.0
sg5
F8.0
sg6
F4.0
sb(dp2983
I00
F-19.071792601462
sI01
F-89.1781
ss(i__main__
State
p2984
(dp2985
g3
F-1.0
sg4
F1.0
sg5
F1.0
sg6
F-2.0
sb(dp2986
I00
F6.596200000000001
sI01
I-39
ss(i__main__
State
p2987
(dp2988
g3
F4.0
sg4
F1.0
sg5
F-4.0
sg6
F0.0
sb(dp2989
I00
F-69.0
sI01
I-89
ss(i__main__
State
p2990
(dp2991
g3
F-1.0
sg4
F5.0
sg5
F1.0
sg6
F6.0
sb(dp2992
I00
F4.16
sI01
I-98
ss(i__main__
State
p2993
(dp2994
g3
F2.0
sg4
F10.0
sg5
F-2.0
sg6
F2.0
sb(dp2995
I00
F11.940000000000001
sI01
F78.01610000000001
ss(i__main__
State
p2996
(dp2997
g3
F4.0
sg4
F3.0
sg5
F-4.0
sg6
F-2.0
sb(dp2998
I00
F9.312240000000001
sI01
F36.42
ss(i__main__
State
p2999
(dp3000
g3
F-2.0
sg4
F7.0
sg5
F2.0
sg6
F4.0
sb(dp3001
I00
F2.200269500000001
sI01
F10.011219025
ss(i__main__
State
p3002
(dp3003
g3
F4.0
sg4
F8.0
sg5
F-4.0
sg6
F6.0
sb(dp3004
I00
F124.22447661302944
sI01
F24.083361512000003
ss(i__main__
State
p3005
(dp3006
g3
F-8.0
sg4
F0.0
sg5
F8.0
sg6
F-8.0
sb(dp3007
I00
F21.886379999999996
sI01
F21.294897
ss(i__main__
State
p3008
(dp3009
g3
F1.0
sg4
F9.0
sg5
F-1.0
sg6
F-2.0
sb(dp3010
I00
F-681.5491800000001
sI01
F-758.98210006
ss(i__main__
State
p3011
(dp3012
g3
F-3.0
sg4
F6.0
sg5
F3.0
sg6
F4.0
sb(dp3013
I00
F34.94199999999999
sI01
I-57
ss(i__main__
State
p3014
(dp3015
g3
F3.0
sg4
F9.0
sg5
F-3.0
sg6
F2.0
sb(dp3016
I00
F10.0
sI01
F0.0
ss(i__main__
State
p3017
(dp3018
g3
F-3.0
sg4
F2.0
sg5
F3.0
sg6
F0.0
sb(dp3019
I00
F39.31
sI01
F54.1088
ss(i__main__
State
p3020
(dp3021
g3
F-6.0
sg4
F0.0
sg5
F6.0
sg6
F-6.0
sb(dp3022
I00
F59.19794939999999
sI01
F-40.115
ss(i__main__
State
p3023
(dp3024
g3
F6.0
sg4
F8.0
sg5
F-6.0
sg6
F6.0
sb(dp3025
I00
F137.15151038061
sI01
F12.0
ss(i__main__
State
p3026
(dp3027
g3
F2.0
sg4
F6.0
sg5
F-2.0
sg6
F6.0
sb(dp3028
I00
F-73.0
sI01
F96.669
ss(i__main__
State
p3029
(dp3030
g3
F6.0
sg4
F2.0
sg5
F-6.0
sg6
F4.0
sb(dp3031
I00
F-5.341999999999999
sI01
F-45.07
ss(i__main__
State
p3032
(dp3033
g3
F-6.0
sg4
F8.0
sg5
F6.0
sg6
F8.0
sb(dp3034
I00
F50.2196
sI01
F0.0
ss(i__main__
State
p3035
(dp3036
g3
F5.0
sg4
F1.0
sg5
F-5.0
sg6
F4.0
sb(dp3037
I00
I-77
sI01
F-31.07
ss(i__main__
State
p3038
(dp3039
g3
F2.0
sg4
F1.0
sg5
F-2.0
sg6
F0.0
sb(dp3040
I00
F45.9573
sI01
I-92
ss(i__main__
State
p3041
(dp3042
g3
F4.0
sg4
F0.0
sg5
F-4.0
sg6
F-6.0
sb(dp3043
I00
F-69.2
sI01
F-53.7
ss(i__main__
State
p3044
(dp3045
g3
F0.0
sg4
F8.0
sg5
F0.0
sg6
F0.0
sb(dp3046
I00
F-2706.7200000000003
sI01
F-2699.10940434
ss(i__main__
State
p3047
(dp3048
g3
F8.0
sg4
F9.0
sg5
F-8.0
sg6
F0.0
sb(dp3049
I00
F-1899.0
sI01
F-2700.7271374
ss(i__main__
State
p3050
(dp3051
g3
F-8.0
sg4
F3.0
sg5
F8.0
sg6
F-8.0
sb(dp3052
I00
I-86
sI01
F51.937245899999986
ss(i__main__
State
p3053
(dp3054
g3
F5.0
sg4
F8.0
sg5
F-5.0
sg6
F-6.0
sb(dp3055
I00
F70.2770965107
sI01
F0.0
ss(i__main__
State
p3056
(dp3057
g3
F7.0
sg4
F1.0
sg5
F-7.0
sg6
F-8.0
sb(dp3058
I00
F66.79303999999999
sI01
F55.34799999999999
ss(i__main__
State
p3059
(dp3060
g3
F3.0
sg4
F9.0
sg5
F-3.0
sg6
F-2.0
sb(dp3061
I00
F-245.27440000000004
sI01
F78.93489114360001
ss(i__main__
State
p3062
(dp3063
g3
F-1.0
sg4
F3.0
sg5
F1.0
sg6
F-6.0
sb(dp3064
I00
I-94
sI01
F36.25
ss(i__main__
State
p3065
(dp3066
g3
F3.0
sg4
F0.0
sg5
F-3.0
sg6
F-2.0
sb(dp3067
I00
I19
sI01
F15.290000000000003
ss(i__main__
State
p3068
(dp3069
g3
F6.0
sg4
F10.0
sg5
F-6.0
sg6
F-4.0
sb(dp3070
I00
F71.97186395662796
sI01
F14.854984170986164
ss(i__main__
State
p3071
(dp3072
g3
F1.0
sg4
F2.0
sg5
F-1.0
sg6
F0.0
sb(dp3073
I00
I-86
sI01
F4.272470000000002
ss(i__main__
State
p3074
(dp3075
g3
F5.0
sg4
F3.0
sg5
F-5.0
sg6
F2.0
sb(dp3076
I00
I76
sI01
F82.4645288034
ss(i__main__
State
p3077
(dp3078
g3
F8.0
sg4
F10.0
sg5
F-8.0
sg6
F4.0
sb(dp3079
I00
F0.0
sI01
F30.39
ss(i__main__
State
p3080
(dp3081
g3
F-5.0
sg4
F9.0
sg5
F5.0
sg6
F0.0
sb(dp3082
I00
F-1899.0
sI01
F-1898.8000000000002
ss(i__main__
State
p3083
(dp3084
g3
F4.0
sg4
F2.0
sg5
F-4.0
sg6
F-6.0
sb(dp3085
I00
F45.16
sI01
F-57.6838408472
ss(i__main__
State
p3086
(dp3087
g3
F0.0
sg4
F9.0
sg5
F0.0
sg6
F6.0
sb(dp3088
I00
F124.60280990643702
sI01
F12.054450000000001
ss(i__main__
State
p3089
(dp3090
g3
F-5.0
sg4
F3.0
sg5
F5.0
sg6
F6.0
sb(dp3091
I00
I-1
sI01
F24.824739
ss(i__main__
State
p3092
(dp3093
g3
F-6.0
sg4
F10.0
sg5
F6.0
sg6
F4.0
sb(dp3094
I00
F165.3892051928982
sI01
F0.0
ss(i__main__
State
p3095
(dp3096
g3
F-6.0
sg4
F3.0
sg5
F6.0
sg6
F8.0
sb(dp3097
I00
F92.88
sI01
I-96
ss(i__main__
State
p3098
(dp3099
g3
F-6.0
sg4
F6.0
sg5
F6.0
sg6
F-6.0
sb(dp3100
I00
F-47.6
sI01
I-57
ss(i__main__
State
p3101
(dp3102
g3
F-2.0
sg4
F3.0
sg5
F2.0
sg6
F2.0
sb(dp3103
I00
F-5.299999999999999
sI01
F80.52058899999999
ss(i__main__
State
p3104
(dp3105
g3
F1.0
sg4
F0.0
sg5
F-1.0
sg6
F-2.0
sb(dp3106
I00
I-8
sI01
F57.8
ss(i__main__
State
p3107
(dp3108
g3
F8.0
sg4
F5.0
sg5
F-8.0
sg6
F-8.0
sb(dp3109
I00
F-8.7695
sI01
I-100
ss(i__main__
State
p3110
(dp3111
g3
F-6.0
sg4
F4.0
sg5
F6.0
sg6
F2.0
sb(dp3112
I00
F22.5
sI01
F8.849561296000001
ss(i__main__
State
p3113
(dp3114
g3
F-3.0
sg4
F7.0
sg5
F3.0
sg6
F-4.0
sb(dp3115
I00
F44.768
sI01
I3
ss(i__main__
State
p3116
(dp3117
g3
F-5.0
sg4
F2.0
sg5
F5.0
sg6
F8.0
sb(dp3118
I00
I-54
sI01
F55.43844145062827
ss(i__main__
State
p3119
(dp3120
g3
F7.0
sg4
F7.0
sg5
F-7.0
sg6
F4.0
sb(dp3121
I00
F36.46436529008
sI01
I-84
ss(i__main__
State
p3122
(dp3123
g3
F-6.0
sg4
F5.0
sg5
F6.0
sg6
F6.0
sb(dp3124
I00
F9.612000000000002
sI01
I-92
ss(i__main__
State
p3125
(dp3126
g3
F0.0
sg4
F10.0
sg5
F0.0
sg6
F-4.0
sb(dp3127
I00
F-1000.0
sI01
F-1887.48
ss(i__main__
State
p3128
(dp3129
g3
F2.0
sg4
F7.0
sg5
F-2.0
sg6
F-4.0
sb(dp3130
I00
I54
sI01
F73.0
ss(i__main__
State
p3131
(dp3132
g3
F-4.0
sg4
F3.0
sg5
F4.0
sg6
F-8.0
sb(dp3133
I00
I69
sI01
F74.846
ss(i__main__
State
p3134
(dp3135
g3
F4.0
sg4
F6.0
sg5
F-4.0
sg6
F-6.0
sb(dp3136
I00
F30.7083331
sI01
F47.4936095
ss(i__main__
State
p3137
(dp3138
g3
F2.0
sg4
F7.0
sg5
F-2.0
sg6
F6.0
sb(dp3139
I00
F44.002979999999994
sI01
I-62
ss(i__main__
State
p3140
(dp3141
g3
F-5.0
sg4
F0.0
sg5
F5.0
sg6
F-2.0
sb(dp3142
I00
F17.6
sI01
F35.789140722336796
ss(i__main__
State
p3143
(dp3144
g3
F3.0
sg4
F3.0
sg5
F-3.0
sg6
F-8.0
sb(dp3145
I00
I-14
sI01
F53.7
ss(i__main__
State
p3146
(dp3147
g3
F8.0
sg4
F1.0
sg5
F-8.0
sg6
F-6.0
sb(dp3148
I00
F-21.53
sI01
F20.012658530000003
ss(i__main__
State
p3149
(dp3150
g3
F-6.0
sg4
F4.0
sg5
F6.0
sg6
F-4.0
sb(dp3151
I00
F86.6
sI01
F-63.8
ss(i__main__
State
p3152
(dp3153
g3
F5.0
sg4
F1.0
sg5
F-5.0
sg6
F2.0
sb(dp3154
I00
I-90
sI01
F27.118041339999998
ss(i__main__
State
p3155
(dp3156
g3
F5.0
sg4
F6.0
sg5
F-5.0
sg6
F0.0
sb(dp3157
I00
F-7.617999999999999
sI01
F42.2822974084
ss(i__main__
State
p3158
(dp3159
g3
F-4.0
sg4
F4.0
sg5
F4.0
sg6
F-8.0
sb(dp3160
I00
F73.092645767
sI01
F-5.75
ss(i__main__
State
p3161
(dp3162
g3
F-5.0
sg4
F8.0
sg5
F5.0
sg6
F-8.0
sb(dp3163
I00
F87.38909100000001
sI01
F13.26332
ss(i__main__
State
p3164
(dp3165
g3
F7.0
sg4
F5.0
sg5
F-7.0
sg6
F8.0
sb(dp3166
I00
I35
sI01
F49.7442387896
ss(i__main__
State
p3167
(dp3168
g3
F0.0
sg4
F9.0
sg5
F0.0
sg6
F-4.0
sb(dp3169
I00
F23.037854100000004
sI01
F118.31299075348782
ss(i__main__
State
p3170
(dp3171
g3
F-3.0
sg4
F10.0
sg5
F3.0
sg6
F-2.0
sb(dp3172
I00
F39.70158425344103
sI01
F0.0
ss(i__main__
State
p3173
(dp3174
g3
F6.0
sg4
F7.0
sg5
F-6.0
sg6
F4.0
sb(dp3175
I00
F7.339703000000001
sI01
I-15
ss(i__main__
State
p3176
(dp3177
g3
F8.0
sg4
F0.0
sg5
F-8.0
sg6
F-8.0
sb(dp3178
I00
F48.09522277082798
sI01
F-28.37
ss(i__main__
State
p3179
(dp3180
g3
F3.0
sg4
F4.0
sg5
F-3.0
sg6
F-8.0
sb(dp3181
I00
I-69
sI01
F-7.881901514099999
ss(i__main__
State
p3182
(dp3183
g3
F7.0
sg4
F0.0
sg5
F-7.0
sg6
F6.0
sb(dp3184
I00
F53.0
sI01
F52.947957
ss(i__main__
State
p3185
(dp3186
g3
F-5.0
sg4
F1.0
sg5
F5.0
sg6
F6.0
sb(dp3187
I00
F47.6574774926
sI01
F-79.74
ss(i__main__
State
p3188
(dp3189
g3
F-1.0
sg4
F9.0
sg5
F1.0
sg6
F-6.0
sb(dp3190
I00
F91.84446423525111
sI01
F21.9
ss(i__main__
State
p3191
(dp3192
g3
F2.0
sg4
F4.0
sg5
F-2.0
sg6
F-8.0
sb(dp3193
I00
F14.206832060000004
sI01
I-68
ss(i__main__
State
p3194
(dp3195
g3
F2.0
sg4
F2.0
sg5
F-2.0
sg6
F6.0
sb(dp3196
I00
F-70.95
sI01
F-82.56
ss(i__main__
State
p3197
(dp3198
g3
F-3.0
sg4
F1.0
sg5
F3.0
sg6
F-6.0
sb(dp3199
I00
F76.65248952
sI01
F-6.863999999999998
ss(i__main__
State
p3200
(dp3201
g3
F0.0
sg4
F1.0
sg5
F0.0
sg6
F8.0
sb(dp3202
I00
I-34
sI01
F87.8472
ss(i__main__
State
p3203
(dp3204
g3
F1.0
sg4
F3.0
sg5
F-1.0
sg6
F0.0
sb(dp3205
I00
F65.214773371
sI01
F51.60880248858301
ss(i__main__
State
p3206
(dp3207
g3
F-5.0
sg4
F4.0
sg5
F5.0
sg6
F-4.0
sb(dp3208
I00
F81.03
sI01
I66
ss(i__main__
State
p3209
(dp3210
g3
F2.0
sg4
F1.0
sg5
F-2.0
sg6
F-6.0
sb(dp3211
I00
F-7.917215399999996
sI01
I-44
ss(i__main__
State
p3212
(dp3213
g3
F-5.0
sg4
F3.0
sg5
F5.0
sg6
F0.0
sb(dp3214
I00
I-35
sI01
F80.4
ss(i__main__
State
p3215
(dp3216
g3
F-3.0
sg4
F4.0
sg5
F3.0
sg6
F0.0
sb(dp3217
I00
I38
sI01
F-35.2
ss(i__main__
State
p3218
(dp3219
g3
F7.0
sg4
F2.0
sg5
F-7.0
sg6
F-8.0
sb(dp3220
I00
F-78.4
sI01
F84.74900000000001
ss(i__main__
State
p3221
(dp3222
g3
F-8.0
sg4
F8.0
sg5
F8.0
sg6
F8.0
sb(dp3223
I00
F31.109
sI01
F0.0
ss(i__main__
State
p3224
(dp3225
g3
F4.0
sg4
F5.0
sg5
F-4.0
sg6
F4.0
sb(dp3226
I00
F4.927767025016461
sI01
F-39.073166
ss(i__main__
State
p3227
(dp3228
g3
F-7.0
sg4
F3.0
sg5
F7.0
sg6
F4.0
sb(dp3229
I00
I-30
sI01
F66.05813
ss(i__main__
State
p3230
(dp3231
g3
F-4.0
sg4
F3.0
sg5
F4.0
sg6
F0.0
sb(dp3232
I00
F-57.88017299999999
sI01
F53.27502318271513
ss(i__main__
State
p3233
(dp3234
g3
F5.0
sg4
F8.0
sg5
F-5.0
sg6
F-2.0
sb(dp3235
I00
F59.23601998510222
sI01
F0.0
ss(i__main__
State
p3236
(dp3237
g3
F7.0
sg4
F8.0
sg5
F-7.0
sg6
F8.0
sb(dp3238
I00
F91.40357623099999
sI01
F27.420604
ss(i__main__
State
p3239
(dp3240
g3
F0.0
sg4
F4.0
sg5
F0.0
sg6
F-8.0
sb(dp3241
I00
I-89
sI01
F-16.68416
ss(i__main__
State
p3242
(dp3243
g3
F6.0
sg4
F9.0
sg5
F-6.0
sg6
F-4.0
sb(dp3244
I00
F10.0
sI01
F30.122043400000003
ss(i__main__
State
p3245
(dp3246
g3
F-4.0
sg4
F5.0
sg5
F4.0
sg6
F0.0
sb(dp3247
I00
F30.182487039999998
sI01
I8
ss(i__main__
State
p3248
(dp3249
g3
F3.0
sg4
F8.0
sg5
F-3.0
sg6
F-2.0
sb(dp3250
I00
F71.961111895236
sI01
F-90.0
ss(i__main__
State
p3251
(dp3252
g3
F4.0
sg4
F8.0
sg5
F-4.0
sg6
F-2.0
sb(dp3253
I00
F138.90423307625198
sI01
F-155.24900000000002
ss(i__main__
State
p3254
(dp3255
g3
F1.0
sg4
F8.0
sg5
F-1.0
sg6
F6.0
sb(dp3256
I00
F10.0
sI01
F0.0
ss(i__main__
State
p3257
(dp3258
g3
F1.0
sg4
F7.0
sg5
F-1.0
sg6
F8.0
sb(dp3259
I00
F72.48566
sI01
I-4
ss(i__main__
State
p3260
(dp3261
g3
F7.0
sg4
F5.0
sg5
F-7.0
sg6
F4.0
sb(dp3262
I00
I-76
sI01
F-0.867
ss(i__main__
State
p3263
(dp3264
g3
F-2.0
sg4
F7.0
sg5
F2.0
sg6
F-2.0
sb(dp3265
I00
F8.617905774035505
sI01
F35.398865280519956
ss(i__main__
State
p3266
(dp3267
g3
F-6.0
sg4
F6.0
sg5
F6.0
sg6
F8.0
sb(dp3268
I00
F33.8382102
sI01
I28
ss(i__main__
State
p3269
(dp3270
g3
F4.0
sg4
F3.0
sg5
F-4.0
sg6
F4.0
sb(dp3271
I00
F41.457746
sI01
I-60
ss(i__main__
State
p3272
(dp3273
g3
F-3.0
sg4
F8.0
sg5
F3.0
sg6
F-6.0
sb(dp3274
I00
F69.991855
sI01
F20.0
ss(i__main__
State
p3275
(dp3276
g3
F-1.0
sg4
F0.0
sg5
F1.0
sg6
F-6.0
sb(dp3277
I00
I25
sI01
F50.93
ss(i__main__
State
p3278
(dp3279
g3
F-3.0
sg4
F8.0
sg5
F3.0
sg6
F6.0
sb(dp3280
I00
F11.0
sI01
F73.4558679922
ss(i__main__
State
p3281
(dp3282
g3
F1.0
sg4
F5.0
sg5
F-1.0
sg6
F-4.0
sb(dp3283
I00
I-91
sI01
F-1.3134555042999976
ss(i__main__
State
p3284
(dp3285
g3
F5.0
sg4
F5.0
sg5
F-5.0
sg6
F0.0
sb(dp3286
I00
I-91
sI01
F-66.5683
ss(i__main__
State
p3287
(dp3288
g3
F-7.0
sg4
F0.0
sg5
F7.0
sg6
F0.0
sb(dp3289
I00
F36.491734444689605
sI01
I-27
ss(i__main__
State
p3290
(dp3291
g3
F7.0
sg4
F0.0
sg5
F-7.0
sg6
F-4.0
sb(dp3292
I00
F-71.5
sI01
F14.807969200000002
ss(i__main__
State
p3293
(dp3294
g3
F-2.0
sg4
F9.0
sg5
F2.0
sg6
F8.0
sb(dp3295
I00
F20.200000000000003
sI01
F0.0
ss(i__main__
State
p3296
(dp3297
g3
F-3.0
sg4
F10.0
sg5
F3.0
sg6
F6.0
sb(dp3298
I00
F11.200000000000001
sI01
F76.3952000105
ss(i__main__
State
p3299
(dp3300
g3
F2.0
sg4
F10.0
sg5
F-2.0
sg6
F8.0
sb(dp3301
I00
F38.237300000000005
sI01
F32.645
ss(i__main__
State
p3302
(dp3303
g3
F7.0
sg4
F7.0
sg5
F-7.0
sg6
F-6.0
sb(dp3304
I00
F59.166004022488394
sI01
F-32.83092911999999
ss(i__main__
State
p3305
(dp3306
g3
F6.0
sg4
F6.0
sg5
F-6.0
sg6
F2.0
sb(dp3307
I00
F-67.0
sI01
F17.54926627907
ss(i__main__
State
p3308
(dp3309
g3
F3.0
sg4
F7.0
sg5
F-3.0
sg6
F8.0
sb(dp3310
I00
I24
sI01
F-29.878073614709997
ss(i__main__
State
p3311
(dp3312
g3
F2.0
sg4
F4.0
sg5
F-2.0
sg6
F0.0
sb(dp3313
I00
F6.4
sI01
F59.1143668615
ss(i__main__
State
p3314
(dp3315
g3
F-5.0
sg4
F4.0
sg5
F5.0
sg6
F4.0
sb(dp3316
I00
F20.132802740000002
sI01
I-66
ss(i__main__
State
p3317
(dp3318
g3
F-6.0
sg4
F9.0
sg5
F6.0
sg6
F-6.0
sb(dp3319
I00
F86.73112964600001
sI01
F11.290000000000001
ss(i__main__
State
p3320
(dp3321
g3
F2.0
sg4
F0.0
sg5
F-2.0
sg6
F4.0
sb(dp3322
I00
I-35
sI01
F77.01498587510295
ss(i__main__
State
p3323
(dp3324
g3
F-7.0
sg4
F7.0
sg5
F7.0
sg6
F-2.0
sb(dp3325
I00
I33
sI01
F78.953496662744
ss(i__main__
State
p3326
(dp3327
g3
F5.0
sg4
F7.0
sg5
F-5.0
sg6
F6.0
sb(dp3328
I00
F-5.799999999999999
sI01
F40.62316050605904
ss(i__main__
State
p3329
(dp3330
g3
F-1.0
sg4
F0.0
sg5
F1.0
sg6
F-2.0
sb(dp3331
I00
F60.4
sI01
I-40
ss(i__main__
State
p3332
(dp3333
g3
F0.0
sg4
F4.0
sg5
F0.0
sg6
F6.0
sb(dp3334
I00
F59.9160322242
sI01
F-5.087803999999998
ss(i__main__
State
p3335
(dp3336
g3
F-4.0
sg4
F3.0
sg5
F4.0
sg6
F-4.0
sb(dp3337
I00
F-26.5
sI01
I56
ss(i__main__
State
p3338
(dp3339
g3
F4.0
sg4
F6.0
sg5
F-4.0
sg6
F2.0
sb(dp3340
I00
F19.4368
sI01
I-21
ss(i__main__
State
p3341
(dp3342
g3
F0.0
sg4
F2.0
sg5
F0.0
sg6
F-8.0
sb(dp3343
I00
F-30.714144705199995
sI01
F-82.7
ss(i__main__
State
p3344
(dp3345
g3
F3.0
sg4
F6.0
sg5
F-3.0
sg6
F2.0
sb(dp3346
I00
F96.637
sI01
I20
ss(i__main__
State
p3347
(dp3348
g3
F8.0
sg4
F1.0
sg5
F-8.0
sg6
F-2.0
sb(dp3349
I00
I-91
sI01
F-24.11
ss(i__main__
State
p3350
(dp3351
g3
F6.0
sg4
F0.0
sg5
F-6.0
sg6
F8.0
sb(dp3352
I00
F-26.5
sI01
I-19
ss(i__main__
State
p3353
(dp3354
g3
F-6.0
sg4
F1.0
sg5
F6.0
sg6
F8.0
sb(dp3355
I00
F9.836845116000003
sI01
F-48.8
ss(i__main__
State
p3356
(dp3357
g3
F-1.0
sg4
F10.0
sg5
F1.0
sg6
F4.0
sb(dp3358
I00
F0.0
sI01
F18.0
ss(i__main__
State
p3359
(dp3360
g3
F5.0
sg4
F5.0
sg5
F-5.0
sg6
F-8.0
sb(dp3361
I00
F56.35458607747621
sI01
I-20
ss(i__main__
State
p3362
(dp3363
g3
F-8.0
sg4
F4.0
sg5
F8.0
sg6
F6.0
sb(dp3364
I00
F48.54962
sI01
F-25.070999999999998
ss(i__main__
State
p3365
(dp3366
g3
F2.0
sg4
F1.0
sg5
F-2.0
sg6
F6.0
sb(dp3367
I00
F28.91061452
sI01
I-83
ss(i__main__
State
p3368
(dp3369
g3
F0.0
sg4
F5.0
sg5
F0.0
sg6
F0.0
sb(dp3370
I00
F-15.759796999999999
sI01
F27.5361163014838
ss(i__main__
State
p3371
(dp3372
g3
F-8.0
sg4
F0.0
sg5
F8.0
sg6
F-2.0
sb(dp3373
I00
I18
sI01
F25.387057112639997
ss(i__main__
State
p3374
(dp3375
g3
F5.0
sg4
F10.0
sg5
F-5.0
sg6
F-6.0
sb(dp3376
I00
F11.0
sI01
F0.0
ss(i__main__
State
p3377
(dp3378
g3
F-8.0
sg4
F5.0
sg5
F8.0
sg6
F-8.0
sb(dp3379
I00
F-12.259886669999997
sI01
F-52.890525000000004
ss(i__main__
State
p3380
(dp3381
g3
F8.0
sg4
F2.0
sg5
F-8.0
sg6
F0.0
sb(dp3382
I00
F8.232068999999996
sI01
I-6
ss(i__main__
State
p3383
(dp3384
g3
F-7.0
sg4
F0.0
sg5
F7.0
sg6
F2.0
sb(dp3385
I00
I-76
sI01
F84.7292265542
ss(i__main__
State
p3386
(dp3387
g3
F-3.0
sg4
F0.0
sg5
F3.0
sg6
F8.0
sb(dp3388
I00
I-19
sI01
F83.3
ss(i__main__
State
p3389
(dp3390
g3
F-6.0
sg4
F3.0
sg5
F6.0
sg6
F6.0
sb(dp3391
I00
F-75.26317
sI01
I-95
ss(i__main__
State
p3392
(dp3393
g3
F2.0
sg4
F0.0
sg5
F-2.0
sg6
F6.0
sb(dp3394
I00
F83.56731415148968
sI01
F65.221
ss(i__main__
State
p3395
(dp3396
g3
F-3.0
sg4
F3.0
sg5
F3.0
sg6
F8.0
sb(dp3397
I00
F-24.7
sI01
F44.024409371
ss(i__main__
State
p3398
(dp3399
g3
F-2.0
sg4
F4.0
sg5
F2.0
sg6
F6.0
sb(dp3400
I00
I-69
sI01
F50.5708524392
ss(i__main__
State
p3401
(dp3402
g3
F-1.0
sg4
F6.0
sg5
F1.0
sg6
F0.0
sb(dp3403
I00
F53.1689
sI01
F50.029949999999985
ss(i__main__
State
p3404
(dp3405
g3
F5.0
sg4
F5.0
sg5
F-5.0
sg6
F6.0
sb(dp3406
I00
F-22.32078618
sI01
F66.199180239012
ss(i__main__
State
p3407
(dp3408
g3
F6.0
sg4
F7.0
sg5
F-6.0
sg6
F-8.0
sb(dp3409
I00
I-90
sI01
F49.127965
ss(i__main__
State
p3410
(dp3411
g3
F0.0
sg4
F6.0
sg5
F0.0
sg6
F6.0
sb(dp3412
I00
F44.615
sI01
F-38.8
ss(i__main__
State
p3413
(dp3414
g3
F-7.0
sg4
F5.0
sg5
F7.0
sg6
F4.0
sb(dp3415
I00
I28
sI01
F41.070756926934436
ss(i__main__
State
p3416
(dp3417
g3
F-4.0
sg4
F4.0
sg5
F4.0
sg6
F6.0
sb(dp3418
I00
F43.1556791
sI01
F-51.6
ss(i__main__
State
p3419
(dp3420
g3
F-5.0
sg4
F9.0
sg5
F5.0
sg6
F-8.0
sb(dp3421
I00
F86.591654703
sI01
F11.0
ss(i__main__
State
p3422
(dp3423
g3
F3.0
sg4
F10.0
sg5
F-3.0
sg6
F2.0
sb(dp3424
I00
F10.0
sI01
F0.0
ss(i__main__
State
p3425
(dp3426
g3
F-7.0
sg4
F2.0
sg5
F7.0
sg6
F-4.0
sb(dp3427
I00
F14.593740000000002
sI01
F34.796489
ss(i__main__
State
p3428
(dp3429
g3
F7.0
sg4
F4.0
sg5
F-7.0
sg6
F2.0
sb(dp3430
I00
F67.381
sI01
F-7.51
ss(i__main__
State
p3431
(dp3432
g3
F-5.0
sg4
F5.0
sg5
F5.0
sg6
F2.0
sb(dp3433
I00
F1.8058417535500002
sI01
I-80
ss(i__main__
State
p3434
(dp3435
g3
F4.0
sg4
F7.0
sg5
F-4.0
sg6
F-8.0
sb(dp3436
I00
F-75.1
sI01
F-19.441238928
ss(i__main__
State
p3437
(dp3438
g3
F4.0
sg4
F9.0
sg5
F-4.0
sg6
F-8.0
sb(dp3439
I00
F41.632400000000004
sI01
F12.0
ss(i__main__
State
p3440
(dp3441
g3
F-8.0
sg4
F4.0
sg5
F8.0
sg6
F-4.0
sb(dp3442
I00
I-92
sI01
F-8.278009361552034
ss(i__main__
State
p3443
(dp3444
g3
F-8.0
sg4
F10.0
sg5
F8.0
sg6
F0.0
sb(dp3445
I00
F109.62804510762204
sI01
F23.5714
ss(i__main__
State
p3446
(dp3447
g3
F-4.0
sg4
F3.0
sg5
F4.0
sg6
F4.0
sb(dp3448
I00
F31.3
sI01
F73.0502
ss(i__main__
State
p3449
(dp3450
g3
F-5.0
sg4
F8.0
sg5
F5.0
sg6
F-6.0
sb(dp3451
I00
F58.756792325574
sI01
F131.1420530730019
ss(i__main__
State
p3452
(dp3453
g3
F2.0
sg4
F7.0
sg5
F-2.0
sg6
F0.0
sb(dp3454
I00
F10.933141005314397
sI01
I-30
ss(i__main__
State
p3455
(dp3456
g3
F0.0
sg4
F10.0
sg5
F0.0
sg6
F2.0
sb(dp3457
I00
F-1000.0
sI01
F0.0
ss(i__main__
State
p3458
(dp3459
g3
F-8.0
sg4
F4.0
sg5
F8.0
sg6
F4.0
sb(dp3460
I00
F-66.5
sI01
F15.28633069956
ss(i__main__
State
p3461
(dp3462
g3
F6.0
sg4
F9.0
sg5
F-6.0
sg6
F-8.0
sb(dp3463
I00
F64.13989523800001
sI01
F0.0
ss(i__main__
State
p3464
(dp3465
g3
F-5.0
sg4
F7.0
sg5
F5.0
sg6
F4.0
sb(dp3466
I00
I24
sI01
F47.4516758583365
ss(i__main__
State
p3467
(dp3468
g3
F8.0
sg4
F8.0
sg5
F-8.0
sg6
F-4.0
sb(dp3469
I00
F20.0
sI01
F0.0
ss(i__main__
State
p3470
(dp3471
g3
F1.0
sg4
F0.0
sg5
F-1.0
sg6
F2.0
sb(dp3472
I00
I-65
sI01
F-66.0
ss(i__main__
State
p3473
(dp3474
g3
F-1.0
sg4
F1.0
sg5
F1.0
sg6
F8.0
sb(dp3475
I00
F64.8
sI01
I-89
ss(i__main__
State
p3476
(dp3477
g3
F-3.0
sg4
F9.0
sg5
F3.0
sg6
F6.0
sb(dp3478
I00
F27.742212742
sI01
F51.341705000000005
ss(i__main__
State
p3479
(dp3480
g3
F5.0
sg4
F5.0
sg5
F-5.0
sg6
F-2.0
sb(dp3481
I00
F84.9
sI01
I27
ss(i__main__
State
p3482
(dp3483
g3
F5.0
sg4
F0.0
sg5
F-5.0
sg6
F-4.0
sb(dp3484
I00
F87.045
sI01
I-28
ss(i__main__
State
p3485
(dp3486
g3
F6.0
sg4
F1.0
sg5
F-6.0
sg6
F-4.0
sb(dp3487
I00
I-52
sI01
F42.46
ss(i__main__
State
p3488
(dp3489
g3
F-6.0
sg4
F10.0
sg5
F6.0
sg6
F-6.0
sb(dp3490
I00
F20.0
sI01
F0.0
ss(i__main__
State
p3491
(dp3492
g3
F-1.0
sg4
F4.0
sg5
F1.0
sg6
F4.0
sb(dp3493
I00
F74.26774956
sI01
F-32.984718803999996
ss(i__main__
State
p3494
(dp3495
g3
F0.0
sg4
F9.0
sg5
F0.0
sg6
F-6.0
sb(dp3496
I00
F60.43213618
sI01
F12.0
ss(i__main__
State
p3497
(dp3498
g3
F-7.0
sg4
F7.0
sg5
F7.0
sg6
F0.0
sb(dp3499
I00
F-25.7
sI01
F-10.870000000000001
ss(i__main__
State
p3500
(dp3501
g3
F4.0
sg4
F4.0
sg5
F-4.0
sg6
F-4.0
sb(dp3502
I00
F51.79997364265486
sI01
I-90
ss(i__main__
State
p3503
(dp3504
g3
F7.0
sg4
F5.0
sg5
F-7.0
sg6
F-6.0
sb(dp3505
I00
F-54.7
sI01
F48.56761900000001
ss(i__main__
State
p3506
(dp3507
g3
F-1.0
sg4
F9.0
sg5
F1.0
sg6
F-4.0
sb(dp3508
I00
F52.199880900000004
sI01
F14.803902540000003
ss(i__main__
State
p3509
(dp3510
g3
F-2.0
sg4
F1.0
sg5
F2.0
sg6
F4.0
sb(dp3511
I00
F50.753646730999996
sI01
F43.339462479999995
ss(i__main__
State
p3512
(dp3513
g3
F5.0
sg4
F8.0
sg5
F-5.0
sg6
F6.0
sb(dp3514
I00
F76.48783125096905
sI01
F13.16308938
ss(i__main__
State
p3515
(dp3516
g3
F-4.0
sg4
F8.0
sg5
F4.0
sg6
F8.0
sb(dp3517
I00
F74.0998611
sI01
F17.546504637600002
ss(i__main__
State
p3518
(dp3519
g3
F4.0
sg4
F7.0
sg5
F-4.0
sg6
F0.0
sb(dp3520
I00
F30.752700904126325
sI01
F-13.315753503999998
ss(i__main__
State
p3521
(dp3522
g3
F0.0
sg4
F8.0
sg5
F0.0
sg6
F-2.0
sb(dp3523
I00
F-1000.0
sI01
F0.0
ss(i__main__
State
p3524
(dp3525
g3
F4.0
sg4
F0.0
sg5
F-4.0
sg6
F-4.0
sb(dp3526
I00
F-44.99
sI01
I-85
ss(i__main__
State
p3527
(dp3528
g3
F6.0
sg4
F1.0
sg5
F-6.0
sg6
F0.0
sb(dp3529
I00
F-52.08297
sI01
F20.357782000000004
ss(i__main__
State
p3530
(dp3531
g3
F-8.0
sg4
F10.0
sg5
F8.0
sg6
F2.0
sb(dp3532
I00
F10.0
sI01
F47.058206637188405
ss(i__main__
State
p3533
(dp3534
g3
F-6.0
sg4
F7.0
sg5
F6.0
sg6
F-6.0
sb(dp3535
I00
I-98
sI01
F73.3
ss(i__main__
State
p3536
(dp3537
g3
F-7.0
sg4
F2.0
sg5
F7.0
sg6
F-2.0
sb(dp3538
I00
I-90
sI01
F-16.3
ss(i__main__
State
p3539
(dp3540
g3
F8.0
sg4
F1.0
sg5
F-8.0
sg6
F8.0
sb(dp3541
I00
F88.892162
sI01
I-74
ss(i__main__
State
p3542
(dp3543
g3
F8.0
sg4
F3.0
sg5
F-8.0
sg6
F8.0
sb(dp3544
I00
I-44
sI01
F48.684380000000004
ss(i__main__
State
p3545
(dp3546
g3
F7.0
sg4
F3.0
sg5
F-7.0
sg6
F-2.0
sb(dp3547
I00
F74.88609128
sI01
I-68
ss(i__main__
State
p3548
(dp3549
g3
F6.0
sg4
F0.0
sg5
F-6.0
sg6
F4.0
sb(dp3550
I00
I-53
sI01
F-33.65
ss(i__main__
State
p3551
(dp3552
g3
F-7.0
sg4
F9.0
sg5
F7.0
sg6
F-6.0
sb(dp3553
I00
F116.39783052957699
sI01
F23.011391000000003
ss(i__main__
State
p3554
(dp3555
g3
F0.0
sg4
F8.0
sg5
F0.0
sg6
F6.0
sb(dp3556
I00
F-1898.781
sI01
F-1889.8329880000001
ss(i__main__
State
p3557
(dp3558
g3
F5.0
sg4
F1.0
sg5
F-5.0
sg6
F-4.0
sb(dp3559
I00
F-32.8
sI01
F45.187974999999994
ss(i__main__
State
p3560
(dp3561
g3
F-1.0
sg4
F2.0
sg5
F1.0
sg6
F8.0
sb(dp3562
I00
F47.0
sI01
I18
ss(i__main__
State
p3563
(dp3564
g3
F-5.0
sg4
F5.0
sg5
F5.0
sg6
F0.0
sb(dp3565
I00
F-51.82160784
sI01
F18.807702776378303
ss(i__main__
State
p3566
(dp3567
g3
F6.0
sg4
F5.0
sg5
F-6.0
sg6
F0.0
sb(dp3568
I00
F-8.783999999999999
sI01
F-41.72
ss(i__main__
State
p3569
(dp3570
g3
F-1.0
sg4
F9.0
sg5
F1.0
sg6
F6.0
sb(dp3571
I00
F20.0
sI01
F100.186598191672
ss(i__main__
State
p3572
(dp3573
g3
F1.0
sg4
F7.0
sg5
F-1.0
sg6
F6.0
sb(dp3574
I00
F62.858
sI01
F34.2
ss(i__main__
State
p3575
(dp3576
g3
F-6.0
sg4
F3.0
sg5
F6.0
sg6
F2.0
sb(dp3577
I00
F87.1301
sI01
I44
ss(i__main__
State
p3578
(dp3579
g3
F1.0
sg4
F4.0
sg5
F-1.0
sg6
F-4.0
sb(dp3580
I00
F73.0
sI01
I-67
ss(i__main__
State
p3581
(dp3582
g3
F-2.0
sg4
F9.0
sg5
F2.0
sg6
F-2.0
sb(dp3583
I00
F-319.8860000000001
sI01
F65.49067310000001
ss(i__main__
State
p3584
(dp3585
g3
F3.0
sg4
F8.0
sg5
F-3.0
sg6
F8.0
sb(dp3586
I00
F110.6619879304464
sI01
F22.933615120000002
ss(i__main__
State
p3587
(dp3588
g3
F-8.0
sg4
F5.0
sg5
F8.0
sg6
F-4.0
sb(dp3589
I00
F4.452680000000001
sI01
I-9
ss(i__main__
State
p3590
(dp3591
g3
F8.0
sg4
F0.0
sg5
F-8.0
sg6
F-2.0
sb(dp3592
I00
F38.8123081
sI01
I-36
ss(i__main__
State
p3593
(dp3594
g3
F-7.0
sg4
F1.0
sg5
F7.0
sg6
F-4.0
sb(dp3595
I00
F-0.0020399999999973772
sI01
I-73
ss(i__main__
State
p3596
(dp3597
g3
F0.0
sg4
F3.0
sg5
F0.0
sg6
F-6.0
sb(dp3598
I00
F14.328
sI01
F42.70914
ss(i__main__
State
p3599
(dp3600
g3
F-8.0
sg4
F3.0
sg5
F8.0
sg6
F2.0
sb(dp3601
I00
F37.61579782556633
sI01
F-14.757485400999999
ss(i__main__
State
p3602
(dp3603
g3
F7.0
sg4
F6.0
sg5
F-7.0
sg6
F6.0
sb(dp3604
I00
F60.968084999999995
sI01
I-33
ss(i__main__
State
p3605
(dp3606
g3
F3.0
sg4
F3.0
sg5
F-3.0
sg6
F6.0
sb(dp3607
I00
I-48
sI01
F56.812628
ss(i__main__
State
p3608
(dp3609
g3
F8.0
sg4
F4.0
sg5
F-8.0
sg6
F-4.0
sb(dp3610
I00
F58.212273399999994
sI01
I-62
ss(i__main__
State
p3611
(dp3612
g3
F4.0
sg4
F10.0
sg5
F-4.0
sg6
F4.0
sb(dp3613
I00
F13.0
sI01
F44.7555
ss(i__main__
State
p3614
(dp3615
g3
F1.0
sg4
F3.0
sg5
F-1.0
sg6
F-2.0
sb(dp3616
I00
I-94
sI01
F56.0845290648
ss(i__main__
State
p3617
(dp3618
g3
F6.0
sg4
F0.0
sg5
F-6.0
sg6
F2.0
sb(dp3619
I00
F38.757264662
sI01
F-34.7
ss(i__main__
State
p3620
(dp3621
g3
F4.0
sg4
F1.0
sg5
F-4.0
sg6
F2.0
sb(dp3622
I00
F16.294
sI01
F-77.649
ss(i__main__
State
p3623
(dp3624
g3
F3.0
sg4
F6.0
sg5
F-3.0
sg6
F6.0
sb(dp3625
I00
I-43
sI01
F77.977846
ss(i__main__
State
p3626
(dp3627
g3
F4.0
sg4
F3.0
sg5
F-4.0
sg6
F-4.0
sb(dp3628
I00
I5
sI01
F51.743908145785255
ss(i__main__
State
p3629
(dp3630
g3
F-3.0
sg4
F1.0
sg5
F3.0
sg6
F2.0
sb(dp3631
I00
F33.2083131985
sI01
F-71.7
ss(i__main__
State
p3632
(dp3633
g3
F-8.0
sg4
F4.0
sg5
F8.0
sg6
F8.0
sb(dp3634
I00
F-25.9
sI01
F14.18
ss(i__main__
State
p3635
(dp3636
g3
F0.0
sg4
F5.0
sg5
F0.0
sg6
F6.0
sb(dp3637
I00
F85.00404999999999
sI01
F-21.67
ss(i__main__
State
p3638
(dp3639
g3
F7.0
sg4
F8.0
sg5
F-7.0
sg6
F6.0
sb(dp3640
I00
F10.0
sI01
F0.0
ss(i__main__
State
p3641
(dp3642
g3
F-8.0
sg4
F5.0
sg5
F8.0
sg6
F-2.0
sb(dp3643
I00
F9.9436
sI01
F16.46992932
ss(i__main__
State
p3644
(dp3645
g3
F4.0
sg4
F8.0
sg5
F-4.0
sg6
F4.0
sb(dp3646
I00
F0.0
sI01
F14.972000000000001
ss(i__main__
State
p3647
(dp3648
g3
F5.0
sg4
F3.0
sg5
F-5.0
sg6
F-4.0
sb(dp3649
I00
F-52.4
sI01
I-92
ss(i__main__
State
p3650
(dp3651
g3
F0.0
sg4
F1.0
sg5
F0.0
sg6
F-2.0
sb(dp3652
I00
F15.48768
sI01
F20.27214
ss(i__main__
State
p3653
(dp3654
g3
F5.0
sg4
F4.0
sg5
F-5.0
sg6
F2.0
sb(dp3655
I00
F-59.22281246
sI01
F-14.3072099196758
ss(i__main__
State
p3656
(dp3657
g3
F3.0
sg4
F9.0
sg5
F-3.0
sg6
F0.0
sb(dp3658
I00
F-1896.1100000000001
sI01
F-2698.6702999999998
ss(i__main__
State
p3659
(dp3660
g3
F7.0
sg4
F1.0
sg5
F-7.0
sg6
F6.0
sb(dp3661
I00
F10.095078602789577
sI01
F-84.2316069
ss(i__main__
State
p3662
(dp3663
g3
F-6.0
sg4
F0.0
sg5
F6.0
sg6
F-8.0
sb(dp3664
I00
F-40.309
sI01
F5.7972256848381
ss(i__main__
State
p3665
(dp3666
g3
F-2.0
sg4
F8.0
sg5
F2.0
sg6
F-2.0
sb(dp3667
I00
F15.776975431445692
sI01
F0.0
ss(i__main__
State
p3668
(dp3669
g3
F2.0
sg4
F9.0
sg5
F-2.0
sg6
F-4.0
sb(dp3670
I00
F-9.122020000000006
sI01
F30.748000000000005
ss(i__main__
State
p3671
(dp3672
g3
F4.0
sg4
F0.0
sg5
F-4.0
sg6
F-8.0
sb(dp3673
I00
I-26
sI01
F67.05076885999999
ss(i__main__
State
p3674
(dp3675
g3
F8.0
sg4
F9.0
sg5
F-8.0
sg6
F2.0
sb(dp3676
I00
F10.0
sI01
F55.1306966
ss(i__main__
State
p3677
(dp3678
g3
F-2.0
sg4
F9.0
sg5
F2.0
sg6
F2.0
sb(dp3679
I00
F21.0
sI01
F0.0
ss(i__main__
State
p3680
(dp3681
g3
F7.0
sg4
F1.0
sg5
F-7.0
sg6
F-2.0
sb(dp3682
I00
F51.71816
sI01
I-84
ss(i__main__
State
p3683
(dp3684
g3
F3.0
sg4
F9.0
sg5
F-3.0
sg6
F-4.0
sb(dp3685
I00
F0.0
sI01
F30.922963682000006
ss(i__main__
State
p3686
(dp3687
g3
F-7.0
sg4
F9.0
sg5
F7.0
sg6
F2.0
sb(dp3688
I00
F0.0
sI01
F20.0
ss(i__main__
State
p3689
(dp3690
g3
F2.0
sg4
F2.0
sg5
F-2.0
sg6
F-4.0
sb(dp3691
I00
I39
sI01
F67.98192086
ss(i__main__
State
p3692
(dp3693
g3
F-3.0
sg4
F7.0
sg5
F3.0
sg6
F4.0
sb(dp3694
I00
F43.39458382
sI01
I34
ss(i__main__
State
p3695
(dp3696
g3
F0.0
sg4
F7.0
sg5
F0.0
sg6
F6.0
sb(dp3697
I00
F-7.030800000000001
sI01
F-46.42402
ss(i__main__
State
p3698
(dp3699
g3
F8.0
sg4
F10.0
sg5
F-8.0
sg6
F6.0
sb(dp3700
I00
F10.0
sI01
F29.75
ss(i__main__
State
p3701
(dp3702
g3
F6.0
sg4
F8.0
sg5
F-6.0
sg6
F8.0
sb(dp3703
I00
F20.0
sI01
F0.0
ss(i__main__
State
p3704
(dp3705
g3
F-1.0
sg4
F5.0
sg5
F1.0
sg6
F-6.0
sb(dp3706
I00
F-1.7059099999999976
sI01
I-67
ss(i__main__
State
p3707
(dp3708
g3
F-6.0
sg4
F9.0
sg5
F6.0
sg6
F8.0
sb(dp3709
I00
F10.0
sI01
F19.023860884
ss(i__main__
State
p3710
(dp3711
g3
F-3.0
sg4
F10.0
sg5
F3.0
sg6
F-8.0
sb(dp3712
I00
F10.0
sI01
F42.918764253597
ss(i__main__
State
p3713
(dp3714
g3
F-1.0
sg4
F1.0
sg5
F1.0
sg6
F2.0
sb(dp3715
I00
F65.4153565
sI01
I-26
ss(i__main__
State
p3716
(dp3717
g3
F-6.0
sg4
F10.0
sg5
F6.0
sg6
F6.0
sb(dp3718
I00
F77.39777710000001
sI01
F34.139
ss(i__main__
State
p3719
(dp3720
g3
F-6.0
sg4
F3.0
sg5
F6.0
sg6
F-2.0
sb(dp3721
I00
F45.39898
sI01
I35
ss(i__main__
State
p3722
(dp3723
g3
F-6.0
sg4
F6.0
sg5
F6.0
sg6
F-4.0
sb(dp3724
I00
I59
sI01
F66.40746274773
ss(i__main__
State
p3725
(dp3726
g3
F-2.0
sg4
F3.0
sg5
F2.0
sg6
F0.0
sb(dp3727
I00
F-14.825699999999998
sI01
F27.24063838
ss(i__main__
State
p3728
(dp3729
g3
F-6.0
sg4
F1.0
sg5
F6.0
sg6
F4.0
sb(dp3730
I00
I19
sI01
F24.3
ss(i__main__
State
p3731
(dp3732
g3
F8.0
sg4
F5.0
sg5
F-8.0
sg6
F-6.0
sb(dp3733
I00
I3
sI01
F36.05079533749
ss(i__main__
State
p3734
(dp3735
g3
F6.0
sg4
F4.0
sg5
F-6.0
sg6
F0.0
sb(dp3736
I00
F-46.360665919322
sI01
F-73.0
ss(i__main__
State
p3737
(dp3738
g3
F-1.0
sg4
F8.0
sg5
F1.0
sg6
F-4.0
sb(dp3739
I00
F0.0
sI01
F57.4526499
ss(i__main__
State
p3740
(dp3741
g3
F-3.0
sg4
F8.0
sg5
F3.0
sg6
F8.0
sb(dp3742
I00
F86.2122399542054
sI01
F20.0
ss(i__main__
State
p3743
(dp3744
g3
F-6.0
sg4
F4.0
sg5
F6.0
sg6
F-2.0
sb(dp3745
I00
F88.99068
sI01
F24.1
ss(i__main__
State
p3746
(dp3747
g3
F-4.0
sg4
F10.0
sg5
F4.0
sg6
F6.0
sb(dp3748
I00
F31.886000000000003
sI01
F0.0
ss(i__main__
State
p3749
(dp3750
g3
F4.0
sg4
F6.0
sg5
F-4.0
sg6
F8.0
sb(dp3751
I00
I-93
sI01
F30.497274153228
ss(i__main__
State
p3752
(dp3753
g3
F-2.0
sg4
F6.0
sg5
F2.0
sg6
F8.0
sb(dp3754
I00
I-96
sI01
F70.00191336
ss(i__main__
State
p3755
(dp3756
g3
F7.0
sg4
F6.0
sg5
F-7.0
sg6
F2.0
sb(dp3757
I00
F65.28999999999999
sI01
F62.6
ss(i__main__
State
p3758
(dp3759
g3
F-4.0
sg4
F7.0
sg5
F4.0
sg6
F8.0
sb(dp3760
I00
F84.25
sI01
F93.3595
ss(i__main__
State
p3761
(dp3762
g3
F3.0
sg4
F3.0
sg5
F-3.0
sg6
F-6.0
sb(dp3763
I00
F67.06259895060319
sI01
F45.923866649199994
ss(i__main__
State
p3764
(dp3765
g3
F-7.0
sg4
F5.0
sg5
F7.0
sg6
F-4.0
sb(dp3766
I00
F83.9754
sI01
I54
ss(i__main__
State
p3767
(dp3768
g3
F-6.0
sg4
F7.0
sg5
F6.0
sg6
F6.0
sb(dp3769
I00
I46
sI01
F85.5
ss(i__main__
State
p3770
(dp3771
g3
F1.0
sg4
F3.0
sg5
F-1.0
sg6
F2.0
sb(dp3772
I00
F24.3
sI01
I-82
ss(i__main__
State
p3773
(dp3774
g3
F5.0
sg4
F0.0
sg5
F-5.0
sg6
F4.0
sb(dp3775
I00
F38.143460000000005
sI01
F43.9615965
ss(i__main__
State
p3776
(dp3777
g3
F0.0
sg4
F8.0
sg5
F0.0
sg6
F-8.0
sb(dp3778
I00
F-998.44040304266
sI01
F0.0
ss(i__main__
State
p3779
(dp3780
g3
F-4.0
sg4
F0.0
sg5
F4.0
sg6
F-2.0
sb(dp3781
I00
I-89
sI01
F-75.13
ss(i__main__
State
p3782
(dp3783
g3
F1.0
sg4
F7.0
sg5
F-1.0
sg6
F-8.0
sb(dp3784
I00
F-0.22151600000000055
sI01
I-19
ss(i__main__
State
p3785
(dp3786
g3
F6.0
sg4
F3.0
sg5
F-6.0
sg6
F-8.0
sb(dp3787
I00
F-19.994538763999998
sI01
F9.1292038333
ss(i__main__
State
p3788
(dp3789
g3
F-4.0
sg4
F6.0
sg5
F4.0
sg6
F2.0
sb(dp3790
I00
I-79
sI01
F72.85063000000001
ss(i__main__
State
p3791
(dp3792
g3
F4.0
sg4
F2.0
sg5
F-4.0
sg6
F0.0
sb(dp3793
I00
I-76
sI01
F-9.780000000000001
ss(i__main__
State
p3794
(dp3795
g3
F-7.0
sg4
F0.0
sg5
F7.0
sg6
F-6.0
sb(dp3796
I00
I-11
sI01
F49.26191204999999
ss(i__main__
State
p3797
(dp3798
g3
F3.0
sg4
F4.0
sg5
F-3.0
sg6
F-6.0
sb(dp3799
I00
F-36.40719711599999
sI01
I-100
ss(i__main__
State
p3800
(dp3801
g3
F-7.0
sg4
F0.0
sg5
F7.0
sg6
F8.0
sb(dp3802
I00
F50.1
sI01
F77.856
ss(i__main__
State
p3803
(dp3804
g3
F8.0
sg4
F8.0
sg5
F-8.0
sg6
F0.0
sb(dp3805
I00
F83.99227761
sI01
F12.11
ss(i__main__
State
p3806
(dp3807
g3
F-2.0
sg4
F1.0
sg5
F2.0
sg6
F-8.0
sb(dp3808
I00
F64.365248952
sI01
I1
ss(i__main__
State
p3809
(dp3810
g3
F-5.0
sg4
F10.0
sg5
F5.0
sg6
F8.0
sb(dp3811
I00
F40.19230202
sI01
F0.0
ss(i__main__
State
p3812
(dp3813
g3
F-4.0
sg4
F9.0
sg5
F4.0
sg6
F-4.0
sb(dp3814
I00
F20.0
sI01
F0.0
ss(i__main__
State
p3815
(dp3816
g3
F2.0
sg4
F0.0
sg5
F-2.0
sg6
F-2.0
sb(dp3817
I00
F38.362661759999995
sI01
F-32.6
ss(i__main__
State
p3818
(dp3819
g3
F5.0
sg4
F2.0
sg5
F-5.0
sg6
F-6.0
sb(dp3820
I00
F37.35
sI01
F54.0267533404796
ss(i__main__
State
p3821
(dp3822
g3
F-6.0
sg4
F10.0
sg5
F6.0
sg6
F-8.0
sb(dp3823
I00
F10.0
sI01
F45.50940733
ss(i__main__
State
p3824
(dp3825
g3
F-3.0
sg4
F1.0
sg5
F3.0
sg6
F-8.0
sb(dp3826
I00
F-14.2
sI01
I-72
ss(i__main__
State
p3827
(dp3828
g3
F-1.0
sg4
F9.0
sg5
F1.0
sg6
F8.0
sb(dp3829
I00
F113.08610614791056
sI01
F30.878668488000002
ss(i__main__
State
p3830
(dp3831
g3
F4.0
sg4
F0.0
sg5
F-4.0
sg6
F8.0
sb(dp3832
I00
F61.14262
sI01
I-65
ss(i__main__
State
p3833
(dp3834
g3
F4.0
sg4
F3.0
sg5
F-4.0
sg6
F8.0
sb(dp3835
I00
I-83
sI01
F16.78559172
ss(i__main__
State
p3836
(dp3837
g3
F-3.0
sg4
F4.0
sg5
F3.0
sg6
F2.0
sb(dp3838
I00
F27.314603799999997
sI01
F5.9
ss(i__main__
State
p3839
(dp3840
g3
F-2.0
sg4
F2.0
sg5
F2.0
sg6
F-8.0
sb(dp3841
I00
F88.3
sI01
I-93
ss(i__main__
State
p3842
(dp3843
g3
F-7.0
sg4
F8.0
sg5
F7.0
sg6
F-4.0
sb(dp3844
I00
F99.6258427
sI01
F25.44430428
ss(i__main__
State
p3845
(dp3846
g3
F1.0
sg4
F4.0
sg5
F-1.0
sg6
F-6.0
sb(dp3847
I00
I-2
sI01
F80.14510683000002
ss(i__main__
State
p3848
(dp3849
g3
F6.0
sg4
F4.0
sg5
F-6.0
sg6
F6.0
sb(dp3850
I00
F-79.1
sI01
I-98
ss(i__main__
State
p3851
(dp3852
g3
F4.0
sg4
F5.0
sg5
F-4.0
sg6
F6.0
sb(dp3853
I00
F-30.7
sI01
F89.292007
ss(i__main__
State
p3854
(dp3855
g3
F-4.0
sg4
F10.0
sg5
F4.0
sg6
F0.0
sb(dp3856
I00
F120.95180211148275
sI01
F13.0
ss(i__main__
State
p3857
(dp3858
g3
F-4.0
sg4
F7.0
sg5
F4.0
sg6
F-4.0
sb(dp3859
I00
F-26.4
sI01
I-78
ss(i__main__
State
p3860
(dp3861
g3
F7.0
sg4
F3.0
sg5
F-7.0
sg6
F0.0
sb(dp3862
I00
F-33.903
sI01
F25.478115181766885
ss(i__main__
State
p3863
(dp3864
g3
F2.0
sg4
F3.0
sg5
F-2.0
sg6
F2.0
sb(dp3865
I00
F-15.660290459999999
sI01
F48.485668
ss(i__main__
State
p3866
(dp3867
g3
F-4.0
sg4
F7.0
sg5
F4.0
sg6
F6.0
sb(dp3868
I00
I-14
sI01
F44.560462819099996
ss(i__main__
State
p3869
(dp3870
g3
F8.0
sg4
F5.0
sg5
F-8.0
sg6
F-2.0
sb(dp3871
I00
F-9.370498215117713
sI01
F-32.6
ss(i__main__
State
p3872
(dp3873
g3
F0.0
sg4
F4.0
sg5
F0.0
sg6
F8.0
sb(dp3874
I00
I-79
sI01
F-60.25
ss(i__main__
State
p3875
(dp3876
g3
F3.0
sg4
F7.0
sg5
F-3.0
sg6
F-4.0
sb(dp3877
I00
F44.431614614999994
sI01
I-86
ss(i__main__
State
p3878
(dp3879
g3
F3.0
sg4
F8.0
sg5
F-3.0
sg6
F4.0
sb(dp3880
I00
F0.0
sI01
F109.04201425
ss(i__main__
State
p3881
(dp3882
g3
F8.0
sg4
F9.0
sg5
F-8.0
sg6
F6.0
sb(dp3883
I00
F12.01
sI01
F11.0
ss(i__main__
State
p3884
(dp3885
g3
F5.0
sg4
F4.0
sg5
F-5.0
sg6
F6.0
sb(dp3886
I00
F73.40009135900002
sI01
I9
ss(i__main__
State
p3887
(dp3888
g3
F4.0
sg4
F8.0
sg5
F-4.0
sg6
F-4.0
sb(dp3889
I00
F70.715530430944
sI01
F0.0
ss(i__main__
State
p3890
(dp3891
g3
F4.0
sg4
F9.0
sg5
F-4.0
sg6
F4.0
sb(dp3892
I00
F60.9397011
sI01
F40.9
ss(i__main__
State
p3893
(dp3894
g3
F7.0
sg4
F5.0
sg5
F-7.0
sg6
F2.0
sb(dp3895
I00
F74.21743
sI01
I-81
ss(i__main__
State
p3896
(dp3897
g3
F-2.0
sg4
F7.0
sg5
F2.0
sg6
F-4.0
sb(dp3898
I00
I3
sI01
F31.412735458000007
ss(i__main__
State
p3899
(dp3900
g3
F6.0
sg4
F6.0
sg5
F-6.0
sg6
F-2.0
sb(dp3901
I00
F35.984335318
sI01
I-80
ss(i__main__
State
p3902
(dp3903
g3
F5.0
sg4
F10.0
sg5
F-5.0
sg6
F0.0
sb(dp3904
I00
F116.51891337229792
sI01
F17.0
ss(i__main__
State
p3905
(dp3906
g3
F-4.0
sg4
F6.0
sg5
F4.0
sg6
F4.0
sb(dp3907
I00
F91.9588
sI01
I-46
ss(i__main__
State
p3908
(dp3909
g3
F-8.0
sg4
F2.0
sg5
F8.0
sg6
F2.0
sb(dp3910
I00
I-88
sI01
F49.814148570575
ss(i__main__
State
p3911
(dp3912
g3
F1.0
sg4
F1.0
sg5
F-1.0
sg6
F-6.0
sb(dp3913
I00
F90.9
sI01
I-41
ss(i__main__
State
p3914
(dp3915
g3
F-2.0
sg4
F8.0
sg5
F2.0
sg6
F6.0
sb(dp3916
I00
F86.64943740501691
sI01
F40.538610342700004
ss(i__main__
State
p3917
(dp3918
g3
F-8.0
sg4
F8.0
sg5
F8.0
sg6
F-6.0
sb(dp3919
I00
F20.0
sI01
F40.72
ss(i__main__
State
p3920
(dp3921
g3
F-3.0
sg4
F10.0
sg5
F3.0
sg6
F4.0
sb(dp3922
I00
F30.1
sI01
F0.0
ss(i__main__
State
p3923
(dp3924
g3
F-1.0
sg4
F10.0
sg5
F1.0
sg6
F8.0
sb(dp3925
I00
F39.77504796
sI01
F0.0
ss(i__main__
State
p3926
(dp3927
g3
F-2.0
sg4
F8.0
sg5
F2.0
sg6
F-4.0
sb(dp3928
I00
F20.0
sI01
F0.0
ss(i__main__
State
p3929
(dp3930
g3
F1.0
sg4
F6.0
sg5
F-1.0
sg6
F-2.0
sb(dp3931
I00
F36.260552
sI01
I-53
ss(i__main__
State
p3932
(dp3933
g3
F-6.0
sg4
F3.0
sg5
F6.0
sg6
F-6.0
sb(dp3934
I00
F-6.9
sI01
F33.253929519
ss(i__main__
State
p3935
(dp3936
g3
F-3.0
sg4
F5.0
sg5
F3.0
sg6
F-2.0
sb(dp3937
I00
F35.68867993
sI01
F79.366932
ss(i__main__
State
p3938
(dp3939
g3
F-1.0
sg4
F2.0
sg5
F1.0
sg6
F-6.0
sb(dp3940
I00
F-7.363428287609097
sI01
F-52.58405719999999
ss(i__main__
State
p3941
(dp3942
g3
F3.0
sg4
F6.0
sg5
F-3.0
sg6
F8.0
sb(dp3943
I00
F55.10309469654116
sI01
I-18
ss(i__main__
State
p3944
(dp3945
g3
F8.0
sg4
F2.0
sg5
F-8.0
sg6
F-6.0
sb(dp3946
I00
F71.55177189999999
sI01
I-33
ss(i__main__
State
p3947
(dp3948
g3
F-5.0
sg4
F10.0
sg5
F5.0
sg6
F-8.0
sb(dp3949
I00
F10.0
sI01
F16.571273
ss(i__main__
State
p3950
(dp3951
g3
F6.0
sg4
F7.0
sg5
F-6.0
sg6
F-4.0
sb(dp3952
I00
F68.44757264329999
sI01
F-70.94596496110776
ss(i__main__
State
p3953
(dp3954
g3
F2.0
sg4
F5.0
sg5
F-2.0
sg6
F-2.0
sb(dp3955
I00
I40
sI01
F73.44656526
ss(i__main__
State
p3956
(dp3957
g3
F-3.0
sg4
F2.0
sg5
F3.0
sg6
F4.0
sb(dp3958
I00
I32
sI01
F4.631500000000001
ss(i__main__
State
p3959
(dp3960
g3
F-4.0
sg4
F1.0
sg5
F4.0
sg6
F-6.0
sb(dp3961
I00
F35.9944373705
sI01
F2.955665
ss(i__main__
State
p3962
(dp3963
g3
F-4.0
sg4
F6.0
sg5
F4.0
sg6
F-4.0
sb(dp3964
I00
F-42.265292249999995
sI01
F-62.391
ss(i__main__
State
p3965
(dp3966
g3
F0.0
sg4
F0.0
sg5
F0.0
sg6
F4.0
sb(dp3967
I00
F66.541437043
sI01
I5
ss(i__main__
State
p3968
(dp3969
g3
F-8.0
sg4
F6.0
sg5
F8.0
sg6
F4.0
sb(dp3970
I00
F15.97382761338
sI01
I-14
ss(i__main__
State
p3971
(dp3972
g3
F-5.0
sg4
F5.0
sg5
F5.0
sg6
F-6.0
sb(dp3973
I00
I-26
sI01
F43.88
ss(i__main__
State
p3974
(dp3975
g3
F3.0
sg4
F1.0
sg5
F-3.0
sg6
F-6.0
sb(dp3976
I00
F5.7
sI01
F33.597128600000005
ss(i__main__
State
p3977
(dp3978
g3
F-3.0
sg4
F6.0
sg5
F3.0
sg6
F0.0
sb(dp3979
I00
F12.14
sI01
F73.3874814902612
ss(i__main__
State
p3980
(dp3981
g3
F1.0
sg4
F10.0
sg5
F-1.0
sg6
F4.0
sb(dp3982
I00
F-245.5069
sI01
F19.400000000000002
ss(i__main__
State
p3983
(dp3984
g3
F1.0
sg4
F10.0
sg5
F-1.0
sg6
F-6.0
sb(dp3985
I00
F-72.22000000000001
sI01
F15.4
ss(i__main__
State
p3986
(dp3987
g3
F-5.0
sg4
F0.0
sg5
F5.0
sg6
F0.0
sb(dp3988
I00
F47.34312919999999
sI01
I-74
ss(i__main__
State
p3989
(dp3990
g3
F-4.0
sg4
F2.0
sg5
F4.0
sg6
F-6.0
sb(dp3991
I00
F50.8
sI01
F62.80500000000001
ss(i__main__
State
p3992
(dp3993
g3
F-8.0
sg4
F6.0
sg5
F8.0
sg6
F-8.0
sb(dp3994
I00
I24
sI01
F-69.7
ss(i__main__
State
p3995
(dp3996
g3
F0.0
sg4
F0.0
sg5
F0.0
sg6
F-4.0
sb(dp3997
I00
I-86
sI01
F48.778
ss(i__main__
State
p3998
(dp3999
g3
F-4.0
sg4
F1.0
sg5
F4.0
sg6
F4.0
sb(dp4000
I00
F44.8088112419
sI01
F19.3
ss(i__main__
State
p4001
(dp4002
g3
F-5.0
sg4
F7.0
sg5
F5.0
sg6
F8.0
sb(dp4003
I00
F54.88400000000001
sI01
F-44.7008819
ss(i__main__
State
p4004
(dp4005
g3
F2.0
sg4
F5.0
sg5
F-2.0
sg6
F0.0
sb(dp4006
I00
F0.013582135000001827
sI01
F42.80196693826999
ss(i__main__
State
p4007
(dp4008
g3
F-3.0
sg4
F2.0
sg5
F3.0
sg6
F-6.0
sb(dp4009
I00
I-12
sI01
F55.1
ss(i__main__
State
p4010
(dp4011
g3
F-8.0
sg4
F2.0
sg5
F8.0
sg6
F4.0
sb(dp4012
I00
F58.655852
sI01
I-21
ss(i__main__
State
p4013
(dp4014
g3
F6.0
sg4
F6.0
sg5
F-6.0
sg6
F-8.0
sb(dp4015
I00
F66.26341538138499
sI01
F0.9140000000000006
ss(i__main__
State
p4016
(dp4017
g3
F-7.0
sg4
F6.0
sg5
F7.0
sg6
F6.0
sb(dp4018
I00
F34.3091069586236
sI01
I15
ss(i__main__
State
p4019
(dp4020
g3
F-1.0
sg4
F8.0
sg5
F1.0
sg6
F4.0
sb(dp4021
I00
F16.7125500385
sI01
F0.0
ss(i__main__
State
p4022
(dp4023
g3
F1.0
sg4
F6.0
sg5
F-1.0
sg6
F0.0
sb(dp4024
I00
F64.0457174576346
sI01
I37
ss(i__main__
State
p4025
(dp4026
g3
F5.0
sg4
F0.0
sg5
F-5.0
sg6
F8.0
sb(dp4027
I00
F-27.078215999999998
sI01
F-74.8
ss(i__main__
State
p4028
(dp4029
g3
F-8.0
sg4
F8.0
sg5
F8.0
sg6
F6.0
sb(dp4030
I00
F53.633700031080004
sI01
F20.0
ss(i__main__
State
p4031
(dp4032
g3
F-1.0
sg4
F4.0
sg5
F1.0
sg6
F-2.0
sb(dp4033
I00
F-66.6
sI01
I-92
ss(i__main__
State
p4034
(dp4035
g3
F-5.0
sg4
F2.0
sg5
F5.0
sg6
F-2.0
sb(dp4036
I00
I-86
sI01
F8.90536076
ss(i__main__
State
p4037
(dp4038
g3
F0.0
sg4
F7.0
sg5
F0.0
sg6
F8.0
sb(dp4039
I00
F64.964
sI01
F35.1
ss(i__main__
State
p4040
(dp4041
g3
F2.0
sg4
F8.0
sg5
F-2.0
sg6
F-6.0
sb(dp4042
I00
F10.0
sI01
F75.52899977068799
ss(i__main__
State
p4043
(dp4044
g3
F-5.0
sg4
F8.0
sg5
F5.0
sg6
F-2.0
sb(dp4045
I00
F67.5532477
sI01
F0.0
ss(i__main__
State
p4046
(dp4047
g3
F-8.0
sg4
F2.0
sg5
F8.0
sg6
F-6.0
sb(dp4048
I00
I-93
sI01
F-35.25644954512
ss(i__main__
State
p4049
(dp4050
g3
F-4.0
sg4
F6.0
sg5
F4.0
sg6
F-8.0
sb(dp4051
I00
F-7.7581308555999975
sI01
F63.328928545397005
ss(i__main__
State
p4052
(dp4053
g3
F-1.0
sg4
F1.0
sg5
F1.0
sg6
F4.0
sb(dp4054
I00
F60.885999999999996
sI01
I-77
ss(i__main__
State
p4055
(dp4056
g3
F-4.0
sg4
F6.0
sg5
F4.0
sg6
F-2.0
sb(dp4057
I00
F-4.873176
sI01
I-21
ss(i__main__
State
p4058
(dp4059
g3
F-7.0
sg4
F8.0
sg5
F7.0
sg6
F-8.0
sb(dp4060
I00
F49.0171
sI01
F0.0
ss(i__main__
State
p4061
(dp4062
g3
F-2.0
sg4
F7.0
sg5
F2.0
sg6
F2.0
sb(dp4063
I00
F-0.5507949999999981
sI01
I-92
ss(i__main__
State
p4064
(dp4065
g3
F-2.0
sg4
F10.0
sg5
F2.0
sg6
F-4.0
sb(dp4066
I00
F30.1
sI01
F0.0
ss(i__main__
State
p4067
(dp4068
g3
F-1.0
sg4
F4.0
sg5
F1.0
sg6
F8.0
sb(dp4069
I00
I-57
sI01
F53.97032689514
ss(i__main__
State
p4070
(dp4071
g3
F4.0
sg4
F9.0
sg5
F-4.0
sg6
F-6.0
sb(dp4072
I00
F11.324000000000002
sI01
F0.0
ss(i__main__
State
p4073
(dp4074
g3
F-4.0
sg4
F8.0
sg5
F4.0
sg6
F4.0
sb(dp4075
I00
F43.4426
sI01
F129.06398033452356
ss(i__main__
State
p4076
(dp4077
g3
F-3.0
sg4
F3.0
sg5
F3.0
sg6
F-4.0
sb(dp4078
I00
I-96
sI01
F61.296793876900004
ss(i__main__
State
p4079
(dp4080
g3
F-7.0
sg4
F4.0
sg5
F7.0
sg6
F6.0
sb(dp4081
I00
F26.91
sI01
I8
ss(i__main__
State
p4082
(dp4083
g3
F8.0
sg4
F9.0
sg5
F-8.0
sg6
F-8.0
sb(dp4084
I00
F52.56669447600001
sI01
F21.9
ss(i__main__
State
p4085
(dp4086
g3
F7.0
sg4
F1.0
sg5
F-7.0
sg6
F-4.0
sb(dp4087
I00
F37.368
sI01
F-3.7528599999999983
ss(i__main__
State
p4088
(dp4089
g3
F-5.0
sg4
F9.0
sg5
F5.0
sg6
F8.0
sb(dp4090
I00
F55.032246410000006
sI01
F0.0
ss(i__main__
State
p4091
(dp4092
g3
F-4.0
sg4
F7.0
sg5
F4.0
sg6
F-8.0
sb(dp4093
I00
F-38.4160458
sI01
F69.81996584772246
ss(i__main__
State
p4094
(dp4095
g3
F2.0
sg4
F3.0
sg5
F-2.0
sg6
F-4.0
sb(dp4096
I00
F32.9277527336
sI01
F40.788747358007804
ss(i__main__
State
p4097
(dp4098
g3
F-8.0
sg4
F6.0
sg5
F8.0
sg6
F-6.0
sb(dp4099
I00
F4.906
sI01
F-24.778599999999997
ss(i__main__
State
p4100
(dp4101
g3
F-7.0
sg4
F10.0
sg5
F7.0
sg6
F8.0
sb(dp4102
I00
F22.0
sI01
F66.9375781
ss(i__main__
State
p4103
(dp4104
g3
F-4.0
sg4
F7.0
sg5
F4.0
sg6
F2.0
sb(dp4105
I00
F-1.2200999999999995
sI01
F54.80363301329327
ss(i__main__
State
p4106
(dp4107
g3
F-4.0
sg4
F10.0
sg5
F4.0
sg6
F-4.0
sb(dp4108
I00
F40.3132
sI01
F13.578914072233681
ss(i__main__
State
p4109
(dp4110
g3
F1.0
sg4
F1.0
sg5
F-1.0
sg6
F8.0
sb(dp4111
I00
F24.4
sI01
F30.117237499999995
ss(i__main__
State
p4112
(dp4113
g3
F7.0
sg4
F7.0
sg5
F-7.0
sg6
F6.0
sb(dp4114
I00
I20
sI01
F-29.6
ss(i__main__
State
p4115
(dp4116
g3
F4.0
sg4
F5.0
sg5
F-4.0
sg6
F-8.0
sb(dp4117
I00
F28.7
sI01
I-3
ss(i__main__
State
p4118
(dp4119
g3
F8.0
sg4
F8.0
sg5
F-8.0
sg6
F-6.0
sb(dp4120
I00
F10.0
sI01
F0.0
ss(i__main__
State
p4121
(dp4122
g3
F4.0
sg4
F1.0
sg5
F-4.0
sg6
F8.0
sb(dp4123
I00
F37.516
sI01
I-54
ss(i__main__
State
p4124
(dp4125
g3
F1.0
sg4
F4.0
sg5
F-1.0
sg6
F4.0
sb(dp4126
I00
I42
sI01
F67.008928
ss(i__main__
State
p4127
(dp4128
g3
F-3.0
sg4
F9.0
sg5
F3.0
sg6
F4.0
sb(dp4129
I00
F58.1515021
sI01
F0.0
ss(i__main__
State
p4130
(dp4131
g3
F-5.0
sg4
F10.0
sg5
F5.0
sg6
F4.0
sb(dp4132
I00
F88.36242280000002
sI01
F0.0
ss(i__main__
State
p4133
(dp4134
g3
F-1.0
sg4
F6.0
sg5
F1.0
sg6
F-6.0
sb(dp4135
I00
I-61
sI01
F53.20398934599999
ss(i__main__
State
p4136
(dp4137
g3
F-2.0
sg4
F4.0
sg5
F2.0
sg6
F8.0
sb(dp4138
I00
F63.8
sI01
I12
ss(i__main__
State
p4139
(dp4140
g3
F-8.0
sg4
F8.0
sg5
F8.0
sg6
F4.0
sb(dp4141
I00
F84.6253149
sI01
F10.0
ss(i__main__
State
p4142
(dp4143
g3
F-7.0
sg4
F7.0
sg5
F7.0
sg6
F2.0
sb(dp4144
I00
F27.5403267491
sI01
F10.833208
ss(i__main__
State
p4145
(dp4146
g3
F-8.0
sg4
F1.0
sg5
F8.0
sg6
F-4.0
sb(dp4147
I00
F-82.2
sI01
F-11.089656608099999
ss(i__main__
State
p4148
(dp4149
g3
F7.0
sg4
F10.0
sg5
F-7.0
sg6
F-8.0
sb(dp4150
I00
F10.0
sI01
F0.0
ss(i__main__
State
p4151
(dp4152
g3
F-6.0
sg4
F2.0
sg5
F6.0
sg6
F-4.0
sb(dp4153
I00
F-71.8
sI01
F72.44
ss(i__main__
State
p4154
(dp4155
g3
F3.0
sg4
F6.0
sg5
F-3.0
sg6
F-2.0
sb(dp4156
I00
I-27
sI01
F18.3
ss(i__main__
State
p4157
(dp4158
g3
F7.0
sg4
F5.0
sg5
F-7.0
sg6
F-8.0
sb(dp4159
I00
F65.37
sI01
F3.9000000000000004
ss(i__main__
State
p4160
(dp4161
g3
F-2.0
sg4
F0.0
sg5
F2.0
sg6
F2.0
sb(dp4162
I00
F25.77057977720666
sI01
F30.2884
ss(i__main__
State
p4163
(dp4164
g3
F7.0
sg4
F1.0
sg5
F-7.0
sg6
F8.0
sb(dp4165
I00
I-29
sI01
F76.89108939854695
ss(i__main__
State
p4166
(dp4167
g3
F-2.0
sg4
F1.0
sg5
F2.0
sg6
F6.0
sb(dp4168
I00
F-2.735
sI01
I-54
ss(i__main__
State
p4169
(dp4170
g3
F3.0
sg4
F2.0
sg5
F-3.0
sg6
F8.0
sb(dp4171
I00
F6.0319752
sI01
I-38
ss(i__main__
State
p4172
(dp4173
g3
F-7.0
sg4
F9.0
sg5
F7.0
sg6
F0.0
sb(dp4174
I00
F-3434.39
sI01
F-2707.642994
ss(i__main__
State
p4175
(dp4176
g3
F-3.0
sg4
F5.0
sg5
F3.0
sg6
F8.0
sb(dp4177
I00
F-10.899999999999999
sI01
F41.32404046596801
ss(i__main__
State
p4178
(dp4179
g3
F-1.0
sg4
F10.0
sg5
F1.0
sg6
F-2.0
sb(dp4180
I00
F119.39661609028862
sI01
F0.0
ss(i__main__
State
p4181
(dp4182
g3
F4.0
sg4
F2.0
sg5
F-4.0
sg6
F-4.0
sb(dp4183
I00
I-59
sI01
F41.019999999999996
ss(i__main__
State
p4184
(dp4185
g3
F-4.0
sg4
F0.0
sg5
F4.0
sg6
F2.0
sb(dp4186
I00
I16
sI01
F96.4401
ss(i__main__
State
p4187
(dp4188
g3
F-4.0
sg4
F1.0
sg5
F4.0
sg6
F-2.0
sb(dp4189
I00
I-31
sI01
F43.69556
ss(i__main__
State
p4190
(dp4191
g3
F-2.0
sg4
F2.0
sg5
F2.0
sg6
F-2.0
sb(dp4192
I00
F38.094092
sI01
F-54.356438000000004
ss(i__main__
State
p4193
(dp4194
g3
F2.0
sg4
F1.0
sg5
F-2.0
sg6
F8.0
sb(dp4195
I00
F63.0
sI01
F75.38
ss(i__main__
State
p4196
(dp4197
g3
F3.0
sg4
F6.0
sg5
F-3.0
sg6
F-6.0
sb(dp4198
I00
F84.41900000000001
sI01
I-63
ss(i__main__
State
p4199
(dp4200
g3
F0.0
sg4
F8.0
sg5
F0.0
sg6
F8.0
sb(dp4201
I00
F-999.0
sI01
F-999.0
ss(i__main__
State
p4202
(dp4203
g3
F8.0
sg4
F9.0
sg5
F-8.0
sg6
F8.0
sb(dp4204
I00
F20.11
sI01
F0.0
ss(i__main__
State
p4205
(dp4206
g3
F3.0
sg4
F5.0
sg5
F-3.0
sg6
F6.0
sb(dp4207
I00
F28.426436670810972
sI01
I-47
ss(i__main__
State
p4208
(dp4209
g3
F-6.0
sg4
F7.0
sg5
F6.0
sg6
F-8.0
sb(dp4210
I00
F-54.35499999999999
sI01
I-94
ss(i__main__
State
p4211
(dp4212
g3
F8.0
sg4
F7.0
sg5
F-8.0
sg6
F-6.0
sb(dp4213
I00
F32.8
sI01
I-82
ss(i__main__
State
p4214
(dp4215
g3
F2.0
sg4
F6.0
sg5
F-2.0
sg6
F-6.0
sb(dp4216
I00
F53.558486099999996
sI01
I-77
ss(i__main__
State
p4217
(dp4218
g3
F1.0
sg4
F2.0
sg5
F-1.0
sg6
F8.0
sb(dp4219
I00
F3.7728474892
sI01
I-54
ss(i__main__
State
p4220
(dp4221
g3
F-7.0
sg4
F9.0
sg5
F7.0
sg6
F-8.0
sb(dp4222
I00
F10.0
sI01
F0.0
ss(i__main__
State
p4223
(dp4224
g3
F5.0
sg4
F6.0
sg5
F-5.0
sg6
F6.0
sb(dp4225
I00
F11.607491
sI01
I-86
ss(i__main__
State
p4226
(dp4227
g3
F1.0
sg4
F9.0
sg5
F-1.0
sg6
F6.0
sb(dp4228
I00
F147.65091576199515
sI01
F-155.84000000000003
ss(i__main__
State
p4229
(dp4230
g3
F-6.0
sg4
F8.0
sg5
F6.0
sg6
F2.0
sb(dp4231
I00
F50.30470600000001
sI01
F0.0
ss(i__main__
State
p4232
(dp4233
g3
F2.0
sg4
F6.0
sg5
F-2.0
sg6
F-2.0
sb(dp4234
I00
F63.75151768060401
sI01
F41.91635
ss(i__main__
State
p4235
(dp4236
g3
F-7.0
sg4
F2.0
sg5
F7.0
sg6
F6.0
sb(dp4237
I00
I-93
sI01
F43.2
ss(i__main__
State
p4238
(dp4239
g3
F3.0
sg4
F10.0
sg5
F-3.0
sg6
F-2.0
sb(dp4240
I00
F21.167
sI01
F0.0
ss(i__main__
State
p4241
(dp4242
g3
F8.0
sg4
F5.0
sg5
F-8.0
sg6
F4.0
sb(dp4243
I00
I6
sI01
F36.198899999999995
ss(i__main__
State
p4244
(dp4245
g3
F-5.0
sg4
F1.0
sg5
F5.0
sg6
F-2.0
sb(dp4246
I00
F45.741824312381155
sI01
I-67
ss(i__main__
State
p4247
(dp4248
g3
F3.0
sg4
F4.0
sg5
F-3.0
sg6
F-2.0
sb(dp4249
I00
F-21.047213744999993
sI01
F44.43122845638784
ss(i__main__
State
p4250
(dp4251
g3
F-2.0
sg4
F3.0
sg5
F2.0
sg6
F-2.0
sb(dp4252
I00
F65.5151789
sI01
I-37
ss(i__main__
State
p4253
(dp4254
g3
F-6.0
sg4
F3.0
sg5
F6.0
sg6
F0.0
sb(dp4255
I00
F-22.5830482669
sI01
F-61.0
ss(i__main__
State
p4256
(dp4257
g3
F2.0
sg4
F10.0
sg5
F-2.0
sg6
F-2.0
sb(dp4258
I00
F10.0
sI01
F98.55299489800001
ss(i__main__
State
p4259
(dp4260
g3
F-1.0
sg4
F0.0
sg5
F1.0
sg6
F0.0
sb(dp4261
I00
F61.96418313604408
sI01
F62.4
ss(i__main__
State
p4262
(dp4263
g3
F6.0
sg4
F5.0
sg5
F-6.0
sg6
F-6.0
sb(dp4264
I00
F80.679648
sI01
I28
ss(i__main__
State
p4265
(dp4266
g3
F5.0
sg4
F4.0
sg5
F-5.0
sg6
F4.0
sb(dp4267
I00
F25.685175971697
sI01
F-59.0
ss(i__main__
State
p4268
(dp4269
g3
F1.0
sg4
F1.0
sg5
F-1.0
sg6
F-4.0
sb(dp4270
I00
F24.56179128
sI01
I-82
ss(i__main__
State
p4271
(dp4272
g3
F-8.0
sg4
F7.0
sg5
F8.0
sg6
F-2.0
sb(dp4273
I00
F-22.1
sI01
I-44
ss(i__main__
State
p4274
(dp4275
g3
F0.0
sg4
F7.0
sg5
F0.0
sg6
F-8.0
sb(dp4276
I00
F24.978450000000002
sI01
F-47.5
ss(i__main__
State
p4277
(dp4278
g3
F-2.0
sg4
F0.0
sg5
F2.0
sg6
F8.0
sb(dp4279
I00
F71.6384012432
sI01
F17.3
ss(i__main__
State
p4280
(dp4281
g3
F-7.0
sg4
F6.0
sg5
F7.0
sg6
F4.0
sb(dp4282
I00
F35.5939972883839
sI01
F20.439999999999998
ss(i__main__
State
p4283
(dp4284
g3
F6.0
sg4
F10.0
sg5
F-6.0
sg6
F6.0
sb(dp4285
I00
F48.1
sI01
F9.175
ss(i__main__
State
p4286
(dp4287
g3
F-6.0
sg4
F7.0
sg5
F6.0
sg6
F0.0
sb(dp4288
I00
F43.9885905
sI01
F-28.4477059
ss(i__main__
State
p4289
(dp4290
g3
F2.0
sg4
F8.0
sg5
F-2.0
sg6
F0.0
sb(dp4291
I00
F87.7477281410119
sI01
F12.0
ss(i__main__
State
p4292
(dp4293
g3
F8.0
sg4
F9.0
sg5
F-8.0
sg6
F-4.0
sb(dp4294
I00
F38.480250000000005
sI01
F11.0
ss(i__main__
State
p4295
(dp4296
g3
F2.0
sg4
F9.0
sg5
F-2.0
sg6
F2.0
sb(dp4297
I00
F12.561
sI01
F36.91
ss(i__main__
State
p4298
(dp4299
g3
F5.0
sg4
F6.0
sg5
F-5.0
sg6
F8.0
sb(dp4300
I00
F69.743
sI01
I56
ss(i__main__
State
p4301
(dp4302
g3
F4.0
sg4
F10.0
sg5
F-4.0
sg6
F6.0
sb(dp4303
I00
F10.0
sI01
F0.0
ss(i__main__
State
p4304
(dp4305
g3
F-7.0
sg4
F8.0
sg5
F7.0
sg6
F4.0
sb(dp4306
I00
F51.32986300111001
sI01
F0.0
ss(i__main__
State
p4307
(dp4308
g3
F6.0
sg4
F2.0
sg5
F-6.0
sg6
F-2.0
sb(dp4309
I00
F51.24519209
sI01
F-17.299999999999997
ss(i__main__
State
p4310
(dp4311
g3
F2.0
sg4
F8.0
sg5
F-2.0
sg6
F2.0
sb(dp4312
I00
F110.41010677856401
sI01
F52.91197009424664
ss(i__main__
State
p4313
(dp4314
g3
F-4.0
sg4
F10.0
sg5
F4.0
sg6
F-6.0
sb(dp4315
I00
F0.0
sI01
F19.294857164
ss(i__main__
State
p4316
(dp4317
g3
F-3.0
sg4
F1.0
sg5
F3.0
sg6
F0.0
sb(dp4318
I00
F17.983
sI01
I-84
ss(i__main__
State
p4319
(dp4320
g3
F0.0
sg4
F1.0
sg5
F0.0
sg6
F0.0
sb(dp4321
I00
F-0.0760714999999994
sI01
I-47
ss(i__main__
State
p4322
(dp4323
g3
F-4.0
sg4
F8.0
sg5
F4.0
sg6
F-4.0
sb(dp4324
I00
F69.74632700000001
sI01
F0.0
ss(i__main__
State
p4325
(dp4326
g3
F-8.0
sg4
F5.0
sg5
F8.0
sg6
F0.0
sb(dp4327
I00
F37.559
sI01
I-11
ss(i__main__
State
p4328
(dp4329
g3
F-8.0
sg4
F0.0
sg5
F8.0
sg6
F8.0
sb(dp4330
I00
F-46.0195849245663
sI01
I-52
ss(i__main__
State
p4331
(dp4332
g3
F0.0
sg4
F5.0
sg5
F0.0
sg6
F-8.0
sb(dp4333
I00
F22.25
sI01
F35.724283494
ss(i__main__
State
p4334
(dp4335
g3
F7.0
sg4
F9.0
sg5
F-7.0
sg6
F-6.0
sb(dp4336
I00
F29.5287716
sI01
F61.1828093556628
ss(i__main__
State
p4337
(dp4338
g3
F4.0
sg4
F3.0
sg5
F-4.0
sg6
F2.0
sb(dp4339
I00
F-49.029225999999994
sI01
F54.3631664
ss(i__main__
State
p4340
(dp4341
g3
F-3.0
sg4
F8.0
sg5
F3.0
sg6
F-4.0
sb(dp4342
I00
F29.0
sI01
F10.0
ss(i__main__
State
p4343
(dp4344
g3
F-1.0
sg4
F7.0
sg5
F1.0
sg6
F4.0
sb(dp4345
I00
F-16.4821
sI01
F50.17013247502893
ss(i__main__
State
p4346
(dp4347
g3
F7.0
sg4
F1.0
sg5
F-7.0
sg6
F4.0
sb(dp4348
I00
I-15
sI01
F71.41314390661441
ss(i__main__
State
p4349
(dp4350
g3
F-1.0
sg4
F5.0
sg5
F1.0
sg6
F-4.0
sb(dp4351
I00
F91.23753165800001
sI01
F39.879999999999995
ss(i__main__
State
p4352
(dp4353
g3
F4.0
sg4
F1.0
sg5
F-4.0
sg6
F-4.0
sb(dp4354
I00
F-11.3
sI01
I-21
ss(i__main__
State
p4355
(dp4356
g3
F-6.0
sg4
F0.0
sg5
F6.0
sg6
F-2.0
sb(dp4357
I00
F-0.6871285438679986
sI01
F-75.7
ss(i__main__
State
p4358
(dp4359
g3
F2.0
sg4
F8.0
sg5
F-2.0
sg6
F-4.0
sb(dp4360
I00
F18.686899999999998
sI01
F-60.27810458000002
ss(i__main__
State
p4361
(dp4362
g3
F5.0
sg4
F10.0
sg5
F-5.0
sg6
F-8.0
sb(dp4363
I00
F89.43145286779999
sI01
F7.51
ss(i__main__
State
p4364
(dp4365
g3
F6.0
sg4
F2.0
sg5
F-6.0
sg6
F0.0
sb(dp4366
I00
F44.8
sI01
I8
ss(i__main__
State
p4367
(dp4368
g3
F2.0
sg4
F2.0
sg5
F-2.0
sg6
F8.0
sb(dp4369
I00
F-52.42
sI01
F60.70774500000001
ss(i__main__
State
p4370
(dp4371
g3
F6.0
sg4
F3.0
sg5
F-6.0
sg6
F2.0
sb(dp4372
I00
F-6.49
sI01
F14.243846058
ss(i__main__
State
p4373
(dp4374
g3
F4.0
sg4
F10.0
sg5
F-4.0
sg6
F-8.0
sb(dp4375
I00
F40.0
sI01
F0.0
ss(i__main__
State
p4376
(dp4377
g3
F-7.0
sg4
F8.0
sg5
F7.0
sg6
F8.0
sb(dp4378
I00
F10.0
sI01
F13.0
ss(i__main__
State
p4379
(dp4380
g3
F-6.0
sg4
F10.0
sg5
F6.0
sg6
F0.0
sb(dp4381
I00
F0.0
sI01
F64.60860000000001
ss(i__main__
State
p4382
(dp4383
g3
F-6.0
sg4
F7.0
sg5
F6.0
sg6
F-4.0
sb(dp4384
I00
F-79.47
sI01
F-27.15777414512
ss(i__main__
State
p4385
(dp4386
g3
F5.0
sg4
F9.0
sg5
F-5.0
sg6
F0.0
sb(dp4387
I00
F-1000.0
sI01
F-1887.8624298733002
ss(i__main__
State
p4388
(dp4389
g3
F3.0
sg4
F10.0
sg5
F-3.0
sg6
F-6.0
sb(dp4390
I00
F39.992000000000004
sI01
F18.0
ss(i__main__
State
p4391
(dp4392
g3
F-5.0
sg4
F2.0
sg5
F5.0
sg6
F6.0
sb(dp4393
I00
I27
sI01
F79.38
ss(i__main__
State
p4394
(dp4395
g3
F6.0
sg4
F10.0
sg5
F-6.0
sg6
F-8.0
sb(dp4396
I00
F10.0
sI01
F12.46
ss(i__main__
State
p4397
(dp4398
g3
F-5.0
sg4
F6.0
sg5
F5.0
sg6
F6.0
sb(dp4399
I00
F67.06762780000001
sI01
I-58
ss(i__main__
State
p4400
(dp4401
g3
F5.0
sg4
F3.0
sg5
F-5.0
sg6
F6.0
sb(dp4402
I00
F-31.853
sI01
I-49
ss(i__main__
State
p4403
(dp4404
g3
F-3.0
sg4
F7.0
sg5
F3.0
sg6
F6.0
sb(dp4405
I00
F-74.8
sI01
F69.48226161
ss(i__main__
State
p4406
(dp4407
g3
F-4.0
sg4
F2.0
sg5
F4.0
sg6
F2.0
sb(dp4408
I00
F92.5
sI01
F81.798037526
ss(i__main__
State
p4409
(dp4410
g3
F-8.0
sg4
F3.0
sg5
F8.0
sg6
F-4.0
sb(dp4411
I00
I83
sI01
F72.6
ss(i__main__
State
p4412
(dp4413
g3
F0.0
sg4
F3.0
sg5
F0.0
sg6
F4.0
sb(dp4414
I00
I-98
sI01
F89.2
ss(i__main__
State
p4415
(dp4416
g3
F6.0
sg4
F7.0
sg5
F-6.0
sg6
F2.0
sb(dp4417
I00
I-99
sI01
F4.6300566985488
ss(i__main__
State
p4418
(dp4419
g3
F1.0
sg4
F1.0
sg5
F-1.0
sg6
F2.0
sb(dp4420
I00
F-43.837999999999994
sI01
F-68.9
ss(i__main__
State
p4421
(dp4422
g3
F-5.0
sg4
F9.0
sg5
F5.0
sg6
F4.0
sb(dp4423
I00
F81.64785834983972
sI01
F16.812872800000005
ss(i__main__
State
p4424
(dp4425
g3
F-2.0
sg4
F9.0
sg5
F2.0
sg6
F0.0
sb(dp4426
I00
F-1000.0
sI01
F-998.0
ss(i__main__
State
p4427
(dp4428
g3
F1.0
sg4
F4.0
sg5
F-1.0
sg6
F2.0
sb(dp4429
I00
F47.6
sI01
I-1
ss(i__main__
State
p4430
(dp4431
g3
F2.0
sg4
F10.0
sg5
F-2.0
sg6
F0.0
sb(dp4432
I00
F96.5717612945
sI01
F3.5
ss(i__main__
State
p4433
(dp4434
g3
F-2.0
sg4
F2.0
sg5
F2.0
sg6
F2.0
sb(dp4435
I00
I57
sI01
F79.83631899999999
ss(i__main__
State
p4436
(dp4437
g3
F-1.0
sg4
F6.0
sg5
F1.0
sg6
F-4.0
sb(dp4438
I00
F-50.876
sI01
F-1.7591667077728692
ss(i__main__
State
p4439
(dp4440
g3
F8.0
sg4
F6.0
sg5
F-8.0
sg6
F6.0
sb(dp4441
I00
F31.884883568540005
sI01
F-67.634
ss.