(dp0
(i__main__
State
p1
(dp2
S'v1'
p3
I2
sS'v2'
p4
I3
sS'v3'
p5
I2
sS'y1'
p6
F8.0
sS'x'
p7
F3.0
sS'y3'
p8
F-8.0
sS'y2'
p9
F4.0
sb(dp10
I00
F56.090020025
sI01
I55
ss(i__main__
State
p11
(dp12
g3
I2
sg4
I3
sg5
I2
sg6
F-2.0
sg7
F1.0
sg8
F2.0
sg9
F-8.0
sb(dp13
I00
F-1.4
sI01
F54.15386723341176
ss(i__main__
State
p14
(dp15
g3
I2
sg4
I3
sg5
I2
sg6
F-8.0
sg7
F5.0
sg8
F8.0
sg9
F-2.0
sb(dp16
I00
F49.01897923867551
sI01
F58.79620899237213
ss(i__main__
State
p17
(dp18
g3
I2
sg4
I3
sg5
I2
sg6
F8.0
sg7
F1.0
sg8
F-8.0
sg9
F-5.0
sb(dp19
I00
F8.917645994999999
sI01
F62.431112858323914
ss(i__main__
State
p20
(dp21
g3
I2
sg4
I3
sg5
I2
sg6
F6.0
sg7
F10.0
sg8
F-6.0
sg9
F-2.0
sb(dp22
I00
F164.010238346376
sI01
F0.0
ss(i__main__
State
p23
(dp24
g3
I2
sg4
I3
sg5
I2
sg6
F6.0
sg7
F7.0
sg8
F-6.0
sg9
F-5.0
sb(dp25
I00
F31.887813045481025
sI01
F137.53027362218336
ss(i__main__
State
p26
(dp27
g3
I2
sg4
I3
sg5
I2
sg6
F-2.0
sg7
F2.0
sg8
F2.0
sg9
F-8.0
sb(dp28
I00
F-71.48783900000001
sI01
F-3.6683717575318084
ss(i__main__
State
p29
(dp30
g3
I2
sg4
I3
sg5
I2
sg6
F0.0
sg7
F8.0
sg8
F0.0
sg9
F7.0
sb(dp31
I00
F-2702.2846962248063
sI01
F-2699.1162700000004
ss(i__main__
State
p32
(dp33
g3
I2
sg4
I3
sg5
I2
sg6
F-5.0
sg7
F0.0
sg8
F5.0
sg9
F3.0
sb(dp34
I00
F74.6
sI01
I4
ss(i__main__
State
p35
(dp36
g3
I2
sg4
I3
sg5
I2
sg6
F4.0
sg7
F4.0
sg8
F-4.0
sg9
F-8.0
sb(dp37
I00
F-45.728426847023876
sI01
F52.97946813650508
ss(i__main__
State
p38
(dp39
g3
I2
sg4
I3
sg5
I2
sg6
F6.0
sg7
F4.0
sg8
F-6.0
sg9
F-2.0
sb(dp40
I00
F16.110553606909424
sI01
I-94
ss(i__main__
State
p41
(dp42
g3
I2
sg4
I3
sg5
I2
sg6
F2.0
sg7
F9.0
sg8
F-2.0
sg9
F1.0
sb(dp43
I00
F-4654.181198107232
sI01
F-5198.79399
ss(i__main__
State
p44
(dp45
g3
I2
sg4
I3
sg5
I2
sg6
F0.0
sg7
F8.0
sg8
F0.0
sg9
F-2.0
sb(dp46
I00
F-995.1
sI01
F-1099.9
ss(i__main__
State
p47
(dp48
g3
I2
sg4
I3
sg5
I2
sg6
F-6.0
sg7
F10.0
sg8
F6.0
sg9
F-2.0
sb(dp49
I00
F185.1608938733027
sI01
F83.71383998764061
ss(i__main__
State
p50
(dp51
g3
I2
sg4
I3
sg5
I2
sg6
F2.0
sg7
F0.0
sg8
F-2.0
sg9
F-8.0
sb(dp52
I00
F40.028180259783
sI01
I-3
ss(i__main__
State
p53
(dp54
g3
I2
sg4
I3
sg5
I2
sg6
F-6.0
sg7
F6.0
sg8
F6.0
sg9
F4.0
sb(dp55
I00
F26.434990985188733
sI01
F50.98177769930744
ss(i__main__
State
p56
(dp57
g3
I2
sg4
I3
sg5
I2
sg6
F-4.0
sg7
F6.0
sg8
F4.0
sg9
F1.0
sb(dp58
I00
F48.32796724381968
sI01
F-25.53670988901504
ss(i__main__
State
p59
(dp60
g3
I2
sg4
I3
sg5
I2
sg6
F-8.0
sg7
F3.0
sg8
F8.0
sg9
F1.0
sb(dp61
I00
F41.830219
sI01
F33.470252932
ss(i__main__
State
p62
(dp63
g3
I2
sg4
I3
sg5
I2
sg6
F2.0
sg7
F10.0
sg8
F-2.0
sg9
F-5.0
sb(dp64
I00
F-80.5
sI01
F68.08580173178562
ss(i__main__
State
p65
(dp66
g3
I2
sg4
I3
sg5
I2
sg6
F8.0
sg7
F6.0
sg8
F-8.0
sg9
F-2.0
sb(dp67
I00
I-33
sI01
F69.81905798870189
ss(i__main__
State
p68
(dp69
g3
I2
sg4
I3
sg5
I2
sg6
F-4.0
sg7
F1.0
sg8
F4.0
sg9
F-8.0
sb(dp70
I00
F62.125386571065405
sI01
F-62.209745199999986
ss(i__main__
State
p71
(dp72
g3
I2
sg4
I3
sg5
I2
sg6
F8.0
sg7
F4.0
sg8
F-8.0
sg9
F1.0
sb(dp73
I00
F-19.053215891992792
sI01
F-76.6
ss(i__main__
State
p74
(dp75
g3
I2
sg4
I3
sg5
I2
sg6
F8.0
sg7
F5.0
sg8
F-8.0
sg9
F1.0
sb(dp76
I00
I-94
sI01
F-27.258639973762968
ss(i__main__
State
p77
(dp78
g3
I2
sg4
I3
sg5
I2
sg6
F-4.0
sg7
F1.0
sg8
F4.0
sg9
F10.0
sb(dp79
I00
F-61.68899972687561
sI01
F49.77804855446002
ss(i__main__
State
p80
(dp81
g3
I2
sg4
I3
sg5
I2
sg6
F0.0
sg7
F10.0
sg8
F0.0
sg9
F-2.0
sb(dp82
I00
F-2695.8169977604102
sI01
F-1891.27
ss(i__main__
State
p83
(dp84
g3
I2
sg4
I3
sg5
I2
sg6
F-2.0
sg7
F0.0
sg8
F2.0
sg9
F1.0
sb(dp85
I00
F26.984321387258507
sI01
F-4.481726672419359
ss(i__main__
State
p86
(dp87
g3
I2
sg4
I3
sg5
I2
sg6
F4.0
sg7
F10.0
sg8
F-4.0
sg9
F10.0
sb(dp88
I00
F10.0
sI01
F28.340297307700006
ss(i__main__
State
p89
(dp90
g3
I2
sg4
I3
sg5
I2
sg6
F2.0
sg7
F9.0
sg8
F-2.0
sg9
F7.0
sb(dp91
I00
F117.19939813883714
sI01
F-407.84562000000005
ss(i__main__
State
p92
(dp93
g3
I2
sg4
I3
sg5
I2
sg6
F-4.0
sg7
F7.0
sg8
F4.0
sg9
F-8.0
sb(dp94
I00
F23.29
sI01
F122.45221256992029
ss(i__main__
State
p95
(dp96
g3
I2
sg4
I3
sg5
I2
sg6
F2.0
sg7
F6.0
sg8
F-2.0
sg9
F4.0
sb(dp97
I00
F58.351522886059314
sI01
F68.98383976926758
ss(i__main__
State
p98
(dp99
g3
I2
sg4
I3
sg5
I2
sg6
F6.0
sg7
F3.0
sg8
F-6.0
sg9
F4.0
sb(dp100
I00
F55.484598566845705
sI01
F-47.3986
ss(i__main__
State
p101
(dp102
g3
I2
sg4
I3
sg5
I2
sg6
F-4.0
sg7
F2.0
sg8
F4.0
sg9
F-2.0
sb(dp103
I00
F5.409372000000001
sI01
F54.56458465468889
ss(i__main__
State
p104
(dp105
g3
I2
sg4
I3
sg5
I2
sg6
F0.0
sg7
F1.0
sg8
F0.0
sg9
F10.0
sb(dp106
I00
F65.06937712253051
sI01
F22.363430620533567
ss(i__main__
State
p107
(dp108
g3
I2
sg4
I3
sg5
I2
sg6
F8.0
sg7
F10.0
sg8
F-8.0
sg9
F4.0
sb(dp109
I00
F158.50282104342187
sI01
F47.35009791553001
ss(i__main__
State
p110
(dp111
g3
I2
sg4
I3
sg5
I2
sg6
F0.0
sg7
F1.0
sg8
F0.0
sg9
F-2.0
sb(dp112
I00
F85.15976332215
sI01
I83
ss(i__main__
State
p113
(dp114
g3
I2
sg4
I3
sg5
I2
sg6
F4.0
sg7
F1.0
sg8
F-4.0
sg9
F7.0
sb(dp115
I00
F60.65936069577661
sI01
F34.0
ss(i__main__
State
p116
(dp117
g3
I2
sg4
I3
sg5
I2
sg6
F0.0
sg7
F3.0
sg8
F0.0
sg9
F-8.0
sb(dp118
I00
F-20.739132554222696
sI01
F22.12694426558589
ss(i__main__
State
p119
(dp120
g3
I2
sg4
I3
sg5
I2
sg6
F-2.0
sg7
F0.0
sg8
F2.0
sg9
F-2.0
sb(dp121
I00
F25.539908519225087
sI01
F-23.5
ss(i__main__
State
p122
(dp123
g3
I2
sg4
I3
sg5
I2
sg6
F-8.0
sg7
F0.0
sg8
F8.0
sg9
F-5.0
sb(dp124
I00
F29.690978970159975
sI01
F47.230793971602814
ss(i__main__
State
p125
(dp126
g3
I2
sg4
I3
sg5
I2
sg6
F4.0
sg7
F7.0
sg8
F-4.0
sg9
F-5.0
sb(dp127
I00
F-58.30756415207172
sI01
F-190.36270007673235
ss(i__main__
State
p128
(dp129
g3
I2
sg4
I3
sg5
I2
sg6
F6.0
sg7
F4.0
sg8
F-6.0
sg9
F10.0
sb(dp130
I00
F4.863615381605367
sI01
F41.30580855911584
ss(i__main__
State
p131
(dp132
g3
I2
sg4
I3
sg5
I2
sg6
F8.0
sg7
F2.0
sg8
F-8.0
sg9
F-2.0
sb(dp133
I00
I-43
sI01
F17.254096697192534
ss(i__main__
State
p134
(dp135
g3
I2
sg4
I3
sg5
I2
sg6
F-4.0
sg7
F1.0
sg8
F4.0
sg9
F7.0
sb(dp136
I00
F33.04662376298296
sI01
F-48.97948041553227
ss(i__main__
State
p137
(dp138
g3
I2
sg4
I3
sg5
I2
sg6
F8.0
sg7
F7.0
sg8
F-8.0
sg9
F10.0
sb(dp139
I00
I-47
sI01
F80.29876619844212
ss(i__main__
State
p140
(dp141
g3
I2
sg4
I3
sg5
I2
sg6
F2.0
sg7
F3.0
sg8
F-2.0
sg9
F-5.0
sb(dp142
I00
I-78
sI01
F7.299545884856644
ss(i__main__
State
p143
(dp144
g3
I2
sg4
I3
sg5
I2
sg6
F0.0
sg7
F4.0
sg8
F0.0
sg9
F10.0
sb(dp145
I00
F46.71119395630552
sI01
F-10.53870905713164
ss(i__main__
State
p146
(dp147
g3
I2
sg4
I3
sg5
I2
sg6
F6.0
sg7
F2.0
sg8
F-6.0
sg9
F10.0
sb(dp148
I00
I-23
sI01
F73.31479046
ss(i__main__
State
p149
(dp150
g3
I2
sg4
I3
sg5
I2
sg6
F4.0
sg7
F8.0
sg8
F-4.0
sg9
F7.0
sb(dp151
I00
F142.68619283624264
sI01
F410.09517508410863
ss(i__main__
State
p152
(dp153
g3
I2
sg4
I3
sg5
I2
sg6
F-8.0
sg7
F7.0
sg8
F8.0
sg9
F4.0
sb(dp154
I00
F71.16499999999999
sI01
I54
ss(i__main__
State
p155
(dp156
g3
I2
sg4
I3
sg5
I2
sg6
F-8.0
sg7
F5.0
sg8
F8.0
sg9
F-8.0
sb(dp157
I00
F67.88369528663422
sI01
F-22.179679999999998
ss(i__main__
State
p158
(dp159
g3
I2
sg4
I3
sg5
I2
sg6
F-6.0
sg7
F6.0
sg8
F6.0
sg9
F-5.0
sb(dp160
I00
F20.692380115620203
sI01
I-50
ss(i__main__
State
p161
(dp162
g3
I2
sg4
I3
sg5
I2
sg6
F-8.0
sg7
F9.0
sg8
F8.0
sg9
F7.0
sb(dp163
I00
F20.0
sI01
F0.0
ss(i__main__
State
p164
(dp165
g3
I2
sg4
I3
sg5
I2
sg6
F0.0
sg7
F8.0
sg8
F0.0
sg9
F1.0
sb(dp166
I00
F-5663.0760549009365
sI01
F-5648.0223559160395
ss(i__main__
State
p167
(dp168
g3
I2
sg4
I3
sg5
I2
sg6
F-2.0
sg7
F7.0
sg8
F2.0
sg9
F-8.0
sb(dp169
I00
F17.289358859445993
sI01
F-75.8409482
ss(i__main__
State
p170
(dp171
g3
I2
sg4
I3
sg5
I2
sg6
F4.0
sg7
F9.0
sg8
F-4.0
sg9
F10.0
sb(dp172
I00
F100.00262110930558
sI01
F32.382842000000004
ss(i__main__
State
p173
(dp174
g3
I2
sg4
I3
sg5
I2
sg6
F8.0
sg7
F7.0
sg8
F-8.0
sg9
F1.0
sb(dp175
I00
F37.64867568969677
sI01
F1.8197129012995177
ss(i__main__
State
p176
(dp177
g3
I2
sg4
I3
sg5
I2
sg6
F6.0
sg7
F9.0
sg8
F-6.0
sg9
F1.0
sb(dp178
I00
F-2705.240124789662
sI01
F-3430.47892
ss(i__main__
State
p179
(dp180
g3
I2
sg4
I3
sg5
I2
sg6
F4.0
sg7
F3.0
sg8
F-4.0
sg9
F10.0
sb(dp181
I00
F-34.5899867141418
sI01
I-86
ss(i__main__
State
p182
(dp183
g3
I2
sg4
I3
sg5
I2
sg6
F-2.0
sg7
F2.0
sg8
F2.0
sg9
F7.0
sb(dp184
I00
F58.13602143993114
sI01
F53.16315873861902
ss(i__main__
State
p185
(dp186
g3
I2
sg4
I3
sg5
I2
sg6
F2.0
sg7
F5.0
sg8
F-2.0
sg9
F-2.0
sb(dp187
I00
F50.48748336503
sI01
F30.1
ss(i__main__
State
p188
(dp189
g3
I2
sg4
I3
sg5
I2
sg6
F-6.0
sg7
F8.0
sg8
F6.0
sg9
F-5.0
sb(dp190
I00
F348.72332348352535
sI01
F58.56875410254315
ss(i__main__
State
p191
(dp192
g3
I2
sg4
I3
sg5
I2
sg6
F4.0
sg7
F1.0
sg8
F-4.0
sg9
F-2.0
sb(dp193
I00
F84.23597239741932
sI01
F-11.16254627527081
ss(i__main__
State
p194
(dp195
g3
I2
sg4
I3
sg5
I2
sg6
F-4.0
sg7
F8.0
sg8
F4.0
sg9
F1.0
sb(dp196
I00
F144.75483782445332
sI01
F0.0
ss(i__main__
State
p197
(dp198
g3
I2
sg4
I3
sg5
I2
sg6
F6.0
sg7
F6.0
sg8
F-6.0
sg9
F-2.0
sb(dp199
I00
F70.97159831101595
sI01
F49.5
ss(i__main__
State
p200
(dp201
g3
I2
sg4
I3
sg5
I2
sg6
F-2.0
sg7
F1.0
sg8
F2.0
sg9
F7.0
sb(dp202
I00
F58.8679102879694
sI01
F59.86690337159487
ss(i__main__
State
p203
(dp204
g3
I2
sg4
I3
sg5
I2
sg6
F0.0
sg7
F0.0
sg8
F0.0
sg9
F-5.0
sb(dp205
I00
F14.401956381150576
sI01
F-33.22
ss(i__main__
State
p206
(dp207
g3
I2
sg4
I3
sg5
I2
sg6
F4.0
sg7
F3.0
sg8
F-4.0
sg9
F1.0
sb(dp208
I00
F-0.6188037422035908
sI01
F71.27422066375017
ss(i__main__
State
p209
(dp210
g3
I2
sg4
I3
sg5
I2
sg6
F-2.0
sg7
F7.0
sg8
F2.0
sg9
F-5.0
sb(dp211
I00
F-14.76
sI01
I77
ss(i__main__
State
p212
(dp213
g3
I2
sg4
I3
sg5
I2
sg6
F-6.0
sg7
F7.0
sg8
F6.0
sg9
F10.0
sb(dp214
I00
F70.75229102161028
sI01
F-1.7
ss(i__main__
State
p215
(dp216
g3
I2
sg4
I3
sg5
I2
sg6
F6.0
sg7
F7.0
sg8
F-6.0
sg9
F1.0
sb(dp217
I00
I-95
sI01
F81.42780792195691
ss(i__main__
State
p218
(dp219
g3
I2
sg4
I3
sg5
I2
sg6
F8.0
sg7
F9.0
sg8
F-8.0
sg9
F1.0
sb(dp220
I00
F-3426.0421898259815
sI01
F-4059.245074468648
ss(i__main__
State
p221
(dp222
g3
I2
sg4
I3
sg5
I2
sg6
F-6.0
sg7
F6.0
sg8
F6.0
sg9
F-2.0
sb(dp223
I00
F-8.865391781866641
sI01
F27.611273816287234
ss(i__main__
State
p224
(dp225
g3
I2
sg4
I3
sg5
I2
sg6
F-6.0
sg7
F10.0
sg8
F6.0
sg9
F4.0
sb(dp226
I00
F299.7209593723575
sI01
F75.3009640920505
ss(i__main__
State
p227
(dp228
g3
I2
sg4
I3
sg5
I2
sg6
F-8.0
sg7
F7.0
sg8
F8.0
sg9
F-8.0
sb(dp229
I00
F61.248836162635335
sI01
F13.077441999000003
ss(i__main__
State
p230
(dp231
g3
I2
sg4
I3
sg5
I2
sg6
F6.0
sg7
F1.0
sg8
F-6.0
sg9
F-8.0
sb(dp232
I00
I33
sI01
F80.90878456927999
ss(i__main__
State
p233
(dp234
g3
I2
sg4
I3
sg5
I2
sg6
F6.0
sg7
F8.0
sg8
F-6.0
sg9
F-2.0
sb(dp235
I00
F105.95779264763821
sI01
F-626.9552000000001
ss(i__main__
State
p236
(dp237
g3
I2
sg4
I3
sg5
I2
sg6
F-8.0
sg7
F10.0
sg8
F8.0
sg9
F10.0
sb(dp238
I00
F111.45719318973912
sI01
F0.0
ss(i__main__
State
p239
(dp240
g3
I2
sg4
I3
sg5
I2
sg6
F-6.0
sg7
F0.0
sg8
F6.0
sg9
F7.0
sb(dp241
I00
F58.03587115698536
sI01
F-5.699999999999999
ss(i__main__
State
p242
(dp243
g3
I2
sg4
I3
sg5
I2
sg6
F0.0
sg7
F2.0
sg8
F0.0
sg9
F7.0
sb(dp244
I00
I-68
sI01
F-20.7875300110767
ss(i__main__
State
p245
(dp246
g3
I2
sg4
I3
sg5
I2
sg6
F-8.0
sg7
F0.0
sg8
F8.0
sg9
F4.0
sb(dp247
I00
F4.927069992873893
sI01
F10.72069432328249
ss(i__main__
State
p248
(dp249
g3
I2
sg4
I3
sg5
I2
sg6
F2.0
sg7
F10.0
sg8
F-2.0
sg9
F-8.0
sb(dp250
I00
F0.0
sI01
F36.198004
ss(i__main__
State
p251
(dp252
g3
I2
sg4
I3
sg5
I2
sg6
F4.0
sg7
F9.0
sg8
F-4.0
sg9
F4.0
sb(dp253
I00
F53.98096651443459
sI01
F12.4358722
ss(i__main__
State
p254
(dp255
g3
I2
sg4
I3
sg5
I2
sg6
F2.0
sg7
F4.0
sg8
F-2.0
sg9
F10.0
sb(dp256
I00
F-13.964629799999997
sI01
F-38.9
ss(i__main__
State
p257
(dp258
g3
I2
sg4
I3
sg5
I2
sg6
F-4.0
sg7
F3.0
sg8
F4.0
sg9
F4.0
sb(dp259
I00
F41.942459454103215
sI01
F29.263509890691324
ss(i__main__
State
p260
(dp261
g3
I2
sg4
I3
sg5
I2
sg6
F8.0
sg7
F1.0
sg8
F-8.0
sg9
F10.0
sb(dp262
I00
F-82.0
sI01
F-59.654016463
ss(i__main__
State
p263
(dp264
g3
I2
sg4
I3
sg5
I2
sg6
F-4.0
sg7
F8.0
sg8
F4.0
sg9
F4.0
sb(dp265
I00
F10.0
sI01
F79.93293470671539
ss(i__main__
State
p266
(dp267
g3
I2
sg4
I3
sg5
I2
sg6
F-6.0
sg7
F7.0
sg8
F6.0
sg9
F4.0
sb(dp268
I00
F-26.826
sI01
F96.66755237071973
ss(i__main__
State
p269
(dp270
g3
I2
sg4
I3
sg5
I2
sg6
F-8.0
sg7
F1.0
sg8
F8.0
sg9
F7.0
sb(dp271
I00
F-62.817099655
sI01
F44.92492830805872
ss(i__main__
State
p272
(dp273
g3
I2
sg4
I3
sg5
I2
sg6
F-8.0
sg7
F3.0
sg8
F8.0
sg9
F4.0
sb(dp274
I00
F46.86716369348162
sI01
F46.03671665376578
ss(i__main__
State
p275
(dp276
g3
I2
sg4
I3
sg5
I2
sg6
F-2.0
sg7
F8.0
sg8
F2.0
sg9
F-5.0
sb(dp277
I00
F0.0
sI01
F106.88611611005132
ss(i__main__
State
p278
(dp279
g3
I2
sg4
I3
sg5
I2
sg6
F4.0
sg7
F10.0
sg8
F-4.0
sg9
F1.0
sb(dp280
I00
F183.99757163967408
sI01
F10.628840015588166
ss(i__main__
State
p281
(dp282
g3
I2
sg4
I3
sg5
I2
sg6
F-2.0
sg7
F1.0
sg8
F2.0
sg9
F-5.0
sb(dp283
I00
F-15.995587869999998
sI01
F48.9015711974588
ss(i__main__
State
p284
(dp285
g3
I2
sg4
I3
sg5
I2
sg6
F-2.0
sg7
F5.0
sg8
F2.0
sg9
F4.0
sb(dp286
I00
F7.382394457872059
sI01
F-37.8016
ss(i__main__
State
p287
(dp288
g3
I2
sg4
I3
sg5
I2
sg6
F-4.0
sg7
F0.0
sg8
F4.0
sg9
F-2.0
sb(dp289
I00
I-4
sI01
F89.3895614
ss(i__main__
State
p290
(dp291
g3
I2
sg4
I3
sg5
I2
sg6
F8.0
sg7
F6.0
sg8
F-8.0
sg9
F-8.0
sb(dp292
I00
F3.1439192164491683
sI01
F68.35289115760325
ss(i__main__
State
p293
(dp294
g3
I2
sg4
I3
sg5
I2
sg6
F-6.0
sg7
F0.0
sg8
F6.0
sg9
F4.0
sb(dp295
I00
I-98
sI01
F51.57277582641883
ss(i__main__
State
p296
(dp297
g3
I2
sg4
I3
sg5
I2
sg6
F8.0
sg7
F8.0
sg8
F-8.0
sg9
F-5.0
sb(dp298
I00
F71.31224799
sI01
F66.27475699801582
ss(i__main__
State
p299
(dp300
g3
I2
sg4
I3
sg5
I2
sg6
F4.0
sg7
F0.0
sg8
F-4.0
sg9
F10.0
sb(dp301
I00
F11.6188626
sI01
F15.245907385475343
ss(i__main__
State
p302
(dp303
g3
I2
sg4
I3
sg5
I2
sg6
F2.0
sg7
F7.0
sg8
F-2.0
sg9
F7.0
sb(dp304
I00
F-52.51485397799999
sI01
F-175.56580000000002
ss(i__main__
State
p305
(dp306
g3
I2
sg4
I3
sg5
I2
sg6
F8.0
sg7
F5.0
sg8
F-8.0
sg9
F7.0
sb(dp307
I00
F-12.38261992141463
sI01
F-81.47420449
ss(i__main__
State
p308
(dp309
g3
I2
sg4
I3
sg5
I2
sg6
F-4.0
sg7
F6.0
sg8
F4.0
sg9
F4.0
sb(dp310
I00
F47.06356439025544
sI01
F-59.58124023839999
ss(i__main__
State
p311
(dp312
g3
I2
sg4
I3
sg5
I2
sg6
F-8.0
sg7
F10.0
sg8
F8.0
sg9
F4.0
sb(dp313
I00
F124.28250299022304
sI01
F128.39015938816013
ss(i__main__
State
p314
(dp315
g3
I2
sg4
I3
sg5
I2
sg6
F2.0
sg7
F2.0
sg8
F-2.0
sg9
F1.0
sb(dp316
I00
F51.396705689013885
sI01
F-11.4
ss(i__main__
State
p317
(dp318
g3
I2
sg4
I3
sg5
I2
sg6
F-6.0
sg7
F7.0
sg8
F6.0
sg9
F7.0
sb(dp319
I00
F44.16931443269901
sI01
F-6.182599088247764
ss(i__main__
State
p320
(dp321
g3
I2
sg4
I3
sg5
I2
sg6
F6.0
sg7
F2.0
sg8
F-6.0
sg9
F7.0
sb(dp322
I00
F69.8728272615293
sI01
F53.17153
ss(i__main__
State
p323
(dp324
g3
I2
sg4
I3
sg5
I2
sg6
F6.0
sg7
F5.0
sg8
F-6.0
sg9
F-2.0
sb(dp325
I00
F18.541999999999998
sI01
F47.117815568804545
ss(i__main__
State
p326
(dp327
g3
I2
sg4
I3
sg5
I2
sg6
F-2.0
sg7
F8.0
sg8
F2.0
sg9
F-8.0
sb(dp328
I00
F10.0
sI01
F30.0
ss(i__main__
State
p329
(dp330
g3
I2
sg4
I3
sg5
I2
sg6
F2.0
sg7
F6.0
sg8
F-2.0
sg9
F10.0
sb(dp331
I00
F-6.559999999999999
sI01
I-100
ss(i__main__
State
p332
(dp333
g3
I2
sg4
I3
sg5
I2
sg6
F6.0
sg7
F6.0
sg8
F-6.0
sg9
F1.0
sb(dp334
I00
F27.058182
sI01
I-71
ss(i__main__
State
p335
(dp336
g3
I2
sg4
I3
sg5
I2
sg6
F8.0
sg7
F2.0
sg8
F-8.0
sg9
F-8.0
sb(dp337
I00
F-72.68042000205593
sI01
I-100
ss(i__main__
State
p338
(dp339
g3
I2
sg4
I3
sg5
I2
sg6
F0.0
sg7
F9.0
sg8
F0.0
sg9
F-8.0
sb(dp340
I00
F414.7105232829802
sI01
F111.37415336127302
ss(i__main__
State
p341
(dp342
g3
I2
sg4
I3
sg5
I2
sg6
F0.0
sg7
F9.0
sg8
F0.0
sg9
F4.0
sb(dp343
I00
F213.3674139604812
sI01
F63.20332274054467
ss(i__main__
State
p344
(dp345
g3
I2
sg4
I3
sg5
I2
sg6
F2.0
sg7
F7.0
sg8
F-2.0
sg9
F1.0
sb(dp346
I00
F74.47519712793148
sI01
F-738.2103408623
ss(i__main__
State
p347
(dp348
g3
I2
sg4
I3
sg5
I2
sg6
F-4.0
sg7
F9.0
sg8
F4.0
sg9
F-2.0
sb(dp349
I00
F-2109.480072725687
sI01
F292.76613361723685
ss(i__main__
State
p350
(dp351
g3
I2
sg4
I3
sg5
I2
sg6
F-8.0
sg7
F10.0
sg8
F8.0
sg9
F1.0
sb(dp352
I00
F175.30439441048802
sI01
F48.51180429834
ss(i__main__
State
p353
(dp354
g3
I2
sg4
I3
sg5
I2
sg6
F6.0
sg7
F2.0
sg8
F-6.0
sg9
F-5.0
sb(dp355
I00
F40.48664006271359
sI01
F26.029999999999998
ss(i__main__
State
p356
(dp357
g3
I2
sg4
I3
sg5
I2
sg6
F8.0
sg7
F2.0
sg8
F-8.0
sg9
F10.0
sb(dp358
I00
F-9.061230234999998
sI01
F42.26905099832616
ss(i__main__
State
p359
(dp360
g3
I2
sg4
I3
sg5
I2
sg6
F2.0
sg7
F8.0
sg8
F-2.0
sg9
F7.0
sb(dp361
I00
F-487.2923621887851
sI01
F260.30805562491787
ss(i__main__
State
p362
(dp363
g3
I2
sg4
I3
sg5
I2
sg6
F2.0
sg7
F8.0
sg8
F-2.0
sg9
F-2.0
sb(dp364
I00
F-2174.5806590646444
sI01
F-2269.466654158142
ss(i__main__
State
p365
(dp366
g3
I2
sg4
I3
sg5
I2
sg6
F6.0
sg7
F5.0
sg8
F-6.0
sg9
F1.0
sb(dp367
I00
F-62.69772
sI01
F-35.446998138950995
ss(i__main__
State
p368
(dp369
g3
I2
sg4
I3
sg5
I2
sg6
F2.0
sg7
F4.0
sg8
F-2.0
sg9
F4.0
sb(dp370
I00
F75.15690820268006
sI01
F45.54922803087249
ss(i__main__
State
p371
(dp372
g3
I2
sg4
I3
sg5
I2
sg6
F2.0
sg7
F2.0
sg8
F-2.0
sg9
F-2.0
sb(dp373
I00
F18.094548004953545
sI01
F12.4
ss(i__main__
State
p374
(dp375
g3
I2
sg4
I3
sg5
I2
sg6
F-8.0
sg7
F6.0
sg8
F8.0
sg9
F10.0
sb(dp376
I00
F41.19559570504008
sI01
F-20.761850926936294
ss(i__main__
State
p377
(dp378
g3
I2
sg4
I3
sg5
I2
sg6
F2.0
sg7
F7.0
sg8
F-2.0
sg9
F-8.0
sb(dp379
I00
F-18.847822126188415
sI01
F-103.14
ss(i__main__
State
p380
(dp381
g3
I2
sg4
I3
sg5
I2
sg6
F8.0
sg7
F8.0
sg8
F-8.0
sg9
F4.0
sb(dp382
I00
F233.34804527210213
sI01
F35.481730709510266
ss(i__main__
State
p383
(dp384
g3
I2
sg4
I3
sg5
I2
sg6
F6.0
sg7
F0.0
sg8
F-6.0
sg9
F-5.0
sb(dp385
I00
F-27.840000000000003
sI01
F52.82623614832497
ss(i__main__
State
p386
(dp387
g3
I2
sg4
I3
sg5
I2
sg6
F-2.0
sg7
F2.0
sg8
F2.0
sg9
F-2.0
sb(dp388
I00
F-52.14315025686484
sI01
F25.821261008216574
ss(i__main__
State
p389
(dp390
g3
I2
sg4
I3
sg5
I2
sg6
F8.0
sg7
F6.0
sg8
F-8.0
sg9
F10.0
sb(dp391
I00
F19.42
sI01
F46.46090885397279
ss(i__main__
State
p392
(dp393
g3
I2
sg4
I3
sg5
I2
sg6
F-8.0
sg7
F2.0
sg8
F8.0
sg9
F10.0
sb(dp394
I00
F25.613999999999997
sI01
F37.560872916063346
ss(i__main__
State
p395
(dp396
g3
I2
sg4
I3
sg5
I2
sg6
F8.0
sg7
F9.0
sg8
F-8.0
sg9
F7.0
sb(dp397
I00
F10.0
sI01
F69.46151261024092
ss(i__main__
State
p398
(dp399
g3
I2
sg4
I3
sg5
I2
sg6
F6.0
sg7
F1.0
sg8
F-6.0
sg9
F-5.0
sb(dp400
I00
F77.1752811918042
sI01
F9.072845526191031
ss(i__main__
State
p401
(dp402
g3
I2
sg4
I3
sg5
I2
sg6
F0.0
sg7
F2.0
sg8
F0.0
sg9
F-5.0
sb(dp403
I00
F53.295001564121236
sI01
F39.2
ss(i__main__
State
p404
(dp405
g3
I2
sg4
I3
sg5
I2
sg6
F-8.0
sg7
F6.0
sg8
F8.0
sg9
F-2.0
sb(dp406
I00
F-26.808361665811343
sI01
F11.665113765636814
ss(i__main__
State
p407
(dp408
g3
I2
sg4
I3
sg5
I2
sg6
F-6.0
sg7
F6.0
sg8
F6.0
sg9
F-8.0
sb(dp409
I00
I-87
sI01
F44.57811098760207
ss(i__main__
State
p410
(dp411
g3
I2
sg4
I3
sg5
I2
sg6
F6.0
sg7
F1.0
sg8
F-6.0
sg9
F4.0
sb(dp412
I00
F39.533453371639084
sI01
I1
ss(i__main__
State
p413
(dp414
g3
I2
sg4
I3
sg5
I2
sg6
F8.0
sg7
F9.0
sg8
F-8.0
sg9
F-8.0
sb(dp415
I00
F30.2761
sI01
F0.0
ss(i__main__
State
p416
(dp417
g3
I2
sg4
I3
sg5
I2
sg6
F-6.0
sg7
F8.0
sg8
F6.0
sg9
F-8.0
sb(dp418
I00
F113.6522217074263
sI01
F28.759386284324187
ss(i__main__
State
p419
(dp420
g3
I2
sg4
I3
sg5
I2
sg6
F-2.0
sg7
F2.0
sg8
F2.0
sg9
F4.0
sb(dp421
I00
F47.661645004388944
sI01
F-64.455824932
ss(i__main__
State
p422
(dp423
g3
I2
sg4
I3
sg5
I2
sg6
F-6.0
sg7
F1.0
sg8
F6.0
sg9
F-8.0
sb(dp424
I00
F-47.2718028622817
sI01
F13.545514297887312
ss(i__main__
State
p425
(dp426
g3
I2
sg4
I3
sg5
I2
sg6
F0.0
sg7
F4.0
sg8
F0.0
sg9
F7.0
sb(dp427
I00
F4.345975039944319
sI01
F49.8423789548207
ss(i__main__
State
p428
(dp429
g3
I2
sg4
I3
sg5
I2
sg6
F-4.0
sg7
F0.0
sg8
F4.0
sg9
F7.0
sb(dp430
I00
F-23.43176
sI01
F32.79010125978951
ss(i__main__
State
p431
(dp432
g3
I2
sg4
I3
sg5
I2
sg6
F8.0
sg7
F4.0
sg8
F-8.0
sg9
F10.0
sb(dp433
I00
F51.073073072254836
sI01
F45.270457072225206
ss(i__main__
State
p434
(dp435
g3
I2
sg4
I3
sg5
I2
sg6
F0.0
sg7
F7.0
sg8
F0.0
sg9
F-8.0
sb(dp436
I00
F52.7
sI01
F-41.022091037966234
ss(i__main__
State
p437
(dp438
g3
I2
sg4
I3
sg5
I2
sg6
F-4.0
sg7
F10.0
sg8
F4.0
sg9
F-8.0
sb(dp439
I00
F12.123771115
sI01
F77.7593743804124
ss(i__main__
State
p440
(dp441
g3
I2
sg4
I3
sg5
I2
sg6
F-2.0
sg7
F9.0
sg8
F2.0
sg9
F1.0
sb(dp442
I00
F-2706.7052
sI01
F-1886.8942595348035
ss(i__main__
State
p443
(dp444
g3
I2
sg4
I3
sg5
I2
sg6
F-4.0
sg7
F5.0
sg8
F4.0
sg9
F-2.0
sb(dp445
I00
F-18.046193953113082
sI01
F-46.1038
ss(i__main__
State
p446
(dp447
g3
I2
sg4
I3
sg5
I2
sg6
F-8.0
sg7
F6.0
sg8
F8.0
sg9
F-8.0
sb(dp448
I00
F59.5
sI01
I-21
ss(i__main__
State
p449
(dp450
g3
I2
sg4
I3
sg5
I2
sg6
F-6.0
sg7
F1.0
sg8
F6.0
sg9
F-2.0
sb(dp451
I00
F78.48345058
sI01
I81
ss(i__main__
State
p452
(dp453
g3
I2
sg4
I3
sg5
I2
sg6
F2.0
sg7
F2.0
sg8
F-2.0
sg9
F10.0
sb(dp454
I00
F62.88762922272
sI01
I70
ss(i__main__
State
p455
(dp456
g3
I2
sg4
I3
sg5
I2
sg6
F4.0
sg7
F1.0
sg8
F-4.0
sg9
F1.0
sb(dp457
I00
F-73.6
sI01
F36.1766
ss(i__main__
State
p458
(dp459
g3
I2
sg4
I3
sg5
I2
sg6
F4.0
sg7
F6.0
sg8
F-4.0
sg9
F10.0
sb(dp460
I00
F-44.019999999999996
sI01
F1.698134017305338
ss(i__main__
State
p461
(dp462
g3
I2
sg4
I3
sg5
I2
sg6
F0.0
sg7
F7.0
sg8
F0.0
sg9
F1.0
sb(dp463
I00
F74.65019903844652
sI01
F-46.76499166969409
ss(i__main__
State
p464
(dp465
g3
I2
sg4
I3
sg5
I2
sg6
F-2.0
sg7
F3.0
sg8
F2.0
sg9
F10.0
sb(dp466
I00
F45.946929889233
sI01
F-28.22043979575335
ss(i__main__
State
p467
(dp468
g3
I2
sg4
I3
sg5
I2
sg6
F2.0
sg7
F5.0
sg8
F-2.0
sg9
F1.0
sb(dp469
I00
F44.80186161369854
sI01
F42.56378617159187
ss(i__main__
State
p470
(dp471
g3
I2
sg4
I3
sg5
I2
sg6
F0.0
sg7
F4.0
sg8
F0.0
sg9
F-2.0
sb(dp472
I00
F61.32379147355172
sI01
F-54.730000000000004
ss(i__main__
State
p473
(dp474
g3
I2
sg4
I3
sg5
I2
sg6
F2.0
sg7
F8.0
sg8
F-2.0
sg9
F1.0
sb(dp475
I00
F-1197.9194965203833
sI01
F221.3106065050051
ss(i__main__
State
p476
(dp477
g3
I2
sg4
I3
sg5
I2
sg6
F6.0
sg7
F2.0
sg8
F-6.0
sg9
F4.0
sb(dp478
I00
F51.7812006708829
sI01
F71.2338843066844
ss(i__main__
State
p479
(dp480
g3
I2
sg4
I3
sg5
I2
sg6
F6.0
sg7
F9.0
sg8
F-6.0
sg9
F-2.0
sb(dp481
I00
F-252.71
sI01
F222.82676047500792
ss(i__main__
State
p482
(dp483
g3
I2
sg4
I3
sg5
I2
sg6
F-4.0
sg7
F3.0
sg8
F4.0
sg9
F1.0
sb(dp484
I00
F36.807763494821785
sI01
F-28.435463574392212
ss(i__main__
State
p485
(dp486
g3
I2
sg4
I3
sg5
I2
sg6
F-4.0
sg7
F4.0
sg8
F4.0
sg9
F7.0
sb(dp487
I00
F25.042595324388575
sI01
I30
ss(i__main__
State
p488
(dp489
g3
I2
sg4
I3
sg5
I2
sg6
F2.0
sg7
F0.0
sg8
F-2.0
sg9
F10.0
sb(dp490
I00
F18.745394818090332
sI01
I-78
ss(i__main__
State
p491
(dp492
g3
I2
sg4
I3
sg5
I2
sg6
F-6.0
sg7
F7.0
sg8
F6.0
sg9
F1.0
sb(dp493
I00
F-64.3
sI01
F45.182
ss(i__main__
State
p494
(dp495
g3
I2
sg4
I3
sg5
I2
sg6
F-8.0
sg7
F5.0
sg8
F8.0
sg9
F4.0
sb(dp496
I00
F-61.99948821208656
sI01
F8.452748597829675
ss(i__main__
State
p497
(dp498
g3
I2
sg4
I3
sg5
I2
sg6
F2.0
sg7
F8.0
sg8
F-2.0
sg9
F4.0
sb(dp499
I00
F-155.43
sI01
F70.05943785551956
ss(i__main__
State
p500
(dp501
g3
I2
sg4
I3
sg5
I2
sg6
F2.0
sg7
F7.0
sg8
F-2.0
sg9
F-2.0
sb(dp502
I00
F25.70964090611281
sI01
F-1135.5283692674639
ss(i__main__
State
p503
(dp504
g3
I2
sg4
I3
sg5
I2
sg6
F-2.0
sg7
F1.0
sg8
F2.0
sg9
F10.0
sb(dp505
I00
F47.401534145487986
sI01
F-37.32999999999999
ss(i__main__
State
p506
(dp507
g3
I2
sg4
I3
sg5
I2
sg6
F0.0
sg7
F5.0
sg8
F0.0
sg9
F1.0
sb(dp508
I00
F-23.8855
sI01
F40.359800255605116
ss(i__main__
State
p509
(dp510
g3
I2
sg4
I3
sg5
I2
sg6
F-6.0
sg7
F4.0
sg8
F6.0
sg9
F-5.0
sb(dp511
I00
F27.748076
sI01
F57.38390095948879
ss(i__main__
State
p512
(dp513
g3
I2
sg4
I3
sg5
I2
sg6
F8.0
sg7
F2.0
sg8
F-8.0
sg9
F7.0
sb(dp514
I00
F-60.7
sI01
F46.506641214834055
ss(i__main__
State
p515
(dp516
g3
I2
sg4
I3
sg5
I2
sg6
F-2.0
sg7
F8.0
sg8
F2.0
sg9
F10.0
sb(dp517
I00
F128.23343854498785
sI01
F0.0
ss(i__main__
State
p518
(dp519
g3
I2
sg4
I3
sg5
I2
sg6
F-2.0
sg7
F6.0
sg8
F2.0
sg9
F7.0
sb(dp520
I00
F-59.115534000000004
sI01
F2.8167194860306655
ss(i__main__
State
p521
(dp522
g3
I2
sg4
I3
sg5
I2
sg6
F-4.0
sg7
F8.0
sg8
F4.0
sg9
F-8.0
sb(dp523
I00
F353.26082440445117
sI01
F58.33711447895797
ss(i__main__
State
p524
(dp525
g3
I2
sg4
I3
sg5
I2
sg6
F-6.0
sg7
F9.0
sg8
F6.0
sg9
F4.0
sb(dp526
I00
F10.0
sI01
F31.500081590000004
ss(i__main__
State
p527
(dp528
g3
I2
sg4
I3
sg5
I2
sg6
F8.0
sg7
F5.0
sg8
F-8.0
sg9
F10.0
sb(dp529
I00
F83.90506261351531
sI01
I-45
ss(i__main__
State
p530
(dp531
g3
I2
sg4
I3
sg5
I2
sg6
F2.0
sg7
F3.0
sg8
F-2.0
sg9
F4.0
sb(dp532
I00
F-32.434460718479635
sI01
F63.1465639352892
ss(i__main__
State
p533
(dp534
g3
I2
sg4
I3
sg5
I2
sg6
F-8.0
sg7
F10.0
sg8
F8.0
sg9
F-2.0
sb(dp535
I00
F94.08669685133219
sI01
F17.5
ss(i__main__
State
p536
(dp537
g3
I2
sg4
I3
sg5
I2
sg6
F8.0
sg7
F2.0
sg8
F-8.0
sg9
F1.0
sb(dp538
I00
F77.5596183601506
sI01
F22.38077632402013
ss(i__main__
State
p539
(dp540
g3
I2
sg4
I3
sg5
I2
sg6
F-2.0
sg7
F5.0
sg8
F2.0
sg9
F7.0
sb(dp541
I00
F-59.9
sI01
F30.055343474587296
ss(i__main__
State
p542
(dp543
g3
I2
sg4
I3
sg5
I2
sg6
F-2.0
sg7
F3.0
sg8
F2.0
sg9
F-5.0
sb(dp544
I00
F47.603334457772995
sI01
F16.8741621598
ss(i__main__
State
p545
(dp546
g3
I2
sg4
I3
sg5
I2
sg6
F6.0
sg7
F1.0
sg8
F-6.0
sg9
F1.0
sb(dp547
I00
F5.738843206380837
sI01
F2.4289087953005897
ss(i__main__
State
p548
(dp549
g3
I2
sg4
I3
sg5
I2
sg6
F8.0
sg7
F5.0
sg8
F-8.0
sg9
F-8.0
sb(dp550
I00
F-0.5672361947199
sI01
F59.43119926574981
ss(i__main__
State
p551
(dp552
g3
I2
sg4
I3
sg5
I2
sg6
F-6.0
sg7
F4.0
sg8
F6.0
sg9
F-8.0
sb(dp553
I00
I-74
sI01
F50.28908043106536
ss(i__main__
State
p554
(dp555
g3
I2
sg4
I3
sg5
I2
sg6
F8.0
sg7
F6.0
sg8
F-8.0
sg9
F7.0
sb(dp556
I00
F40.29433409841362
sI01
F-50.75
ss(i__main__
State
p557
(dp558
g3
I2
sg4
I3
sg5
I2
sg6
F6.0
sg7
F3.0
sg8
F-6.0
sg9
F-5.0
sb(dp559
I00
F45.708364
sI01
F-0.23098165028406936
ss(i__main__
State
p560
(dp561
g3
I2
sg4
I3
sg5
I2
sg6
F0.0
sg7
F5.0
sg8
F0.0
sg9
F7.0
sb(dp562
I00
F-4.505775757784779
sI01
I-74
ss(i__main__
State
p563
(dp564
g3
I2
sg4
I3
sg5
I2
sg6
F-8.0
sg7
F4.0
sg8
F8.0
sg9
F4.0
sb(dp565
I00
F-27.757319360055835
sI01
F-36.421787520173
ss(i__main__
State
p566
(dp567
g3
I2
sg4
I3
sg5
I2
sg6
F0.0
sg7
F6.0
sg8
F0.0
sg9
F-8.0
sb(dp568
I00
F64.7887
sI01
I-17
ss(i__main__
State
p569
(dp570
g3
I2
sg4
I3
sg5
I2
sg6
F6.0
sg7
F4.0
sg8
F-6.0
sg9
F7.0
sb(dp571
I00
F82.48603238926206
sI01
I-6
ss(i__main__
State
p572
(dp573
g3
I2
sg4
I3
sg5
I2
sg6
F-4.0
sg7
F1.0
sg8
F4.0
sg9
F4.0
sb(dp574
I00
F-87.85
sI01
F46.2267332758064
ss(i__main__
State
p575
(dp576
g3
I2
sg4
I3
sg5
I2
sg6
F8.0
sg7
F5.0
sg8
F-8.0
sg9
F-2.0
sb(dp577
I00
F-62.8
sI01
F-3.0609909999999987
ss(i__main__
State
p578
(dp579
g3
I2
sg4
I3
sg5
I2
sg6
F-4.0
sg7
F9.0
sg8
F4.0
sg9
F-5.0
sb(dp580
I00
F49.04892888905986
sI01
F215.32347103634808
ss(i__main__
State
p581
(dp582
g3
I2
sg4
I3
sg5
I2
sg6
F-6.0
sg7
F9.0
sg8
F6.0
sg9
F1.0
sb(dp583
I00
F-4674.077317542
sI01
F-5167.983179289291
ss(i__main__
State
p584
(dp585
g3
I2
sg4
I3
sg5
I2
sg6
F-8.0
sg7
F4.0
sg8
F8.0
sg9
F-5.0
sb(dp586
I00
F-3.8999999999999995
sI01
F17.72802
ss(i__main__
State
p587
(dp588
g3
I2
sg4
I3
sg5
I2
sg6
F-6.0
sg7
F8.0
sg8
F6.0
sg9
F1.0
sb(dp589
I00
F12.0
sI01
F0.0
ss(i__main__
State
p590
(dp591
g3
I2
sg4
I3
sg5
I2
sg6
F-2.0
sg7
F1.0
sg8
F2.0
sg9
F-2.0
sb(dp592
I00
I-75
sI01
F48.70031027526595
ss(i__main__
State
p593
(dp594
g3
I2
sg4
I3
sg5
I2
sg6
F4.0
sg7
F9.0
sg8
F-4.0
sg9
F-5.0
sb(dp595
I00
F-276.8679897582525
sI01
F180.06982916124784
ss(i__main__
State
p596
(dp597
g3
I2
sg4
I3
sg5
I2
sg6
F2.0
sg7
F10.0
sg8
F-2.0
sg9
F7.0
sb(dp598
I00
F-561.40876889
sI01
F50.6971572499
ss(i__main__
State
p599
(dp600
g3
I2
sg4
I3
sg5
I2
sg6
F8.0
sg7
F6.0
sg8
F-8.0
sg9
F-5.0
sb(dp601
I00
F51.90674906560036
sI01
F-78.7764
ss(i__main__
State
p602
(dp603
g3
I2
sg4
I3
sg5
I2
sg6
F6.0
sg7
F8.0
sg8
F-6.0
sg9
F1.0
sb(dp604
I00
F225.94430660723384
sI01
F35.189875210338
ss(i__main__
State
p605
(dp606
g3
I2
sg4
I3
sg5
I2
sg6
F6.0
sg7
F1.0
sg8
F-6.0
sg9
F7.0
sb(dp607
I00
F-46.14408084271245
sI01
F23.987766266185414
ss(i__main__
State
p608
(dp609
g3
I2
sg4
I3
sg5
I2
sg6
F2.0
sg7
F9.0
sg8
F-2.0
sg9
F-2.0
sb(dp610
I00
F-2080.813281354277
sI01
F-1810.3046838407815
ss(i__main__
State
p611
(dp612
g3
I2
sg4
I3
sg5
I2
sg6
F4.0
sg7
F4.0
sg8
F-4.0
sg9
F7.0
sb(dp613
I00
I-99
sI01
F25.195496258893247
ss(i__main__
State
p614
(dp615
g3
I2
sg4
I3
sg5
I2
sg6
F6.0
sg7
F0.0
sg8
F-6.0
sg9
F10.0
sb(dp616
I00
F-48.403242552
sI01
F-19.326981338407936
ss(i__main__
State
p617
(dp618
g3
I2
sg4
I3
sg5
I2
sg6
F2.0
sg7
F5.0
sg8
F-2.0
sg9
F-8.0
sb(dp619
I00
F17.184360685531
sI01
I-62
ss(i__main__
State
p620
(dp621
g3
I2
sg4
I3
sg5
I2
sg6
F-2.0
sg7
F7.0
sg8
F2.0
sg9
F1.0
sb(dp622
I00
F15.097247044087485
sI01
F1.8959444017663358
ss(i__main__
State
p623
(dp624
g3
I2
sg4
I3
sg5
I2
sg6
F-2.0
sg7
F4.0
sg8
F2.0
sg9
F-2.0
sb(dp625
I00
F37.35
sI01
F34.72741031300027
ss(i__main__
State
p626
(dp627
g3
I2
sg4
I3
sg5
I2
sg6
F6.0
sg7
F7.0
sg8
F-6.0
sg9
F-2.0
sb(dp628
I00
I-75
sI01
F61.78901459657271
ss(i__main__
State
p629
(dp630
g3
I2
sg4
I3
sg5
I2
sg6
F6.0
sg7
F10.0
sg8
F-6.0
sg9
F1.0
sb(dp631
I00
F67.240903170999
sI01
F144.30606314063382
ss(i__main__
State
p632
(dp633
g3
I2
sg4
I3
sg5
I2
sg6
F4.0
sg7
F3.0
sg8
F-4.0
sg9
F-2.0
sb(dp634
I00
F-80.9
sI01
F10.083224960000004
ss(i__main__
State
p635
(dp636
g3
I2
sg4
I3
sg5
I2
sg6
F-4.0
sg7
F1.0
sg8
F4.0
sg9
F1.0
sb(dp637
I00
F60.72
sI01
I98
ss(i__main__
State
p638
(dp639
g3
I2
sg4
I3
sg5
I2
sg6
F-6.0
sg7
F5.0
sg8
F6.0
sg9
F1.0
sb(dp640
I00
F-16.65434123938242
sI01
F-66.0429526335493
ss(i__main__
State
p641
(dp642
g3
I2
sg4
I3
sg5
I2
sg6
F-6.0
sg7
F8.0
sg8
F6.0
sg9
F10.0
sb(dp643
I00
F42.69
sI01
F0.0
ss(i__main__
State
p644
(dp645
g3
I2
sg4
I3
sg5
I2
sg6
F-8.0
sg7
F2.0
sg8
F8.0
sg9
F4.0
sb(dp646
I00
F72.03900000000002
sI01
F9.460841269284835
ss(i__main__
State
p647
(dp648
g3
I2
sg4
I3
sg5
I2
sg6
F8.0
sg7
F3.0
sg8
F-8.0
sg9
F-5.0
sb(dp649
I00
F29.605235512444047
sI01
F-10.553818086625395
ss(i__main__
State
p650
(dp651
g3
I2
sg4
I3
sg5
I2
sg6
F8.0
sg7
F9.0
sg8
F-8.0
sg9
F10.0
sb(dp652
I00
F37.99421187494068
sI01
F33.02614219265797
ss(i__main__
State
p653
(dp654
g3
I2
sg4
I3
sg5
I2
sg6
F-8.0
sg7
F4.0
sg8
F8.0
sg9
F7.0
sb(dp655
I00
F55.25543918425252
sI01
F47.47869883
ss(i__main__
State
p656
(dp657
g3
I2
sg4
I3
sg5
I2
sg6
F-2.0
sg7
F0.0
sg8
F2.0
sg9
F7.0
sb(dp658
I00
F-79.3797585658
sI01
F62.77225227975225
ss(i__main__
State
p659
(dp660
g3
I2
sg4
I3
sg5
I2
sg6
F8.0
sg7
F7.0
sg8
F-8.0
sg9
F-2.0
sb(dp661
I00
F48.010699931647885
sI01
F123.49150214806201
ss(i__main__
State
p662
(dp663
g3
I2
sg4
I3
sg5
I2
sg6
F-3.0
sg7
F0.0
sg8
F3.0
sg9
F0.0
sb(dp664
I00
F-9.0
sI01
I-75
ss(i__main__
State
p665
(dp666
g3
I2
sg4
I3
sg5
I2
sg6
F-8.0
sg7
F0.0
sg8
F8.0
sg9
F-2.0
sb(dp667
I00
I86
sI01
F88.015871
ss(i__main__
State
p668
(dp669
g3
I2
sg4
I3
sg5
I2
sg6
F4.0
sg7
F2.0
sg8
F-4.0
sg9
F4.0
sb(dp670
I00
F69.86888347595577
sI01
I-81
ss(i__main__
State
p671
(dp672
g3
I2
sg4
I3
sg5
I2
sg6
F8.0
sg7
F9.0
sg8
F-8.0
sg9
F-2.0
sb(dp673
I00
F-90.0
sI01
F52.01064133672495
ss(i__main__
State
p674
(dp675
g3
I2
sg4
I3
sg5
I2
sg6
F8.0
sg7
F3.0
sg8
F-8.0
sg9
F7.0
sb(dp676
I00
I-25
sI01
F26.118054184603817
ss(i__main__
State
p677
(dp678
g3
I2
sg4
I3
sg5
I2
sg6
F8.0
sg7
F7.0
sg8
F-8.0
sg9
F-8.0
sb(dp679
I00
I-2
sI01
F108.0168876046207
ss(i__main__
State
p680
(dp681
g3
I2
sg4
I3
sg5
I2
sg6
F-8.0
sg7
F8.0
sg8
F8.0
sg9
F1.0
sb(dp682
I00
F188.12750762496657
sI01
F11.0
ss(i__main__
State
p683
(dp684
g3
I2
sg4
I3
sg5
I2
sg6
F-4.0
sg7
F2.0
sg8
F4.0
sg9
F7.0
sb(dp685
I00
F-10.103395299048282
sI01
F-29.409116460222908
ss(i__main__
State
p686
(dp687
g3
I2
sg4
I3
sg5
I2
sg6
F8.0
sg7
F4.0
sg8
F-8.0
sg9
F7.0
sb(dp688
I00
F41.31085400446772
sI01
F-56.95660290474599
ss(i__main__
State
p689
(dp690
g3
I2
sg4
I3
sg5
I2
sg6
F-4.0
sg7
F5.0
sg8
F4.0
sg9
F-5.0
sb(dp691
I00
F42.12531013896827
sI01
F32.52054203922376
ss(i__main__
State
p692
(dp693
g3
I2
sg4
I3
sg5
I2
sg6
F-6.0
sg7
F1.0
sg8
F6.0
sg9
F-5.0
sb(dp694
I00
F72.2978210774677
sI01
F-1.5530879843779424
ss(i__main__
State
p695
(dp696
g3
I2
sg4
I3
sg5
I2
sg6
F-6.0
sg7
F5.0
sg8
F6.0
sg9
F4.0
sb(dp697
I00
F-59.519999999999996
sI01
F35.20857095759596
ss(i__main__
State
p698
(dp699
g3
I2
sg4
I3
sg5
I2
sg6
F-2.0
sg7
F0.0
sg8
F2.0
sg9
F4.0
sb(dp700
I00
F-21.534750104636807
sI01
F30.623179588233057
ss(i__main__
State
p701
(dp702
g3
I2
sg4
I3
sg5
I2
sg6
F-2.0
sg7
F10.0
sg8
F2.0
sg9
F-5.0
sb(dp703
I00
F217.92825326455863
sI01
F0.0
ss(i__main__
State
p704
(dp705
g3
I2
sg4
I3
sg5
I2
sg6
F6.0
sg7
F7.0
sg8
F-6.0
sg9
F7.0
sb(dp706
I00
F-15.29428469792929
sI01
F304.2702454061301
ss(i__main__
State
p707
(dp708
g3
I2
sg4
I3
sg5
I2
sg6
F2.0
sg7
F3.0
sg8
F-2.0
sg9
F-8.0
sb(dp709
I00
F5.645819569724322
sI01
F-57.083
ss(i__main__
State
p710
(dp711
g3
I2
sg4
I3
sg5
I2
sg6
F4.0
sg7
F1.0
sg8
F-4.0
sg9
F-8.0
sb(dp712
I00
F21.429583885571468
sI01
F-54.96252804827947
ss(i__main__
State
p713
(dp714
g3
I2
sg4
I3
sg5
I2
sg6
F2.0
sg7
F1.0
sg8
F-2.0
sg9
F10.0
sb(dp715
I00
F12.839116911331342
sI01
F52.752748173649195
ss(i__main__
State
p716
(dp717
g3
I2
sg4
I3
sg5
I2
sg6
F8.0
sg7
F10.0
sg8
F-8.0
sg9
F-5.0
sb(dp718
I00
F117.78458198381668
sI01
F0.0
ss(i__main__
State
p719
(dp720
g3
I2
sg4
I3
sg5
I2
sg6
F6.0
sg7
F6.0
sg8
F-6.0
sg9
F10.0
sb(dp721
I00
F-22.8314372274493
sI01
F54.28293991127964
ss(i__main__
State
p722
(dp723
g3
I2
sg4
I3
sg5
I2
sg6
F-4.0
sg7
F6.0
sg8
F4.0
sg9
F7.0
sb(dp724
I00
F-20.231927
sI01
F27.420464875660915
ss(i__main__
State
p725
(dp726
g3
I2
sg4
I3
sg5
I2
sg6
F6.0
sg7
F8.0
sg8
F-6.0
sg9
F-8.0
sb(dp727
I00
F-58.50645130843223
sI01
F159.42943471196037
ss(i__main__
State
p728
(dp729
g3
I2
sg4
I3
sg5
I2
sg6
F-8.0
sg7
F6.0
sg8
F8.0
sg9
F1.0
sb(dp730
I00
F75.91083320305015
sI01
F-9.01365664177
ss(i__main__
State
p731
(dp732
g3
I2
sg4
I3
sg5
I2
sg6
F0.0
sg7
F10.0
sg8
F0.0
sg9
F4.0
sb(dp733
I00
F-2700.557771721698
sI01
F-2691.9214940908696
ss(i__main__
State
p734
(dp735
g3
I2
sg4
I3
sg5
I2
sg6
F2.0
sg7
F6.0
sg8
F-2.0
sg9
F-5.0
sb(dp736
I00
F41.21331804519484
sI01
F22.38133
ss(i__main__
State
p737
(dp738
g3
I2
sg4
I3
sg5
I2
sg6
F4.0
sg7
F3.0
sg8
F-4.0
sg9
F4.0
sb(dp739
I00
F-20.012204774736418
sI01
F74.3164798952616
ss(i__main__
State
p740
(dp741
g3
I2
sg4
I3
sg5
I2
sg6
F2.0
sg7
F9.0
sg8
F-2.0
sg9
F-8.0
sb(dp742
I00
F390.8894075963319
sI01
F-871.4157243093916
ss(i__main__
State
p743
(dp744
g3
I2
sg4
I3
sg5
I2
sg6
F-6.0
sg7
F4.0
sg8
F6.0
sg9
F-2.0
sb(dp745
I00
F66.4132208256264
sI01
F-37.5
ss(i__main__
State
p746
(dp747
g3
I2
sg4
I3
sg5
I2
sg6
F-4.0
sg7
F4.0
sg8
F4.0
sg9
F-5.0
sb(dp748
I00
I-20
sI01
F19.8932683107708
ss(i__main__
State
p749
(dp750
g3
I2
sg4
I3
sg5
I2
sg6
F-9.0
sg7
F1.0
sg8
F9.0
sg9
F9.0
sb(dp751
I00
F48.1
sI01
I-54
ss(i__main__
State
p752
(dp753
g3
I2
sg4
I3
sg5
I2
sg6
F8.0
sg7
F0.0
sg8
F-8.0
sg9
F10.0
sb(dp754
I00
F59.41034726903392
sI01
F-46.46282143
ss(i__main__
State
p755
(dp756
g3
I2
sg4
I3
sg5
I2
sg6
F8.0
sg7
F10.0
sg8
F-8.0
sg9
F10.0
sb(dp757
I00
F254.18591240477406
sI01
F26.72655654781
ss(i__main__
State
p758
(dp759
g3
I2
sg4
I3
sg5
I2
sg6
F-8.0
sg7
F3.0
sg8
F8.0
sg9
F-5.0
sb(dp760
I00
F26.04556500257565
sI01
F54.07641624396506
ss(i__main__
State
p761
(dp762
g3
I2
sg4
I3
sg5
I2
sg6
F4.0
sg7
F2.0
sg8
F-4.0
sg9
F10.0
sb(dp763
I00
F27.923329967739974
sI01
F30.63168037024169
ss(i__main__
State
p764
(dp765
g3
I2
sg4
I3
sg5
I2
sg6
F2.0
sg7
F10.0
sg8
F-2.0
sg9
F4.0
sb(dp766
I00
F-465.7339400000001
sI01
F111.28341749008
ss(i__main__
State
p767
(dp768
g3
I2
sg4
I3
sg5
I2
sg6
F-2.0
sg7
F1.0
sg8
F2.0
sg9
F4.0
sb(dp769
I00
F-52.86566390751792
sI01
F5.483871968193901
ss(i__main__
State
p770
(dp771
g3
I2
sg4
I3
sg5
I2
sg6
F0.0
sg7
F8.0
sg8
F0.0
sg9
F4.0
sb(dp772
I00
F-4646.64768814226
sI01
F-4062.1384347585167
ss(i__main__
State
p773
(dp774
g3
I2
sg4
I3
sg5
I2
sg6
F-2.0
sg7
F6.0
sg8
F2.0
sg9
F4.0
sb(dp775
I00
F39.032862096909
sI01
F38.71403692259433
ss(i__main__
State
p776
(dp777
g3
I2
sg4
I3
sg5
I2
sg6
F-6.0
sg7
F9.0
sg8
F6.0
sg9
F7.0
sb(dp778
I00
F12.0
sI01
F80.64906574780431
ss(i__main__
State
p779
(dp780
g3
I2
sg4
I3
sg5
I2
sg6
F-4.0
sg7
F7.0
sg8
F4.0
sg9
F-2.0
sb(dp781
I00
F-80.702
sI01
F5.4
ss(i__main__
State
p782
(dp783
g3
I2
sg4
I3
sg5
I2
sg6
F0.0
sg7
F7.0
sg8
F0.0
sg9
F4.0
sb(dp784
I00
F-35.68724679884053
sI01
F103.17531134753231
ss(i__main__
State
p785
(dp786
g3
I2
sg4
I3
sg5
I2
sg6
F6.0
sg7
F4.0
sg8
F-6.0
sg9
F1.0
sb(dp787
I00
F62.085702564654596
sI01
F-31.03698
ss(i__main__
State
p788
(dp789
g3
I2
sg4
I3
sg5
I2
sg6
F-4.0
sg7
F0.0
sg8
F4.0
sg9
F-5.0
sb(dp790
I00
F47.709651881897756
sI01
F-12.299999999999999
ss(i__main__
State
p791
(dp792
g3
I2
sg4
I3
sg5
I2
sg6
F-2.0
sg7
F2.0
sg8
F2.0
sg9
F10.0
sb(dp793
I00
F-24.0369
sI01
I-80
ss(i__main__
State
p794
(dp795
g3
I2
sg4
I3
sg5
I2
sg6
F0.0
sg7
F4.0
sg8
F0.0
sg9
F-5.0
sb(dp796
I00
I-84
sI01
F40.62222591514875
ss(i__main__
State
p797
(dp798
g3
I2
sg4
I3
sg5
I2
sg6
F-4.0
sg7
F4.0
sg8
F4.0
sg9
F1.0
sb(dp799
I00
F85.16970736636398
sI01
F-50.87
ss(i__main__
State
p800
(dp801
g3
I2
sg4
I3
sg5
I2
sg6
F4.0
sg7
F10.0
sg8
F-4.0
sg9
F7.0
sb(dp802
I00
F172.24463937516902
sI01
F31.08478134570168
ss(i__main__
State
p803
(dp804
g3
I2
sg4
I3
sg5
I2
sg6
F4.0
sg7
F8.0
sg8
F-4.0
sg9
F4.0
sb(dp805
I00
F245.50318089977148
sI01
F54.21024226869165
ss(i__main__
State
p806
(dp807
g3
I2
sg4
I3
sg5
I2
sg6
F8.0
sg7
F1.0
sg8
F-8.0
sg9
F4.0
sb(dp808
I00
F42.159473129
sI01
F76.3672059774255
ss(i__main__
State
p809
(dp810
g3
I2
sg4
I3
sg5
I2
sg6
F2.0
sg7
F7.0
sg8
F-2.0
sg9
F-5.0
sb(dp811
I00
F65.2460323
sI01
F36.0
ss(i__main__
State
p812
(dp813
g3
I2
sg4
I3
sg5
I2
sg6
F0.0
sg7
F8.0
sg8
F0.0
sg9
F10.0
sb(dp814
I00
F-3434.39
sI01
F-3409.005574861586
ss(i__main__
State
p815
(dp816
g3
I2
sg4
I3
sg5
I2
sg6
F-6.0
sg7
F4.0
sg8
F6.0
sg9
F10.0
sb(dp817
I00
F-20.434784036617053
sI01
I-78
ss(i__main__
State
p818
(dp819
g3
I2
sg4
I3
sg5
I2
sg6
F-2.0
sg7
F6.0
sg8
F2.0
sg9
F10.0
sb(dp820
I00
F-24.03217562426339
sI01
I-93
ss(i__main__
State
p821
(dp822
g3
I2
sg4
I3
sg5
I2
sg6
F2.0
sg7
F3.0
sg8
F-2.0
sg9
F1.0
sb(dp823
I00
I65
sI01
F89.62
ss(i__main__
State
p824
(dp825
g3
I2
sg4
I3
sg5
I2
sg6
F-4.0
sg7
F7.0
sg8
F4.0
sg9
F-5.0
sb(dp826
I00
F-28.730989744561704
sI01
F78.45904514360817
ss(i__main__
State
p827
(dp828
g3
I2
sg4
I3
sg5
I2
sg6
F0.0
sg7
F3.0
sg8
F0.0
sg9
F4.0
sb(dp829
I00
I-92
sI01
F-73.91
ss(i__main__
State
p830
(dp831
g3
I2
sg4
I3
sg5
I2
sg6
F6.0
sg7
F1.0
sg8
F-6.0
sg9
F10.0
sb(dp832
I00
F-33.84625934566986
sI01
F50.539985887146784
ss(i__main__
State
p833
(dp834
g3
I2
sg4
I3
sg5
I2
sg6
F4.0
sg7
F7.0
sg8
F-4.0
sg9
F1.0
sb(dp835
I00
I-40
sI01
F58.48697329074
ss(i__main__
State
p836
(dp837
g3
I2
sg4
I3
sg5
I2
sg6
F-8.0
sg7
F5.0
sg8
F8.0
sg9
F1.0
sb(dp838
I00
F-71.80102866008266
sI01
F90.31710726697249
ss(i__main__
State
p839
(dp840
g3
I2
sg4
I3
sg5
I2
sg6
F-2.0
sg7
F3.0
sg8
F2.0
sg9
F1.0
sb(dp841
I00
F-38.952231002160175
sI01
F42.67987
ss(i__main__
State
p842
(dp843
g3
I2
sg4
I3
sg5
I2
sg6
F2.0
sg7
F1.0
sg8
F-2.0
sg9
F4.0
sb(dp844
I00
I83
sI01
F28.909999999999997
ss(i__main__
State
p845
(dp846
g3
I2
sg4
I3
sg5
I2
sg6
F-4.0
sg7
F8.0
sg8
F4.0
sg9
F10.0
sb(dp847
I00
F24.91357
sI01
F204.16356686911868
ss(i__main__
State
p848
(dp849
g3
I2
sg4
I3
sg5
I2
sg6
F0.0
sg7
F2.0
sg8
F0.0
sg9
F10.0
sb(dp850
I00
F0.1303893525754043
sI01
F-74.2
ss(i__main__
State
p851
(dp852
g3
I2
sg4
I3
sg5
I2
sg6
F0.0
sg7
F3.0
sg8
F0.0
sg9
F-5.0
sb(dp853
I00
I-98
sI01
F20.311432208514027
ss(i__main__
State
p854
(dp855
g3
I2
sg4
I3
sg5
I2
sg6
F-8.0
sg7
F6.0
sg8
F8.0
sg9
F7.0
sb(dp856
I00
F-3.927983779027839
sI01
F59.688505923090666
ss(i__main__
State
p857
(dp858
g3
I2
sg4
I3
sg5
I2
sg6
F-8.0
sg7
F3.0
sg8
F8.0
sg9
F-8.0
sb(dp859
I00
F23.010254410855666
sI01
F20.574528914601736
ss(i__main__
State
p860
(dp861
g3
I2
sg4
I3
sg5
I2
sg6
F4.0
sg7
F0.0
sg8
F-4.0
sg9
F-5.0
sb(dp862
I00
F-73.259021731644
sI01
F13.064044068539404
ss(i__main__
State
p863
(dp864
g3
I2
sg4
I3
sg5
I2
sg6
F2.0
sg7
F6.0
sg8
F-2.0
sg9
F-2.0
sb(dp865
I00
I-44
sI01
F37.21790842643563
ss(i__main__
State
p866
(dp867
g3
I2
sg4
I3
sg5
I2
sg6
F-2.0
sg7
F7.0
sg8
F2.0
sg9
F4.0
sb(dp868
I00
F-12.204557517299998
sI01
F144.4976637235323
ss(i__main__
State
p869
(dp870
g3
I2
sg4
I3
sg5
I2
sg6
F0.0
sg7
F5.0
sg8
F0.0
sg9
F10.0
sb(dp871
I00
I-97
sI01
F2.736617820000003
ss(i__main__
State
p872
(dp873
g3
I2
sg4
I3
sg5
I2
sg6
F8.0
sg7
F3.0
sg8
F-8.0
sg9
F1.0
sb(dp874
I00
F-52.481506091
sI01
F-68.6
ss(i__main__
State
p875
(dp876
g3
I2
sg4
I3
sg5
I2
sg6
F6.0
sg7
F0.0
sg8
F-6.0
sg9
F1.0
sb(dp877
I00
F54.42951298494839
sI01
F1.2999999999999998
ss(i__main__
State
p878
(dp879
g3
I2
sg4
I3
sg5
I2
sg6
F-8.0
sg7
F1.0
sg8
F8.0
sg9
F-5.0
sb(dp880
I00
F57.42103631311553
sI01
I14
ss(i__main__
State
p881
(dp882
g3
I2
sg4
I3
sg5
I2
sg6
F-8.0
sg7
F9.0
sg8
F8.0
sg9
F-8.0
sb(dp883
I00
F233.88866033030723
sI01
F47.09925050667927
ss(i__main__
State
p884
(dp885
g3
I2
sg4
I3
sg5
I2
sg6
F-2.0
sg7
F5.0
sg8
F2.0
sg9
F1.0
sb(dp886
I00
F43.3214335
sI01
F71.39236426171821
ss(i__main__
State
p887
(dp888
g3
I2
sg4
I3
sg5
I2
sg6
F2.0
sg7
F8.0
sg8
F-2.0
sg9
F-5.0
sb(dp889
I00
F10.0
sI01
F157.24281681775255
ss(i__main__
State
p890
(dp891
g3
I2
sg4
I3
sg5
I2
sg6
F6.0
sg7
F6.0
sg8
F-6.0
sg9
F-5.0
sb(dp892
I00
F79.13800693411036
sI01
F55.82016128034
ss(i__main__
State
p893
(dp894
g3
I2
sg4
I3
sg5
I2
sg6
F-2.0
sg7
F6.0
sg8
F2.0
sg9
F-2.0
sb(dp895
I00
F-15.518690058456784
sI01
F47.926427672306865
ss(i__main__
State
p896
(dp897
g3
I2
sg4
I3
sg5
I2
sg6
F8.0
sg7
F4.0
sg8
F-8.0
sg9
F-2.0
sb(dp898
I00
F54.9107939562095
sI01
F-65.1801462288951
ss(i__main__
State
p899
(dp900
g3
I2
sg4
I3
sg5
I2
sg6
F-8.0
sg7
F5.0
sg8
F8.0
sg9
F7.0
sb(dp901
I00
I5
sI01
F74.68806062072494
ss(i__main__
State
p902
(dp903
g3
I2
sg4
I3
sg5
I2
sg6
F0.0
sg7
F1.0
sg8
F0.0
sg9
F7.0
sb(dp904
I00
I-98
sI01
F-40.5
ss(i__main__
State
p905
(dp906
g3
I2
sg4
I3
sg5
I2
sg6
F-4.0
sg7
F10.0
sg8
F4.0
sg9
F-5.0
sb(dp907
I00
F42.84068042807401
sI01
F0.0
ss(i__main__
State
p908
(dp909
g3
I2
sg4
I3
sg5
I2
sg6
F-6.0
sg7
F2.0
sg8
F6.0
sg9
F7.0
sb(dp910
I00
F63.28234783006404
sI01
F-36.52338473472526
ss(i__main__
State
p911
(dp912
g3
I2
sg4
I3
sg5
I2
sg6
F4.0
sg7
F1.0
sg8
F-4.0
sg9
F10.0
sb(dp913
I00
F-12.784361046697631
sI01
F-81.484706
ss(i__main__
State
p914
(dp915
g3
I2
sg4
I3
sg5
I2
sg6
F2.0
sg7
F4.0
sg8
F-2.0
sg9
F1.0
sb(dp916
I00
F84.25865565000001
sI01
F-20.97
ss(i__main__
State
p917
(dp918
g3
I2
sg4
I3
sg5
I2
sg6
F-4.0
sg7
F10.0
sg8
F4.0
sg9
F10.0
sb(dp919
I00
F50.846243511000004
sI01
F145.1555843607454
ss(i__main__
State
p920
(dp921
g3
I2
sg4
I3
sg5
I2
sg6
F2.0
sg7
F6.0
sg8
F-2.0
sg9
F-8.0
sb(dp922
I00
F37.68860784044171
sI01
F-48.959739237901815
ss(i__main__
State
p923
(dp924
g3
I2
sg4
I3
sg5
I2
sg6
F-8.0
sg7
F7.0
sg8
F8.0
sg9
F7.0
sb(dp925
I00
I47
sI01
F89.73791127393059
ss(i__main__
State
p926
(dp927
g3
I2
sg4
I3
sg5
I2
sg6
F-6.0
sg7
F2.0
sg8
F6.0
sg9
F1.0
sb(dp928
I00
F76.41381
sI01
F16.237977477037155
ss(i__main__
State
p929
(dp930
g3
I2
sg4
I3
sg5
I2
sg6
F2.0
sg7
F9.0
sg8
F-2.0
sg9
F-5.0
sb(dp931
I00
F72.0456979852109
sI01
F-252.02700000000002
ss(i__main__
State
p932
(dp933
g3
I2
sg4
I3
sg5
I2
sg6
F4.0
sg7
F5.0
sg8
F-4.0
sg9
F-8.0
sb(dp934
I00
F34.00240719385913
sI01
F-29.773913996932023
ss(i__main__
State
p935
(dp936
g3
I2
sg4
I3
sg5
I2
sg6
F4.0
sg7
F4.0
sg8
F-4.0
sg9
F10.0
sb(dp937
I00
F46.75039325785583
sI01
F8.4
ss(i__main__
State
p938
(dp939
g3
I2
sg4
I3
sg5
I2
sg6
F0.0
sg7
F6.0
sg8
F0.0
sg9
F1.0
sb(dp940
I00
I85
sI01
F70.175
ss(i__main__
State
p941
(dp942
g3
I2
sg4
I3
sg5
I2
sg6
F-8.0
sg7
F8.0
sg8
F8.0
sg9
F4.0
sb(dp943
I00
F30.0
sI01
F11.399090000000001
ss(i__main__
State
p944
(dp945
g3
I2
sg4
I3
sg5
I2
sg6
F-6.0
sg7
F3.0
sg8
F6.0
sg9
F-8.0
sb(dp946
I00
F57.119784222410054
sI01
F38.7028264
ss(i__main__
State
p947
(dp948
g3
I2
sg4
I3
sg5
I2
sg6
F-8.0
sg7
F2.0
sg8
F8.0
sg9
F-5.0
sb(dp949
I00
F-1.7760683729907
sI01
F59.07355109403309
ss(i__main__
State
p950
(dp951
g3
I2
sg4
I3
sg5
I2
sg6
F-6.0
sg7
F8.0
sg8
F6.0
sg9
F-2.0
sb(dp952
I00
F128.41918839481394
sI01
F-552.2819820942162
ss(i__main__
State
p953
(dp954
g3
I2
sg4
I3
sg5
I2
sg6
F-2.0
sg7
F7.0
sg8
F2.0
sg9
F10.0
sb(dp955
I00
F12.63527004736535
sI01
F269.1644782363991
ss(i__main__
State
p956
(dp957
g3
I2
sg4
I3
sg5
I2
sg6
F0.0
sg7
F0.0
sg8
F0.0
sg9
F-8.0
sb(dp958
I00
F7.6296261
sI01
F38.826740184563924
ss(i__main__
State
p959
(dp960
g3
I2
sg4
I3
sg5
I2
sg6
F-2.0
sg7
F4.0
sg8
F2.0
sg9
F-5.0
sb(dp961
I00
F-29.666000000000004
sI01
F-2.694037590506335
ss(i__main__
State
p962
(dp963
g3
I2
sg4
I3
sg5
I2
sg6
F0.0
sg7
F9.0
sg8
F0.0
sg9
F1.0
sb(dp964
I00
F-6077.4970183652185
sI01
F-6080.432815316841
ss(i__main__
State
p965
(dp966
g3
I2
sg4
I3
sg5
I2
sg6
F8.0
sg7
F0.0
sg8
F-8.0
sg9
F-5.0
sb(dp967
I00
I-68
sI01
F3.0890084294067996
ss(i__main__
State
p968
(dp969
g3
I2
sg4
I3
sg5
I2
sg6
F8.0
sg7
F8.0
sg8
F-8.0
sg9
F-8.0
sb(dp970
I00
F181.8589207008108
sI01
F13.256633
ss(i__main__
State
p971
(dp972
g3
I2
sg4
I3
sg5
I2
sg6
F0.0
sg7
F1.0
sg8
F0.0
sg9
F-5.0
sb(dp973
I00
F-43.00563484547144
sI01
F22.02369275873906
ss(i__main__
State
p974
(dp975
g3
I2
sg4
I3
sg5
I2
sg6
F-2.0
sg7
F4.0
sg8
F2.0
sg9
F10.0
sb(dp976
I00
F67.67975466483556
sI01
F-12.54630909060666
ss(i__main__
State
p977
(dp978
g3
I2
sg4
I3
sg5
I2
sg6
F-2.0
sg7
F9.0
sg8
F2.0
sg9
F4.0
sb(dp979
I00
F140.9637248124929
sI01
F59.99063952491677
ss(i__main__
State
p980
(dp981
g3
I2
sg4
I3
sg5
I2
sg6
F-8.0
sg7
F5.0
sg8
F8.0
sg9
F10.0
sb(dp982
I00
F-26.92306073878739
sI01
F-48.48079502620608
ss(i__main__
State
p983
(dp984
g3
I2
sg4
I3
sg5
I2
sg6
F-2.0
sg7
F9.0
sg8
F2.0
sg9
F-8.0
sb(dp985
I00
F250.56680610843793
sI01
F12.0
ss(i__main__
State
p986
(dp987
g3
I2
sg4
I3
sg5
I2
sg6
F-4.0
sg7
F2.0
sg8
F4.0
sg9
F-8.0
sb(dp988
I00
F-34.05
sI01
F83.631
ss(i__main__
State
p989
(dp990
g3
I2
sg4
I3
sg5
I2
sg6
F0.0
sg7
F2.0
sg8
F0.0
sg9
F1.0
sb(dp991
I00
F-52.10034293874591
sI01
F-9.974950445699154
ss(i__main__
State
p992
(dp993
g3
I2
sg4
I3
sg5
I2
sg6
F6.0
sg7
F3.0
sg8
F-6.0
sg9
F1.0
sb(dp994
I00
I15
sI01
F71.77311902361295
ss(i__main__
State
p995
(dp996
g3
I2
sg4
I3
sg5
I2
sg6
F-4.0
sg7
F10.0
sg8
F4.0
sg9
F-2.0
sb(dp997
I00
F250.14846626503274
sI01
F0.0
ss(i__main__
State
p998
(dp999
g3
I2
sg4
I3
sg5
I2
sg6
F-6.0
sg7
F4.0
sg8
F6.0
sg9
F4.0
sb(dp1000
I00
I-29
sI01
F45.25146025408507
ss(i__main__
State
p1001
(dp1002
g3
I2
sg4
I3
sg5
I2
sg6
F-2.0
sg7
F10.0
sg8
F2.0
sg9
F-8.0
sb(dp1003
I00
F20.0
sI01
F57.67318172840173
ss(i__main__
State
p1004
(dp1005
g3
I2
sg4
I3
sg5
I2
sg6
F-6.0
sg7
F3.0
sg8
F6.0
sg9
F-5.0
sb(dp1006
I00
I60
sI01
F81.6898
ss(i__main__
State
p1007
(dp1008
g3
I2
sg4
I3
sg5
I2
sg6
F-8.0
sg7
F5.0
sg8
F8.0
sg9
F-5.0
sb(dp1009
I00
F44.94573
sI01
F64.31646121956412
ss(i__main__
State
p1010
(dp1011
g3
I2
sg4
I3
sg5
I2
sg6
F4.0
sg7
F6.0
sg8
F-4.0
sg9
F-5.0
sb(dp1012
I00
F-57.92800024908724
sI01
F8.143437246277605
ss(i__main__
State
p1013
(dp1014
g3
I2
sg4
I3
sg5
I2
sg6
F-4.0
sg7
F7.0
sg8
F4.0
sg9
F10.0
sb(dp1015
I00
F21.938529137078437
sI01
F79.74269888012276
ss(i__main__
State
p1016
(dp1017
g3
I2
sg4
I3
sg5
I2
sg6
F4.0
sg7
F5.0
sg8
F-4.0
sg9
F4.0
sb(dp1018
I00
F26.1761833283145
sI01
F-50.26703163951
ss(i__main__
State
p1019
(dp1020
g3
I2
sg4
I3
sg5
I2
sg6
F-2.0
sg7
F4.0
sg8
F2.0
sg9
F-8.0
sb(dp1021
I00
F-21.552167162659877
sI01
F40.04211095320384
ss(i__main__
State
p1022
(dp1023
g3
I2
sg4
I3
sg5
I2
sg6
F-4.0
sg7
F4.0
sg8
F4.0
sg9
F-2.0
sb(dp1024
I00
F61.237289918987734
sI01
I43
ss(i__main__
State
p1025
(dp1026
g3
I2
sg4
I3
sg5
I2
sg6
F2.0
sg7
F1.0
sg8
F-2.0
sg9
F1.0
sb(dp1027
I00
F79.27204329970644
sI01
F42.65581146070178
ss(i__main__
State
p1028
(dp1029
g3
I2
sg4
I3
sg5
I2
sg6
F0.0
sg7
F0.0
sg8
F0.0
sg9
F-2.0
sb(dp1030
I00
F5.782116172448717
sI01
F-12.585053257027532
ss(i__main__
State
p1031
(dp1032
g3
I2
sg4
I3
sg5
I2
sg6
F6.0
sg7
F5.0
sg8
F-6.0
sg9
F-8.0
sb(dp1033
I00
F-47.389409099999995
sI01
F21.098093039918787
ss(i__main__
State
p1034
(dp1035
g3
I2
sg4
I3
sg5
I2
sg6
F-8.0
sg7
F3.0
sg8
F8.0
sg9
F-2.0
sb(dp1036
I00
I-24
sI01
F-20.669106964327597
ss(i__main__
State
p1037
(dp1038
g3
I2
sg4
I3
sg5
I2
sg6
F-4.0
sg7
F3.0
sg8
F4.0
sg9
F7.0
sb(dp1039
I00
F20.08430229010704
sI01
I-7
ss(i__main__
State
p1040
(dp1041
g3
I2
sg4
I3
sg5
I2
sg6
F-4.0
sg7
F3.0
sg8
F4.0
sg9
F-8.0
sb(dp1042
I00
I50
sI01
F84.14583573081973
ss(i__main__
State
p1043
(dp1044
g3
I2
sg4
I3
sg5
I2
sg6
F-7.0
sg7
F0.0
sg8
F7.0
sg9
F6.0
sb(dp1045
I00
I0
sI01
F93.4
ss(i__main__
State
p1046
(dp1047
g3
I2
sg4
I3
sg5
I2
sg6
F-2.0
sg7
F3.0
sg8
F2.0
sg9
F-8.0
sb(dp1048
I00
F25.4076559073297
sI01
I18
ss(i__main__
State
p1049
(dp1050
g3
I2
sg4
I3
sg5
I2
sg6
F-6.0
sg7
F2.0
sg8
F6.0
sg9
F-5.0
sb(dp1051
I00
F15.671079668587
sI01
F26.4176262858089
ss(i__main__
State
p1052
(dp1053
g3
I2
sg4
I3
sg5
I2
sg6
F8.0
sg7
F0.0
sg8
F-8.0
sg9
F7.0
sb(dp1054
I00
F-40.49747504959199
sI01
F39.68602452200257
ss(i__main__
State
p1055
(dp1056
g3
I2
sg4
I3
sg5
I2
sg6
F0.0
sg7
F5.0
sg8
F0.0
sg9
F4.0
sb(dp1057
I00
F39.83211546308789
sI01
F-24.92920518899347
ss(i__main__
State
p1058
(dp1059
g3
I2
sg4
I3
sg5
I2
sg6
F-2.0
sg7
F4.0
sg8
F2.0
sg9
F7.0
sb(dp1060
I00
F45.81939503
sI01
I-57
ss(i__main__
State
p1061
(dp1062
g3
I2
sg4
I3
sg5
I2
sg6
F0.0
sg7
F6.0
sg8
F0.0
sg9
F-5.0
sb(dp1063
I00
F40.7377616635205
sI01
F-34.518137041638425
ss(i__main__
State
p1064
(dp1065
g3
I2
sg4
I3
sg5
I2
sg6
F-6.0
sg7
F3.0
sg8
F6.0
sg9
F4.0
sb(dp1066
I00
F-47.632
sI01
F54.68781252106553
ss(i__main__
State
p1067
(dp1068
g3
I2
sg4
I3
sg5
I2
sg6
F-4.0
sg7
F9.0
sg8
F4.0
sg9
F-8.0
sb(dp1069
I00
F120.34048043437534
sI01
F30.123771115
ss(i__main__
State
p1070
(dp1071
g3
I2
sg4
I3
sg5
I2
sg6
F-4.0
sg7
F10.0
sg8
F4.0
sg9
F1.0
sb(dp1072
I00
F332.78566768110574
sI01
F94.32968775001261
ss(i__main__
State
p1073
(dp1074
g3
I2
sg4
I3
sg5
I2
sg6
F-4.0
sg7
F5.0
sg8
F4.0
sg9
F7.0
sb(dp1075
I00
F21.889785539445867
sI01
I-48
ss(i__main__
State
p1076
(dp1077
g3
I2
sg4
I3
sg5
I2
sg6
F0.0
sg7
F2.0
sg8
F0.0
sg9
F-2.0
sb(dp1078
I00
F40.93831900934709
sI01
F11.498434000000001
ss(i__main__
State
p1079
(dp1080
g3
I2
sg4
I3
sg5
I2
sg6
F-8.0
sg7
F7.0
sg8
F8.0
sg9
F-5.0
sb(dp1081
I00
F82.48455660707107
sI01
F51.540935958710435
ss(i__main__
State
p1082
(dp1083
g3
I2
sg4
I3
sg5
I2
sg6
F-8.0
sg7
F10.0
sg8
F8.0
sg9
F-5.0
sb(dp1084
I00
F221.4045775839754
sI01
F17.389075561378
ss(i__main__
State
p1085
(dp1086
g3
I2
sg4
I3
sg5
I2
sg6
F2.0
sg7
F1.0
sg8
F-2.0
sg9
F7.0
sb(dp1087
I00
I-30
sI01
F10.921654602848761
ss(i__main__
State
p1088
(dp1089
g3
I2
sg4
I3
sg5
I2
sg6
F-2.0
sg7
F3.0
sg8
F2.0
sg9
F-2.0
sb(dp1090
I00
F79.93264620716668
sI01
I-32
ss(i__main__
State
p1091
(dp1092
g3
I2
sg4
I3
sg5
I2
sg6
F-2.0
sg7
F3.0
sg8
F2.0
sg9
F7.0
sb(dp1093
I00
I-44
sI01
F64.197701
ss(i__main__
State
p1094
(dp1095
g3
I2
sg4
I3
sg5
I2
sg6
F6.0
sg7
F2.0
sg8
F-6.0
sg9
F-2.0
sb(dp1096
I00
F66.09345601634125
sI01
F-43.194485653040005
ss(i__main__
State
p1097
(dp1098
g3
I2
sg4
I3
sg5
I2
sg6
F0.0
sg7
F9.0
sg8
F0.0
sg9
F-2.0
sb(dp1099
I00
F-155.42000000000002
sI01
F164.38475138790562
ss(i__main__
State
p1100
(dp1101
g3
I2
sg4
I3
sg5
I2
sg6
F4.0
sg7
F2.0
sg8
F-4.0
sg9
F-8.0
sb(dp1102
I00
F55.336382615863144
sI01
F-40.761870155861985
ss(i__main__
State
p1103
(dp1104
g3
I2
sg4
I3
sg5
I2
sg6
F-2.0
sg7
F4.0
sg8
F2.0
sg9
F4.0
sb(dp1105
I00
F75.9
sI01
F75.00436
ss(i__main__
State
p1106
(dp1107
g3
I2
sg4
I3
sg5
I2
sg6
F0.0
sg7
F0.0
sg8
F0.0
sg9
F7.0
sb(dp1108
I00
F-56.33785030886064
sI01
F31.175341311782113
ss(i__main__
State
p1109
(dp1110
g3
I2
sg4
I3
sg5
I2
sg6
F-6.0
sg7
F0.0
sg8
F6.0
sg9
F-8.0
sb(dp1111
I00
F49.73257017315307
sI01
F4.300000000000001
ss(i__main__
State
p1112
(dp1113
g3
I2
sg4
I3
sg5
I2
sg6
F-2.0
sg7
F8.0
sg8
F2.0
sg9
F-2.0
sb(dp1114
I00
F35.73908981
sI01
F0.0
ss(i__main__
State
p1115
(dp1116
g3
I2
sg4
I3
sg5
I2
sg6
F-6.0
sg7
F3.0
sg8
F6.0
sg9
F7.0
sb(dp1117
I00
F38.2825108729312
sI01
F-13.00743356106254
ss(i__main__
State
p1118
(dp1119
g3
I2
sg4
I3
sg5
I2
sg6
F-8.0
sg7
F7.0
sg8
F8.0
sg9
F1.0
sb(dp1120
I00
F32.149861379641145
sI01
F12.073509206495693
ss(i__main__
State
p1121
(dp1122
g3
I2
sg4
I3
sg5
I2
sg6
F-8.0
sg7
F1.0
sg8
F8.0
sg9
F10.0
sb(dp1123
I00
F56.40085387787
sI01
I-56
ss(i__main__
State
p1124
(dp1125
g3
I2
sg4
I3
sg5
I2
sg6
F-8.0
sg7
F1.0
sg8
F8.0
sg9
F-8.0
sb(dp1126
I00
F61.35198020652021
sI01
F49.73085462170141
ss(i__main__
State
p1127
(dp1128
g3
I2
sg4
I3
sg5
I2
sg6
F-6.0
sg7
F2.0
sg8
F6.0
sg9
F-2.0
sb(dp1129
I00
I-21
sI01
F52.323912005299995
ss(i__main__
State
p1130
(dp1131
g3
I2
sg4
I3
sg5
I2
sg6
F4.0
sg7
F7.0
sg8
F-4.0
sg9
F10.0
sb(dp1132
I00
F29.6726431826401
sI01
F48.08752549577007
ss(i__main__
State
p1133
(dp1134
g3
I2
sg4
I3
sg5
I2
sg6
F2.0
sg7
F2.0
sg8
F-2.0
sg9
F-5.0
sb(dp1135
I00
F49.03469675989288
sI01
F56.14683946444735
ss(i__main__
State
p1136
(dp1137
g3
I2
sg4
I3
sg5
I2
sg6
F-2.0
sg7
F6.0
sg8
F2.0
sg9
F1.0
sb(dp1138
I00
F9.288212566168246
sI01
F-61.61462765089622
ss(i__main__
State
p1139
(dp1140
g3
I2
sg4
I3
sg5
I2
sg6
F8.0
sg7
F1.0
sg8
F-8.0
sg9
F-8.0
sb(dp1141
I00
F7.248912735600001
sI01
F26.908180949974817
ss(i__main__
State
p1142
(dp1143
g3
I2
sg4
I3
sg5
I2
sg6
F-2.0
sg7
F5.0
sg8
F2.0
sg9
F-2.0
sb(dp1144
I00
I-92
sI01
F63.66377977020355
ss(i__main__
State
p1145
(dp1146
g3
I2
sg4
I3
sg5
I2
sg6
F4.0
sg7
F10.0
sg8
F-4.0
sg9
F-5.0
sb(dp1147
I00
F202.83140212346967
sI01
F20.768
ss(i__main__
State
p1148
(dp1149
g3
I2
sg4
I3
sg5
I2
sg6
F8.0
sg7
F3.0
sg8
F-8.0
sg9
F10.0
sb(dp1150
I00
F-5.5
sI01
F81.08539314225483
ss(i__main__
State
p1151
(dp1152
g3
I2
sg4
I3
sg5
I2
sg6
F4.0
sg7
F8.0
sg8
F-4.0
sg9
F-8.0
sb(dp1153
I00
F0.0
sI01
F57.633065294735914
ss(i__main__
State
p1154
(dp1155
g3
I2
sg4
I3
sg5
I2
sg6
F-8.0
sg7
F4.0
sg8
F8.0
sg9
F-2.0
sb(dp1156
I00
F30.909702124038105
sI01
I-53
ss(i__main__
State
p1157
(dp1158
g3
I2
sg4
I3
sg5
I2
sg6
F-2.0
sg7
F8.0
sg8
F2.0
sg9
F1.0
sb(dp1159
I00
F59.1354327956
sI01
F13.596940570836
ss(i__main__
State
p1160
(dp1161
g3
I2
sg4
I3
sg5
I2
sg6
F4.0
sg7
F6.0
sg8
F-4.0
sg9
F-2.0
sb(dp1162
I00
F67.92326920750666
sI01
F-18.348753799198
ss(i__main__
State
p1163
(dp1164
g3
I2
sg4
I3
sg5
I2
sg6
F8.0
sg7
F1.0
sg8
F-8.0
sg9
F-2.0
sb(dp1165
I00
F-63.39375356750813
sI01
F61.86996819105159
ss(i__main__
State
p1166
(dp1167
g3
I2
sg4
I3
sg5
I2
sg6
F4.0
sg7
F5.0
sg8
F-4.0
sg9
F1.0
sb(dp1168
I00
F-30.53582
sI01
F-79.00999999999999
ss(i__main__
State
p1169
(dp1170
g3
I2
sg4
I3
sg5
I2
sg6
F-8.0
sg7
F0.0
sg8
F8.0
sg9
F7.0
sb(dp1171
I00
F40.20443590045302
sI01
F-34.3
ss(i__main__
State
p1172
(dp1173
g3
I2
sg4
I3
sg5
I2
sg6
F4.0
sg7
F9.0
sg8
F-4.0
sg9
F-2.0
sb(dp1174
I00
F-90.0
sI01
F64.04784505076123
ss(i__main__
State
p1175
(dp1176
g3
I2
sg4
I3
sg5
I2
sg6
F4.0
sg7
F9.0
sg8
F-4.0
sg9
F7.0
sb(dp1177
I00
F199.98349337322787
sI01
F54.938771251868104
ss(i__main__
State
p1178
(dp1179
g3
I2
sg4
I3
sg5
I2
sg6
F-4.0
sg7
F0.0
sg8
F4.0
sg9
F1.0
sb(dp1180
I00
F-26.000464430189446
sI01
F36.6060323468038
ss(i__main__
State
p1181
(dp1182
g3
I2
sg4
I3
sg5
I2
sg6
F-6.0
sg7
F10.0
sg8
F6.0
sg9
F10.0
sb(dp1183
I00
F10.0
sI01
F57.45432087209096
ss(i__main__
State
p1184
(dp1185
g3
I2
sg4
I3
sg5
I2
sg6
F6.0
sg7
F7.0
sg8
F-6.0
sg9
F10.0
sb(dp1186
I00
I-55
sI01
F-1.959999999999999
ss(i__main__
State
p1187
(dp1188
g3
I2
sg4
I3
sg5
I2
sg6
F-4.0
sg7
F5.0
sg8
F4.0
sg9
F-8.0
sb(dp1189
I00
F-10.177296670289191
sI01
F34.62182588344626
ss(i__main__
State
p1190
(dp1191
g3
I2
sg4
I3
sg5
I2
sg6
F6.0
sg7
F4.0
sg8
F-6.0
sg9
F-5.0
sb(dp1192
I00
F-61.9
sI01
F24.44017162102614
ss(i__main__
State
p1193
(dp1194
g3
I2
sg4
I3
sg5
I2
sg6
F6.0
sg7
F3.0
sg8
F-6.0
sg9
F-8.0
sb(dp1195
I00
F-2.9770000000000003
sI01
F55.96069537598461
ss(i__main__
State
p1196
(dp1197
g3
I2
sg4
I3
sg5
I2
sg6
F-4.0
sg7
F9.0
sg8
F4.0
sg9
F7.0
sb(dp1198
I00
F187.90397711271302
sI01
F32.623778399
ss(i__main__
State
p1199
(dp1200
g3
I2
sg4
I3
sg5
I2
sg6
F6.0
sg7
F6.0
sg8
F-6.0
sg9
F7.0
sb(dp1201
I00
F-64.72
sI01
F25.22727646192957
ss(i__main__
State
p1202
(dp1203
g3
I2
sg4
I3
sg5
I2
sg6
F-4.0
sg7
F7.0
sg8
F4.0
sg9
F4.0
sb(dp1204
I00
F26.31663979961305
sI01
F-54.61
ss(i__main__
State
p1205
(dp1206
g3
I2
sg4
I3
sg5
I2
sg6
F8.0
sg7
F8.0
sg8
F-8.0
sg9
F-2.0
sb(dp1207
I00
F104.62308755071462
sI01
F-540.4463000000001
ss(i__main__
State
p1208
(dp1209
g3
I2
sg4
I3
sg5
I2
sg6
F4.0
sg7
F4.0
sg8
F-4.0
sg9
F1.0
sb(dp1210
I00
F-64.64194467271649
sI01
F63.28935508164303
ss(i__main__
State
p1211
(dp1212
g3
I2
sg4
I3
sg5
I2
sg6
F0.0
sg7
F6.0
sg8
F0.0
sg9
F4.0
sb(dp1213
I00
F-52.348079500000004
sI01
F39.42387332494673
ss(i__main__
State
p1214
(dp1215
g3
I2
sg4
I3
sg5
I2
sg6
F8.0
sg7
F10.0
sg8
F-8.0
sg9
F7.0
sb(dp1216
I00
F129.41062334927986
sI01
F7.200916191063382
ss(i__main__
State
p1217
(dp1218
g3
I2
sg4
I3
sg5
I2
sg6
F6.0
sg7
F1.0
sg8
F-6.0
sg9
F-2.0
sb(dp1219
I00
F15.389660000000001
sI01
F65.4916692036142
ss(i__main__
State
p1220
(dp1221
g3
I2
sg4
I3
sg5
I2
sg6
F0.0
sg7
F5.0
sg8
F0.0
sg9
F-5.0
sb(dp1222
I00
F-28.971701572588564
sI01
I-97
ss(i__main__
State
p1223
(dp1224
g3
I2
sg4
I3
sg5
I2
sg6
F-6.0
sg7
F2.0
sg8
F6.0
sg9
F4.0
sb(dp1225
I00
F68.63
sI01
I-28
ss(i__main__
State
p1226
(dp1227
g3
I2
sg4
I3
sg5
I2
sg6
F6.0
sg7
F9.0
sg8
F-6.0
sg9
F-8.0
sb(dp1228
I00
F79.48753593228136
sI01
F0.0
ss(i__main__
State
p1229
(dp1230
g3
I2
sg4
I3
sg5
I2
sg6
F6.0
sg7
F5.0
sg8
F-6.0
sg9
F-5.0
sb(dp1231
I00
F35.11617659028773
sI01
F19.160343498096978
ss(i__main__
State
p1232
(dp1233
g3
I2
sg4
I3
sg5
I2
sg6
F4.0
sg7
F0.0
sg8
F-4.0
sg9
F-8.0
sb(dp1234
I00
F52.26686846746736
sI01
I-53
ss(i__main__
State
p1235
(dp1236
g3
I2
sg4
I3
sg5
I2
sg6
F0.0
sg7
F0.0
sg8
F0.0
sg9
F1.0
sb(dp1237
I00
F-34.268490501750726
sI01
F31.022451576464366
ss(i__main__
State
p1238
(dp1239
g3
I2
sg4
I3
sg5
I2
sg6
F6.0
sg7
F3.0
sg8
F-6.0
sg9
F7.0
sb(dp1240
I00
F-59.64025695801
sI01
F39.42049025
ss(i__main__
State
p1241
(dp1242
g3
I2
sg4
I3
sg5
I2
sg6
F0.0
sg7
F10.0
sg8
F0.0
sg9
F7.0
sb(dp1243
I00
F-3427.279393653621
sI01
F-2688.578
ss(i__main__
State
p1244
(dp1245
g3
I2
sg4
I3
sg5
I2
sg6
F4.0
sg7
F1.0
sg8
F-4.0
sg9
F4.0
sb(dp1246
I00
F-65.96297
sI01
F8.217907217143829
ss(i__main__
State
p1247
(dp1248
g3
I2
sg4
I3
sg5
I2
sg6
F6.0
sg7
F2.0
sg8
F-6.0
sg9
F-8.0
sb(dp1249
I00
F-44.71086899215645
sI01
F14.829804319999997
ss(i__main__
State
p1250
(dp1251
g3
I2
sg4
I3
sg5
I2
sg6
F2.0
sg7
F5.0
sg8
F-2.0
sg9
F4.0
sb(dp1252
I00
I-76
sI01
F107.70835112690186
ss(i__main__
State
p1253
(dp1254
g3
I2
sg4
I3
sg5
I2
sg6
F0.0
sg7
F4.0
sg8
F0.0
sg9
F4.0
sb(dp1255
I00
F66.17921249000001
sI01
F63.3448460955917
ss(i__main__
State
p1256
(dp1257
g3
I2
sg4
I3
sg5
I2
sg6
F-2.0
sg7
F10.0
sg8
F2.0
sg9
F7.0
sb(dp1258
I00
F102.91532100702723
sI01
F12.00843
ss(i__main__
State
p1259
(dp1260
g3
I2
sg4
I3
sg5
I2
sg6
F-4.0
sg7
F0.0
sg8
F4.0
sg9
F4.0
sb(dp1261
I00
F40.45642036662488
sI01
F-58.3
ss(i__main__
State
p1262
(dp1263
g3
I2
sg4
I3
sg5
I2
sg6
F8.0
sg7
F10.0
sg8
F-8.0
sg9
F1.0
sb(dp1264
I00
F189.66673371444713
sI01
F36.378143
ss(i__main__
State
p1265
(dp1266
g3
I2
sg4
I3
sg5
I2
sg6
F-2.0
sg7
F0.0
sg8
F2.0
sg9
F10.0
sb(dp1267
I00
F-58.2
sI01
F68.4100464989825
ss(i__main__
State
p1268
(dp1269
g3
I2
sg4
I3
sg5
I2
sg6
F0.0
sg7
F7.0
sg8
F0.0
sg9
F-5.0
sb(dp1270
I00
F24.771815059266416
sI01
F-3.5
ss(i__main__
State
p1271
(dp1272
g3
I2
sg4
I3
sg5
I2
sg6
F-6.0
sg7
F5.0
sg8
F6.0
sg9
F-8.0
sb(dp1273
I00
I-86
sI01
F-34.989999999999995
ss(i__main__
State
p1274
(dp1275
g3
I2
sg4
I3
sg5
I2
sg6
F4.0
sg7
F7.0
sg8
F-4.0
sg9
F7.0
sb(dp1276
I00
F13.7777
sI01
F251.72026469637657
ss(i__main__
State
p1277
(dp1278
g3
I2
sg4
I3
sg5
I2
sg6
F-8.0
sg7
F4.0
sg8
F8.0
sg9
F-8.0
sb(dp1279
I00
F48.08819152008224
sI01
F66.06281146970692
ss(i__main__
State
p1280
(dp1281
g3
I2
sg4
I3
sg5
I2
sg6
F4.0
sg7
F10.0
sg8
F-4.0
sg9
F-8.0
sb(dp1282
I00
F108.03437818639301
sI01
F10.600000000000001
ss(i__main__
State
p1283
(dp1284
g3
I2
sg4
I3
sg5
I2
sg6
F4.0
sg7
F3.0
sg8
F-4.0
sg9
F-8.0
sb(dp1285
I00
I-61
sI01
F25.59614649358239
ss(i__main__
State
p1286
(dp1287
g3
I2
sg4
I3
sg5
I2
sg6
F-2.0
sg7
F9.0
sg8
F2.0
sg9
F7.0
sb(dp1288
I00
F47.42503961410199
sI01
F193.69642016293915
ss(i__main__
State
p1289
(dp1290
g3
I2
sg4
I3
sg5
I2
sg6
F0.0
sg7
F8.0
sg8
F0.0
sg9
F-5.0
sb(dp1291
I00
F-1897.699
sI01
F-2692.148606678
ss(i__main__
State
p1292
(dp1293
g3
I2
sg4
I3
sg5
I2
sg6
F-2.0
sg7
F9.0
sg8
F2.0
sg9
F-5.0
sb(dp1294
I00
F361.4481763412824
sI01
F95.90274490390912
ss(i__main__
State
p1295
(dp1296
g3
I2
sg4
I3
sg5
I2
sg6
F6.0
sg7
F0.0
sg8
F-6.0
sg9
F7.0
sb(dp1297
I00
F-68.04858839265668
sI01
F52.8729570352796
ss(i__main__
State
p1298
(dp1299
g3
I2
sg4
I3
sg5
I2
sg6
F-8.0
sg7
F9.0
sg8
F8.0
sg9
F1.0
sb(dp1300
I00
F-1897.99
sI01
F-4050.1191648326308
ss(i__main__
State
p1301
(dp1302
g3
I2
sg4
I3
sg5
I2
sg6
F-6.0
sg7
F5.0
sg8
F6.0
sg9
F-2.0
sb(dp1303
I00
F54.930492680363805
sI01
F-9.52156593860388
ss(i__main__
State
p1304
(dp1305
g3
I2
sg4
I3
sg5
I2
sg6
F-8.0
sg7
F7.0
sg8
F8.0
sg9
F-2.0
sb(dp1306
I00
F31.277908332475626
sI01
F195.33546243310968
ss(i__main__
State
p1307
(dp1308
g3
I2
sg4
I3
sg5
I2
sg6
F4.0
sg7
F2.0
sg8
F-4.0
sg9
F1.0
sb(dp1309
I00
F-57.3797
sI01
F70.22338774618757
ss(i__main__
State
p1310
(dp1311
g3
I2
sg4
I3
sg5
I2
sg6
F-4.0
sg7
F4.0
sg8
F4.0
sg9
F4.0
sb(dp1312
I00
F9.828536233291578
sI01
F-52.2920394584797
ss(i__main__
State
p1313
(dp1314
g3
I2
sg4
I3
sg5
I2
sg6
F2.0
sg7
F7.0
sg8
F-2.0
sg9
F4.0
sb(dp1315
I00
F-23.967932607850162
sI01
F-211.01
ss(i__main__
State
p1316
(dp1317
g3
I2
sg4
I3
sg5
I2
sg6
F-6.0
sg7
F3.0
sg8
F6.0
sg9
F1.0
sb(dp1318
I00
F47.60884797386086
sI01
F-56.9192497433543
ss(i__main__
State
p1319
(dp1320
g3
I2
sg4
I3
sg5
I2
sg6
F-8.0
sg7
F0.0
sg8
F8.0
sg9
F1.0
sb(dp1321
I00
F33.15631737186846
sI01
F-61.2794676376
ss(i__main__
State
p1322
(dp1323
g3
I2
sg4
I3
sg5
I2
sg6
F8.0
sg7
F4.0
sg8
F-8.0
sg9
F-5.0
sb(dp1324
I00
I-62
sI01
F18.575783236286217
ss(i__main__
State
p1325
(dp1326
g3
I2
sg4
I3
sg5
I2
sg6
F2.0
sg7
F7.0
sg8
F-2.0
sg9
F10.0
sb(dp1327
I00
F-33.160000000000004
sI01
F-128.4134288483147
ss(i__main__
State
p1328
(dp1329
g3
I2
sg4
I3
sg5
I2
sg6
F-8.0
sg7
F6.0
sg8
F8.0
sg9
F4.0
sb(dp1330
I00
F-5.267256813263925
sI01
I-81
ss(i__main__
State
p1331
(dp1332
g3
I2
sg4
I3
sg5
I2
sg6
F8.0
sg7
F7.0
sg8
F-8.0
sg9
F4.0
sb(dp1333
I00
F84.87679207596628
sI01
F32.89808761064893
ss(i__main__
State
p1334
(dp1335
g3
I2
sg4
I3
sg5
I2
sg6
F-4.0
sg7
F10.0
sg8
F4.0
sg9
F4.0
sb(dp1336
I00
F139.10019395321737
sI01
F53.831844127732595
ss(i__main__
State
p1337
(dp1338
g3
I2
sg4
I3
sg5
I2
sg6
F0.0
sg7
F1.0
sg8
F0.0
sg9
F-8.0
sb(dp1339
I00
F35.320801360701516
sI01
I-10
ss(i__main__
State
p1340
(dp1341
g3
I2
sg4
I3
sg5
I2
sg6
F-2.0
sg7
F9.0
sg8
F2.0
sg9
F10.0
sb(dp1342
I00
F143.0740528362945
sI01
F29.41288107467465
ss(i__main__
State
p1343
(dp1344
g3
I2
sg4
I3
sg5
I2
sg6
F-6.0
sg7
F3.0
sg8
F6.0
sg9
F-2.0
sb(dp1345
I00
F-42.6277
sI01
F0.8076253065715122
ss(i__main__
State
p1346
(dp1347
g3
I2
sg4
I3
sg5
I2
sg6
F4.0
sg7
F8.0
sg8
F-4.0
sg9
F-2.0
sb(dp1348
I00
F244.8196425642305
sI01
F-1830.2871905430002
ss(i__main__
State
p1349
(dp1350
g3
I2
sg4
I3
sg5
I2
sg6
F2.0
sg7
F0.0
sg8
F-2.0
sg9
F4.0
sb(dp1351
I00
F-52.939827449347604
sI01
F-69.8
ss(i__main__
State
p1352
(dp1353
g3
I2
sg4
I3
sg5
I2
sg6
F-2.0
sg7
F0.0
sg8
F2.0
sg9
F-5.0
sb(dp1354
I00
F-42.4634991
sI01
F26.809902301940003
ss(i__main__
State
p1355
(dp1356
g3
I2
sg4
I3
sg5
I2
sg6
F4.0
sg7
F4.0
sg8
F-4.0
sg9
F4.0
sb(dp1357
I00
F63.99213712348296
sI01
F-37.00400524033065
ss(i__main__
State
p1358
(dp1359
g3
I2
sg4
I3
sg5
I2
sg6
F2.0
sg7
F0.0
sg8
F-2.0
sg9
F7.0
sb(dp1360
I00
F-54.629599999999996
sI01
F65.73527738083202
ss(i__main__
State
p1361
(dp1362
g3
I2
sg4
I3
sg5
I2
sg6
F6.0
sg7
F8.0
sg8
F-6.0
sg9
F4.0
sb(dp1363
I00
F390.82434837220916
sI01
F81.22558744596589
ss(i__main__
State
p1364
(dp1365
g3
I2
sg4
I3
sg5
I2
sg6
F4.0
sg7
F5.0
sg8
F-4.0
sg9
F10.0
sb(dp1366
I00
F-43.793795173999996
sI01
F26.090111550435907
ss(i__main__
State
p1367
(dp1368
g3
I2
sg4
I3
sg5
I2
sg6
F-8.0
sg7
F8.0
sg8
F8.0
sg9
F7.0
sb(dp1369
I00
F211.1429924650189
sI01
F24.984676997789897
ss(i__main__
State
p1370
(dp1371
g3
I2
sg4
I3
sg5
I2
sg6
F2.0
sg7
F10.0
sg8
F-2.0
sg9
F-2.0
sb(dp1372
I00
F-925.1337933400264
sI01
F143.85591186449304
ss(i__main__
State
p1373
(dp1374
g3
I2
sg4
I3
sg5
I2
sg6
F0.0
sg7
F9.0
sg8
F0.0
sg9
F10.0
sb(dp1375
I00
F272.9970288483554
sI01
F24.501608757949242
ss(i__main__
State
p1376
(dp1377
g3
I2
sg4
I3
sg5
I2
sg6
F6.0
sg7
F4.0
sg8
F-6.0
sg9
F-8.0
sb(dp1378
I00
F80.40537706583568
sI01
F-3.330551475069999
ss(i__main__
State
p1379
(dp1380
g3
I2
sg4
I3
sg5
I2
sg6
F8.0
sg7
F9.0
sg8
F-8.0
sg9
F-5.0
sb(dp1381
I00
F222.0801914781036
sI01
F44.550450345834605
ss(i__main__
State
p1382
(dp1383
g3
I2
sg4
I3
sg5
I2
sg6
F6.0
sg7
F10.0
sg8
F-6.0
sg9
F7.0
sb(dp1384
I00
F20.560000000000002
sI01
F98.15328595398034
ss(i__main__
State
p1385
(dp1386
g3
I2
sg4
I3
sg5
I2
sg6
F-8.0
sg7
F1.0
sg8
F8.0
sg9
F1.0
sb(dp1387
I00
F65.10989822495972
sI01
F32.2
ss(i__main__
State
p1388
(dp1389
g3
I2
sg4
I3
sg5
I2
sg6
F6.0
sg7
F8.0
sg8
F-6.0
sg9
F-5.0
sb(dp1390
I00
F223.62949758230786
sI01
F44.15727911923578
ss(i__main__
State
p1391
(dp1392
g3
I2
sg4
I3
sg5
I2
sg6
F-6.0
sg7
F0.0
sg8
F6.0
sg9
F10.0
sb(dp1393
I00
F19.13354465751812
sI01
F43.18413173655265
ss(i__main__
State
p1394
(dp1395
g3
I2
sg4
I3
sg5
I2
sg6
F-2.0
sg7
F0.0
sg8
F2.0
sg9
F-8.0
sb(dp1396
I00
F12.5485633567
sI01
I-45
ss(i__main__
State
p1397
(dp1398
g3
I2
sg4
I3
sg5
I2
sg6
F-8.0
sg7
F9.0
sg8
F8.0
sg9
F10.0
sb(dp1399
I00
F30.009999999999998
sI01
F16.179715649660192
ss(i__main__
State
p1400
(dp1401
g3
I2
sg4
I3
sg5
I2
sg6
F-2.0
sg7
F10.0
sg8
F2.0
sg9
F-2.0
sb(dp1402
I00
F167.99085319616543
sI01
F11.697315275420001
ss(i__main__
State
p1403
(dp1404
g3
I2
sg4
I3
sg5
I2
sg6
F6.0
sg7
F6.0
sg8
F-6.0
sg9
F4.0
sb(dp1405
I00
F-44.1
sI01
F80.05409626652758
ss(i__main__
State
p1406
(dp1407
g3
I2
sg4
I3
sg5
I2
sg6
F4.0
sg7
F4.0
sg8
F-4.0
sg9
F-5.0
sb(dp1408
I00
F51.692958792546754
sI01
F29.7
ss(i__main__
State
p1409
(dp1410
g3
I2
sg4
I3
sg5
I2
sg6
F0.0
sg7
F10.0
sg8
F0.0
sg9
F10.0
sb(dp1411
I00
F-4085.702374508963
sI01
F-2711.5976889000003
ss(i__main__
State
p1412
(dp1413
g3
I2
sg4
I3
sg5
I2
sg6
F0.0
sg7
F1.0
sg8
F0.0
sg9
F4.0
sb(dp1414
I00
F69.23035309377379
sI01
F11.248960454180352
ss(i__main__
State
p1415
(dp1416
g3
I2
sg4
I3
sg5
I2
sg6
F-8.0
sg7
F3.0
sg8
F8.0
sg9
F10.0
sb(dp1417
I00
F27.742657206567884
sI01
F9.23018905016032
ss(i__main__
State
p1418
(dp1419
g3
I2
sg4
I3
sg5
I2
sg6
F-4.0
sg7
F1.0
sg8
F4.0
sg9
F-2.0
sb(dp1420
I00
F49.321652941761
sI01
F-27.500010000000003
ss(i__main__
State
p1421
(dp1422
g3
I2
sg4
I3
sg5
I2
sg6
F6.0
sg7
F9.0
sg8
F-6.0
sg9
F-5.0
sb(dp1423
I00
F43.107190900000006
sI01
F0.0
ss(i__main__
State
p1424
(dp1425
g3
I2
sg4
I3
sg5
I2
sg6
F8.0
sg7
F7.0
sg8
F-8.0
sg9
F-5.0
sb(dp1426
I00
F51.497769517902
sI01
F63.81166658068946
ss(i__main__
State
p1427
(dp1428
g3
I2
sg4
I3
sg5
I2
sg6
F8.0
sg7
F5.0
sg8
F-8.0
sg9
F4.0
sb(dp1429
I00
F6.497687460515888
sI01
F-17.613
ss(i__main__
State
p1430
(dp1431
g3
I2
sg4
I3
sg5
I2
sg6
F8.0
sg7
F4.0
sg8
F-8.0
sg9
F4.0
sb(dp1432
I00
F-30.471999999999994
sI01
F-3.11032109834669
ss(i__main__
State
p1433
(dp1434
g3
I2
sg4
I3
sg5
I2
sg6
F0.0
sg7
F6.0
sg8
F0.0
sg9
F10.0
sb(dp1435
I00
F54.431176724790035
sI01
F-61.973605920000004
ss(i__main__
State
p1436
(dp1437
g3
I2
sg4
I3
sg5
I2
sg6
F2.0
sg7
F0.0
sg8
F-2.0
sg9
F-2.0
sb(dp1438
I00
I-96
sI01
F10.048550206918716
ss(i__main__
State
p1439
(dp1440
g3
I2
sg4
I3
sg5
I2
sg6
F2.0
sg7
F5.0
sg8
F-2.0
sg9
F7.0
sb(dp1441
I00
F9.084395999999998
sI01
F29.27777975567133
ss(i__main__
State
p1442
(dp1443
g3
I2
sg4
I3
sg5
I2
sg6
F-2.0
sg7
F7.0
sg8
F2.0
sg9
F-2.0
sb(dp1444
I00
F-26.48633796038325
sI01
F42.1798331437172
ss(i__main__
State
p1445
(dp1446
g3
I2
sg4
I3
sg5
I2
sg6
F-4.0
sg7
F7.0
sg8
F4.0
sg9
F1.0
sb(dp1447
I00
F51.31391151637267
sI01
F-13.531834030548243
ss(i__main__
State
p1448
(dp1449
g3
I2
sg4
I3
sg5
I2
sg6
F-6.0
sg7
F9.0
sg8
F6.0
sg9
F-8.0
sb(dp1450
I00
F60.91484080898373
sI01
F216.64956964941013
ss(i__main__
State
p1451
(dp1452
g3
I2
sg4
I3
sg5
I2
sg6
F-2.0
sg7
F6.0
sg8
F2.0
sg9
F-5.0
sb(dp1453
I00
F44.496
sI01
F-43.5
ss(i__main__
State
p1454
(dp1455
g3
I2
sg4
I3
sg5
I2
sg6
F-6.0
sg7
F9.0
sg8
F6.0
sg9
F10.0
sb(dp1456
I00
F261.6280095573982
sI01
F54.17019246000967
ss(i__main__
State
p1457
(dp1458
g3
I2
sg4
I3
sg5
I2
sg6
F8.0
sg7
F2.0
sg8
F-8.0
sg9
F-5.0
sb(dp1459
I00
F-19.71138307054558
sI01
F30.021720255704064
ss(i__main__
State
p1460
(dp1461
g3
I2
sg4
I3
sg5
I2
sg6
F6.0
sg7
F10.0
sg8
F-6.0
sg9
F10.0
sb(dp1462
I00
F131.94274330162398
sI01
F31.311550231400002
ss(i__main__
State
p1463
(dp1464
g3
I2
sg4
I3
sg5
I2
sg6
F-2.0
sg7
F1.0
sg8
F2.0
sg9
F1.0
sb(dp1465
I00
F-55.8668335008
sI01
F65.82201167890952
ss(i__main__
State
p1466
(dp1467
g3
I2
sg4
I3
sg5
I2
sg6
F-6.0
sg7
F10.0
sg8
F6.0
sg9
F-8.0
sb(dp1468
I00
F12.0
sI01
F55.981217599000004
ss(i__main__
State
p1469
(dp1470
g3
I2
sg4
I3
sg5
I2
sg6
F8.0
sg7
F2.0
sg8
F-8.0
sg9
F4.0
sb(dp1471
I00
F-74.5
sI01
I61
ss(i__main__
State
p1472
(dp1473
g3
I2
sg4
I3
sg5
I2
sg6
F4.0
sg7
F2.0
sg8
F-4.0
sg9
F-2.0
sb(dp1474
I00
F48.09836758598938
sI01
I-75
ss(i__main__
State
p1475
(dp1476
g3
I2
sg4
I3
sg5
I2
sg6
F0.0
sg7
F10.0
sg8
F0.0
sg9
F-8.0
sb(dp1477
I00
F-5160.629463717055
sI01
F-4675.5986626163
ss(i__main__
State
p1478
(dp1479
g3
I2
sg4
I3
sg5
I2
sg6
F0.0
sg7
F3.0
sg8
F0.0
sg9
F-2.0
sb(dp1480
I00
I53
sI01
F53.132813588859726
ss(i__main__
State
p1481
(dp1482
g3
I2
sg4
I3
sg5
I2
sg6
F4.0
sg7
F3.0
sg8
F-4.0
sg9
F7.0
sb(dp1483
I00
F56.29837255292317
sI01
F-8.305
ss(i__main__
State
p1484
(dp1485
g3
I2
sg4
I3
sg5
I2
sg6
F-6.0
sg7
F9.0
sg8
F6.0
sg9
F-2.0
sb(dp1486
I00
F-72.9
sI01
F58.24267649701129
ss(i__main__
State
p1487
(dp1488
g3
I2
sg4
I3
sg5
I2
sg6
F4.0
sg7
F7.0
sg8
F-4.0
sg9
F-8.0
sb(dp1489
I00
F8.559479999999999
sI01
F84.28941376640289
ss(i__main__
State
p1490
(dp1491
g3
I2
sg4
I3
sg5
I2
sg6
F-8.0
sg7
F7.0
sg8
F8.0
sg9
F10.0
sb(dp1492
I00
F-6.40484739111667
sI01
F71.08039609326838
ss(i__main__
State
p1493
(dp1494
g3
I2
sg4
I3
sg5
I2
sg6
F-6.0
sg7
F4.0
sg8
F6.0
sg9
F1.0
sb(dp1495
I00
F0.8983048078773717
sI01
F-6.403282413461453
ss(i__main__
State
p1496
(dp1497
g3
I2
sg4
I3
sg5
I2
sg6
F8.0
sg7
F10.0
sg8
F-8.0
sg9
F-2.0
sb(dp1498
I00
F209.08356011758102
sI01
F15.382200000000001
ss(i__main__
State
p1499
(dp1500
g3
I2
sg4
I3
sg5
I2
sg6
F2.0
sg7
F0.0
sg8
F-2.0
sg9
F1.0
sb(dp1501
I00
I18
sI01
F51.278250571
ss(i__main__
State
p1502
(dp1503
g3
I2
sg4
I3
sg5
I2
sg6
F-4.0
sg7
F2.0
sg8
F4.0
sg9
F4.0
sb(dp1504
I00
F-12.7
sI01
F51.44539383198472
ss(i__main__
State
p1505
(dp1506
g3
I2
sg4
I3
sg5
I2
sg6
F-8.0
sg7
F10.0
sg8
F8.0
sg9
F-8.0
sb(dp1507
I00
F65.83998468635687
sI01
F0.0
ss(i__main__
State
p1508
(dp1509
g3
I2
sg4
I3
sg5
I2
sg6
F0.0
sg7
F10.0
sg8
F0.0
sg9
F-5.0
sb(dp1510
I00
F-3410.1485533152468
sI01
F-3428.436346673475
ss(i__main__
State
p1511
(dp1512
g3
I2
sg4
I3
sg5
I2
sg6
F-4.0
sg7
F6.0
sg8
F4.0
sg9
F-8.0
sb(dp1513
I00
I20
sI01
F81.62438658667298
ss(i__main__
State
p1514
(dp1515
g3
I2
sg4
I3
sg5
I2
sg6
F-6.0
sg7
F4.0
sg8
F6.0
sg9
F7.0
sb(dp1516
I00
F7.940206439007682
sI01
F-4.393724768000002
ss(i__main__
State
p1517
(dp1518
g3
I2
sg4
I3
sg5
I2
sg6
F8.0
sg7
F5.0
sg8
F-8.0
sg9
F-5.0
sb(dp1519
I00
F35.43263133939487
sI01
F75.92319808242974
ss(i__main__
State
p1520
(dp1521
g3
I2
sg4
I3
sg5
I2
sg6
F6.0
sg7
F9.0
sg8
F-6.0
sg9
F4.0
sb(dp1522
I00
F95.36888177915499
sI01
F26.7202950043721
ss(i__main__
State
p1523
(dp1524
g3
I2
sg4
I3
sg5
I2
sg6
F8.0
sg7
F6.0
sg8
F-8.0
sg9
F4.0
sb(dp1525
I00
F-21.390346915571236
sI01
F179.1640676735736
ss(i__main__
State
p1526
(dp1527
g3
I2
sg4
I3
sg5
I2
sg6
F-2.0
sg7
F3.0
sg8
F2.0
sg9
F4.0
sb(dp1528
I00
F11.736448489106847
sI01
F-12.728336800000001
ss(i__main__
State
p1529
(dp1530
g3
I2
sg4
I3
sg5
I2
sg6
F6.0
sg7
F6.0
sg8
F-6.0
sg9
F-8.0
sb(dp1531
I00
F-12.935762462841732
sI01
F67.3
ss(i__main__
State
p1532
(dp1533
g3
I2
sg4
I3
sg5
I2
sg6
F-8.0
sg7
F2.0
sg8
F8.0
sg9
F-2.0
sb(dp1534
I00
F72.34940029304008
sI01
F-49.419999999999995
ss(i__main__
State
p1535
(dp1536
g3
I2
sg4
I3
sg5
I2
sg6
F-2.0
sg7
F10.0
sg8
F2.0
sg9
F4.0
sb(dp1537
I00
F125.18538595916148
sI01
F33.36410315573261
ss(i__main__
State
p1538
(dp1539
g3
I2
sg4
I3
sg5
I2
sg6
F-6.0
sg7
F5.0
sg8
F6.0
sg9
F-5.0
sb(dp1540
I00
I28
sI01
F51.4808336691233
ss(i__main__
State
p1541
(dp1542
g3
I2
sg4
I3
sg5
I2
sg6
F-6.0
sg7
F1.0
sg8
F6.0
sg9
F4.0
sb(dp1543
I00
F70.125489848676
sI01
F-43.0911
ss(i__main__
State
p1544
(dp1545
g3
I2
sg4
I3
sg5
I2
sg6
F-4.0
sg7
F8.0
sg8
F4.0
sg9
F7.0
sb(dp1546
I00
F22.19
sI01
F254.22540638097635
ss(i__main__
State
p1547
(dp1548
g3
I2
sg4
I3
sg5
I2
sg6
F-4.0
sg7
F5.0
sg8
F4.0
sg9
F4.0
sb(dp1549
I00
F11.321319227034298
sI01
F-25.035461365369585
ss(i__main__
State
p1550
(dp1551
g3
I2
sg4
I3
sg5
I2
sg6
F-6.0
sg7
F2.0
sg8
F6.0
sg9
F-8.0
sb(dp1552
I00
F-43.9684942257379
sI01
F36.6931959065965
ss(i__main__
State
p1553
(dp1554
g3
I2
sg4
I3
sg5
I2
sg6
F6.0
sg7
F10.0
sg8
F-6.0
sg9
F-8.0
sb(dp1555
I00
F230.26142192657974
sI01
F44.967369054491854
ss(i__main__
State
p1556
(dp1557
g3
I2
sg4
I3
sg5
I2
sg6
F8.0
sg7
F9.0
sg8
F-8.0
sg9
F4.0
sb(dp1558
I00
F31.969411310268562
sI01
F0.0
ss(i__main__
State
p1559
(dp1560
g3
I2
sg4
I3
sg5
I2
sg6
F6.0
sg7
F4.0
sg8
F-6.0
sg9
F4.0
sb(dp1561
I00
F-10.310743883626035
sI01
F-46.2853
ss(i__main__
State
p1562
(dp1563
g3
I2
sg4
I3
sg5
I2
sg6
F0.0
sg7
F5.0
sg8
F0.0
sg9
F-2.0
sb(dp1564
I00
F-14.071368967459007
sI01
F0.0898495463991153
ss(i__main__
State
p1565
(dp1566
g3
I2
sg4
I3
sg5
I2
sg6
F8.0
sg7
F6.0
sg8
F-8.0
sg9
F1.0
sb(dp1567
I00
F-28.67585803113247
sI01
F64.01964190653307
ss(i__main__
State
p1568
(dp1569
g3
I2
sg4
I3
sg5
I2
sg6
F2.0
sg7
F9.0
sg8
F-2.0
sg9
F10.0
sb(dp1570
I00
F425.2201434987393
sI01
F-1582.1792786813862
ss(i__main__
State
p1571
(dp1572
g3
I2
sg4
I3
sg5
I2
sg6
F4.0
sg7
F9.0
sg8
F-4.0
sg9
F1.0
sb(dp1573
I00
F-4078.48097108
sI01
F-2706.84
ss(i__main__
State
p1574
(dp1575
g3
I2
sg4
I3
sg5
I2
sg6
F-4.0
sg7
F4.0
sg8
F4.0
sg9
F-8.0
sb(dp1576
I00
F59.05394800279062
sI01
F-54.0853855
ss(i__main__
State
p1577
(dp1578
g3
I2
sg4
I3
sg5
I2
sg6
F4.0
sg7
F5.0
sg8
F-4.0
sg9
F-2.0
sb(dp1579
I00
F44.93620640072984
sI01
F-34.8623
ss(i__main__
State
p1580
(dp1581
g3
I2
sg4
I3
sg5
I2
sg6
F6.0
sg7
F10.0
sg8
F-6.0
sg9
F4.0
sb(dp1582
I00
F199.68482036838697
sI01
F0.0
ss(i__main__
State
p1583
(dp1584
g3
I2
sg4
I3
sg5
I2
sg6
F8.0
sg7
F1.0
sg8
F-8.0
sg9
F1.0
sb(dp1585
I00
F27.1503141536893
sI01
F-11.814817042249
ss(i__main__
State
p1586
(dp1587
g3
I2
sg4
I3
sg5
I2
sg6
F2.0
sg7
F3.0
sg8
F-2.0
sg9
F10.0
sb(dp1588
I00
F40.340474288089524
sI01
F29.031723200000002
ss(i__main__
State
p1589
(dp1590
g3
I2
sg4
I3
sg5
I2
sg6
F4.0
sg7
F6.0
sg8
F-4.0
sg9
F1.0
sb(dp1591
I00
F61.5733269053111
sI01
F-26.011000000000003
ss(i__main__
State
p1592
(dp1593
g3
I2
sg4
I3
sg5
I2
sg6
F0.0
sg7
F3.0
sg8
F0.0
sg9
F10.0
sb(dp1594
I00
F-2.718344472970599
sI01
F49.791753285751106
ss(i__main__
State
p1595
(dp1596
g3
I2
sg4
I3
sg5
I2
sg6
F4.0
sg7
F8.0
sg8
F-4.0
sg9
F1.0
sb(dp1597
I00
F55.481326779195996
sI01
F116.31062388003724
ss(i__main__
State
p1598
(dp1599
g3
I2
sg4
I3
sg5
I2
sg6
F-6.0
sg7
F1.0
sg8
F6.0
sg9
F1.0
sb(dp1600
I00
F73.8949532179245
sI01
F29.694630000000004
ss(i__main__
State
p1601
(dp1602
g3
I2
sg4
I3
sg5
I2
sg6
F-4.0
sg7
F5.0
sg8
F4.0
sg9
F1.0
sb(dp1603
I00
F17.848657289290777
sI01
F-10.875100469
ss(i__main__
State
p1604
(dp1605
g3
I2
sg4
I3
sg5
I2
sg6
F-2.0
sg7
F9.0
sg8
F2.0
sg9
F-2.0
sb(dp1606
I00
F-680.189976691736
sI01
F363.9637550241912
ss(i__main__
State
p1607
(dp1608
g3
I2
sg4
I3
sg5
I2
sg6
F2.0
sg7
F2.0
sg8
F-2.0
sg9
F7.0
sb(dp1609
I00
F-61.449
sI01
F48.397523334252995
ss(i__main__
State
p1610
(dp1611
g3
I2
sg4
I3
sg5
I2
sg6
F0.0
sg7
F7.0
sg8
F0.0
sg9
F7.0
sb(dp1612
I00
F117.82449285294216
sI01
F-1.876606919165388
ss(i__main__
State
p1613
(dp1614
g3
I2
sg4
I3
sg5
I2
sg6
F-4.0
sg7
F0.0
sg8
F4.0
sg9
F10.0
sb(dp1615
I00
I-99
sI01
F-41.8261037578
ss(i__main__
State
p1616
(dp1617
g3
I2
sg4
I3
sg5
I2
sg6
F-4.0
sg7
F0.0
sg8
F4.0
sg9
F-8.0
sb(dp1618
I00
I-86
sI01
F14.7
ss(i__main__
State
p1619
(dp1620
g3
I2
sg4
I3
sg5
I2
sg6
F-2.0
sg7
F4.0
sg8
F2.0
sg9
F1.0
sb(dp1621
I00
F32.29224804901641
sI01
F31.629729075964963
ss(i__main__
State
p1622
(dp1623
g3
I2
sg4
I3
sg5
I2
sg6
F0.0
sg7
F4.0
sg8
F0.0
sg9
F-8.0
sb(dp1624
I00
F53.380525664217245
sI01
F62.31596011926022
ss(i__main__
State
p1625
(dp1626
g3
I2
sg4
I3
sg5
I2
sg6
F-8.0
sg7
F1.0
sg8
F8.0
sg9
F4.0
sb(dp1627
I00
F24.7
sI01
F67.43998400515089
ss(i__main__
State
p1628
(dp1629
g3
I2
sg4
I3
sg5
I2
sg6
F-2.0
sg7
F10.0
sg8
F2.0
sg9
F10.0
sb(dp1630
I00
F66.81914839951942
sI01
F0.0
ss(i__main__
State
p1631
(dp1632
g3
I2
sg4
I3
sg5
I2
sg6
F4.0
sg7
F8.0
sg8
F-4.0
sg9
F10.0
sb(dp1633
I00
F56.828222813952316
sI01
F410.6008887772466
ss(i__main__
State
p1634
(dp1635
g3
I2
sg4
I3
sg5
I2
sg6
F-8.0
sg7
F9.0
sg8
F8.0
sg9
F-5.0
sb(dp1636
I00
F0.0
sI01
F117.58145652264247
ss(i__main__
State
p1637
(dp1638
g3
I2
sg4
I3
sg5
I2
sg6
F0.0
sg7
F10.0
sg8
F0.0
sg9
F1.0
sb(dp1639
I00
F-5178.9660129383465
sI01
F-5194.584137262712
ss(i__main__
State
p1640
(dp1641
g3
I2
sg4
I3
sg5
I2
sg6
F2.0
sg7
F4.0
sg8
F-2.0
sg9
F-5.0
sb(dp1642
I00
F57.85765725130707
sI01
F-80.03541190127682
ss(i__main__
State
p1643
(dp1644
g3
I2
sg4
I3
sg5
I2
sg6
F6.0
sg7
F2.0
sg8
F-6.0
sg9
F1.0
sb(dp1645
I00
F-1.3218356325454224
sI01
F78.49064797588886
ss(i__main__
State
p1646
(dp1647
g3
I2
sg4
I3
sg5
I2
sg6
F-6.0
sg7
F5.0
sg8
F6.0
sg9
F10.0
sb(dp1648
I00
F46.715584714513646
sI01
I-72
ss(i__main__
State
p1649
(dp1650
g3
I2
sg4
I3
sg5
I2
sg6
F-8.0
sg7
F10.0
sg8
F8.0
sg9
F7.0
sb(dp1651
I00
F276.0367616710675
sI01
F59.72733358211153
ss(i__main__
State
p1652
(dp1653
g3
I2
sg4
I3
sg5
I2
sg6
F0.0
sg7
F0.0
sg8
F0.0
sg9
F10.0
sb(dp1654
I00
F19.4032783053
sI01
F-17.002418544999998
ss(i__main__
State
p1655
(dp1656
g3
I2
sg4
I3
sg5
I2
sg6
F-4.0
sg7
F4.0
sg8
F4.0
sg9
F10.0
sb(dp1657
I00
F48.031564919999994
sI01
F9.71
ss(i__main__
State
p1658
(dp1659
g3
I2
sg4
I3
sg5
I2
sg6
F-4.0
sg7
F9.0
sg8
F4.0
sg9
F4.0
sb(dp1660
I00
F0.0
sI01
F49.4487374658716
ss(i__main__
State
p1661
(dp1662
g3
I2
sg4
I3
sg5
I2
sg6
F-4.0
sg7
F1.0
sg8
F4.0
sg9
F-5.0
sb(dp1663
I00
F19.8
sI01
I-37
ss(i__main__
State
p1664
(dp1665
g3
I2
sg4
I3
sg5
I2
sg6
F0.0
sg7
F6.0
sg8
F0.0
sg9
F7.0
sb(dp1666
I00
F-50.1873656499299
sI01
F171.29081586002783
ss(i__main__
State
p1667
(dp1668
g3
I2
sg4
I3
sg5
I2
sg6
F-4.0
sg7
F2.0
sg8
F4.0
sg9
F10.0
sb(dp1669
I00
F-7.442077726209093
sI01
F58.30948687330669
ss(i__main__
State
p1670
(dp1671
g3
I2
sg4
I3
sg5
I2
sg6
F2.0
sg7
F5.0
sg8
F-2.0
sg9
F-5.0
sb(dp1672
I00
F13.912286838427534
sI01
F14.506964143351155
ss(i__main__
State
p1673
(dp1674
g3
I2
sg4
I3
sg5
I2
sg6
F-6.0
sg7
F8.0
sg8
F6.0
sg9
F7.0
sb(dp1675
I00
F0.0
sI01
F31.000999999999998
ss(i__main__
State
p1676
(dp1677
g3
I2
sg4
I3
sg5
I2
sg6
F6.0
sg7
F9.0
sg8
F-6.0
sg9
F10.0
sb(dp1678
I00
F10.0
sI01
F0.0
ss(i__main__
State
p1679
(dp1680
g3
I2
sg4
I3
sg5
I2
sg6
F-8.0
sg7
F2.0
sg8
F8.0
sg9
F-8.0
sb(dp1681
I00
F-19.24618449951936
sI01
F11.419883936361362
ss(i__main__
State
p1682
(dp1683
g3
I2
sg4
I3
sg5
I2
sg6
F0.0
sg7
F5.0
sg8
F0.0
sg9
F-8.0
sb(dp1684
I00
F75.87051877402706
sI01
I-65
ss(i__main__
State
p1685
(dp1686
g3
I2
sg4
I3
sg5
I2
sg6
F4.0
sg7
F1.0
sg8
F-4.0
sg9
F-5.0
sb(dp1687
I00
I2
sI01
F62.5957030928
ss(i__main__
State
p1688
(dp1689
g3
I2
sg4
I3
sg5
I2
sg6
F-8.0
sg7
F9.0
sg8
F8.0
sg9
F-2.0
sb(dp1690
I00
F-467.6722235000001
sI01
F149.68736588409075
ss(i__main__
State
p1691
(dp1692
g3
I2
sg4
I3
sg5
I2
sg6
F8.0
sg7
F10.0
sg8
F-8.0
sg9
F-8.0
sb(dp1693
I00
F0.0
sI01
F89.85785943757139
ss(i__main__
State
p1694
(dp1695
g3
I2
sg4
I3
sg5
I2
sg6
F8.0
sg7
F0.0
sg8
F-8.0
sg9
F-8.0
sb(dp1696
I00
F61.213401402626054
sI01
F71.95033125483727
ss(i__main__
State
p1697
(dp1698
g3
I2
sg4
I3
sg5
I2
sg6
F6.0
sg7
F0.0
sg8
F-6.0
sg9
F4.0
sb(dp1699
I00
I-86
sI01
F84.84347111982352
ss(i__main__
State
p1700
(dp1701
g3
I2
sg4
I3
sg5
I2
sg6
F4.0
sg7
F6.0
sg8
F-4.0
sg9
F7.0
sb(dp1702
I00
F30.9
sI01
I-81
ss(i__main__
State
p1703
(dp1704
g3
I2
sg4
I3
sg5
I2
sg6
F-8.0
sg7
F4.0
sg8
F8.0
sg9
F10.0
sb(dp1705
I00
F-1.0443637635498848
sI01
F28.917726332876235
ss(i__main__
State
p1706
(dp1707
g3
I2
sg4
I3
sg5
I2
sg6
F6.0
sg7
F9.0
sg8
F-6.0
sg9
F7.0
sb(dp1708
I00
F61.596284216710096
sI01
F11.0
ss(i__main__
State
p1709
(dp1710
g3
I2
sg4
I3
sg5
I2
sg6
F6.0
sg7
F3.0
sg8
F-6.0
sg9
F10.0
sb(dp1711
I00
F28.039072593400697
sI01
F58.49930983631546
ss(i__main__
State
p1712
(dp1713
g3
I2
sg4
I3
sg5
I2
sg6
F2.0
sg7
F2.0
sg8
F-2.0
sg9
F-8.0
sb(dp1714
I00
F1.0942160427361403
sI01
F-88.51238555901
ss(i__main__
State
p1715
(dp1716
g3
I2
sg4
I3
sg5
I2
sg6
F-2.0
sg7
F5.0
sg8
F2.0
sg9
F-8.0
sb(dp1717
I00
F37.08678702349345
sI01
I-29
ss(i__main__
State
p1718
(dp1719
g3
I2
sg4
I3
sg5
I2
sg6
F2.0
sg7
F4.0
sg8
F-2.0
sg9
F7.0
sb(dp1720
I00
F56.952784919905596
sI01
F-67.28429630999999
ss(i__main__
State
p1721
(dp1722
g3
I2
sg4
I3
sg5
I2
sg6
F-6.0
sg7
F9.0
sg8
F6.0
sg9
F-5.0
sb(dp1723
I00
F120.64953401267614
sI01
F61.321019135040856
ss(i__main__
State
p1724
(dp1725
g3
I2
sg4
I3
sg5
I2
sg6
F8.0
sg7
F8.0
sg8
F-8.0
sg9
F1.0
sb(dp1726
I00
F383.5131983946692
sI01
F73.52062366383777
ss(i__main__
State
p1727
(dp1728
g3
I2
sg4
I3
sg5
I2
sg6
F-2.0
sg7
F6.0
sg8
F2.0
sg9
F-8.0
sb(dp1729
I00
F19.4
sI01
F69.60479336943244
ss(i__main__
State
p1730
(dp1731
g3
I2
sg4
I3
sg5
I2
sg6
F-4.0
sg7
F6.0
sg8
F4.0
sg9
F10.0
sb(dp1732
I00
F10.838826418572298
sI01
F29.773001325782914
ss(i__main__
State
p1733
(dp1734
g3
I2
sg4
I3
sg5
I2
sg6
F-4.0
sg7
F9.0
sg8
F4.0
sg9
F1.0
sb(dp1735
I00
F-2707.8
sI01
F-3409.6074035318375
ss(i__main__
State
p1736
(dp1737
g3
I2
sg4
I3
sg5
I2
sg6
F4.0
sg7
F9.0
sg8
F-4.0
sg9
F-8.0
sb(dp1738
I00
F27.762097651162644
sI01
F10.0
ss(i__main__
State
p1739
(dp1740
g3
I2
sg4
I3
sg5
I2
sg6
F-6.0
sg7
F7.0
sg8
F6.0
sg9
F-2.0
sb(dp1741
I00
I-27
sI01
F61.92364310685201
ss(i__main__
State
p1742
(dp1743
g3
I2
sg4
I3
sg5
I2
sg6
F8.0
sg7
F8.0
sg8
F-8.0
sg9
F7.0
sb(dp1744
I00
F31.17
sI01
F0.0
ss(i__main__
State
p1745
(dp1746
g3
I2
sg4
I3
sg5
I2
sg6
F8.0
sg7
F0.0
sg8
F-8.0
sg9
F4.0
sb(dp1747
I00
F-12.397704296472039
sI01
F25.706492260152604
ss(i__main__
State
p1748
(dp1749
g3
I2
sg4
I3
sg5
I2
sg6
F-4.0
sg7
F3.0
sg8
F4.0
sg9
F-2.0
sb(dp1750
I00
F-32.43984474
sI01
F24.33790685906611
ss(i__main__
State
p1751
(dp1752
g3
I2
sg4
I3
sg5
I2
sg6
F-8.0
sg7
F2.0
sg8
F8.0
sg9
F7.0
sb(dp1753
I00
I-45
sI01
F31.7420535924
ss(i__main__
State
p1754
(dp1755
g3
I2
sg4
I3
sg5
I2
sg6
F8.0
sg7
F8.0
sg8
F-8.0
sg9
F10.0
sb(dp1756
I00
F171.59179079954214
sI01
F65.2829367410591
ss(i__main__
State
p1757
(dp1758
g3
I2
sg4
I3
sg5
I2
sg6
F-2.0
sg7
F8.0
sg8
F2.0
sg9
F7.0
sb(dp1759
I00
F195.69584691359083
sI01
F38.25611898763993
ss(i__main__
State
p1760
(dp1761
g3
I2
sg4
I3
sg5
I2
sg6
F0.0
sg7
F4.0
sg8
F0.0
sg9
F1.0
sb(dp1762
I00
F-47.938599999999994
sI01
F40.09077580705022
ss(i__main__
State
p1763
(dp1764
g3
I2
sg4
I3
sg5
I2
sg6
F-6.0
sg7
F7.0
sg8
F6.0
sg9
F-8.0
sb(dp1765
I00
F55.57990131634716
sI01
F-23.179253873836764
ss(i__main__
State
p1766
(dp1767
g3
I2
sg4
I3
sg5
I2
sg6
F4.0
sg7
F10.0
sg8
F-4.0
sg9
F4.0
sb(dp1768
I00
F73.950407117201
sI01
F31.108715287835434
ss(i__main__
State
p1769
(dp1770
g3
I2
sg4
I3
sg5
I2
sg6
F0.0
sg7
F7.0
sg8
F0.0
sg9
F-2.0
sb(dp1771
I00
F17.49637525921301
sI01
F50.244969999999995
ss(i__main__
State
p1772
(dp1773
g3
I2
sg4
I3
sg5
I2
sg6
F8.0
sg7
F1.0
sg8
F-8.0
sg9
F7.0
sb(dp1774
I00
F8.71290510742259
sI01
F-34.4826
ss(i__main__
State
p1775
(dp1776
g3
I2
sg4
I3
sg5
I2
sg6
F-2.0
sg7
F5.0
sg8
F2.0
sg9
F10.0
sb(dp1777
I00
F40.86039376919307
sI01
F45.78813807695827
ss(i__main__
State
p1778
(dp1779
g3
I2
sg4
I3
sg5
I2
sg6
F-8.0
sg7
F0.0
sg8
F8.0
sg9
F-8.0
sb(dp1780
I00
F33.32107076399999
sI01
F65.82386513016505
ss(i__main__
State
p1781
(dp1782
g3
I2
sg4
I3
sg5
I2
sg6
F-4.0
sg7
F10.0
sg8
F4.0
sg9
F7.0
sb(dp1783
I00
F23.536206415503603
sI01
F107.16127952539472
ss(i__main__
State
p1784
(dp1785
g3
I2
sg4
I3
sg5
I2
sg6
F-8.0
sg7
F6.0
sg8
F8.0
sg9
F-5.0
sb(dp1786
I00
F-25.049999999999997
sI01
F26.013
ss(i__main__
State
p1787
(dp1788
g3
I2
sg4
I3
sg5
I2
sg6
F-6.0
sg7
F0.0
sg8
F6.0
sg9
F-5.0
sb(dp1789
I00
I-95
sI01
F58.534783854413924
ss(i__main__
State
p1790
(dp1791
g3
I2
sg4
I3
sg5
I2
sg6
F0.0
sg7
F6.0
sg8
F0.0
sg9
F-2.0
sb(dp1792
I00
F-49.95631150841402
sI01
F26.484268436244996
ss(i__main__
State
p1793
(dp1794
g3
I2
sg4
I3
sg5
I2
sg6
F2.0
sg7
F2.0
sg8
F-2.0
sg9
F4.0
sb(dp1795
I00
F13.499452999999999
sI01
F-57.7326443
ss(i__main__
State
p1796
(dp1797
g3
I2
sg4
I3
sg5
I2
sg6
F-8.0
sg7
F9.0
sg8
F8.0
sg9
F4.0
sb(dp1798
I00
F52.808517450106635
sI01
F15.089081
ss(i__main__
State
p1799
(dp1800
g3
I2
sg4
I3
sg5
I2
sg6
F-6.0
sg7
F1.0
sg8
F6.0
sg9
F7.0
sb(dp1801
I00
I-84
sI01
F-33.338637097935965
ss(i__main__
State
p1802
(dp1803
g3
I2
sg4
I3
sg5
I2
sg6
F-2.0
sg7
F8.0
sg8
F2.0
sg9
F4.0
sb(dp1804
I00
F122.75008330305904
sI01
F62.35109045873868
ss(i__main__
State
p1805
(dp1806
g3
I2
sg4
I3
sg5
I2
sg6
F-2.0
sg7
F2.0
sg8
F2.0
sg9
F-5.0
sb(dp1807
I00
F-55.95064789098989
sI01
F53.15142447337272
ss(i__main__
State
p1808
(dp1809
g3
I2
sg4
I3
sg5
I2
sg6
F-2.0
sg7
F2.0
sg8
F2.0
sg9
F1.0
sb(dp1810
I00
F-4.302906778499998
sI01
F40.57280217809238
ss(i__main__
State
p1811
(dp1812
g3
I2
sg4
I3
sg5
I2
sg6
F-6.0
sg7
F7.0
sg8
F6.0
sg9
F-5.0
sb(dp1813
I00
F114.72656368672745
sI01
F-6.150999999999998
ss(i__main__
State
p1814
(dp1815
g3
I2
sg4
I3
sg5
I2
sg6
F-4.0
sg7
F8.0
sg8
F4.0
sg9
F-5.0
sb(dp1816
I00
F25.400518000000005
sI01
F10.0
ss(i__main__
State
p1817
(dp1818
g3
I2
sg4
I3
sg5
I2
sg6
F-4.0
sg7
F3.0
sg8
F4.0
sg9
F-5.0
sb(dp1819
I00
F7.45115993787903
sI01
F-25.630000000000003
ss(i__main__
State
p1820
(dp1821
g3
I2
sg4
I3
sg5
I2
sg6
F2.0
sg7
F6.0
sg8
F-2.0
sg9
F1.0
sb(dp1822
I00
F-13.0134435
sI01
F67.71667226385617
ss(i__main__
State
p1823
(dp1824
g3
I2
sg4
I3
sg5
I2
sg6
F4.0
sg7
F2.0
sg8
F-4.0
sg9
F7.0
sb(dp1825
I00
F-15.299999999999999
sI01
F73.48141140277454
ss(i__main__
State
p1826
(dp1827
g3
I2
sg4
I3
sg5
I2
sg6
F4.0
sg7
F0.0
sg8
F-4.0
sg9
F4.0
sb(dp1828
I00
F61.89808635082605
sI01
F6.873515900078301
ss(i__main__
State
p1829
(dp1830
g3
I2
sg4
I3
sg5
I2
sg6
F-6.0
sg7
F6.0
sg8
F6.0
sg9
F7.0
sb(dp1831
I00
F47.688671246377716
sI01
F-33.055844072194915
ss(i__main__
State
p1832
(dp1833
g3
I2
sg4
I3
sg5
I2
sg6
F6.0
sg7
F0.0
sg8
F-6.0
sg9
F-8.0
sb(dp1834
I00
F31.499238480533105
sI01
F27.3
ss(i__main__
State
p1835
(dp1836
g3
I2
sg4
I3
sg5
I2
sg6
F0.0
sg7
F2.0
sg8
F0.0
sg9
F4.0
sb(dp1837
I00
F56.91186231726212
sI01
F7.198711999999998
ss(i__main__
State
p1838
(dp1839
g3
I2
sg4
I3
sg5
I2
sg6
F4.0
sg7
F2.0
sg8
F-4.0
sg9
F-5.0
sb(dp1840
I00
F71.1451012244113
sI01
I-62
ss(i__main__
State
p1841
(dp1842
g3
I2
sg4
I3
sg5
I2
sg6
F2.0
sg7
F1.0
sg8
F-2.0
sg9
F-8.0
sb(dp1843
I00
F19.67262432099817
sI01
F-13.874226877936573
ss(i__main__
State
p1844
(dp1845
g3
I2
sg4
I3
sg5
I2
sg6
F-4.0
sg7
F9.0
sg8
F4.0
sg9
F10.0
sb(dp1846
I00
F105.88888299763119
sI01
F0.0
ss(i__main__
State
p1847
(dp1848
g3
I2
sg4
I3
sg5
I2
sg6
F0.0
sg7
F7.0
sg8
F0.0
sg9
F10.0
sb(dp1849
I00
F29.99678655460672
sI01
I-74
ss(i__main__
State
p1850
(dp1851
g3
I2
sg4
I3
sg5
I2
sg6
F2.0
sg7
F8.0
sg8
F-2.0
sg9
F10.0
sb(dp1852
I00
F-404.67250576353524
sI01
F380.2645503784289
ss(i__main__
State
p1853
(dp1854
g3
I2
sg4
I3
sg5
I2
sg6
F-6.0
sg7
F6.0
sg8
F6.0
sg9
F1.0
sb(dp1855
I00
F-15.159609080000001
sI01
F2.667
ss(i__main__
State
p1856
(dp1857
g3
I2
sg4
I3
sg5
I2
sg6
F-6.0
sg7
F1.0
sg8
F6.0
sg9
F10.0
sb(dp1858
I00
F61.97627220635904
sI01
F-64.6317472760892
ss(i__main__
State
p1859
(dp1860
g3
I2
sg4
I3
sg5
I2
sg6
F2.0
sg7
F8.0
sg8
F-2.0
sg9
F-8.0
sb(dp1861
I00
F-252.027493084
sI01
F176.83202306251786
ss(i__main__
State
p1862
(dp1863
g3
I2
sg4
I3
sg5
I2
sg6
F-4.0
sg7
F3.0
sg8
F4.0
sg9
F10.0
sb(dp1864
I00
F39.600772368672416
sI01
F-19.47
ss(i__main__
State
p1865
(dp1866
g3
I2
sg4
I3
sg5
I2
sg6
F-8.0
sg7
F1.0
sg8
F8.0
sg9
F-2.0
sb(dp1867
I00
F19.71033055
sI01
F78.73871689474562
ss(i__main__
State
p1868
(dp1869
g3
I2
sg4
I3
sg5
I2
sg6
F6.0
sg7
F5.0
sg8
F-6.0
sg9
F10.0
sb(dp1870
I00
F-45.57501285174034
sI01
F18.06788551774501
ss(i__main__
State
p1871
(dp1872
g3
I2
sg4
I3
sg5
I2
sg6
F0.0
sg7
F0.0
sg8
F0.0
sg9
F4.0
sb(dp1873
I00
F10.510586293411661
sI01
F-48.829751310990616
ss(i__main__
State
p1874
(dp1875
g3
I2
sg4
I3
sg5
I2
sg6
F-6.0
sg7
F5.0
sg8
F6.0
sg9
F7.0
sb(dp1876
I00
F-72.425270636
sI01
F37.54967519147964
ss(i__main__
State
p1877
(dp1878
g3
I2
sg4
I3
sg5
I2
sg6
F6.0
sg7
F5.0
sg8
F-6.0
sg9
F7.0
sb(dp1879
I00
F14.498976874641272
sI01
F0.5275549999999991
ss(i__main__
State
p1880
(dp1881
g3
I2
sg4
I3
sg5
I2
sg6
F-8.0
sg7
F8.0
sg8
F8.0
sg9
F-8.0
sb(dp1882
I00
F52.951224798999995
sI01
F0.0
ss(i__main__
State
p1883
(dp1884
g3
I2
sg4
I3
sg5
I2
sg6
F4.0
sg7
F8.0
sg8
F-4.0
sg9
F-5.0
sb(dp1885
I00
F-713.8968200051665
sI01
F-543.500748457026
ss(i__main__
State
p1886
(dp1887
g3
I2
sg4
I3
sg5
I2
sg6
F4.0
sg7
F5.0
sg8
F-4.0
sg9
F-5.0
sb(dp1888
I00
F-30.325250970699994
sI01
F-73.03294387615816
ss(i__main__
State
p1889
(dp1890
g3
I2
sg4
I3
sg5
I2
sg6
F-6.0
sg7
F2.0
sg8
F6.0
sg9
F10.0
sb(dp1891
I00
F-1.7233815144565758
sI01
F-83.0933660086
ss(i__main__
State
p1892
(dp1893
g3
I2
sg4
I3
sg5
I2
sg6
F8.0
sg7
F0.0
sg8
F-8.0
sg9
F-2.0
sb(dp1894
I00
F-55.3678
sI01
F2.760580878772689
ss(i__main__
State
p1895
(dp1896
g3
I2
sg4
I3
sg5
I2
sg6
F4.0
sg7
F6.0
sg8
F-4.0
sg9
F4.0
sb(dp1897
I00
F-2.607001497336001
sI01
F-1.7813794800000036
ss(i__main__
State
p1898
(dp1899
g3
I2
sg4
I3
sg5
I2
sg6
F4.0
sg7
F7.0
sg8
F-4.0
sg9
F-2.0
sb(dp1900
I00
F85.1208376968215
sI01
F-3.2281549599999986
ss(i__main__
State
p1901
(dp1902
g3
I2
sg4
I3
sg5
I2
sg6
F-2.0
sg7
F7.0
sg8
F2.0
sg9
F7.0
sb(dp1903
I00
F63.77754304072495
sI01
F40.281800000000004
ss(i__main__
State
p1904
(dp1905
g3
I2
sg4
I3
sg5
I2
sg6
F6.0
sg7
F3.0
sg8
F-6.0
sg9
F-2.0
sb(dp1906
I00
F12.569405411584633
sI01
F41.75161139722874
ss(i__main__
State
p1907
(dp1908
g3
I2
sg4
I3
sg5
I2
sg6
F-6.0
sg7
F6.0
sg8
F6.0
sg9
F10.0
sb(dp1909
I00
F-74.0
sI01
F88.488592518
ss(i__main__
State
p1910
(dp1911
g3
I2
sg4
I3
sg5
I2
sg6
F-8.0
sg7
F8.0
sg8
F8.0
sg9
F10.0
sb(dp1912
I00
F89.31033748484249
sI01
F0.0
ss(i__main__
State
p1913
(dp1914
g3
I2
sg4
I3
sg5
I2
sg6
F6.0
sg7
F5.0
sg8
F-6.0
sg9
F4.0
sb(dp1915
I00
F28.9
sI01
I3
ss(i__main__
State
p1916
(dp1917
g3
I2
sg4
I3
sg5
I2
sg6
F2.0
sg7
F10.0
sg8
F-2.0
sg9
F10.0
sb(dp1918
I00
F-901.1443236685691
sI01
F119.64638038673395
ss(i__main__
State
p1919
(dp1920
g3
I2
sg4
I3
sg5
I2
sg6
F0.0
sg7
F9.0
sg8
F0.0
sg9
F-5.0
sb(dp1921
I00
F388.0043696186807
sI01
F61.8326757002077
ss(i__main__
State
p1922
(dp1923
g3
I2
sg4
I3
sg5
I2
sg6
F0.0
sg7
F9.0
sg8
F0.0
sg9
F7.0
sb(dp1924
I00
F162.359655955336
sI01
F21.939
ss(i__main__
State
p1925
(dp1926
g3
I2
sg4
I3
sg5
I2
sg6
F-6.0
sg7
F3.0
sg8
F6.0
sg9
F10.0
sb(dp1927
I00
F24.39231795312923
sI01
F8.036413880429613
ss(i__main__
State
p1928
(dp1929
g3
I2
sg4
I3
sg5
I2
sg6
F-6.0
sg7
F8.0
sg8
F6.0
sg9
F4.0
sb(dp1930
I00
F182.29537101598234
sI01
F11.0
ss(i__main__
State
p1931
(dp1932
g3
I2
sg4
I3
sg5
I2
sg6
F-8.0
sg7
F8.0
sg8
F8.0
sg9
F-2.0
sb(dp1933
I00
F349.81320376261397
sI01
F-776.8798626757585
ss(i__main__
State
p1934
(dp1935
g3
I2
sg4
I3
sg5
I2
sg6
F6.0
sg7
F7.0
sg8
F-6.0
sg9
F4.0
sb(dp1936
I00
F142.44895507502022
sI01
F33.312334948243134
ss(i__main__
State
p1937
(dp1938
g3
I2
sg4
I3
sg5
I2
sg6
F4.0
sg7
F6.0
sg8
F-4.0
sg9
F-8.0
sb(dp1939
I00
F38.05454053890391
sI01
F-0.3824213000000025
ss(i__main__
State
p1940
(dp1941
g3
I2
sg4
I3
sg5
I2
sg6
F4.0
sg7
F5.0
sg8
F-4.0
sg9
F7.0
sb(dp1942
I00
F48.57657068690047
sI01
I-56
ss(i__main__
State
p1943
(dp1944
g3
I2
sg4
I3
sg5
I2
sg6
F2.0
sg7
F9.0
sg8
F-2.0
sg9
F4.0
sb(dp1945
I00
F135.89763699603185
sI01
F-258.8578
ss(i__main__
State
p1946
(dp1947
g3
I2
sg4
I3
sg5
I2
sg6
F2.0
sg7
F6.0
sg8
F-2.0
sg9
F7.0
sb(dp1948
I00
F-48.358660307119486
sI01
F-77.47571262
ss(i__main__
State
p1949
(dp1950
g3
I2
sg4
I3
sg5
I2
sg6
F0.0
sg7
F3.0
sg8
F0.0
sg9
F7.0
sb(dp1951
I00
I-11
sI01
F64.58517476671081
ss(i__main__
State
p1952
(dp1953
g3
I2
sg4
I3
sg5
I2
sg6
F-4.0
sg7
F6.0
sg8
F4.0
sg9
F-5.0
sb(dp1954
I00
I49
sI01
F50.1253620750088
ss(i__main__
State
p1955
(dp1956
g3
I2
sg4
I3
sg5
I2
sg6
F4.0
sg7
F3.0
sg8
F-4.0
sg9
F-5.0
sb(dp1957
I00
F51.22226434999999
sI01
F21.92263482446252
ss(i__main__
State
p1958
(dp1959
g3
I2
sg4
I3
sg5
I2
sg6
F2.0
sg7
F4.0
sg8
F-2.0
sg9
F-2.0
sb(dp1960
I00
F33.2400454
sI01
F41.99910696449828
ss(i__main__
State
p1961
(dp1962
g3
I2
sg4
I3
sg5
I2
sg6
F6.0
sg7
F8.0
sg8
F-6.0
sg9
F7.0
sb(dp1963
I00
F303.8782942393613
sI01
F34.0605540018604
ss(i__main__
State
p1964
(dp1965
g3
I2
sg4
I3
sg5
I2
sg6
F-2.0
sg7
F5.0
sg8
F2.0
sg9
F-5.0
sb(dp1966
I00
F32.67850704766766
sI01
F21.5
ss(i__main__
State
p1967
(dp1968
g3
I2
sg4
I3
sg5
I2
sg6
F2.0
sg7
F1.0
sg8
F-2.0
sg9
F-2.0
sb(dp1969
I00
F-63.463798587599996
sI01
F-0.8742604132020546
ss(i__main__
State
p1970
(dp1971
g3
I2
sg4
I3
sg5
I2
sg6
F-4.0
sg7
F7.0
sg8
F4.0
sg9
F7.0
sb(dp1972
I00
F34.493871234578855
sI01
F-35.06999999999999
ss(i__main__
State
p1973
(dp1974
g3
I2
sg4
I3
sg5
I2
sg6
F6.0
sg7
F8.0
sg8
F-6.0
sg9
F10.0
sb(dp1975
I00
F43.022055055134985
sI01
F21.265625109239426
ss(i__main__
State
p1976
(dp1977
g3
I2
sg4
I3
sg5
I2
sg6
F8.0
sg7
F0.0
sg8
F-8.0
sg9
F1.0
sb(dp1978
I00
F76.2432982
sI01
I38
ss(i__main__
State
p1979
(dp1980
g3
I2
sg4
I3
sg5
I2
sg6
F-8.0
sg7
F4.0
sg8
F8.0
sg9
F1.0
sb(dp1981
I00
F-7.08755343277022
sI01
F-9.2237114594194
ss(i__main__
State
p1982
(dp1983
g3
I2
sg4
I3
sg5
I2
sg6
F2.0
sg7
F3.0
sg8
F-2.0
sg9
F7.0
sb(dp1984
I00
I-55
sI01
F6.487099300699294
ss(i__main__
State
p1985
(dp1986
g3
I2
sg4
I3
sg5
I2
sg6
F-8.0
sg7
F8.0
sg8
F8.0
sg9
F-5.0
sb(dp1987
I00
F104.05748655740352
sI01
F38.84601627000001
ss(i__main__
State
p1988
(dp1989
g3
I2
sg4
I3
sg5
I2
sg6
F6.0
sg7
F7.0
sg8
F-6.0
sg9
F-8.0
sb(dp1990
I00
F-7.432005399529621
sI01
F-88.60352776517772
ss(i__main__
State
p1991
(dp1992
g3
I2
sg4
I3
sg5
I2
sg6
F2.0
sg7
F0.0
sg8
F-2.0
sg9
F-5.0
sb(dp1993
I00
F-2.108548281158811
sI01
I-68
ss(i__main__
State
p1994
(dp1995
g3
I2
sg4
I3
sg5
I2
sg6
F8.0
sg7
F3.0
sg8
F-8.0
sg9
F-2.0
sb(dp1996
I00
F-9.019223594578227
sI01
F58.32228973972941
ss(i__main__
State
p1997
(dp1998
g3
I2
sg4
I3
sg5
I2
sg6
F2.0
sg7
F5.0
sg8
F-2.0
sg9
F10.0
sb(dp1999
I00
F43.27056947120361
sI01
F-57.292699999999996
ss(i__main__
State
p2000
(dp2001
g3
I2
sg4
I3
sg5
I2
sg6
F-4.0
sg7
F5.0
sg8
F4.0
sg9
F10.0
sb(dp2002
I00
I-48
sI01
F-33.5
ss(i__main__
State
p2003
(dp2004
g3
I2
sg4
I3
sg5
I2
sg6
F-8.0
sg7
F0.0
sg8
F8.0
sg9
F10.0
sb(dp2005
I00
F64.38038525038166
sI01
F5.481416977343894
ss(i__main__
State
p2006
(dp2007
g3
I2
sg4
I3
sg5
I2
sg6
F-4.0
sg7
F2.0
sg8
F4.0
sg9
F-5.0
sb(dp2008
I00
F-6.2391208883000004
sI01
F29.546281757946815
ss(i__main__
State
p2009
(dp2010
g3
I2
sg4
I3
sg5
I2
sg6
F0.0
sg7
F3.0
sg8
F0.0
sg9
F1.0
sb(dp2011
I00
F55.617290567377395
sI01
I2
ss(i__main__
State
p2012
(dp2013
g3
I2
sg4
I3
sg5
I2
sg6
F-6.0
sg7
F10.0
sg8
F6.0
sg9
F7.0
sb(dp2014
I00
F66.74887110575932
sI01
F111.75629571118922
ss(i__main__
State
p2015
(dp2016
g3
I2
sg4
I3
sg5
I2
sg6
F8.0
sg7
F4.0
sg8
F-8.0
sg9
F-8.0
sb(dp2017
I00
I-79
sI01
F6.628717464139434
ss(i__main__
State
p2018
(dp2019
g3
I2
sg4
I3
sg5
I2
sg6
F2.0
sg7
F4.0
sg8
F-2.0
sg9
F-8.0
sb(dp2020
I00
F12.988072624957143
sI01
I-43
ss(i__main__
State
p2021
(dp2022
g3
I2
sg4
I3
sg5
I2
sg6
F0.0
sg7
F2.0
sg8
F0.0
sg9
F-8.0
sb(dp2023
I00
F33.350340400132
sI01
F-42.5460761802
ss(i__main__
State
p2024
(dp2025
g3
I2
sg4
I3
sg5
I2
sg6
F4.0
sg7
F0.0
sg8
F-4.0
sg9
F-2.0
sb(dp2026
I00
F70.8580813
sI01
I25
ss(i__main__
State
p2027
(dp2028
g3
I2
sg4
I3
sg5
I2
sg6
F8.0
sg7
F7.0
sg8
F-8.0
sg9
F7.0
sb(dp2029
I00
I15
sI01
F31.052
ss(i__main__
State
p2030
(dp2031
g3
I2
sg4
I3
sg5
I2
sg6
F-4.0
sg7
F6.0
sg8
F4.0
sg9
F-2.0
sb(dp2032
I00
I-44
sI01
F39.709
ss(i__main__
State
p2033
(dp2034
g3
I2
sg4
I3
sg5
I2
sg6
F8.0
sg7
F3.0
sg8
F-8.0
sg9
F-8.0
sb(dp2035
I00
F-4.744738439999997
sI01
F15.801016124992948
ss(i__main__
State
p2036
(dp2037
g3
I2
sg4
I3
sg5
I2
sg6
F-6.0
sg7
F10.0
sg8
F6.0
sg9
F1.0
sb(dp2038
I00
F216.79714520732588
sI01
F75.99048063615875
ss(i__main__
State
p2039
(dp2040
g3
I2
sg4
I3
sg5
I2
sg6
F2.0
sg7
F1.0
sg8
F-2.0
sg9
F-5.0
sb(dp2041
I00
F-31.21
sI01
F38.29794321450426
ss(i__main__
State
p2042
(dp2043
g3
I2
sg4
I3
sg5
I2
sg6
F-6.0
sg7
F10.0
sg8
F6.0
sg9
F-5.0
sb(dp2044
I00
F38.52260972013322
sI01
F19.5
ss(i__main__
State
p2045
(dp2046
g3
I2
sg4
I3
sg5
I2
sg6
F2.0
sg7
F10.0
sg8
F-2.0
sg9
F1.0
sb(dp2047
I00
F0.0
sI01
F47.75851506509403
ss(i__main__
State
p2048
(dp2049
g3
I2
sg4
I3
sg5
I2
sg6
F-6.0
sg7
F0.0
sg8
F6.0
sg9
F-2.0
sb(dp2050
I00
F-16.80185591574966
sI01
F59.787114985616405
ss(i__main__
State
p2051
(dp2052
g3
I2
sg4
I3
sg5
I2
sg6
F2.0
sg7
F3.0
sg8
F-2.0
sg9
F-2.0
sb(dp2053
I00
I-95
sI01
F-0.051783874489998105
ss(i__main__
State
p2054
(dp2055
g3
I2
sg4
I3
sg5
I2
sg6
F0.0
sg7
F8.0
sg8
F0.0
sg9
F-8.0
sb(dp2056
I00
F-2700.6685098862054
sI01
F-2657.109701177885
ss(i__main__
State
p2057
(dp2058
g3
I2
sg4
I3
sg5
I2
sg6
F-2.0
sg7
F10.0
sg8
F2.0
sg9
F1.0
sb(dp2059
I00
F149.83893824090765
sI01
F33.503986365132796
ss(i__main__
State
p2060
(dp2061
g3
I2
sg4
I3
sg5
I2
sg6
F0.0
sg7
F1.0
sg8
F0.0
sg9
F1.0
sb(dp2062
I00
I-54
sI01
F22.88927386779592
ss(i__main__
State
p2063
(dp2064
g3
I2
sg4
I3
sg5
I2
sg6
F-4.0
sg7
F2.0
sg8
F4.0
sg9
F1.0
sb(dp2065
I00
F-74.5
sI01
F29.563115628986825
ss(i__main__
State
p2066
(dp2067
g3
I2
sg4
I3
sg5
I2
sg6
F-8.0
sg7
F3.0
sg8
F8.0
sg9
F7.0
sb(dp2068
I00
F8.631
sI01
I-14
ss(i__main__
State
p2069
(dp2070
g3
I2
sg4
I3
sg5
I2
sg6
F4.0
sg7
F4.0
sg8
F-4.0
sg9
F-2.0
sb(dp2071
I00
F-28.132315999999996
sI01
F-4.109816502840692
ss.