(dp0
(i__main__
State
p1
(dp2
S'y1'
p3
F6.0
sS'x'
p4
F5.0
sS'y3'
p5
F-6.0
sS'y2'
p6
F-2.0
sb(dp7
I00
F-9.399179999999998
sI01
F72.5063004
ss(i__main__
State
p8
(dp9
g3
F1.0
sg4
F9.0
sg5
F-1.0
sg6
F-8.0
sb(dp10
I00
F171.64735660116503
sI01
F27.1
ss(i__main__
State
p11
(dp12
g3
F7.0
sg4
F6.0
sg5
F-7.0
sg6
F0.0
sb(dp13
I00
F42.33417999
sI01
F-31.57
ss(i__main__
State
p14
(dp15
g3
F7.0
sg4
F0.0
sg5
F-7.0
sg6
F-8.0
sb(dp16
I00
I-64
sI01
F-6.569999999999999
ss(i__main__
State
p17
(dp18
g3
F2.0
sg4
F6.0
sg5
F-2.0
sg6
F4.0
sb(dp19
I00
F27.26242758465861
sI01
I-7
ss(i__main__
State
p20
(dp21
g3
F-1.0
sg4
F10.0
sg5
F1.0
sg6
F-8.0
sb(dp22
I00
F40.359268557
sI01
F0.0
ss(i__main__
State
p23
(dp24
g3
F3.0
sg4
F4.0
sg5
F-3.0
sg6
F6.0
sb(dp25
I00
I72
sI01
F85.358
ss(i__main__
State
p26
(dp27
g3
F6.0
sg4
F4.0
sg5
F-6.0
sg6
F2.0
sb(dp28
I00
F71.85244
sI01
F-24.3
ss(i__main__
State
p29
(dp30
g3
F-8.0
sg4
F10.0
sg5
F8.0
sg6
F-6.0
sb(dp31
I00
F0.0
sI01
F34.03053878
ss(i__main__
State
p32
(dp33
g3
F5.0
sg4
F1.0
sg5
F-5.0
sg6
F6.0
sb(dp34
I00
I-58
sI01
F55.75104329999999
ss(i__main__
State
p35
(dp36
g3
F-3.0
sg4
F0.0
sg5
F3.0
sg6
F2.0
sb(dp37
I00
I-34
sI01
F30.52057
ss(i__main__
State
p38
(dp39
g3
F6.0
sg4
F1.0
sg5
F-6.0
sg6
F-2.0
sb(dp40
I00
F25.819740000000003
sI01
I-23
ss(i__main__
State
p41
(dp42
g3
F-4.0
sg4
F4.0
sg5
F4.0
sg6
F-4.0
sb(dp43
I00
F-40.8
sI01
I-65
ss(i__main__
State
p44
(dp45
g3
F-6.0
sg4
F1.0
sg5
F6.0
sg6
F-6.0
sb(dp46
I00
F33.3
sI01
F47.519741219513996
ss(i__main__
State
p47
(dp48
g3
F0.0
sg4
F5.0
sg5
F0.0
sg6
F8.0
sb(dp49
I00
F-65.12079999999999
sI01
F-44.8
ss(i__main__
State
p50
(dp51
g3
F0.0
sg4
F8.0
sg5
F0.0
sg6
F2.0
sb(dp52
I00
F-1898.0
sI01
F-1899.0
ss(i__main__
State
p53
(dp54
g3
F7.0
sg4
F10.0
sg5
F-7.0
sg6
F-6.0
sb(dp55
I00
F26.7114152399
sI01
F48.750948149
ss(i__main__
State
p56
(dp57
g3
F4.0
sg4
F2.0
sg5
F-4.0
sg6
F2.0
sb(dp58
I00
I-90
sI01
F85.95985380000002
ss(i__main__
State
p59
(dp60
g3
F4.0
sg4
F7.0
sg5
F-4.0
sg6
F-2.0
sb(dp61
I00
I-83
sI01
F42.04304419447911
ss(i__main__
State
p62
(dp63
g3
F1.0
sg4
F2.0
sg5
F-1.0
sg6
F2.0
sb(dp64
I00
F11.615504999999999
sI01
F39.82
ss(i__main__
State
p65
(dp66
g3
F-3.0
sg4
F3.0
sg5
F3.0
sg6
F0.0
sb(dp67
I00
F74.14618592000001
sI01
F68.63207
ss(i__main__
State
p68
(dp69
g3
F4.0
sg4
F1.0
sg5
F-4.0
sg6
F-6.0
sb(dp70
I00
I-72
sI01
F-34.43129999999999
ss(i__main__
State
p71
(dp72
g3
F1.0
sg4
F9.0
sg5
F-1.0
sg6
F8.0
sb(dp73
I00
F115.89317568128713
sI01
F0.0
ss(i__main__
State
p74
(dp75
g3
F-1.0
sg4
F6.0
sg5
F1.0
sg6
F8.0
sb(dp76
I00
F-46.93
sI01
F-29.5
ss(i__main__
State
p77
(dp78
g3
F-5.0
sg4
F9.0
sg5
F5.0
sg6
F2.0
sb(dp79
I00
F30.0
sI01
F0.0
ss(i__main__
State
p80
(dp81
g3
F4.0
sg4
F9.0
sg5
F-4.0
sg6
F8.0
sb(dp82
I00
F13.099000000000002
sI01
F0.0
ss(i__main__
State
p83
(dp84
g3
F0.0
sg4
F9.0
sg5
F0.0
sg6
F4.0
sb(dp85
I00
F48.42727597950906
sI01
F20.0
ss(i__main__
State
p86
(dp87
g3
F-5.0
sg4
F3.0
sg5
F5.0
sg6
F4.0
sb(dp88
I00
F40.6248236784
sI01
F-29.1
ss(i__main__
State
p89
(dp90
g3
F-5.0
sg4
F10.0
sg5
F5.0
sg6
F-2.0
sb(dp91
I00
F92.15013977383536
sI01
F0.0
ss(i__main__
State
p92
(dp93
g3
F-2.0
sg4
F9.0
sg5
F2.0
sg6
F-4.0
sb(dp94
I00
F256.88607074420815
sI01
F36.11635891258636
ss(i__main__
State
p95
(dp96
g3
F-2.0
sg4
F2.0
sg5
F2.0
sg6
F-6.0
sb(dp97
I00
F-41.2
sI01
F24.660312230933794
ss(i__main__
State
p98
(dp99
g3
F-7.0
sg4
F8.0
sg5
F7.0
sg6
F-2.0
sb(dp100
I00
F66.281
sI01
F-414.48298800000003
ss(i__main__
State
p101
(dp102
g3
F-1.0
sg4
F0.0
sg5
F1.0
sg6
F6.0
sb(dp103
I00
I-41
sI01
F72.9252085
ss(i__main__
State
p104
(dp105
g3
F1.0
sg4
F0.0
sg5
F-1.0
sg6
F-4.0
sb(dp106
I00
F67.6323198281
sI01
I28
ss(i__main__
State
p107
(dp108
g3
F8.0
sg4
F8.0
sg5
F-8.0
sg6
F4.0
sb(dp109
I00
F153.22481033892382
sI01
F10.0
ss(i__main__
State
p110
(dp111
g3
F-8.0
sg4
F0.0
sg5
F8.0
sg6
F4.0
sb(dp112
I00
F-35.88412
sI01
F43.32000000000001
ss(i__main__
State
p113
(dp114
g3
F-5.0
sg4
F10.0
sg5
F5.0
sg6
F-4.0
sb(dp115
I00
F30.292792900000002
sI01
F126.16082818816288
ss(i__main__
State
p116
(dp117
g3
F6.0
sg4
F9.0
sg5
F-6.0
sg6
F6.0
sb(dp118
I00
F43.995769700000004
sI01
F20.72
ss(i__main__
State
p119
(dp120
g3
F7.0
sg4
F9.0
sg5
F-7.0
sg6
F8.0
sb(dp121
I00
F107.84292292223626
sI01
F21.795326878541164
ss(i__main__
State
p122
(dp123
g3
F0.0
sg4
F10.0
sg5
F0.0
sg6
F-6.0
sb(dp124
I00
F-2700.84454
sI01
F-995.1
ss(i__main__
State
p125
(dp126
g3
F2.0
sg4
F7.0
sg5
F-2.0
sg6
F-2.0
sb(dp127
I00
F-47.348
sI01
F1.1090300000000015
ss(i__main__
State
p128
(dp129
g3
F-4.0
sg4
F3.0
sg5
F4.0
sg6
F-6.0
sb(dp130
I00
F-14.237564997283998
sI01
I-92
ss(i__main__
State
p131
(dp132
g3
F-3.0
sg4
F10.0
sg5
F3.0
sg6
F8.0
sb(dp133
I00
F76.39085986100001
sI01
F0.0
ss(i__main__
State
p134
(dp135
g3
F-8.0
sg4
F10.0
sg5
F8.0
sg6
F-4.0
sb(dp136
I00
F11.0
sI01
F151.14516423633378
ss(i__main__
State
p137
(dp138
g3
F-7.0
sg4
F10.0
sg5
F7.0
sg6
F2.0
sb(dp139
I00
F169.01348992619018
sI01
F49.288000000000004
ss(i__main__
State
p140
(dp141
g3
F2.0
sg4
F7.0
sg5
F-2.0
sg6
F8.0
sb(dp142
I00
F43.73434
sI01
F80.72091320992531
ss(i__main__
State
p143
(dp144
g3
F3.0
sg4
F7.0
sg5
F-3.0
sg6
F-2.0
sb(dp145
I00
F33.56179110575682
sI01
F-81.7
ss(i__main__
State
p146
(dp147
g3
F-7.0
sg4
F5.0
sg5
F7.0
sg6
F8.0
sb(dp148
I00
F85.4
sI01
I15
ss(i__main__
State
p149
(dp150
g3
F4.0
sg4
F9.0
sg5
F-4.0
sg6
F6.0
sb(dp151
I00
F89.879772313292
sI01
F32.502140319700004
ss(i__main__
State
p152
(dp153
g3
F-7.0
sg4
F6.0
sg5
F7.0
sg6
F0.0
sb(dp154
I00
F9.64648
sI01
F75.52669098104265
ss(i__main__
State
p155
(dp156
g3
F4.0
sg4
F7.0
sg5
F-4.0
sg6
F6.0
sb(dp157
I00
F29.096879201919695
sI01
I-35
ss(i__main__
State
p158
(dp159
g3
F7.0
sg4
F5.0
sg5
F-7.0
sg6
F0.0
sb(dp160
I00
I-23
sI01
F85.08929469
ss(i__main__
State
p161
(dp162
g3
F-6.0
sg4
F0.0
sg5
F6.0
sg6
F-8.0
sb(dp163
I00
F-55.1
sI01
F-21.842
ss(i__main__
State
p164
(dp165
g3
F2.0
sg4
F9.0
sg5
F-2.0
sg6
F8.0
sb(dp166
I00
F158.61248740223624
sI01
F24.60215
ss(i__main__
State
p167
(dp168
g3
F5.0
sg4
F6.0
sg5
F-5.0
sg6
F2.0
sb(dp169
I00
F81.21313614318656
sI01
F-44.0424269
ss(i__main__
State
p170
(dp171
g3
F0.0
sg4
F0.0
sg5
F0.0
sg6
F8.0
sb(dp172
I00
I-78
sI01
F-34.872228528444005
ss(i__main__
State
p173
(dp174
g3
F-4.0
sg4
F4.0
sg5
F4.0
sg6
F-6.0
sb(dp175
I00
F37.151192
sI01
F44.50999894572318
ss(i__main__
State
p176
(dp177
g3
F0.0
sg4
F6.0
sg5
F0.0
sg6
F-2.0
sb(dp178
I00
F75.72122028395495
sI01
F-8.5
ss(i__main__
State
p179
(dp180
g3
F-7.0
sg4
F10.0
sg5
F7.0
sg6
F0.0
sb(dp181
I00
F11.0
sI01
F53.41047710000001
ss(i__main__
State
p182
(dp183
g3
F6.0
sg4
F7.0
sg5
F-6.0
sg6
F6.0
sb(dp184
I00
I12
sI01
F-51.09
ss(i__main__
State
p185
(dp186
g3
F1.0
sg4
F10.0
sg5
F-1.0
sg6
F8.0
sb(dp187
I00
F0.0
sI01
F19.5
ss(i__main__
State
p188
(dp189
g3
F3.0
sg4
F2.0
sg5
F-3.0
sg6
F6.0
sb(dp190
I00
F64.643122629441
sI01
F-65.363281
ss(i__main__
State
p191
(dp192
g3
F2.0
sg4
F8.0
sg5
F-2.0
sg6
F4.0
sb(dp193
I00
F0.0
sI01
F42.706472482
ss(i__main__
State
p194
(dp195
g3
F-2.0
sg4
F5.0
sg5
F2.0
sg6
F-4.0
sb(dp196
I00
F19.296481630000002
sI01
I-54
ss(i__main__
State
p197
(dp198
g3
F2.0
sg4
F4.0
sg5
F-2.0
sg6
F-6.0
sb(dp199
I00
F-73.07803967002874
sI01
F8.596240530161687
ss(i__main__
State
p200
(dp201
g3
F-2.0
sg4
F0.0
sg5
F2.0
sg6
F-6.0
sb(dp202
I00
I-89
sI01
F-8.869999999999997
ss(i__main__
State
p203
(dp204
g3
F-6.0
sg4
F3.0
sg5
F6.0
sg6
F-8.0
sb(dp205
I00
I30
sI01
F66.60350290000001
ss(i__main__
State
p206
(dp207
g3
F6.0
sg4
F6.0
sg5
F-6.0
sg6
F6.0
sb(dp208
I00
F59.14
sI01
I-70
ss(i__main__
State
p209
(dp210
g3
F2.0
sg4
F2.0
sg5
F-2.0
sg6
F4.0
sb(dp211
I00
F-40.52567127099999
sI01
I-71
ss(i__main__
State
p212
(dp213
g3
F-3.0
sg4
F5.0
sg5
F3.0
sg6
F-4.0
sb(dp214
I00
F0.7899999999999996
sI01
F37.08668465753998
ss(i__main__
State
p215
(dp216
g3
F-3.0
sg4
F5.0
sg5
F3.0
sg6
F2.0
sb(dp217
I00
F-12.518436958
sI01
F15.719999999999999
ss(i__main__
State
p218
(dp219
g3
F8.0
sg4
F2.0
sg5
F-8.0
sg6
F-4.0
sb(dp220
I00
F-54.2
sI01
F4.418000000000001
ss(i__main__
State
p221
(dp222
g3
F4.0
sg4
F7.0
sg5
F-4.0
sg6
F8.0
sb(dp223
I00
F77.7
sI01
I-38
ss(i__main__
State
p224
(dp225
g3
F1.0
sg4
F3.0
sg5
F-1.0
sg6
F8.0
sb(dp226
I00
I-79
sI01
F-14.5227
ss(i__main__
State
p227
(dp228
g3
F-8.0
sg4
F5.0
sg5
F8.0
sg6
F6.0
sb(dp229
I00
I26
sI01
F-49.111
ss(i__main__
State
p230
(dp231
g3
F-5.0
sg4
F0.0
sg5
F5.0
sg6
F-8.0
sb(dp232
I00
F47.594699999999996
sI01
I-52
ss(i__main__
State
p233
(dp234
g3
F-8.0
sg4
F0.0
sg5
F8.0
sg6
F2.0
sb(dp235
I00
F13.8031699
sI01
I7
ss(i__main__
State
p236
(dp237
g3
F5.0
sg4
F7.0
sg5
F-5.0
sg6
F2.0
sb(dp238
I00
F84.02169085104883
sI01
I-81
ss(i__main__
State
p239
(dp240
g3
F0.0
sg4
F5.0
sg5
F0.0
sg6
F-2.0
sb(dp241
I00
F62.574388711552736
sI01
F-21.0
ss(i__main__
State
p242
(dp243
g3
F2.0
sg4
F1.0
sg5
F-2.0
sg6
F-8.0
sb(dp244
I00
I-97
sI01
F-53.185373051057994
ss(i__main__
State
p245
(dp246
g3
F-8.0
sg4
F4.0
sg5
F8.0
sg6
F-6.0
sb(dp247
I00
F61.65120000000001
sI01
I-94
ss(i__main__
State
p248
(dp249
g3
F-3.0
sg4
F0.0
sg5
F3.0
sg6
F6.0
sb(dp250
I00
F5.5366579178946385
sI01
F-79.524907
ss(i__main__
State
p251
(dp252
g3
F6.0
sg4
F1.0
sg5
F-6.0
sg6
F8.0
sb(dp253
I00
F-4.9
sI01
F60.00083996
ss(i__main__
State
p254
(dp255
g3
F-1.0
sg4
F7.0
sg5
F1.0
sg6
F2.0
sb(dp256
I00
F-52.16626643022334
sI01
F42.3429335795177
ss(i__main__
State
p257
(dp258
g3
F-2.0
sg4
F4.0
sg5
F2.0
sg6
F8.0
sb(dp259
I00
F18.652458541625453
sI01
F7.552251106935001
ss(i__main__
State
p260
(dp261
g3
F3.0
sg4
F1.0
sg5
F-3.0
sg6
F-8.0
sb(dp262
I00
I7
sI01
F51.961304198
ss(i__main__
State
p263
(dp264
g3
F-6.0
sg4
F7.0
sg5
F6.0
sg6
F4.0
sb(dp265
I00
I-21
sI01
F89.26117110572467
ss(i__main__
State
p266
(dp267
g3
F8.0
sg4
F1.0
sg5
F-8.0
sg6
F0.0
sb(dp268
I00
F79.87431794591762
sI01
I45
ss(i__main__
State
p269
(dp270
g3
F5.0
sg4
F8.0
sg5
F-5.0
sg6
F2.0
sb(dp271
I00
F71.29586565003814
sI01
F134.93132765359385
ss(i__main__
State
p272
(dp273
g3
F0.0
sg4
F2.0
sg5
F0.0
sg6
F4.0
sb(dp274
I00
F40.111173
sI01
F33.179048591351325
ss(i__main__
State
p275
(dp276
g3
F-4.0
sg4
F3.0
sg5
F4.0
sg6
F2.0
sb(dp277
I00
F37.65453248
sI01
I-50
ss(i__main__
State
p278
(dp279
g3
F-5.0
sg4
F8.0
sg5
F5.0
sg6
F-4.0
sb(dp280
I00
F52.12200000000001
sI01
F11.0
ss(i__main__
State
p281
(dp282
g3
F6.0
sg4
F1.0
sg5
F-6.0
sg6
F-6.0
sb(dp283
I00
F54.400000000000006
sI01
I-97
ss(i__main__
State
p284
(dp285
g3
F0.0
sg4
F4.0
sg5
F0.0
sg6
F-6.0
sb(dp286
I00
F-49.904457029999996
sI01
F61.516965732016985
ss(i__main__
State
p287
(dp288
g3
F3.0
sg4
F2.0
sg5
F-3.0
sg6
F-8.0
sb(dp289
I00
F-28.0
sI01
F-6.090807226335813
ss(i__main__
State
p290
(dp291
g3
F-7.0
sg4
F10.0
sg5
F7.0
sg6
F-2.0
sb(dp292
I00
F51.049133666399904
sI01
F74.85096
ss(i__main__
State
p293
(dp294
g3
F-6.0
sg4
F9.0
sg5
F6.0
sg6
F4.0
sb(dp295
I00
F40.053758099999996
sI01
F0.0
ss(i__main__
State
p296
(dp297
g3
F8.0
sg4
F2.0
sg5
F-8.0
sg6
F4.0
sb(dp298
I00
F-4.6389
sI01
F53.44721
ss(i__main__
State
p299
(dp300
g3
F-2.0
sg4
F10.0
sg5
F2.0
sg6
F4.0
sb(dp301
I00
F10.0
sI01
F0.0
ss(i__main__
State
p302
(dp303
g3
F-2.0
sg4
F6.0
sg5
F2.0
sg6
F-6.0
sb(dp304
I00
F82.26889805905
sI01
F-27.08
ss(i__main__
State
p305
(dp306
g3
F-1.0
sg4
F0.0
sg5
F1.0
sg6
F-8.0
sb(dp307
I00
F7.959999999999999
sI01
I-10
ss(i__main__
State
p308
(dp309
g3
F2.0
sg4
F8.0
sg5
F-2.0
sg6
F-8.0
sb(dp310
I00
F96.19903047232344
sI01
F17.992489448281862
ss(i__main__
State
p311
(dp312
g3
F1.0
sg4
F1.0
sg5
F-1.0
sg6
F4.0
sb(dp313
I00
F58.849999999999994
sI01
I19
ss(i__main__
State
p314
(dp315
g3
F1.0
sg4
F5.0
sg5
F-1.0
sg6
F-2.0
sb(dp316
I00
I14
sI01
F89.387526
ss(i__main__
State
p317
(dp318
g3
F8.0
sg4
F4.0
sg5
F-8.0
sg6
F-2.0
sb(dp319
I00
F53.1
sI01
I-75
ss(i__main__
State
p320
(dp321
g3
F5.0
sg4
F5.0
sg5
F-5.0
sg6
F2.0
sb(dp322
I00
I-53
sI01
F75.10307510126448
ss(i__main__
State
p323
(dp324
g3
F-5.0
sg4
F3.0
sg5
F5.0
sg6
F-6.0
sb(dp325
I00
F25.924366000000003
sI01
F51.10272600689767
ss(i__main__
State
p326
(dp327
g3
F-8.0
sg4
F5.0
sg5
F8.0
sg6
F8.0
sb(dp328
I00
I31
sI01
F83.32173999999999
ss(i__main__
State
p329
(dp330
g3
F3.0
sg4
F2.0
sg5
F-3.0
sg6
F-4.0
sb(dp331
I00
I-35
sI01
F0.4391999999999996
ss(i__main__
State
p332
(dp333
g3
F-5.0
sg4
F7.0
sg5
F5.0
sg6
F-2.0
sb(dp334
I00
F59.904706891928996
sI01
I-17
ss(i__main__
State
p335
(dp336
g3
F1.0
sg4
F4.0
sg5
F-1.0
sg6
F8.0
sb(dp337
I00
F-22.402
sI01
F-85.7
ss(i__main__
State
p338
(dp339
g3
F-5.0
sg4
F9.0
sg5
F5.0
sg6
F-4.0
sb(dp340
I00
F40.315
sI01
F0.0
ss(i__main__
State
p341
(dp342
g3
F-4.0
sg4
F0.0
sg5
F4.0
sg6
F-8.0
sb(dp343
I00
I-81
sI01
F-67.4442
ss(i__main__
State
p344
(dp345
g3
F4.0
sg4
F3.0
sg5
F-4.0
sg6
F-6.0
sb(dp346
I00
F8.379030900999998
sI01
F-60.21328
ss(i__main__
State
p347
(dp348
g3
F6.0
sg4
F6.0
sg5
F-6.0
sg6
F0.0
sb(dp349
I00
F41.41880953130201
sI01
F-28.763429703170004
ss(i__main__
State
p350
(dp351
g3
F-7.0
sg4
F8.0
sg5
F7.0
sg6
F-6.0
sb(dp352
I00
F30.090000000000003
sI01
F57.496972400000004
ss(i__main__
State
p353
(dp354
g3
F-2.0
sg4
F7.0
sg5
F2.0
sg6
F0.0
sb(dp355
I00
I76
sI01
F78.4269224871
ss(i__main__
State
p356
(dp357
g3
F-2.0
sg4
F10.0
sg5
F2.0
sg6
F-2.0
sb(dp358
I00
F69.44696421253032
sI01
F0.0
ss(i__main__
State
p359
(dp360
g3
F1.0
sg4
F8.0
sg5
F-1.0
sg6
F-8.0
sb(dp361
I00
F-229.95990000000003
sI01
F150.0545997998123
ss(i__main__
State
p362
(dp363
g3
F4.0
sg4
F8.0
sg5
F-4.0
sg6
F2.0
sb(dp364
I00
F16.179223760000003
sI01
F0.0
ss(i__main__
State
p365
(dp366
g3
F-3.0
sg4
F3.0
sg5
F3.0
sg6
F-2.0
sb(dp367
I00
F-5.2828555999999995
sI01
F-83.7
ss(i__main__
State
p368
(dp369
g3
F5.0
sg4
F7.0
sg5
F-5.0
sg6
F4.0
sb(dp370
I00
F-76.18
sI01
F38.91071648232177
ss(i__main__
State
p371
(dp372
g3
F-4.0
sg4
F5.0
sg5
F4.0
sg6
F-2.0
sb(dp373
I00
F-8.423059344
sI01
I-100
ss(i__main__
State
p374
(dp375
g3
F6.0
sg4
F9.0
sg5
F-6.0
sg6
F2.0
sb(dp376
I00
F48.5183780719
sI01
F0.0
ss(i__main__
State
p377
(dp378
g3
F0.0
sg4
F4.0
sg5
F0.0
sg6
F0.0
sb(dp379
I00
F72.3
sI01
I43
ss(i__main__
State
p380
(dp381
g3
F3.0
sg4
F9.0
sg5
F-3.0
sg6
F6.0
sb(dp382
I00
F170.27128906890056
sI01
F11.0
ss(i__main__
State
p383
(dp384
g3
F3.0
sg4
F5.0
sg5
F-3.0
sg6
F-2.0
sb(dp385
I00
F11.460205316
sI01
I-22
ss(i__main__
State
p386
(dp387
g3
F7.0
sg4
F10.0
sg5
F-7.0
sg6
F6.0
sb(dp388
I00
F69.47771366
sI01
F0.0
ss(i__main__
State
p389
(dp390
g3
F-5.0
sg4
F7.0
sg5
F5.0
sg6
F0.0
sb(dp391
I00
F30.40942292565328
sI01
F-25.139922820449996
ss(i__main__
State
p392
(dp393
g3
F4.0
sg4
F5.0
sg5
F-4.0
sg6
F-6.0
sb(dp394
I00
F95.88
sI01
I-22
ss(i__main__
State
p395
(dp396
g3
F-7.0
sg4
F10.0
sg5
F7.0
sg6
F-6.0
sb(dp397
I00
F82.70524745171717
sI01
F0.0
ss(i__main__
State
p398
(dp399
g3
F8.0
sg4
F9.0
sg5
F-8.0
sg6
F0.0
sb(dp400
I00
F-1898.8899999999999
sI01
F-1000.0
ss(i__main__
State
p401
(dp402
g3
F-6.0
sg4
F4.0
sg5
F6.0
sg6
F-8.0
sb(dp403
I00
F63.873543000000005
sI01
F-29.138836400777805
ss(i__main__
State
p404
(dp405
g3
F-1.0
sg4
F10.0
sg5
F1.0
sg6
F6.0
sb(dp406
I00
F20.0
sI01
F0.0
ss(i__main__
State
p407
(dp408
g3
F5.0
sg4
F5.0
sg5
F-5.0
sg6
F-6.0
sb(dp409
I00
I-60
sI01
F54.92699440174741
ss(i__main__
State
p410
(dp411
g3
F2.0
sg4
F1.0
sg5
F-2.0
sg6
F4.0
sb(dp412
I00
I-78
sI01
F7.800928389199999
ss(i__main__
State
p413
(dp414
g3
F-1.0
sg4
F3.0
sg5
F1.0
sg6
F-2.0
sb(dp415
I00
F22.4061784896764
sI01
F58.55351182512514
ss(i__main__
State
p416
(dp417
g3
F-6.0
sg4
F2.0
sg5
F6.0
sg6
F-2.0
sb(dp418
I00
I78
sI01
F-23.44
ss(i__main__
State
p419
(dp420
g3
F2.0
sg4
F0.0
sg5
F-2.0
sg6
F0.0
sb(dp421
I00
F-65.02029999999999
sI01
I72
ss(i__main__
State
p422
(dp423
g3
F-5.0
sg4
F6.0
sg5
F5.0
sg6
F4.0
sb(dp424
I00
F68.03601
sI01
F71.14880000000001
ss(i__main__
State
p425
(dp426
g3
F-1.0
sg4
F6.0
sg5
F1.0
sg6
F2.0
sb(dp427
I00
I26
sI01
F72.50659771006313
ss(i__main__
State
p428
(dp429
g3
F4.0
sg4
F2.0
sg5
F-4.0
sg6
F-2.0
sb(dp430
I00
F30.5
sI01
F69.78
ss(i__main__
State
p431
(dp432
g3
F0.0
sg4
F6.0
sg5
F0.0
sg6
F4.0
sb(dp433
I00
I-55
sI01
F-23.709757309541196
ss(i__main__
State
p434
(dp435
g3
F0.0
sg4
F9.0
sg5
F0.0
sg6
F2.0
sb(dp436
I00
F12.0
sI01
F57.4341
ss(i__main__
State
p437
(dp438
g3
F7.0
sg4
F8.0
sg5
F-7.0
sg6
F2.0
sb(dp439
I00
F43.153235
sI01
F41.5968891
ss(i__main__
State
p440
(dp441
g3
F-5.0
sg4
F9.0
sg5
F5.0
sg6
F-6.0
sb(dp442
I00
F77.62862825730001
sI01
F0.0
ss(i__main__
State
p443
(dp444
g3
F3.0
sg4
F6.0
sg5
F-3.0
sg6
F-8.0
sb(dp445
I00
F82.65008879999999
sI01
F-62.866497784
ss(i__main__
State
p446
(dp447
g3
F-2.0
sg4
F3.0
sg5
F2.0
sg6
F6.0
sb(dp448
I00
F22.05685209330274
sI01
I-94
ss(i__main__
State
p449
(dp450
g3
F3.0
sg4
F5.0
sg5
F-3.0
sg6
F4.0
sb(dp451
I00
F-9.306361615118663
sI01
F-32.532651915952194
ss(i__main__
State
p452
(dp453
g3
F-3.0
sg4
F7.0
sg5
F3.0
sg6
F-8.0
sb(dp454
I00
F15.045660000000002
sI01
I-89
ss(i__main__
State
p455
(dp456
g3
F8.0
sg4
F1.0
sg5
F-8.0
sg6
F4.0
sb(dp457
I00
F52.28516200000001
sI01
F-11.192430000000002
ss(i__main__
State
p458
(dp459
g3
F-7.0
sg4
F9.0
sg5
F7.0
sg6
F-2.0
sb(dp460
I00
F-245.39052
sI01
F57.726038978714
ss(i__main__
State
p461
(dp462
g3
F5.0
sg4
F8.0
sg5
F-5.0
sg6
F-8.0
sb(dp463
I00
F21.9
sI01
F103.80063874437275
ss(i__main__
State
p464
(dp465
g3
F2.0
sg4
F7.0
sg5
F-2.0
sg6
F2.0
sb(dp466
I00
F54.050800683282304
sI01
I15
ss(i__main__
State
p467
(dp468
g3
F0.0
sg4
F10.0
sg5
F0.0
sg6
F0.0
sb(dp469
I00
F-2704.9419769786
sI01
F-2703.3579560000003
ss(i__main__
State
p470
(dp471
g3
F6.0
sg4
F8.0
sg5
F-6.0
sg6
F0.0
sb(dp472
I00
F94.59702279385746
sI01
F12.47242014
ss(i__main__
State
p473
(dp474
g3
F3.0
sg4
F3.0
sg5
F-3.0
sg6
F-4.0
sb(dp475
I00
I-50
sI01
F36.84557443479999
ss(i__main__
State
p476
(dp477
g3
F5.0
sg4
F3.0
sg5
F-5.0
sg6
F0.0
sb(dp478
I00
I-9
sI01
F21.46851872733142
ss(i__main__
State
p479
(dp480
g3
F-6.0
sg4
F9.0
sg5
F6.0
sg6
F0.0
sb(dp481
I00
F-1898.0
sI01
F-2692.363095630438
ss(i__main__
State
p482
(dp483
g3
F3.0
sg4
F10.0
sg5
F-3.0
sg6
F-4.0
sb(dp484
I00
F97.43519119750951
sI01
F13.0
ss(i__main__
State
p485
(dp486
g3
F6.0
sg4
F4.0
sg5
F-6.0
sg6
F-2.0
sb(dp487
I00
I-88
sI01
F-1.0788749494800012
ss(i__main__
State
p488
(dp489
g3
F1.0
sg4
F0.0
sg5
F-1.0
sg6
F0.0
sb(dp490
I00
I-42
sI01
F-22.38191986633797
ss(i__main__
State
p491
(dp492
g3
F-2.0
sg4
F3.0
sg5
F2.0
sg6
F-4.0
sb(dp493
I00
F13.5259351
sI01
F-40.33
ss(i__main__
State
p494
(dp495
g3
F-2.0
sg4
F2.0
sg5
F2.0
sg6
F8.0
sb(dp496
I00
F-85.933062768
sI01
F43.971612313769775
ss(i__main__
State
p497
(dp498
g3
F-5.0
sg4
F7.0
sg5
F5.0
sg6
F-4.0
sb(dp499
I00
F64.65285233
sI01
I21
ss(i__main__
State
p500
(dp501
g3
F0.0
sg4
F9.0
sg5
F0.0
sg6
F-8.0
sb(dp502
I00
F117.65908711547729
sI01
F29.21
ss(i__main__
State
p503
(dp504
g3
F3.0
sg4
F6.0
sg5
F-3.0
sg6
F-2.0
sb(dp505
I00
F-27.8
sI01
I-88
ss(i__main__
State
p506
(dp507
g3
F3.0
sg4
F8.0
sg5
F-3.0
sg6
F0.0
sb(dp508
I00
F141.3852925921182
sI01
F40.101523467517055
ss(i__main__
State
p509
(dp510
g3
F8.0
sg4
F10.0
sg5
F-8.0
sg6
F-8.0
sb(dp511
I00
F33.6189933
sI01
F6.283540000000001
ss(i__main__
State
p512
(dp513
g3
F-6.0
sg4
F0.0
sg5
F6.0
sg6
F0.0
sb(dp514
I00
F50.097899999999996
sI01
F-0.20000000000000018
ss(i__main__
State
p515
(dp516
g3
F-1.0
sg4
F9.0
sg5
F1.0
sg6
F-2.0
sb(dp517
I00
F-615.777311669
sI01
F85.16057177579121
ss(i__main__
State
p518
(dp519
g3
F-2.0
sg4
F0.0
sg5
F2.0
sg6
F-8.0
sb(dp520
I00
F-19.92056581
sI01
I-67
ss(i__main__
State
p521
(dp522
g3
F1.0
sg4
F2.0
sg5
F-1.0
sg6
F-2.0
sb(dp523
I00
F66.00503010518571
sI01
F-14.241799999999998
ss(i__main__
State
p524
(dp525
g3
F2.0
sg4
F2.0
sg5
F-2.0
sg6
F2.0
sb(dp526
I00
F27.44
sI01
F-13.2
ss(i__main__
State
p527
(dp528
g3
F-3.0
sg4
F1.0
sg5
F3.0
sg6
F-2.0
sb(dp529
I00
F82.923714
sI01
I-10
ss(i__main__
State
p530
(dp531
g3
F6.0
sg4
F8.0
sg5
F-6.0
sg6
F8.0
sb(dp532
I00
F63.39380744315525
sI01
F17.910155899408
ss(i__main__
State
p533
(dp534
g3
F-8.0
sg4
F3.0
sg5
F8.0
sg6
F6.0
sb(dp535
I00
I-46
sI01
F36.14279731
ss(i__main__
State
p536
(dp537
g3
F8.0
sg4
F9.0
sg5
F-8.0
sg6
F-2.0
sb(dp538
I00
F-245.51000000000002
sI01
F57.524064949700005
ss(i__main__
State
p539
(dp540
g3
F4.0
sg4
F0.0
sg5
F-4.0
sg6
F6.0
sb(dp541
I00
F67.0370514
sI01
I-29
ss(i__main__
State
p542
(dp543
g3
F2.0
sg4
F1.0
sg5
F-2.0
sg6
F-2.0
sb(dp544
I00
I-56
sI01
F81.8783
ss(i__main__
State
p545
(dp546
g3
F-4.0
sg4
F1.0
sg5
F4.0
sg6
F8.0
sb(dp547
I00
I-48
sI01
F50.25692212755121
ss(i__main__
State
p548
(dp549
g3
F3.0
sg4
F1.0
sg5
F-3.0
sg6
F2.0
sb(dp550
I00
I-70
sI01
F61.123333091000006
ss(i__main__
State
p551
(dp552
g3
F4.0
sg4
F2.0
sg5
F-4.0
sg6
F8.0
sb(dp553
I00
F46.578402
sI01
F12.082419
ss(i__main__
State
p554
(dp555
g3
F4.0
sg4
F5.0
sg5
F-4.0
sg6
F8.0
sb(dp556
I00
F30.597572890686102
sI01
F-18.6
ss(i__main__
State
p557
(dp558
g3
F-6.0
sg4
F8.0
sg5
F6.0
sg6
F-6.0
sb(dp559
I00
F30.009999999999998
sI01
F21.167095095661697
ss(i__main__
State
p560
(dp561
g3
F-3.0
sg4
F2.0
sg5
F3.0
sg6
F8.0
sb(dp562
I00
F38.166052361782725
sI01
F54.498370331375256
ss(i__main__
State
p563
(dp564
g3
F6.0
sg4
F0.0
sg5
F-6.0
sg6
F6.0
sb(dp565
I00
I-50
sI01
F37.003885098000005
ss(i__main__
State
p566
(dp567
g3
F8.0
sg4
F7.0
sg5
F-8.0
sg6
F8.0
sb(dp568
I00
F-70.71278699999999
sI01
F85.76238659176784
ss(i__main__
State
p569
(dp570
g3
F0.0
sg4
F4.0
sg5
F0.0
sg6
F-4.0
sb(dp571
I00
F22.89714
sI01
F-70.11
ss(i__main__
State
p572
(dp573
g3
F4.0
sg4
F8.0
sg5
F-4.0
sg6
F-6.0
sb(dp574
I00
F30.118000000000002
sI01
F0.0
ss(i__main__
State
p575
(dp576
g3
F-1.0
sg4
F9.0
sg5
F1.0
sg6
F0.0
sb(dp577
I00
F-998.0
sI01
F-999.0
ss(i__main__
State
p578
(dp579
g3
F1.0
sg4
F7.0
sg5
F-1.0
sg6
F4.0
sb(dp580
I00
F74.04045347103826
sI01
F-291.851384682465
ss(i__main__
State
p581
(dp582
g3
F-2.0
sg4
F7.0
sg5
F2.0
sg6
F-6.0
sb(dp583
I00
F71.9
sI01
I8
ss(i__main__
State
p584
(dp585
g3
F7.0
sg4
F9.0
sg5
F-7.0
sg6
F-8.0
sb(dp586
I00
F58.19428607917
sI01
F10.0
ss(i__main__
State
p587
(dp588
g3
F5.0
sg4
F2.0
sg5
F-5.0
sg6
F4.0
sb(dp589
I00
F-52.4602
sI01
F57.934
ss(i__main__
State
p590
(dp591
g3
F4.0
sg4
F3.0
sg5
F-4.0
sg6
F0.0
sb(dp592
I00
I-66
sI01
F6.4
ss(i__main__
State
p593
(dp594
g3
F3.0
sg4
F8.0
sg5
F-3.0
sg6
F-2.0
sb(dp595
I00
F39.9
sI01
F10.0
ss(i__main__
State
p596
(dp597
g3
F4.0
sg4
F1.0
sg5
F-4.0
sg6
F-2.0
sb(dp598
I00
I13
sI01
F-78.64
ss(i__main__
State
p599
(dp600
g3
F-1.0
sg4
F0.0
sg5
F1.0
sg6
F-2.0
sb(dp601
I00
F-50.5
sI01
F33.259523
ss(i__main__
State
p602
(dp603
g3
F6.0
sg4
F0.0
sg5
F-6.0
sg6
F-4.0
sb(dp604
I00
F27.249859311405487
sI01
F-59.75952752172586
ss(i__main__
State
p605
(dp606
g3
F1.0
sg4
F5.0
sg5
F-1.0
sg6
F-8.0
sb(dp607
I00
I-94
sI01
F36.69
ss(i__main__
State
p608
(dp609
g3
F5.0
sg4
F1.0
sg5
F-5.0
sg6
F-2.0
sb(dp610
I00
F37.20633414545683
sI01
F29.4
ss(i__main__
State
p611
(dp612
g3
F0.0
sg4
F3.0
sg5
F0.0
sg6
F-4.0
sb(dp613
I00
F26.392563373673003
sI01
F-56.3
ss(i__main__
State
p614
(dp615
g3
F7.0
sg4
F9.0
sg5
F-7.0
sg6
F2.0
sb(dp616
I00
F23.261200000000002
sI01
F0.0
ss(i__main__
State
p617
(dp618
g3
F-5.0
sg4
F1.0
sg5
F5.0
sg6
F0.0
sb(dp619
I00
F59.714927810000006
sI01
F-70.1413
ss(i__main__
State
p620
(dp621
g3
F7.0
sg4
F3.0
sg5
F-7.0
sg6
F4.0
sb(dp622
I00
F74.25396779158001
sI01
F40.1877
ss(i__main__
State
p623
(dp624
g3
F-8.0
sg4
F3.0
sg5
F8.0
sg6
F4.0
sb(dp625
I00
I-45
sI01
F69.83136411705884
ss(i__main__
State
p626
(dp627
g3
F-3.0
sg4
F10.0
sg5
F3.0
sg6
F2.0
sb(dp628
I00
F101.01253482853801
sI01
F19.0
ss(i__main__
State
p629
(dp630
g3
F4.0
sg4
F10.0
sg5
F-4.0
sg6
F-6.0
sb(dp631
I00
F71.39729547054804
sI01
F8.200000000000001
ss(i__main__
State
p632
(dp633
g3
F3.0
sg4
F7.0
sg5
F-3.0
sg6
F4.0
sb(dp634
I00
F-32.24785933329063
sI01
F-77.493577
ss(i__main__
State
p635
(dp636
g3
F-6.0
sg4
F2.0
sg5
F6.0
sg6
F4.0
sb(dp637
I00
F58.25791
sI01
F-60.7
ss(i__main__
State
p638
(dp639
g3
F5.0
sg4
F8.0
sg5
F-5.0
sg6
F6.0
sb(dp640
I00
F87.01499086666901
sI01
F0.0
ss(i__main__
State
p641
(dp642
g3
F1.0
sg4
F8.0
sg5
F-1.0
sg6
F-2.0
sb(dp643
I00
F-467.1772917981851
sI01
F-333.818
ss(i__main__
State
p644
(dp645
g3
F-7.0
sg4
F9.0
sg5
F7.0
sg6
F6.0
sb(dp646
I00
F41.585091038
sI01
F0.0
ss(i__main__
State
p647
(dp648
g3
F8.0
sg4
F4.0
sg5
F-8.0
sg6
F2.0
sb(dp649
I00
F70.58855053680001
sI01
F51.192
ss(i__main__
State
p650
(dp651
g3
F6.0
sg4
F9.0
sg5
F-6.0
sg6
F8.0
sb(dp652
I00
F174.90686364714637
sI01
F16.019768675559998
ss(i__main__
State
p653
(dp654
g3
F-4.0
sg4
F9.0
sg5
F4.0
sg6
F2.0
sb(dp655
I00
F54.56897551961661
sI01
F0.0
ss(i__main__
State
p656
(dp657
g3
F0.0
sg4
F2.0
sg5
F0.0
sg6
F-4.0
sb(dp658
I00
I-65
sI01
F-28.398648499668
ss(i__main__
State
p659
(dp660
g3
F6.0
sg4
F3.0
sg5
F-6.0
sg6
F-2.0
sb(dp661
I00
F45.3635670568588
sI01
I-42
ss(i__main__
State
p662
(dp663
g3
F3.0
sg4
F6.0
sg5
F-3.0
sg6
F6.0
sb(dp664
I00
F-67.28999999999999
sI01
F-29.167897286113764
ss(i__main__
State
p665
(dp666
g3
F-6.0
sg4
F5.0
sg5
F6.0
sg6
F-4.0
sb(dp667
I00
F-11.003713435199543
sI01
F-77.7
ss(i__main__
State
p668
(dp669
g3
F7.0
sg4
F8.0
sg5
F-7.0
sg6
F-2.0
sb(dp670
I00
F56.90725373901887
sI01
F0.0
ss(i__main__
State
p671
(dp672
g3
F8.0
sg4
F5.0
sg5
F-8.0
sg6
F-6.0
sb(dp673
I00
I45
sI01
F93.7063964
ss(i__main__
State
p674
(dp675
g3
F8.0
sg4
F5.0
sg5
F-8.0
sg6
F2.0
sb(dp676
I00
F58.407324558
sI01
I9
ss(i__main__
State
p677
(dp678
g3
F-6.0
sg4
F4.0
sg5
F6.0
sg6
F0.0
sb(dp679
I00
F51.35034250799265
sI01
F42.0
ss(i__main__
State
p680
(dp681
g3
F-1.0
sg4
F10.0
sg5
F1.0
sg6
F0.0
sb(dp682
I00
F10.0
sI01
F89.32850152904
ss(i__main__
State
p683
(dp684
g3
F-6.0
sg4
F10.0
sg5
F6.0
sg6
F2.0
sb(dp685
I00
F29.739
sI01
F109.98435633126
ss(i__main__
State
p686
(dp687
g3
F0.0
sg4
F5.0
sg5
F0.0
sg6
F4.0
sb(dp688
I00
F78.41799999999999
sI01
F73.91736999999999
ss(i__main__
State
p689
(dp690
g3
F1.0
sg4
F7.0
sg5
F-1.0
sg6
F-8.0
sb(dp691
I00
F80.73517752414877
sI01
I73
ss(i__main__
State
p692
(dp693
g3
F0.0
sg4
F1.0
sg5
F0.0
sg6
F-4.0
sb(dp694
I00
I-60
sI01
F-41.502
ss(i__main__
State
p695
(dp696
g3
F-1.0
sg4
F7.0
sg5
F1.0
sg6
F0.0
sb(dp697
I00
I-73
sI01
F77.4
ss(i__main__
State
p698
(dp699
g3
F-2.0
sg4
F4.0
sg5
F2.0
sg6
F2.0
sb(dp700
I00
F40.510000000000005
sI01
I0
ss(i__main__
State
p701
(dp702
g3
F-6.0
sg4
F1.0
sg5
F6.0
sg6
F-4.0
sb(dp703
I00
F61.2432
sI01
F2.0
ss(i__main__
State
p704
(dp705
g3
F-3.0
sg4
F6.0
sg5
F3.0
sg6
F8.0
sb(dp706
I00
F-52.520768700000005
sI01
F51.57
ss(i__main__
State
p707
(dp708
g3
F-1.0
sg4
F6.0
sg5
F1.0
sg6
F4.0
sb(dp709
I00
F54.7
sI01
F56.45648739999999
ss(i__main__
State
p710
(dp711
g3
F-3.0
sg4
F8.0
sg5
F3.0
sg6
F8.0
sb(dp712
I00
F0.0
sI01
F91.08300527610001
ss(i__main__
State
p713
(dp714
g3
F-3.0
sg4
F9.0
sg5
F3.0
sg6
F-6.0
sb(dp715
I00
F225.2900368140509
sI01
F50.07806
ss(i__main__
State
p716
(dp717
g3
F5.0
sg4
F0.0
sg5
F-5.0
sg6
F8.0
sb(dp718
I00
F44.6736356347871
sI01
F42.9929471482711
ss(i__main__
State
p719
(dp720
g3
F0.0
sg4
F6.0
sg5
F0.0
sg6
F2.0
sb(dp721
I00
F71.72376799999999
sI01
F45.6
ss(i__main__
State
p722
(dp723
g3
F2.0
sg4
F9.0
sg5
F-2.0
sg6
F-6.0
sb(dp724
I00
F18.593063126340002
sI01
F0.0
ss(i__main__
State
p725
(dp726
g3
F5.0
sg4
F10.0
sg5
F-5.0
sg6
F-4.0
sb(dp727
I00
F0.0
sI01
F68.742059
ss(i__main__
State
p728
(dp729
g3
F7.0
sg4
F3.0
sg5
F-7.0
sg6
F-8.0
sb(dp730
I00
I-56
sI01
F2.240079135826998
ss(i__main__
State
p731
(dp732
g3
F-7.0
sg4
F10.0
sg5
F7.0
sg6
F-8.0
sb(dp733
I00
F10.0
sI01
F0.0
ss(i__main__
State
p734
(dp735
g3
F4.0
sg4
F7.0
sg5
F-4.0
sg6
F-4.0
sb(dp736
I00
I-77
sI01
F32.5101
ss(i__main__
State
p737
(dp738
g3
F1.0
sg4
F6.0
sg5
F-1.0
sg6
F8.0
sb(dp739
I00
F-52.9385
sI01
F48.060843808749894
ss(i__main__
State
p740
(dp741
g3
F5.0
sg4
F6.0
sg5
F-5.0
sg6
F-4.0
sb(dp742
I00
I-78
sI01
F-36.1300492269
ss(i__main__
State
p743
(dp744
g3
F-3.0
sg4
F3.0
sg5
F3.0
sg6
F2.0
sb(dp745
I00
I-55
sI01
F46.98496193732589
ss(i__main__
State
p746
(dp747
g3
F-8.0
sg4
F10.0
sg5
F8.0
sg6
F4.0
sb(dp748
I00
F145.66035291540564
sI01
F61.9926
ss(i__main__
State
p749
(dp750
g3
F0.0
sg4
F7.0
sg5
F0.0
sg6
F0.0
sb(dp751
I00
F73.8995798426416
sI01
F-54.229697943355
ss(i__main__
State
p752
(dp753
g3
F0.0
sg4
F10.0
sg5
F0.0
sg6
F6.0
sb(dp754
I00
F-1897.7668672600003
sI01
F-3425.9320592791255
ss(i__main__
State
p755
(dp756
g3
F-7.0
sg4
F8.0
sg5
F7.0
sg6
F4.0
sb(dp757
I00
F115.68298282666916
sI01
F20.0
ss(i__main__
State
p758
(dp759
g3
F4.0
sg4
F4.0
sg5
F-4.0
sg6
F2.0
sb(dp760
I00
I-34
sI01
F-2.4465211568767953
ss(i__main__
State
p761
(dp762
g3
F-1.0
sg4
F5.0
sg5
F1.0
sg6
F-4.0
sb(dp763
I00
F53.0089124443547
sI01
F8.620000000000001
ss(i__main__
State
p764
(dp765
g3
F1.0
sg4
F0.0
sg5
F-1.0
sg6
F6.0
sb(dp766
I00
F-86.5065265047
sI01
F7.139856019495103
ss(i__main__
State
p767
(dp768
g3
F7.0
sg4
F3.0
sg5
F-7.0
sg6
F6.0
sb(dp769
I00
F40.0
sI01
F41.63183
ss(i__main__
State
p770
(dp771
g3
F-3.0
sg4
F2.0
sg5
F3.0
sg6
F0.0
sb(dp772
I00
F39.75150000000001
sI01
I-23
ss(i__main__
State
p773
(dp774
g3
F7.0
sg4
F4.0
sg5
F-7.0
sg6
F0.0
sb(dp775
I00
F74.66000000000001
sI01
I-6
ss(i__main__
State
p776
(dp777
g3
F8.0
sg4
F6.0
sg5
F-8.0
sg6
F-4.0
sb(dp778
I00
I1
sI01
F22.09161034236695
ss(i__main__
State
p779
(dp780
g3
F-1.0
sg4
F4.0
sg5
F1.0
sg6
F0.0
sb(dp781
I00
F-8.799999999999997
sI01
F53.768370465704656
ss(i__main__
State
p782
(dp783
g3
F8.0
sg4
F8.0
sg5
F-8.0
sg6
F2.0
sb(dp784
I00
F10.0
sI01
F49.9126
ss(i__main__
State
p785
(dp786
g3
F7.0
sg4
F6.0
sg5
F-7.0
sg6
F2.0
sb(dp787
I00
F-28.4
sI01
F8.905271800000001
ss(i__main__
State
p788
(dp789
g3
F3.0
sg4
F10.0
sg5
F-3.0
sg6
F8.0
sb(dp790
I00
F84.011929497
sI01
F35.38795764
ss(i__main__
State
p791
(dp792
g3
F-1.0
sg4
F8.0
sg5
F1.0
sg6
F-6.0
sb(dp793
I00
F20.1
sI01
F228.88007334685722
ss(i__main__
State
p794
(dp795
g3
F-4.0
sg4
F10.0
sg5
F4.0
sg6
F4.0
sb(dp796
I00
F99.35357591582422
sI01
F24.662000000000003
ss(i__main__
State
p797
(dp798
g3
F7.0
sg4
F10.0
sg5
F-7.0
sg6
F0.0
sb(dp799
I00
F80.68925785897001
sI01
F14.251776707851798
ss(i__main__
State
p800
(dp801
g3
F-3.0
sg4
F2.0
sg5
F3.0
sg6
F6.0
sb(dp802
I00
F-12.960050052572
sI01
F-77.1
ss(i__main__
State
p803
(dp804
g3
F1.0
sg4
F2.0
sg5
F-1.0
sg6
F-8.0
sb(dp805
I00
F67.83
sI01
I-87
ss(i__main__
State
p806
(dp807
g3
F7.0
sg4
F10.0
sg5
F-7.0
sg6
F2.0
sb(dp808
I00
F10.0
sI01
F0.0
ss(i__main__
State
p809
(dp810
g3
F-7.0
sg4
F1.0
sg5
F7.0
sg6
F-8.0
sb(dp811
I00
F-70.578
sI01
F-49.1
ss(i__main__
State
p812
(dp813
g3
F-5.0
sg4
F8.0
sg5
F5.0
sg6
F2.0
sb(dp814
I00
F34.32485564
sI01
F13.0
ss(i__main__
State
p815
(dp816
g3
F4.0
sg4
F7.0
sg5
F-4.0
sg6
F4.0
sb(dp817
I00
F59.82333858573298
sI01
I-58
ss(i__main__
State
p818
(dp819
g3
F-5.0
sg4
F0.0
sg5
F5.0
sg6
F-6.0
sb(dp820
I00
F25.5
sI01
I-88
ss(i__main__
State
p821
(dp822
g3
F8.0
sg4
F7.0
sg5
F-8.0
sg6
F6.0
sb(dp823
I00
F-53.8
sI01
I31
ss(i__main__
State
p824
(dp825
g3
F-8.0
sg4
F3.0
sg5
F8.0
sg6
F0.0
sb(dp826
I00
F-25.1
sI01
F-65.4
ss(i__main__
State
p827
(dp828
g3
F0.0
sg4
F8.0
sg5
F0.0
sg6
F-6.0
sb(dp829
I00
F-1893.8808025864068
sI01
F-2696.745238407685
ss(i__main__
State
p830
(dp831
g3
F-4.0
sg4
F4.0
sg5
F4.0
sg6
F0.0
sb(dp832
I00
I-51
sI01
F31.59
ss(i__main__
State
p833
(dp834
g3
F-4.0
sg4
F9.0
sg5
F4.0
sg6
F6.0
sb(dp835
I00
F51.89719354730069
sI01
F20.8928
ss(i__main__
State
p836
(dp837
g3
F7.0
sg4
F7.0
sg5
F-7.0
sg6
F-4.0
sb(dp838
I00
I48
sI01
F77.4
ss(i__main__
State
p839
(dp840
g3
F-8.0
sg4
F10.0
sg5
F8.0
sg6
F6.0
sb(dp841
I00
F22.01932
sI01
F0.0
ss(i__main__
State
p842
(dp843
g3
F6.0
sg4
F3.0
sg5
F-6.0
sg6
F-6.0
sb(dp844
I00
F-2.9645
sI01
I-97
ss(i__main__
State
p845
(dp846
g3
F-4.0
sg4
F6.0
sg5
F4.0
sg6
F0.0
sb(dp847
I00
F-42.50235045
sI01
F24.099521202547635
ss(i__main__
State
p848
(dp849
g3
F-5.0
sg4
F5.0
sg5
F5.0
sg6
F4.0
sb(dp850
I00
F-22.71
sI01
F32.5964
ss(i__main__
State
p851
(dp852
g3
F-1.0
sg4
F7.0
sg5
F1.0
sg6
F-4.0
sb(dp853
I00
F89.811
sI01
F75.6
ss(i__main__
State
p854
(dp855
g3
F3.0
sg4
F0.0
sg5
F-3.0
sg6
F-8.0
sb(dp856
I00
I-37
sI01
F77.0
ss(i__main__
State
p857
(dp858
g3
F-2.0
sg4
F5.0
sg5
F2.0
sg6
F-2.0
sb(dp859
I00
F-45.8
sI01
F62.09274105847084
ss(i__main__
State
p860
(dp861
g3
F5.0
sg4
F7.0
sg5
F-5.0
sg6
F-2.0
sb(dp862
I00
F-53.5
sI01
I5
ss(i__main__
State
p863
(dp864
g3
F2.0
sg4
F0.0
sg5
F-2.0
sg6
F-8.0
sb(dp865
I00
F79.60919851999999
sI01
F79.86
ss(i__main__
State
p866
(dp867
g3
F-1.0
sg4
F2.0
sg5
F1.0
sg6
F4.0
sb(dp868
I00
I59
sI01
F17.78292
ss(i__main__
State
p869
(dp870
g3
F-3.0
sg4
F5.0
sg5
F3.0
sg6
F0.0
sb(dp871
I00
I-69
sI01
F31.3437
ss(i__main__
State
p872
(dp873
g3
F1.0
sg4
F7.0
sg5
F-1.0
sg6
F2.0
sb(dp874
I00
F-0.7857595846595573
sI01
F-400.941572164776
ss(i__main__
State
p875
(dp876
g3
F-2.0
sg4
F10.0
sg5
F2.0
sg6
F8.0
sb(dp877
I00
F20.0
sI01
F0.0
ss(i__main__
State
p878
(dp879
g3
F7.0
sg4
F2.0
sg5
F-7.0
sg6
F8.0
sb(dp880
I00
F41.944509433893
sI01
I57
ss(i__main__
State
p881
(dp882
g3
F-5.0
sg4
F0.0
sg5
F5.0
sg6
F4.0
sb(dp883
I00
F60.360363403464575
sI01
F-21.0
ss(i__main__
State
p884
(dp885
g3
F1.0
sg4
F4.0
sg5
F-1.0
sg6
F-8.0
sb(dp886
I00
I-47
sI01
F-27.6
ss(i__main__
State
p887
(dp888
g3
F-7.0
sg4
F1.0
sg5
F7.0
sg6
F4.0
sb(dp889
I00
F57.26774925196
sI01
F-25.29
ss(i__main__
State
p890
(dp891
g3
F-6.0
sg4
F1.0
sg5
F6.0
sg6
F-8.0
sb(dp892
I00
I-24
sI01
F69.8
ss(i__main__
State
p893
(dp894
g3
F-7.0
sg4
F10.0
sg5
F7.0
sg6
F-4.0
sb(dp895
I00
F126.41063466601767
sI01
F0.0
ss(i__main__
State
p896
(dp897
g3
F8.0
sg4
F1.0
sg5
F-8.0
sg6
F2.0
sb(dp898
I00
F64.3
sI01
F28.71
ss(i__main__
State
p899
(dp900
g3
F-5.0
sg4
F6.0
sg5
F5.0
sg6
F-4.0
sb(dp901
I00
F-43.11
sI01
F-6.906818899999999
ss(i__main__
State
p902
(dp903
g3
F-4.0
sg4
F7.0
sg5
F4.0
sg6
F-2.0
sb(dp904
I00
F49.25121473291949
sI01
F26.31
ss(i__main__
State
p905
(dp906
g3
F-4.0
sg4
F2.0
sg5
F4.0
sg6
F-2.0
sb(dp907
I00
F-5.379999999999999
sI01
I-69
ss(i__main__
State
p908
(dp909
g3
F4.0
sg4
F6.0
sg5
F-4.0
sg6
F-4.0
sb(dp910
I00
F-22.1
sI01
F44.01846595449384
ss(i__main__
State
p911
(dp912
g3
F-7.0
sg4
F6.0
sg5
F7.0
sg6
F-4.0
sb(dp913
I00
F4.4
sI01
F21.397699999999997
ss(i__main__
State
p914
(dp915
g3
F-8.0
sg4
F1.0
sg5
F8.0
sg6
F-8.0
sb(dp916
I00
F-40.801661
sI01
F34.28870193039068
ss(i__main__
State
p917
(dp918
g3
F7.0
sg4
F10.0
sg5
F-7.0
sg6
F-4.0
sb(dp919
I00
F40.523
sI01
F0.0
ss(i__main__
State
p920
(dp921
g3
F-6.0
sg4
F9.0
sg5
F6.0
sg6
F6.0
sb(dp922
I00
F51.77289542738001
sI01
F0.0
ss(i__main__
State
p923
(dp924
g3
F8.0
sg4
F2.0
sg5
F-8.0
sg6
F6.0
sb(dp925
I00
F-1.7999999999999998
sI01
F72.9963377
ss(i__main__
State
p926
(dp927
g3
F3.0
sg4
F2.0
sg5
F-3.0
sg6
F-2.0
sb(dp928
I00
F42.28
sI01
I-3
ss(i__main__
State
p929
(dp930
g3
F-2.0
sg4
F10.0
sg5
F2.0
sg6
F6.0
sb(dp931
I00
F70.635132481
sI01
F20.7162
ss(i__main__
State
p932
(dp933
g3
F-7.0
sg4
F3.0
sg5
F7.0
sg6
F-8.0
sb(dp934
I00
F92.27493430199999
sI01
I-36
ss(i__main__
State
p935
(dp936
g3
F6.0
sg4
F6.0
sg5
F-6.0
sg6
F-4.0
sb(dp937
I00
F23.082
sI01
F37.4
ss(i__main__
State
p938
(dp939
g3
F-5.0
sg4
F10.0
sg5
F5.0
sg6
F2.0
sb(dp940
I00
F225.69772241021644
sI01
F18.455000000000002
ss(i__main__
State
p941
(dp942
g3
F-1.0
sg4
F0.0
sg5
F1.0
sg6
F8.0
sb(dp943
I00
F22.568099999999998
sI01
F38.707140718127846
ss(i__main__
State
p944
(dp945
g3
F4.0
sg4
F10.0
sg5
F-4.0
sg6
F8.0
sb(dp946
I00
F41.207570000000004
sI01
F17.5
ss(i__main__
State
p947
(dp948
g3
F7.0
sg4
F8.0
sg5
F-7.0
sg6
F0.0
sb(dp949
I00
F51.507702
sI01
F12.100000000000001
ss(i__main__
State
p950
(dp951
g3
F1.0
sg4
F5.0
sg5
F-1.0
sg6
F2.0
sb(dp952
I00
F39.984095999999994
sI01
F-4.196658695
ss(i__main__
State
p953
(dp954
g3
F-5.0
sg4
F6.0
sg5
F5.0
sg6
F2.0
sb(dp955
I00
F-21.861
sI01
F51.9764955
ss(i__main__
State
p956
(dp957
g3
F-7.0
sg4
F3.0
sg5
F7.0
sg6
F8.0
sb(dp958
I00
I18
sI01
F59.74298722575999
ss(i__main__
State
p959
(dp960
g3
F-8.0
sg4
F10.0
sg5
F8.0
sg6
F8.0
sb(dp961
I00
F38.2841
sI01
F91.14241221260882
ss(i__main__
State
p962
(dp963
g3
F-2.0
sg4
F4.0
sg5
F2.0
sg6
F-2.0
sb(dp964
I00
F-33.6
sI01
I-70
ss(i__main__
State
p965
(dp966
g3
F1.0
sg4
F6.0
sg5
F-1.0
sg6
F-8.0
sb(dp967
I00
F-16.812
sI01
F64.23961752414877
ss(i__main__
State
p968
(dp969
g3
F-2.0
sg4
F6.0
sg5
F2.0
sg6
F2.0
sb(dp970
I00
F59.78431108006902
sI01
F-21.644772364975996
ss(i__main__
State
p971
(dp972
g3
F-3.0
sg4
F1.0
sg5
F3.0
sg6
F6.0
sb(dp973
I00
F87.9
sI01
F-42.53245549
ss(i__main__
State
p974
(dp975
g3
F8.0
sg4
F3.0
sg5
F-8.0
sg6
F-6.0
sb(dp976
I00
F-28.04769737882
sI01
F12.642000000000001
ss(i__main__
State
p977
(dp978
g3
F-1.0
sg4
F2.0
sg5
F1.0
sg6
F-4.0
sb(dp979
I00
F84.17952000000001
sI01
F58.8
ss(i__main__
State
p980
(dp981
g3
F-6.0
sg4
F7.0
sg5
F6.0
sg6
F8.0
sb(dp982
I00
I31
sI01
F39.91
ss(i__main__
State
p983
(dp984
g3
F5.0
sg4
F10.0
sg5
F-5.0
sg6
F2.0
sb(dp985
I00
F20.1
sI01
F9.643582869
ss(i__main__
State
p986
(dp987
g3
F-4.0
sg4
F6.0
sg5
F4.0
sg6
F2.0
sb(dp988
I00
F5.289300000000005
sI01
F64.0311879223837
ss(i__main__
State
p989
(dp990
g3
F0.0
sg4
F1.0
sg5
F0.0
sg6
F-6.0
sb(dp991
I00
I-84
sI01
F-27.306309999999996
ss(i__main__
State
p992
(dp993
g3
F2.0
sg4
F5.0
sg5
F-2.0
sg6
F-4.0
sb(dp994
I00
F32.7
sI01
F57.71697406717
ss(i__main__
State
p995
(dp996
g3
F-8.0
sg4
F9.0
sg5
F8.0
sg6
F0.0
sb(dp997
I00
F-3431.008556102
sI01
F-2697.5120750275396
ss(i__main__
State
p998
(dp999
g3
F0.0
sg4
F0.0
sg5
F0.0
sg6
F6.0
sb(dp1000
I00
F29.639092919447467
sI01
I-13
ss(i__main__
State
p1001
(dp1002
g3
F-1.0
sg4
F3.0
sg5
F1.0
sg6
F6.0
sb(dp1003
I00
I-34
sI01
F6.737367733169692
ss(i__main__
State
p1004
(dp1005
g3
F3.0
sg4
F9.0
sg5
F-3.0
sg6
F4.0
sb(dp1006
I00
F10.0
sI01
F0.0
ss(i__main__
State
p1007
(dp1008
g3
F3.0
sg4
F5.0
sg5
F-3.0
sg6
F-4.0
sb(dp1009
I00
F63.50995496
sI01
F18.4
ss(i__main__
State
p1010
(dp1011
g3
F7.0
sg4
F10.0
sg5
F-7.0
sg6
F4.0
sb(dp1012
I00
F137.01906511745295
sI01
F23.450000000000003
ss(i__main__
State
p1013
(dp1014
g3
F1.0
sg4
F10.0
sg5
F-1.0
sg6
F6.0
sb(dp1015
I00
F-90.0
sI01
F16.132134997
ss(i__main__
State
p1016
(dp1017
g3
F7.0
sg4
F7.0
sg5
F-7.0
sg6
F2.0
sb(dp1018
I00
I-88
sI01
F-8.3803741993
ss(i__main__
State
p1019
(dp1020
g3
F8.0
sg4
F7.0
sg5
F-8.0
sg6
F2.0
sb(dp1021
I00
I-53
sI01
F-14.997
ss(i__main__
State
p1022
(dp1023
g3
F0.0
sg4
F6.0
sg5
F0.0
sg6
F8.0
sb(dp1024
I00
F-62.11
sI01
I41
ss(i__main__
State
p1025
(dp1026
g3
F-4.0
sg4
F2.0
sg5
F4.0
sg6
F-8.0
sb(dp1027
I00
F-44.07
sI01
F-0.8418707137270607
ss(i__main__
State
p1028
(dp1029
g3
F7.0
sg4
F4.0
sg5
F-7.0
sg6
F6.0
sb(dp1030
I00
I-53
sI01
F-29.952878075
ss(i__main__
State
p1031
(dp1032
g3
F-3.0
sg4
F4.0
sg5
F3.0
sg6
F-6.0
sb(dp1033
I00
F-31.6
sI01
F57.91935600000001
ss(i__main__
State
p1034
(dp1035
g3
F0.0
sg4
F0.0
sg5
F0.0
sg6
F-2.0
sb(dp1036
I00
F-30.083014659409997
sI01
I-74
ss(i__main__
State
p1037
(dp1038
g3
F-3.0
sg4
F1.0
sg5
F3.0
sg6
F8.0
sb(dp1039
I00
F43.2782
sI01
I-51
ss(i__main__
State
p1040
(dp1041
g3
F7.0
sg4
F0.0
sg5
F-7.0
sg6
F8.0
sb(dp1042
I00
F38.544900248
sI01
F29.1
ss(i__main__
State
p1043
(dp1044
g3
F2.0
sg4
F5.0
sg5
F-2.0
sg6
F6.0
sb(dp1045
I00
I-98
sI01
F8.732064016946167
ss(i__main__
State
p1046
(dp1047
g3
F-7.0
sg4
F6.0
sg5
F7.0
sg6
F-2.0
sb(dp1048
I00
F77.0
sI01
I-38
ss(i__main__
State
p1049
(dp1050
g3
F3.0
sg4
F5.0
sg5
F-3.0
sg6
F8.0
sb(dp1051
I00
F38.99
sI01
I11
ss(i__main__
State
p1052
(dp1053
g3
F2.0
sg4
F2.0
sg5
F-2.0
sg6
F-8.0
sb(dp1054
I00
F-13.022101685558702
sI01
F-40.93294
ss(i__main__
State
p1055
(dp1056
g3
F-1.0
sg4
F8.0
sg5
F1.0
sg6
F2.0
sb(dp1057
I00
F75.72389681071523
sI01
F0.0
ss(i__main__
State
p1058
(dp1059
g3
F-7.0
sg4
F8.0
sg5
F7.0
sg6
F0.0
sb(dp1060
I00
F50.63718574606139
sI01
F11.219000000000001
ss(i__main__
State
p1061
(dp1062
g3
F1.0
sg4
F6.0
sg5
F-1.0
sg6
F2.0
sb(dp1063
I00
F24.09903337
sI01
F12.177958899373344
ss(i__main__
State
p1064
(dp1065
g3
F2.0
sg4
F4.0
sg5
F-2.0
sg6
F6.0
sb(dp1066
I00
I-3
sI01
F76.93
ss(i__main__
State
p1067
(dp1068
g3
F-3.0
sg4
F7.0
sg5
F3.0
sg6
F0.0
sb(dp1069
I00
F-2.8999999999999995
sI01
F49.3061
ss(i__main__
State
p1070
(dp1071
g3
F-1.0
sg4
F4.0
sg5
F1.0
sg6
F-4.0
sb(dp1072
I00
F27.7
sI01
F38.852765406473
ss(i__main__
State
p1073
(dp1074
g3
F6.0
sg4
F2.0
sg5
F-6.0
sg6
F8.0
sb(dp1075
I00
F-16.949289999999998
sI01
F43.7650310426
ss(i__main__
State
p1076
(dp1077
g3
F8.0
sg4
F0.0
sg5
F-8.0
sg6
F6.0
sb(dp1078
I00
F71.82001145699999
sI01
F-80.29505
ss(i__main__
State
p1079
(dp1080
g3
F-2.0
sg4
F8.0
sg5
F2.0
sg6
F4.0
sb(dp1081
I00
F131.3975020761703
sI01
F18.455181613317816
ss(i__main__
State
p1082
(dp1083
g3
F-1.0
sg4
F1.0
sg5
F1.0
sg6
F6.0
sb(dp1084
I00
F43.095663888000004
sI01
F51.861468963170104
ss(i__main__
State
p1085
(dp1086
g3
F-2.0
sg4
F3.0
sg5
F2.0
sg6
F4.0
sb(dp1087
I00
F36.44012
sI01
I-55
ss(i__main__
State
p1088
(dp1089
g3
F-4.0
sg4
F8.0
sg5
F4.0
sg6
F6.0
sb(dp1090
I00
F128.94600186388632
sI01
F0.0
ss(i__main__
State
p1091
(dp1092
g3
F5.0
sg4
F3.0
sg5
F-5.0
sg6
F-6.0
sb(dp1093
I00
I-86
sI01
F-37.4715876592912
ss(i__main__
State
p1094
(dp1095
g3
F8.0
sg4
F1.0
sg5
F-8.0
sg6
F6.0
sb(dp1096
I00
F36.75
sI01
F-6.0
ss(i__main__
State
p1097
(dp1098
g3
F5.0
sg4
F6.0
sg5
F-5.0
sg6
F-8.0
sb(dp1099
I00
F2.366193
sI01
F-29.03436
ss(i__main__
State
p1100
(dp1101
g3
F-4.0
sg4
F7.0
sg5
F4.0
sg6
F-6.0
sb(dp1102
I00
F55.45
sI01
F52.0464
ss(i__main__
State
p1103
(dp1104
g3
F5.0
sg4
F9.0
sg5
F-5.0
sg6
F-4.0
sb(dp1105
I00
F118.13671156922005
sI01
F10.0
ss(i__main__
State
p1106
(dp1107
g3
F2.0
sg4
F3.0
sg5
F-2.0
sg6
F-2.0
sb(dp1108
I00
F48.4803
sI01
I-65
ss(i__main__
State
p1109
(dp1110
g3
F4.0
sg4
F6.0
sg5
F-4.0
sg6
F4.0
sb(dp1111
I00
F-36.76
sI01
F86.03130533346489
ss(i__main__
State
p1112
(dp1113
g3
F-8.0
sg4
F9.0
sg5
F8.0
sg6
F-4.0
sb(dp1114
I00
F60.80676127857001
sI01
F21.369366204000002
ss(i__main__
State
p1115
(dp1116
g3
F-6.0
sg4
F8.0
sg5
F6.0
sg6
F6.0
sb(dp1117
I00
F11.0
sI01
F109.07528408546419
ss(i__main__
State
p1118
(dp1119
g3
F-6.0
sg4
F5.0
sg5
F6.0
sg6
F-6.0
sb(dp1120
I00
F17.24198261
sI01
I-28
ss(i__main__
State
p1121
(dp1122
g3
F-5.0
sg4
F8.0
sg5
F5.0
sg6
F8.0
sb(dp1123
I00
F11.100000000000001
sI01
F230.61186928627552
ss(i__main__
State
p1124
(dp1125
g3
F-6.0
sg4
F9.0
sg5
F6.0
sg6
F2.0
sb(dp1126
I00
F11.100000000000001
sI01
F0.0
ss(i__main__
State
p1127
(dp1128
g3
F-6.0
sg4
F7.0
sg5
F6.0
sg6
F-2.0
sb(dp1129
I00
I-37
sI01
F74.80783853
ss(i__main__
State
p1130
(dp1131
g3
F-5.0
sg4
F10.0
sg5
F5.0
sg6
F6.0
sb(dp1132
I00
F115.15986378053336
sI01
F15.3
ss(i__main__
State
p1133
(dp1134
g3
F4.0
sg4
F2.0
sg5
F-4.0
sg6
F4.0
sb(dp1135
I00
F74.006601023655
sI01
F66.37464065
ss(i__main__
State
p1136
(dp1137
g3
F-1.0
sg4
F7.0
sg5
F1.0
sg6
F-6.0
sb(dp1138
I00
F55.26155
sI01
F33.59
ss(i__main__
State
p1139
(dp1140
g3
F-3.0
sg4
F8.0
sg5
F3.0
sg6
F2.0
sb(dp1141
I00
F40.25448005060001
sI01
F0.0
ss(i__main__
State
p1142
(dp1143
g3
F8.0
sg4
F10.0
sg5
F-8.0
sg6
F-6.0
sb(dp1144
I00
F31.936999999999998
sI01
F15.719999999999999
ss(i__main__
State
p1145
(dp1146
g3
F-2.0
sg4
F1.0
sg5
F2.0
sg6
F-4.0
sb(dp1147
I00
F17.046972000000004
sI01
I-53
ss(i__main__
State
p1148
(dp1149
g3
F-7.0
sg4
F6.0
sg5
F7.0
sg6
F8.0
sb(dp1150
I00
F28.880971000000006
sI01
I-29
ss(i__main__
State
p1151
(dp1152
g3
F6.0
sg4
F10.0
sg5
F-6.0
sg6
F2.0
sb(dp1153
I00
F80.9881983567
sI01
F13.294718077137
ss(i__main__
State
p1154
(dp1155
g3
F8.0
sg4
F3.0
sg5
F-8.0
sg6
F-2.0
sb(dp1156
I00
I82
sI01
F86.54
ss(i__main__
State
p1157
(dp1158
g3
F-3.0
sg4
F1.0
sg5
F3.0
sg6
F-4.0
sb(dp1159
I00
F30.9
sI01
F83.3
ss(i__main__
State
p1160
(dp1161
g3
F-1.0
sg4
F5.0
sg5
F1.0
sg6
F4.0
sb(dp1162
I00
F-24.0
sI01
I-74
ss(i__main__
State
p1163
(dp1164
g3
F-8.0
sg4
F7.0
sg5
F8.0
sg6
F-6.0
sb(dp1165
I00
F36.921092016971016
sI01
F-86.4
ss(i__main__
State
p1166
(dp1167
g3
F-8.0
sg4
F8.0
sg5
F8.0
sg6
F-8.0
sb(dp1168
I00
F40.6595907624
sI01
F0.0
ss(i__main__
State
p1169
(dp1170
g3
F4.0
sg4
F0.0
sg5
F-4.0
sg6
F4.0
sb(dp1171
I00
I-33
sI01
F14.612010054600962
ss(i__main__
State
p1172
(dp1173
g3
F-4.0
sg4
F1.0
sg5
F4.0
sg6
F-4.0
sb(dp1174
I00
F4.190300000000001
sI01
F-27.950317195959997
ss(i__main__
State
p1175
(dp1176
g3
F-8.0
sg4
F1.0
sg5
F8.0
sg6
F4.0
sb(dp1177
I00
I-72
sI01
F75.0338812
ss(i__main__
State
p1178
(dp1179
g3
F3.0
sg4
F1.0
sg5
F-3.0
sg6
F0.0
sb(dp1180
I00
F78.7251
sI01
F28.844
ss(i__main__
State
p1181
(dp1182
g3
F6.0
sg4
F2.0
sg5
F-6.0
sg6
F-6.0
sb(dp1183
I00
F38.3
sI01
F13.644
ss(i__main__
State
p1184
(dp1185
g3
F-6.0
sg4
F8.0
sg5
F6.0
sg6
F-8.0
sb(dp1186
I00
F23.726100000000002
sI01
F0.0
ss(i__main__
State
p1187
(dp1188
g3
F-8.0
sg4
F3.0
sg5
F8.0
sg6
F8.0
sb(dp1189
I00
F88.99794390000001
sI01
F-81.0
ss(i__main__
State
p1190
(dp1191
g3
F-8.0
sg4
F6.0
sg5
F8.0
sg6
F6.0
sb(dp1192
I00
F-61.3114
sI01
F39.8423815075358
ss(i__main__
State
p1193
(dp1194
g3
F2.0
sg4
F3.0
sg5
F-2.0
sg6
F6.0
sb(dp1195
I00
F35.5832
sI01
F19.88
ss(i__main__
State
p1196
(dp1197
g3
F3.0
sg4
F7.0
sg5
F-3.0
sg6
F-8.0
sb(dp1198
I00
I81
sI01
F88.6956196
ss(i__main__
State
p1199
(dp1200
g3
F4.0
sg4
F0.0
sg5
F-4.0
sg6
F8.0
sb(dp1201
I00
I-53
sI01
F46.1706692285
ss(i__main__
State
p1202
(dp1203
g3
F7.0
sg4
F6.0
sg5
F-7.0
sg6
F-6.0
sb(dp1204
I00
F38.813
sI01
I7
ss(i__main__
State
p1205
(dp1206
g3
F4.0
sg4
F8.0
sg5
F-4.0
sg6
F-8.0
sb(dp1207
I00
F62.6107
sI01
F0.0
ss(i__main__
State
p1208
(dp1209
g3
F4.0
sg4
F9.0
sg5
F-4.0
sg6
F0.0
sb(dp1210
I00
F-2704.12403
sI01
F-2701.441914
ss(i__main__
State
p1211
(dp1212
g3
F-2.0
sg4
F7.0
sg5
F2.0
sg6
F-8.0
sb(dp1213
I00
I11
sI01
F19.1
ss(i__main__
State
p1214
(dp1215
g3
F7.0
sg4
F9.0
sg5
F-7.0
sg6
F-2.0
sb(dp1216
I00
F-155.61
sI01
F32.8905
ss(i__main__
State
p1217
(dp1218
g3
F-7.0
sg4
F1.0
sg5
F7.0
sg6
F2.0
sb(dp1219
I00
F-10.36493
sI01
I-49
ss(i__main__
State
p1220
(dp1221
g3
F4.0
sg4
F8.0
sg5
F-4.0
sg6
F0.0
sb(dp1222
I00
F0.0
sI01
F35.4243
ss(i__main__
State
p1223
(dp1224
g3
F2.0
sg4
F10.0
sg5
F-2.0
sg6
F-4.0
sb(dp1225
I00
F29.571841666
sI01
F0.0
ss(i__main__
State
p1226
(dp1227
g3
F5.0
sg4
F4.0
sg5
F-5.0
sg6
F-6.0
sb(dp1228
I00
F19.926031742636
sI01
I-95
ss(i__main__
State
p1229
(dp1230
g3
F-8.0
sg4
F2.0
sg5
F8.0
sg6
F6.0
sb(dp1231
I00
I-49
sI01
F22.0084
ss(i__main__
State
p1232
(dp1233
g3
F6.0
sg4
F5.0
sg5
F-6.0
sg6
F-8.0
sb(dp1234
I00
F45.22906453
sI01
I7
ss(i__main__
State
p1235
(dp1236
g3
F4.0
sg4
F4.0
sg5
F-4.0
sg6
F-6.0
sb(dp1237
I00
F-23.1
sI01
F17.3145382
ss(i__main__
State
p1238
(dp1239
g3
F1.0
sg4
F1.0
sg5
F-1.0
sg6
F-2.0
sb(dp1240
I00
F62.8
sI01
F60.59610269181296
ss(i__main__
State
p1241
(dp1242
g3
F7.0
sg4
F9.0
sg5
F-7.0
sg6
F0.0
sb(dp1243
I00
F-2705.91
sI01
F-1899.0
ss(i__main__
State
p1244
(dp1245
g3
F0.0
sg4
F7.0
sg5
F0.0
sg6
F-6.0
sb(dp1246
I00
F-80.172
sI01
F39.21354535476062
ss(i__main__
State
p1247
(dp1248
g3
F3.0
sg4
F4.0
sg5
F-3.0
sg6
F2.0
sb(dp1249
I00
F64.3
sI01
I-30
ss(i__main__
State
p1250
(dp1251
g3
F-3.0
sg4
F10.0
sg5
F3.0
sg6
F0.0
sb(dp1252
I00
F199.99476975853736
sI01
F16.35
ss(i__main__
State
p1253
(dp1254
g3
F-4.0
sg4
F1.0
sg5
F4.0
sg6
F-8.0
sb(dp1255
I00
F-7.988399999999999
sI01
F-62.0
ss(i__main__
State
p1256
(dp1257
g3
F6.0
sg4
F10.0
sg5
F-6.0
sg6
F4.0
sb(dp1258
I00
F0.0
sI01
F6.169300000000001
ss(i__main__
State
p1259
(dp1260
g3
F3.0
sg4
F7.0
sg5
F-3.0
sg6
F6.0
sb(dp1261
I00
F71.81307001548511
sI01
F-50.970324152149935
ss(i__main__
State
p1262
(dp1263
g3
F-6.0
sg4
F2.0
sg5
F6.0
sg6
F6.0
sb(dp1264
I00
F73.58360999999998
sI01
I16
ss(i__main__
State
p1265
(dp1266
g3
F-8.0
sg4
F2.0
sg5
F8.0
sg6
F-4.0
sb(dp1267
I00
I5
sI01
F87.1
ss(i__main__
State
p1268
(dp1269
g3
F5.0
sg4
F9.0
sg5
F-5.0
sg6
F4.0
sb(dp1270
I00
F106.2676990671
sI01
F52.03065235511
ss(i__main__
State
p1271
(dp1272
g3
F2.0
sg4
F5.0
sg5
F-2.0
sg6
F-6.0
sb(dp1273
I00
F37.34202002133958
sI01
I-52
ss(i__main__
State
p1274
(dp1275
g3
F8.0
sg4
F4.0
sg5
F-8.0
sg6
F0.0
sb(dp1276
I00
F48.17984777234099
sI01
I-65
ss(i__main__
State
p1277
(dp1278
g3
F5.0
sg4
F3.0
sg5
F-5.0
sg6
F-8.0
sb(dp1279
I00
F39.494144930800005
sI01
I-17
ss(i__main__
State
p1280
(dp1281
g3
F2.0
sg4
F9.0
sg5
F-2.0
sg6
F0.0
sb(dp1282
I00
F-1000.0
sI01
F0.0
ss(i__main__
State
p1283
(dp1284
g3
F0.0
sg4
F0.0
sg5
F0.0
sg6
F0.0
sb(dp1285
I00
F-0.6100045981150806
sI01
I-86
ss(i__main__
State
p1286
(dp1287
g3
F-8.0
sg4
F6.0
sg5
F8.0
sg6
F0.0
sb(dp1288
I00
F63.831174939822056
sI01
I-91
ss(i__main__
State
p1289
(dp1290
g3
F-4.0
sg4
F2.0
sg5
F4.0
sg6
F6.0
sb(dp1291
I00
F-85.4
sI01
F28.163659940281008
ss(i__main__
State
p1292
(dp1293
g3
F3.0
sg4
F1.0
sg5
F-3.0
sg6
F-2.0
sb(dp1294
I00
F66.45246320766907
sI01
I-28
ss(i__main__
State
p1295
(dp1296
g3
F3.0
sg4
F6.0
sg5
F-3.0
sg6
F4.0
sb(dp1297
I00
I-62
sI01
F-7.260260537279521
ss(i__main__
State
p1298
(dp1299
g3
F-6.0
sg4
F5.0
sg5
F6.0
sg6
F8.0
sb(dp1300
I00
F13.8677
sI01
F16.5
ss(i__main__
State
p1301
(dp1302
g3
F6.0
sg4
F2.0
sg5
F-6.0
sg6
F-4.0
sb(dp1303
I00
I-63
sI01
F-51.94351732
ss(i__main__
State
p1304
(dp1305
g3
F1.0
sg4
F10.0
sg5
F-1.0
sg6
F0.0
sb(dp1306
I00
F-677.5990402730146
sI01
F124.33210962031455
ss(i__main__
State
p1307
(dp1308
g3
F8.0
sg4
F8.0
sg5
F-8.0
sg6
F6.0
sb(dp1309
I00
F30.326999999999998
sI01
F87.46019266339115
ss(i__main__
State
p1310
(dp1311
g3
F-6.0
sg4
F5.0
sg5
F6.0
sg6
F-2.0
sb(dp1312
I00
I-29
sI01
F51.87103720330674
ss(i__main__
State
p1313
(dp1314
g3
F2.0
sg4
F4.0
sg5
F-2.0
sg6
F8.0
sb(dp1315
I00
I-61
sI01
F-42.65
ss(i__main__
State
p1316
(dp1317
g3
F0.0
sg4
F0.0
sg5
F0.0
sg6
F-8.0
sb(dp1318
I00
I-63
sI01
F76.129
ss(i__main__
State
p1319
(dp1320
g3
F-8.0
sg4
F9.0
sg5
F8.0
sg6
F-8.0
sb(dp1321
I00
F97.43809823079201
sI01
F12.100999999999999
ss(i__main__
State
p1322
(dp1323
g3
F0.0
sg4
F1.0
sg5
F0.0
sg6
F6.0
sb(dp1324
I00
F0.4400000000000013
sI01
I-22
ss(i__main__
State
p1325
(dp1326
g3
F1.0
sg4
F3.0
sg5
F-1.0
sg6
F0.0
sb(dp1327
I00
F66.9648
sI01
F85.9085242
ss(i__main__
State
p1328
(dp1329
g3
F1.0
sg4
F3.0
sg5
F-1.0
sg6
F-6.0
sb(dp1330
I00
F-66.784
sI01
F-31.937469999999987
ss(i__main__
State
p1331
(dp1332
g3
F-2.0
sg4
F6.0
sg5
F2.0
sg6
F-4.0
sb(dp1333
I00
F-20.1
sI01
F-60.047906999999995
ss(i__main__
State
p1334
(dp1335
g3
F-7.0
sg4
F10.0
sg5
F7.0
sg6
F4.0
sb(dp1336
I00
F11.100000000000001
sI01
F31.340000000000003
ss(i__main__
State
p1337
(dp1338
g3
F-1.0
sg4
F8.0
sg5
F1.0
sg6
F8.0
sb(dp1339
I00
F21.91
sI01
F173.02687190776967
ss(i__main__
State
p1340
(dp1341
g3
F1.0
sg4
F6.0
sg5
F-1.0
sg6
F4.0
sb(dp1342
I00
I-35
sI01
F6.4311385650967985
ss(i__main__
State
p1343
(dp1344
g3
F-2.0
sg4
F4.0
sg5
F2.0
sg6
F0.0
sb(dp1345
I00
F78.76119139783324
sI01
I-14
ss(i__main__
State
p1346
(dp1347
g3
F-6.0
sg4
F1.0
sg5
F6.0
sg6
F-2.0
sb(dp1348
I00
I-88
sI01
F42.86
ss(i__main__
State
p1349
(dp1350
g3
F-2.0
sg4
F9.0
sg5
F2.0
sg6
F-8.0
sb(dp1351
I00
F238.70407319753247
sI01
F20.30205
ss(i__main__
State
p1352
(dp1353
g3
F-8.0
sg4
F8.0
sg5
F8.0
sg6
F2.0
sb(dp1354
I00
F62.575654925956115
sI01
F11.0
ss(i__main__
State
p1355
(dp1356
g3
F-1.0
sg4
F4.0
sg5
F1.0
sg6
F-6.0
sb(dp1357
I00
I-3
sI01
F59.23089
ss(i__main__
State
p1358
(dp1359
g3
F2.0
sg4
F8.0
sg5
F-2.0
sg6
F-2.0
sb(dp1360
I00
F52.49284
sI01
F0.0
ss(i__main__
State
p1361
(dp1362
g3
F5.0
sg4
F10.0
sg5
F-5.0
sg6
F-6.0
sb(dp1363
I00
F163.34477451298906
sI01
F51.55861000000001
ss(i__main__
State
p1364
(dp1365
g3
F-3.0
sg4
F9.0
sg5
F3.0
sg6
F-8.0
sb(dp1366
I00
F178.98022034657103
sI01
F26.003400000000003
ss(i__main__
State
p1367
(dp1368
g3
F-8.0
sg4
F2.0
sg5
F8.0
sg6
F-2.0
sb(dp1369
I00
F-66.8
sI01
I80
ss(i__main__
State
p1370
(dp1371
g3
F-5.0
sg4
F7.0
sg5
F5.0
sg6
F-6.0
sb(dp1372
I00
F24.982143800000003
sI01
I-57
ss(i__main__
State
p1373
(dp1374
g3
F7.0
sg4
F10.0
sg5
F-7.0
sg6
F-2.0
sb(dp1375
I00
F10.0
sI01
F6.2
ss(i__main__
State
p1376
(dp1377
g3
F3.0
sg4
F3.0
sg5
F-3.0
sg6
F0.0
sb(dp1378
I00
F37.327
sI01
F32.9
ss(i__main__
State
p1379
(dp1380
g3
F5.0
sg4
F5.0
sg5
F-5.0
sg6
F4.0
sb(dp1381
I00
F9.6
sI01
I0
ss(i__main__
State
p1382
(dp1383
g3
F5.0
sg4
F9.0
sg5
F-5.0
sg6
F2.0
sb(dp1384
I00
F43.60803318145098
sI01
F0.0
ss(i__main__
State
p1385
(dp1386
g3
F1.0
sg4
F10.0
sg5
F-1.0
sg6
F-4.0
sb(dp1387
I00
F-155.526
sI01
F15.035292570000001
ss(i__main__
State
p1388
(dp1389
g3
F-3.0
sg4
F2.0
sg5
F3.0
sg6
F2.0
sb(dp1390
I00
F25.47706
sI01
F-58.230000000000004
ss(i__main__
State
p1391
(dp1392
g3
F6.0
sg4
F10.0
sg5
F-6.0
sg6
F-8.0
sb(dp1393
I00
F131.68385523593497
sI01
F31.37115281
ss(i__main__
State
p1394
(dp1395
g3
F-8.0
sg4
F1.0
sg5
F8.0
sg6
F0.0
sb(dp1396
I00
I-19
sI01
F34.43087
ss(i__main__
State
p1397
(dp1398
g3
F7.0
sg4
F4.0
sg5
F-7.0
sg6
F-6.0
sb(dp1399
I00
F78.19944910000001
sI01
F1.6794000000000011
ss(i__main__
State
p1400
(dp1401
g3
F-4.0
sg4
F2.0
sg5
F4.0
sg6
F0.0
sb(dp1402
I00
F-54.6
sI01
I-78
ss(i__main__
State
p1403
(dp1404
g3
F-5.0
sg4
F5.0
sg5
F5.0
sg6
F-4.0
sb(dp1405
I00
F11.110352246327373
sI01
F31.266608883828496
ss(i__main__
State
p1406
(dp1407
g3
F-2.0
sg4
F8.0
sg5
F2.0
sg6
F-8.0
sb(dp1408
I00
F30.090000000000003
sI01
F21.084726111094
ss(i__main__
State
p1409
(dp1410
g3
F6.0
sg4
F8.0
sg5
F-6.0
sg6
F4.0
sb(dp1411
I00
F70.35450797741301
sI01
F10.0
ss(i__main__
State
p1412
(dp1413
g3
F7.0
sg4
F8.0
sg5
F-7.0
sg6
F6.0
sb(dp1414
I00
F54.72826231168983
sI01
F159.4911946528735
ss(i__main__
State
p1415
(dp1416
g3
F0.0
sg4
F3.0
sg5
F0.0
sg6
F6.0
sb(dp1417
I00
F46.09812
sI01
I-91
ss(i__main__
State
p1418
(dp1419
g3
F-8.0
sg4
F9.0
sg5
F8.0
sg6
F-6.0
sb(dp1420
I00
F68.43937
sI01
F20.0
ss(i__main__
State
p1421
(dp1422
g3
F4.0
sg4
F4.0
sg5
F-4.0
sg6
F0.0
sb(dp1423
I00
I-21
sI01
F33.321715149560404
ss(i__main__
State
p1424
(dp1425
g3
F-5.0
sg4
F9.0
sg5
F5.0
sg6
F6.0
sb(dp1426
I00
F0.0
sI01
F64.39136708093801
ss(i__main__
State
p1427
(dp1428
g3
F-1.0
sg4
F1.0
sg5
F1.0
sg6
F-6.0
sb(dp1429
I00
F21.338354
sI01
F-10.959999999999999
ss(i__main__
State
p1430
(dp1431
g3
F4.0
sg4
F1.0
sg5
F-4.0
sg6
F4.0
sb(dp1432
I00
F42.746747693
sI01
I24
ss(i__main__
State
p1433
(dp1434
g3
F1.0
sg4
F4.0
sg5
F-1.0
sg6
F0.0
sb(dp1435
I00
F49.600936620000006
sI01
F6.540000000000001
ss(i__main__
State
p1436
(dp1437
g3
F-3.0
sg4
F9.0
sg5
F3.0
sg6
F8.0
sb(dp1438
I00
F12.0
sI01
F27.84297
ss(i__main__
State
p1439
(dp1440
g3
F2.0
sg4
F10.0
sg5
F-2.0
sg6
F6.0
sb(dp1441
I00
F10.0
sI01
F0.0
ss(i__main__
State
p1442
(dp1443
g3
F6.0
sg4
F6.0
sg5
F-6.0
sg6
F8.0
sb(dp1444
I00
I33
sI01
F83.7
ss(i__main__
State
p1445
(dp1446
g3
F-1.0
sg4
F6.0
sg5
F1.0
sg6
F-2.0
sb(dp1447
I00
I-13
sI01
F15.04
ss(i__main__
State
p1448
(dp1449
g3
F5.0
sg4
F4.0
sg5
F-5.0
sg6
F-2.0
sb(dp1450
I00
F-28.652169999999998
sI01
F75.61400769099998
ss(i__main__
State
p1451
(dp1452
g3
F-2.0
sg4
F7.0
sg5
F2.0
sg6
F8.0
sb(dp1453
I00
F-26.00476
sI01
F-50.4
ss(i__main__
State
p1454
(dp1455
g3
F-5.0
sg4
F2.0
sg5
F5.0
sg6
F0.0
sb(dp1456
I00
F32.386
sI01
I-84
ss(i__main__
State
p1457
(dp1458
g3
F-8.0
sg4
F8.0
sg5
F8.0
sg6
F0.0
sb(dp1459
I00
F57.2903
sI01
F13.724600950000003
ss(i__main__
State
p1460
(dp1461
g3
F6.0
sg4
F5.0
sg5
F-6.0
sg6
F-4.0
sb(dp1462
I00
I74
sI01
F79.6484
ss(i__main__
State
p1463
(dp1464
g3
F-3.0
sg4
F6.0
sg5
F3.0
sg6
F-8.0
sb(dp1465
I00
I-71
sI01
F78.414
ss(i__main__
State
p1466
(dp1467
g3
F5.0
sg4
F8.0
sg5
F-5.0
sg6
F-4.0
sb(dp1468
I00
F142.0311645467338
sI01
F57.365615138872
ss(i__main__
State
p1469
(dp1470
g3
F1.0
sg4
F9.0
sg5
F-1.0
sg6
F-6.0
sb(dp1471
I00
F90.71531824657689
sI01
F10.0
ss(i__main__
State
p1472
(dp1473
g3
F-2.0
sg4
F0.0
sg5
F2.0
sg6
F6.0
sb(dp1474
I00
F82.80799999999999
sI01
F-40.6
ss(i__main__
State
p1475
(dp1476
g3
F3.0
sg4
F2.0
sg5
F-3.0
sg6
F4.0
sb(dp1477
I00
F-49.57
sI01
F39.714
ss(i__main__
State
p1478
(dp1479
g3
F6.0
sg4
F10.0
sg5
F-6.0
sg6
F8.0
sb(dp1480
I00
F66.5819297977
sI01
F0.0
ss(i__main__
State
p1481
(dp1482
g3
F2.0
sg4
F6.0
sg5
F-2.0
sg6
F2.0
sb(dp1483
I00
I-41
sI01
F81.87229714593617
ss(i__main__
State
p1484
(dp1485
g3
F7.0
sg4
F7.0
sg5
F-7.0
sg6
F8.0
sb(dp1486
I00
F34.3
sI01
I-84
ss(i__main__
State
p1487
(dp1488
g3
F-7.0
sg4
F5.0
sg5
F7.0
sg6
F6.0
sb(dp1489
I00
F74.3886
sI01
I60
ss(i__main__
State
p1490
(dp1491
g3
F-8.0
sg4
F7.0
sg5
F8.0
sg6
F-4.0
sb(dp1492
I00
F-12.759999999999998
sI01
F0.6536100000000009
ss(i__main__
State
p1493
(dp1494
g3
F-1.0
sg4
F10.0
sg5
F1.0
sg6
F-6.0
sb(dp1495
I00
F10.0
sI01
F23.719
ss(i__main__
State
p1496
(dp1497
g3
F8.0
sg4
F7.0
sg5
F-8.0
sg6
F4.0
sb(dp1498
I00
F82.648
sI01
F90.39559309401618
ss(i__main__
State
p1499
(dp1500
g3
F-4.0
sg4
F6.0
sg5
F4.0
sg6
F-2.0
sb(dp1501
I00
F-2.273328356999496
sI01
F38.752005155683406
ss(i__main__
State
p1502
(dp1503
g3
F-5.0
sg4
F0.0
sg5
F5.0
sg6
F6.0
sb(dp1504
I00
I-63
sI01
F32.878
ss(i__main__
State
p1505
(dp1506
g3
F6.0
sg4
F1.0
sg5
F-6.0
sg6
F-4.0
sb(dp1507
I00
F55.432982043831295
sI01
I-67
ss(i__main__
State
p1508
(dp1509
g3
F-7.0
sg4
F2.0
sg5
F7.0
sg6
F8.0
sb(dp1510
I00
I-72
sI01
F18.075965999999998
ss(i__main__
State
p1511
(dp1512
g3
F-4.0
sg4
F9.0
sg5
F4.0
sg6
F-6.0
sb(dp1513
I00
F40.0313
sI01
F155.61493790109407
ss(i__main__
State
p1514
(dp1515
g3
F-4.0
sg4
F4.0
sg5
F4.0
sg6
F-2.0
sb(dp1516
I00
F4.4986646000000015
sI01
F21.72519878706022
ss(i__main__
State
p1517
(dp1518
g3
F4.0
sg4
F0.0
sg5
F-4.0
sg6
F-2.0
sb(dp1519
I00
I-43
sI01
F58.698885999999995
ss(i__main__
State
p1520
(dp1521
g3
F0.0
sg4
F8.0
sg5
F0.0
sg6
F4.0
sb(dp1522
I00
F-2702.1322540318424
sI01
F-2702.95839711064
ss(i__main__
State
p1523
(dp1524
g3
F3.0
sg4
F5.0
sg5
F-3.0
sg6
F2.0
sb(dp1525
I00
F59.65629558560883
sI01
F-18.16433
ss(i__main__
State
p1526
(dp1527
g3
F3.0
sg4
F9.0
sg5
F-3.0
sg6
F-6.0
sb(dp1528
I00
F104.09192258222996
sI01
F20.9
ss(i__main__
State
p1529
(dp1530
g3
F2.0
sg4
F6.0
sg5
F-2.0
sg6
F-2.0
sb(dp1531
I00
I-66
sI01
F-27.9
ss(i__main__
State
p1532
(dp1533
g3
F1.0
sg4
F2.0
sg5
F-1.0
sg6
F4.0
sb(dp1534
I00
I-3
sI01
F27.51978
ss(i__main__
State
p1535
(dp1536
g3
F2.0
sg4
F0.0
sg5
F-2.0
sg6
F8.0
sb(dp1537
I00
F-7.02
sI01
I-34
ss(i__main__
State
p1538
(dp1539
g3
F-3.0
sg4
F2.0
sg5
F3.0
sg6
F-8.0
sb(dp1540
I00
I-91
sI01
F-72.37037352528
ss(i__main__
State
p1541
(dp1542
g3
F2.0
sg4
F3.0
sg5
F-2.0
sg6
F8.0
sb(dp1543
I00
F19.134843432300002
sI01
F-72.0
ss(i__main__
State
p1544
(dp1545
g3
F-4.0
sg4
F10.0
sg5
F4.0
sg6
F-6.0
sb(dp1546
I00
F20.78183434839
sI01
F52.074
ss(i__main__
State
p1547
(dp1548
g3
F1.0
sg4
F8.0
sg5
F-1.0
sg6
F4.0
sb(dp1549
I00
F-400.85
sI01
F135.05298024915737
ss(i__main__
State
p1550
(dp1551
g3
F-3.0
sg4
F10.0
sg5
F3.0
sg6
F-6.0
sb(dp1552
I00
F24.738950000000003
sI01
F0.0
ss(i__main__
State
p1553
(dp1554
g3
F-7.0
sg4
F5.0
sg5
F7.0
sg6
F-2.0
sb(dp1555
I00
F60.34454238156643
sI01
F-47.5722772
ss(i__main__
State
p1556
(dp1557
g3
F7.0
sg4
F6.0
sg5
F-7.0
sg6
F-2.0
sb(dp1558
I00
F24.088722933250303
sI01
I13
ss(i__main__
State
p1559
(dp1560
g3
F2.0
sg4
F10.0
sg5
F-2.0
sg6
F-6.0
sb(dp1561
I00
F55.86266
sI01
F17.900000000000002
ss(i__main__
State
p1562
(dp1563
g3
F-1.0
sg4
F0.0
sg5
F1.0
sg6
F4.0
sb(dp1564
I00
F23.770000000000003
sI01
F80.8746354473107
ss(i__main__
State
p1565
(dp1566
g3
F1.0
sg4
F0.0
sg5
F-1.0
sg6
F-6.0
sb(dp1567
I00
F52.83006374
sI01
I-70
ss(i__main__
State
p1568
(dp1569
g3
F8.0
sg4
F4.0
sg5
F-8.0
sg6
F-6.0
sb(dp1570
I00
F-56.176501800000004
sI01
F-0.842842844
ss(i__main__
State
p1571
(dp1572
g3
F5.0
sg4
F10.0
sg5
F-5.0
sg6
F-2.0
sb(dp1573
I00
F92.87022299795785
sI01
F0.0
ss(i__main__
State
p1574
(dp1575
g3
F6.0
sg4
F9.0
sg5
F-6.0
sg6
F4.0
sb(dp1576
I00
F53.11209290000001
sI01
F10.0
ss(i__main__
State
p1577
(dp1578
g3
F-5.0
sg4
F6.0
sg5
F5.0
sg6
F0.0
sb(dp1579
I00
F54.761285992655594
sI01
I-74
ss(i__main__
State
p1580
(dp1581
g3
F-4.0
sg4
F0.0
sg5
F4.0
sg6
F-4.0
sb(dp1582
I00
F-63.28
sI01
F-23.2
ss(i__main__
State
p1583
(dp1584
g3
F4.0
sg4
F6.0
sg5
F-4.0
sg6
F-2.0
sb(dp1585
I00
F-77.13
sI01
F-27.810429999999997
ss(i__main__
State
p1586
(dp1587
g3
F0.0
sg4
F10.0
sg5
F0.0
sg6
F8.0
sb(dp1588
I00
F-1899.0
sI01
F-1897.4500000000003
ss(i__main__
State
p1589
(dp1590
g3
F-5.0
sg4
F10.0
sg5
F5.0
sg6
F0.0
sb(dp1591
I00
F117.57914078848002
sI01
F16.266503
ss(i__main__
State
p1592
(dp1593
g3
F1.0
sg4
F0.0
sg5
F-1.0
sg6
F8.0
sb(dp1594
I00
F63.952999999999996
sI01
F-44.89
ss(i__main__
State
p1595
(dp1596
g3
F-7.0
sg4
F3.0
sg5
F7.0
sg6
F-6.0
sb(dp1597
I00
I-77
sI01
F51.8
ss(i__main__
State
p1598
(dp1599
g3
F-4.0
sg4
F0.0
sg5
F4.0
sg6
F4.0
sb(dp1600
I00
F-80.72
sI01
F1.8000000000000003
ss(i__main__
State
p1601
(dp1602
g3
F2.0
sg4
F9.0
sg5
F-2.0
sg6
F6.0
sb(dp1603
I00
F28.707798002946102
sI01
F0.0
ss(i__main__
State
p1604
(dp1605
g3
F-7.0
sg4
F8.0
sg5
F7.0
sg6
F2.0
sb(dp1606
I00
F10.0
sI01
F0.0
ss(i__main__
State
p1607
(dp1608
g3
F-6.0
sg4
F2.0
sg5
F6.0
sg6
F-8.0
sb(dp1609
I00
I3
sI01
F34.8
ss(i__main__
State
p1610
(dp1611
g3
F3.0
sg4
F4.0
sg5
F-3.0
sg6
F-4.0
sb(dp1612
I00
I-78
sI01
F35.76077840000001
ss(i__main__
State
p1613
(dp1614
g3
F2.0
sg4
F8.0
sg5
F-2.0
sg6
F6.0
sb(dp1615
I00
F0.0
sI01
F113.54147060812883
ss(i__main__
State
p1616
(dp1617
g3
F-5.0
sg4
F3.0
sg5
F5.0
sg6
F-2.0
sb(dp1618
I00
F16.010799541760075
sI01
F-36.16
ss(i__main__
State
p1619
(dp1620
g3
F-2.0
sg4
F4.0
sg5
F2.0
sg6
F-4.0
sb(dp1621
I00
F17.957
sI01
F-63.405
ss(i__main__
State
p1622
(dp1623
g3
F6.0
sg4
F6.0
sg5
F-6.0
sg6
F4.0
sb(dp1624
I00
I-74
sI01
F77.13
ss(i__main__
State
p1625
(dp1626
g3
F-3.0
sg4
F1.0
sg5
F3.0
sg6
F4.0
sb(dp1627
I00
F-72.080828
sI01
F0.7072406321140048
ss(i__main__
State
p1628
(dp1629
g3
F8.0
sg4
F3.0
sg5
F-8.0
sg6
F-8.0
sb(dp1630
I00
I77
sI01
F79.84856743
ss(i__main__
State
p1631
(dp1632
g3
F-5.0
sg4
F2.0
sg5
F5.0
sg6
F4.0
sb(dp1633
I00
F69.03401
sI01
F-28.719
ss(i__main__
State
p1634
(dp1635
g3
F1.0
sg4
F3.0
sg5
F-1.0
sg6
F6.0
sb(dp1636
I00
I-66
sI01
F-15.665667418115406
ss(i__main__
State
p1637
(dp1638
g3
F5.0
sg4
F7.0
sg5
F-5.0
sg6
F0.0
sb(dp1639
I00
F11.64854236012
sI01
I-77
ss(i__main__
State
p1640
(dp1641
g3
F0.0
sg4
F5.0
sg5
F0.0
sg6
F-4.0
sb(dp1642
I00
F21.549147395600006
sI01
F-58.57000000000001
ss(i__main__
State
p1643
(dp1644
g3
F-5.0
sg4
F1.0
sg5
F5.0
sg6
F-8.0
sb(dp1645
I00
F29.243160445911
sI01
F-8.5
ss(i__main__
State
p1646
(dp1647
g3
F3.0
sg4
F4.0
sg5
F-3.0
sg6
F-8.0
sb(dp1648
I00
F3.4556635843090824
sI01
F25.030078652690293
ss(i__main__
State
p1649
(dp1650
g3
F-3.0
sg4
F4.0
sg5
F3.0
sg6
F4.0
sb(dp1651
I00
I-88
sI01
F60.902
ss(i__main__
State
p1652
(dp1653
g3
F-6.0
sg4
F10.0
sg5
F6.0
sg6
F-4.0
sb(dp1654
I00
F86.55440314
sI01
F12.600000000000001
ss(i__main__
State
p1655
(dp1656
g3
F-7.0
sg4
F0.0
sg5
F7.0
sg6
F6.0
sb(dp1657
I00
F-90.1
sI01
F-15.73664
ss(i__main__
State
p1658
(dp1659
g3
F4.0
sg4
F1.0
sg5
F-4.0
sg6
F-8.0
sb(dp1660
I00
F34.42
sI01
F37.1817721159047
ss(i__main__
State
p1661
(dp1662
g3
F4.0
sg4
F5.0
sg5
F-4.0
sg6
F0.0
sb(dp1663
I00
F-54.876729999999995
sI01
F71.69351494600001
ss(i__main__
State
p1664
(dp1665
g3
F8.0
sg4
F7.0
sg5
F-8.0
sg6
F0.0
sb(dp1666
I00
F53.301308
sI01
F-67.92841200000001
ss(i__main__
State
p1667
(dp1668
g3
F5.0
sg4
F0.0
sg5
F-5.0
sg6
F-6.0
sb(dp1669
I00
I-79
sI01
F62.69597812662
ss(i__main__
State
p1670
(dp1671
g3
F4.0
sg4
F10.0
sg5
F-4.0
sg6
F-4.0
sb(dp1672
I00
F145.17154974288644
sI01
F36.801137671000006
ss(i__main__
State
p1673
(dp1674
g3
F6.0
sg4
F1.0
sg5
F-6.0
sg6
F-8.0
sb(dp1675
I00
F1.71
sI01
I-88
ss(i__main__
State
p1676
(dp1677
g3
F-4.0
sg4
F9.0
sg5
F4.0
sg6
F-2.0
sb(dp1678
I00
F19.0
sI01
F0.0
ss(i__main__
State
p1679
(dp1680
g3
F7.0
sg4
F6.0
sg5
F-7.0
sg6
F-4.0
sb(dp1681
I00
F58.0230904
sI01
F11.3
ss(i__main__
State
p1682
(dp1683
g3
F1.0
sg4
F8.0
sg5
F-1.0
sg6
F2.0
sb(dp1684
I00
F-81.0
sI01
F31.26671539
ss(i__main__
State
p1685
(dp1686
g3
F4.0
sg4
F4.0
sg5
F-4.0
sg6
F8.0
sb(dp1687
I00
I77
sI01
F64.09627186576
ss(i__main__
State
p1688
(dp1689
g3
F-3.0
sg4
F7.0
sg5
F3.0
sg6
F2.0
sb(dp1690
I00
F-53.827452050999995
sI01
I-83
ss(i__main__
State
p1691
(dp1692
g3
F0.0
sg4
F3.0
sg5
F0.0
sg6
F0.0
sb(dp1693
I00
F6.412000000000001
sI01
F-42.635
ss(i__main__
State
p1694
(dp1695
g3
F1.0
sg4
F1.0
sg5
F-1.0
sg6
F6.0
sb(dp1696
I00
I-78
sI01
F32.9
ss(i__main__
State
p1697
(dp1698
g3
F8.0
sg4
F0.0
sg5
F-8.0
sg6
F4.0
sb(dp1699
I00
F18.4477
sI01
F-8.207671489999997
ss(i__main__
State
p1700
(dp1701
g3
F-2.0
sg4
F4.0
sg5
F2.0
sg6
F-8.0
sb(dp1702
I00
F66.7207
sI01
I46
ss(i__main__
State
p1703
(dp1704
g3
F-5.0
sg4
F3.0
sg5
F5.0
sg6
F-8.0
sb(dp1705
I00
F-16.095472339999997
sI01
F-8.981036496199998
ss(i__main__
State
p1706
(dp1707
g3
F-6.0
sg4
F0.0
sg5
F6.0
sg6
F2.0
sb(dp1708
I00
I-84
sI01
F-14.292484696999995
ss(i__main__
State
p1709
(dp1710
g3
F-5.0
sg4
F1.0
sg5
F5.0
sg6
F8.0
sb(dp1711
I00
F82.1
sI01
I8
ss(i__main__
State
p1712
(dp1713
g3
F-1.0
sg4
F1.0
sg5
F1.0
sg6
F-4.0
sb(dp1714
I00
F57.974
sI01
F67.741
ss(i__main__
State
p1715
(dp1716
g3
F-5.0
sg4
F2.0
sg5
F5.0
sg6
F-8.0
sb(dp1717
I00
I-14
sI01
F44.48057442343132
ss(i__main__
State
p1718
(dp1719
g3
F-2.0
sg4
F9.0
sg5
F2.0
sg6
F4.0
sb(dp1720
I00
F81.13090662947499
sI01
F0.0
ss(i__main__
State
p1721
(dp1722
g3
F3.0
sg4
F10.0
sg5
F-3.0
sg6
F4.0
sb(dp1723
I00
F10.0
sI01
F83.89730853228001
ss(i__main__
State
p1724
(dp1725
g3
F-5.0
sg4
F9.0
sg5
F5.0
sg6
F-2.0
sb(dp1726
I00
F-319.37800000000004
sI01
F211.36253651925804
ss(i__main__
State
p1727
(dp1728
g3
F-4.0
sg4
F8.0
sg5
F4.0
sg6
F0.0
sb(dp1729
I00
F32.570213004
sI01
F0.0
ss(i__main__
State
p1730
(dp1731
g3
F-4.0
sg4
F5.0
sg5
F4.0
sg6
F-4.0
sb(dp1732
I00
I-45
sI01
F-5.6008879999999985
ss(i__main__
State
p1733
(dp1734
g3
F6.0
sg4
F9.0
sg5
F-6.0
sg6
F0.0
sb(dp1735
I00
F-1899.0
sI01
F-1897.99
ss(i__main__
State
p1736
(dp1737
g3
F0.0
sg4
F4.0
sg5
F0.0
sg6
F2.0
sb(dp1738
I00
F28.245517452
sI01
I-35
ss(i__main__
State
p1739
(dp1740
g3
F1.0
sg4
F9.0
sg5
F-1.0
sg6
F-4.0
sb(dp1741
I00
F95.39335392476
sI01
F-179.31866300000002
ss(i__main__
State
p1742
(dp1743
g3
F4.0
sg4
F6.0
sg5
F-4.0
sg6
F6.0
sb(dp1744
I00
I-42
sI01
F68.76
ss(i__main__
State
p1745
(dp1746
g3
F-2.0
sg4
F5.0
sg5
F2.0
sg6
F8.0
sb(dp1747
I00
F89.42999999999999
sI01
F35.106
ss(i__main__
State
p1748
(dp1749
g3
F-6.0
sg4
F8.0
sg5
F6.0
sg6
F4.0
sb(dp1750
I00
F53.20454253000001
sI01
F0.0
ss(i__main__
State
p1751
(dp1752
g3
F6.0
sg4
F2.0
sg5
F-6.0
sg6
F6.0
sb(dp1753
I00
I47
sI01
F89.53504
ss(i__main__
State
p1754
(dp1755
g3
F-7.0
sg4
F1.0
sg5
F7.0
sg6
F-6.0
sb(dp1756
I00
F30.598
sI01
I-9
ss(i__main__
State
p1757
(dp1758
g3
F6.0
sg4
F4.0
sg5
F-6.0
sg6
F-6.0
sb(dp1759
I00
I-100
sI01
F9.771144532411997
ss(i__main__
State
p1760
(dp1761
g3
F-8.0
sg4
F10.0
sg5
F8.0
sg6
F-2.0
sb(dp1762
I00
F48.8757025
sI01
F137.57247324970322
ss(i__main__
State
p1763
(dp1764
g3
F-8.0
sg4
F4.0
sg5
F8.0
sg6
F2.0
sb(dp1765
I00
F-30.4
sI01
F66.12729819169999
ss(i__main__
State
p1766
(dp1767
g3
F2.0
sg4
F1.0
sg5
F-2.0
sg6
F2.0
sb(dp1768
I00
F26.41
sI01
F39.6191
ss(i__main__
State
p1769
(dp1770
g3
F7.0
sg4
F4.0
sg5
F-7.0
sg6
F8.0
sb(dp1771
I00
F51.19127131725371
sI01
F-59.105
ss(i__main__
State
p1772
(dp1773
g3
F-4.0
sg4
F5.0
sg5
F4.0
sg6
F6.0
sb(dp1774
I00
I-51
sI01
F-28.054000000000002
ss(i__main__
State
p1775
(dp1776
g3
F4.0
sg4
F2.0
sg5
F-4.0
sg6
F6.0
sb(dp1777
I00
F44.836185396745
sI01
I-84
ss(i__main__
State
p1778
(dp1779
g3
F-2.0
sg4
F6.0
sg5
F2.0
sg6
F0.0
sb(dp1780
I00
F48.56168417599999
sI01
F-76.378517
ss(i__main__
State
p1781
(dp1782
g3
F8.0
sg4
F10.0
sg5
F-8.0
sg6
F-4.0
sb(dp1783
I00
F20.0
sI01
F0.0
ss(i__main__
State
p1784
(dp1785
g3
F6.0
sg4
F10.0
sg5
F-6.0
sg6
F-2.0
sb(dp1786
I00
F32.71
sI01
F35.66440000000001
ss(i__main__
State
p1787
(dp1788
g3
F2.0
sg4
F0.0
sg5
F-2.0
sg6
F2.0
sb(dp1789
I00
I79
sI01
F94.8
ss(i__main__
State
p1790
(dp1791
g3
F-2.0
sg4
F1.0
sg5
F2.0
sg6
F-2.0
sb(dp1792
I00
I-99
sI01
F-28.981499999999997
ss(i__main__
State
p1793
(dp1794
g3
F-2.0
sg4
F5.0
sg5
F2.0
sg6
F6.0
sb(dp1795
I00
I-70
sI01
F-23.976000000000006
ss(i__main__
State
p1796
(dp1797
g3
F7.0
sg4
F8.0
sg5
F-7.0
sg6
F-6.0
sb(dp1798
I00
F0.0
sI01
F24.3419
ss(i__main__
State
p1799
(dp1800
g3
F8.0
sg4
F3.0
sg5
F-8.0
sg6
F-4.0
sb(dp1801
I00
F16.791
sI01
F76.15608841
ss(i__main__
State
p1802
(dp1803
g3
F0.0
sg4
F9.0
sg5
F0.0
sg6
F0.0
sb(dp1804
I00
F-4078.8001200000003
sI01
F-2707.0438
ss(i__main__
State
p1805
(dp1806
g3
F8.0
sg4
F6.0
sg5
F-8.0
sg6
F8.0
sb(dp1807
I00
F-5.362
sI01
F-50.497552641
ss(i__main__
State
p1808
(dp1809
g3
F-7.0
sg4
F9.0
sg5
F7.0
sg6
F8.0
sb(dp1810
I00
F103.40935879248221
sI01
F42.76312772083036
ss(i__main__
State
p1811
(dp1812
g3
F-8.0
sg4
F0.0
sg5
F8.0
sg6
F0.0
sb(dp1813
I00
F72.28099999999999
sI01
F7.681000000000001
ss(i__main__
State
p1814
(dp1815
g3
F-6.0
sg4
F8.0
sg5
F6.0
sg6
F-2.0
sb(dp1816
I00
F31.0898934
sI01
F-162.9
ss(i__main__
State
p1817
(dp1818
g3
F-8.0
sg4
F4.0
sg5
F8.0
sg6
F-8.0
sb(dp1819
I00
F16.78862726812
sI01
I-14
ss(i__main__
State
p1820
(dp1821
g3
F0.0
sg4
F10.0
sg5
F0.0
sg6
F-2.0
sb(dp1822
I00
F-2695.6593963160003
sI01
F-1900.079444
ss(i__main__
State
p1823
(dp1824
g3
F2.0
sg4
F7.0
sg5
F-2.0
sg6
F-6.0
sb(dp1825
I00
F-49.7267742782
sI01
I-93
ss(i__main__
State
p1826
(dp1827
g3
F2.0
sg4
F7.0
sg5
F-2.0
sg6
F4.0
sb(dp1828
I00
F21.764488
sI01
F10.72
ss(i__main__
State
p1829
(dp1830
g3
F7.0
sg4
F4.0
sg5
F-7.0
sg6
F-8.0
sb(dp1831
I00
F1.4705522499299994
sI01
F65.6707734311
ss(i__main__
State
p1832
(dp1833
g3
F-8.0
sg4
F4.0
sg5
F8.0
sg6
F0.0
sb(dp1834
I00
F-7.4166798999999966
sI01
F-83.858317543
ss(i__main__
State
p1835
(dp1836
g3
F3.0
sg4
F7.0
sg5
F-3.0
sg6
F-6.0
sb(dp1837
I00
F45.0936
sI01
I-96
ss(i__main__
State
p1838
(dp1839
g3
F-2.0
sg4
F2.0
sg5
F2.0
sg6
F-4.0
sb(dp1840
I00
F0.20000000000000018
sI01
F-22.084
ss(i__main__
State
p1841
(dp1842
g3
F6.0
sg4
F8.0
sg5
F-6.0
sg6
F2.0
sb(dp1843
I00
F10.0
sI01
F115.902834875072
ss(i__main__
State
p1844
(dp1845
g3
F7.0
sg4
F6.0
sg5
F-7.0
sg6
F-8.0
sb(dp1846
I00
F-7.122400000000001
sI01
I-13
ss(i__main__
State
p1847
(dp1848
g3
F8.0
sg4
F9.0
sg5
F-8.0
sg6
F-6.0
sb(dp1849
I00
F98.55440224344399
sI01
F11.0
ss(i__main__
State
p1850
(dp1851
g3
F4.0
sg4
F9.0
sg5
F-4.0
sg6
F2.0
sb(dp1852
I00
F10.0
sI01
F0.0
ss(i__main__
State
p1853
(dp1854
g3
F-3.0
sg4
F4.0
sg5
F3.0
sg6
F0.0
sb(dp1855
I00
I-45
sI01
F79.1
ss(i__main__
State
p1856
(dp1857
g3
F7.0
sg4
F9.0
sg5
F-7.0
sg6
F-4.0
sb(dp1858
I00
F107.937558155208
sI01
F25.2149
ss(i__main__
State
p1859
(dp1860
g3
F-3.0
sg4
F9.0
sg5
F3.0
sg6
F2.0
sb(dp1861
I00
F30.0
sI01
F15.690555400000001
ss(i__main__
State
p1862
(dp1863
g3
F-7.0
sg4
F1.0
sg5
F7.0
sg6
F0.0
sb(dp1864
I00
F19.515195067
sI01
F-66.95818
ss(i__main__
State
p1865
(dp1866
g3
F7.0
sg4
F2.0
sg5
F-7.0
sg6
F-8.0
sb(dp1867
I00
F-68.79
sI01
F-20.9844
ss(i__main__
State
p1868
(dp1869
g3
F3.0
sg4
F0.0
sg5
F-3.0
sg6
F4.0
sb(dp1870
I00
F0.8562838700000013
sI01
I-11
ss(i__main__
State
p1871
(dp1872
g3
F0.0
sg4
F9.0
sg5
F0.0
sg6
F-2.0
sb(dp1873
I00
F19.0
sI01
F91.12137210579999
ss(i__main__
State
p1874
(dp1875
g3
F0.0
sg4
F6.0
sg5
F0.0
sg6
F-6.0
sb(dp1876
I00
I-33
sI01
F11.412000000000003
ss(i__main__
State
p1877
(dp1878
g3
F4.0
sg4
F4.0
sg5
F-4.0
sg6
F-8.0
sb(dp1879
I00
F21.887155429770004
sI01
F-26.015055920000002
ss(i__main__
State
p1880
(dp1881
g3
F-6.0
sg4
F4.0
sg5
F6.0
sg6
F4.0
sb(dp1882
I00
F63.382000000000005
sI01
I-78
ss(i__main__
State
p1883
(dp1884
g3
F8.0
sg4
F3.0
sg5
F-8.0
sg6
F2.0
sb(dp1885
I00
F-22.5
sI01
I-67
ss(i__main__
State
p1886
(dp1887
g3
F-2.0
sg4
F8.0
sg5
F2.0
sg6
F8.0
sb(dp1888
I00
F11.0
sI01
F166.46183394528887
ss(i__main__
State
p1889
(dp1890
g3
F7.0
sg4
F9.0
sg5
F-7.0
sg6
F6.0
sb(dp1891
I00
F26.36827922497385
sI01
F0.0
ss(i__main__
State
p1892
(dp1893
g3
F-5.0
sg4
F1.0
sg5
F5.0
sg6
F4.0
sb(dp1894
I00
I-46
sI01
F-9.075900000000003
ss(i__main__
State
p1895
(dp1896
g3
F-1.0
sg4
F9.0
sg5
F1.0
sg6
F-8.0
sb(dp1897
I00
F68.14872273658601
sI01
F0.0
ss(i__main__
State
p1898
(dp1899
g3
F-2.0
sg4
F1.0
sg5
F2.0
sg6
F0.0
sb(dp1900
I00
F-9.323883399999998
sI01
F-58.652294
ss(i__main__
State
p1901
(dp1902
g3
F-2.0
sg4
F0.0
sg5
F2.0
sg6
F-2.0
sb(dp1903
I00
F-8.1
sI01
F81.624602
ss(i__main__
State
p1904
(dp1905
g3
F2.0
sg4
F2.0
sg5
F-2.0
sg6
F0.0
sb(dp1906
I00
F83.0
sI01
F84.7
ss(i__main__
State
p1907
(dp1908
g3
F-3.0
sg4
F5.0
sg5
F3.0
sg6
F-8.0
sb(dp1909
I00
F50.850975225077086
sI01
F2.200000000000001
ss(i__main__
State
p1910
(dp1911
g3
F8.0
sg4
F10.0
sg5
F-8.0
sg6
F0.0
sb(dp1912
I00
F0.0
sI01
F47.90029140755001
ss(i__main__
State
p1913
(dp1914
g3
F-4.0
sg4
F5.0
sg5
F4.0
sg6
F-8.0
sb(dp1915
I00
F85.02084144884
sI01
I11
ss(i__main__
State
p1916
(dp1917
g3
F8.0
sg4
F4.0
sg5
F-8.0
sg6
F6.0
sb(dp1918
I00
F37.1864311395218
sI01
F-52.9
ss(i__main__
State
p1919
(dp1920
g3
F2.0
sg4
F1.0
sg5
F-2.0
sg6
F-4.0
sb(dp1921
I00
F75.33643529169512
sI01
I15
ss(i__main__
State
p1922
(dp1923
g3
F-8.0
sg4
F4.0
sg5
F8.0
sg6
F-2.0
sb(dp1924
I00
F-39.7143508971
sI01
I-7
ss(i__main__
State
p1925
(dp1926
g3
F3.0
sg4
F1.0
sg5
F-3.0
sg6
F-4.0
sb(dp1927
I00
I-22
sI01
F59.739999999999995
ss(i__main__
State
p1928
(dp1929
g3
F-7.0
sg4
F9.0
sg5
F7.0
sg6
F-4.0
sb(dp1930
I00
F44.6062201445
sI01
F123.83770320358543
ss(i__main__
State
p1931
(dp1932
g3
F-8.0
sg4
F7.0
sg5
F8.0
sg6
F8.0
sb(dp1933
I00
I-87
sI01
F9.471
ss(i__main__
State
p1934
(dp1935
g3
F3.0
sg4
F6.0
sg5
F-3.0
sg6
F0.0
sb(dp1936
I00
F-76.863
sI01
F-2.808046797722101
ss(i__main__
State
p1937
(dp1938
g3
F-7.0
sg4
F10.0
sg5
F7.0
sg6
F6.0
sb(dp1939
I00
F138.3304449767356
sI01
F22.00705148297869
ss(i__main__
State
p1940
(dp1941
g3
F6.0
sg4
F3.0
sg5
F-6.0
sg6
F8.0
sb(dp1942
I00
I-3
sI01
F9.81
ss(i__main__
State
p1943
(dp1944
g3
F0.0
sg4
F2.0
sg5
F0.0
sg6
F8.0
sb(dp1945
I00
F4.38943779713664
sI01
I-93
ss(i__main__
State
p1946
(dp1947
g3
F0.0
sg4
F4.0
sg5
F0.0
sg6
F-2.0
sb(dp1948
I00
F12.692632777142352
sI01
F-70.0843959614447
ss(i__main__
State
p1949
(dp1950
g3
F6.0
sg4
F9.0
sg5
F-6.0
sg6
F-2.0
sb(dp1951
I00
F10.0
sI01
F108.191281752969
ss(i__main__
State
p1952
(dp1953
g3
F-4.0
sg4
F5.0
sg5
F4.0
sg6
F2.0
sb(dp1954
I00
F11.2
sI01
I-4
ss(i__main__
State
p1955
(dp1956
g3
F-1.0
sg4
F9.0
sg5
F1.0
sg6
F2.0
sb(dp1957
I00
F80.157966638325
sI01
F0.0
ss(i__main__
State
p1958
(dp1959
g3
F-2.0
sg4
F10.0
sg5
F2.0
sg6
F0.0
sb(dp1960
I00
F99.66817866021101
sI01
F25.000000000000004
ss(i__main__
State
p1961
(dp1962
g3
F-5.0
sg4
F4.0
sg5
F5.0
sg6
F0.0
sb(dp1963
I00
I6
sI01
F81.4958273
ss(i__main__
State
p1964
(dp1965
g3
F-2.0
sg4
F6.0
sg5
F2.0
sg6
F-2.0
sb(dp1966
I00
I-84
sI01
F42.82061
ss(i__main__
State
p1967
(dp1968
g3
F-7.0
sg4
F7.0
sg5
F7.0
sg6
F-8.0
sb(dp1969
I00
F42.24671483991799
sI01
F-49.65
ss(i__main__
State
p1970
(dp1971
g3
F-2.0
sg4
F9.0
sg5
F2.0
sg6
F-6.0
sb(dp1972
I00
F30.0900413345695
sI01
F83.17401674340067
ss(i__main__
State
p1973
(dp1974
g3
F-1.0
sg4
F0.0
sg5
F1.0
sg6
F-4.0
sb(dp1975
I00
I-56
sI01
F38.8
ss(i__main__
State
p1976
(dp1977
g3
F6.0
sg4
F0.0
sg5
F-6.0
sg6
F-2.0
sb(dp1978
I00
I-34
sI01
F38.932662390000004
ss(i__main__
State
p1979
(dp1980
g3
F8.0
sg4
F0.0
sg5
F-8.0
sg6
F-4.0
sb(dp1981
I00
F-61.220000000000006
sI01
F53.734828060774106
ss(i__main__
State
p1982
(dp1983
g3
F1.0
sg4
F5.0
sg5
F-1.0
sg6
F-6.0
sb(dp1984
I00
F-0.7799510000000001
sI01
I-57
ss(i__main__
State
p1985
(dp1986
g3
F0.0
sg4
F3.0
sg5
F0.0
sg6
F-2.0
sb(dp1987
I00
I42
sI01
F-6.466544150000001
ss(i__main__
State
p1988
(dp1989
g3
F7.0
sg4
F7.0
sg5
F-7.0
sg6
F0.0
sb(dp1990
I00
F8.600000000000001
sI01
F54.012410576342006
ss(i__main__
State
p1991
(dp1992
g3
F-5.0
sg4
F1.0
sg5
F5.0
sg6
F2.0
sb(dp1993
I00
F-28.60748584
sI01
I-82
ss(i__main__
State
p1994
(dp1995
g3
F-7.0
sg4
F4.0
sg5
F7.0
sg6
F-8.0
sb(dp1996
I00
F51.501900000000006
sI01
F79.51873749999999
ss(i__main__
State
p1997
(dp1998
g3
F-2.0
sg4
F10.0
sg5
F2.0
sg6
F-6.0
sb(dp1999
I00
F47.232005334325
sI01
F0.0
ss(i__main__
State
p2000
(dp2001
g3
F-5.0
sg4
F8.0
sg5
F5.0
sg6
F4.0
sb(dp2002
I00
F21.91
sI01
F20.2191
ss(i__main__
State
p2003
(dp2004
g3
F-5.0
sg4
F0.0
sg5
F5.0
sg6
F0.0
sb(dp2005
I00
F-67.7392973
sI01
F-22.397295999999997
ss(i__main__
State
p2006
(dp2007
g3
F-5.0
sg4
F8.0
sg5
F5.0
sg6
F-2.0
sb(dp2008
I00
F20.0
sI01
F0.0
ss(i__main__
State
p2009
(dp2010
g3
F-4.0
sg4
F9.0
sg5
F4.0
sg6
F0.0
sb(dp2011
I00
F-2707.1
sI01
F-3410.5277091455446
ss(i__main__
State
p2012
(dp2013
g3
F6.0
sg4
F1.0
sg5
F-6.0
sg6
F6.0
sb(dp2014
I00
F80.92233483
sI01
I19
ss(i__main__
State
p2015
(dp2016
g3
F6.0
sg4
F4.0
sg5
F-6.0
sg6
F-8.0
sb(dp2017
I00
F52.390887411612006
sI01
F59.55607793814513
ss(i__main__
State
p2018
(dp2019
g3
F4.0
sg4
F10.0
sg5
F-4.0
sg6
F0.0
sb(dp2020
I00
F129.59150105529676
sI01
F16.985
ss(i__main__
State
p2021
(dp2022
g3
F5.0
sg4
F8.0
sg5
F-5.0
sg6
F8.0
sb(dp2023
I00
F60.2753
sI01
F136.05931537800058
ss(i__main__
State
p2024
(dp2025
g3
F3.0
sg4
F5.0
sg5
F-3.0
sg6
F-6.0
sb(dp2026
I00
I-35
sI01
F27.170196994
ss(i__main__
State
p2027
(dp2028
g3
F8.0
sg4
F7.0
sg5
F-8.0
sg6
F-2.0
sb(dp2029
I00
I-35
sI01
F78.7902
ss(i__main__
State
p2030
(dp2031
g3
F-8.0
sg4
F2.0
sg5
F8.0
sg6
F8.0
sb(dp2032
I00
F23.624216850000003
sI01
I-41
ss(i__main__
State
p2033
(dp2034
g3
F-7.0
sg4
F4.0
sg5
F7.0
sg6
F-4.0
sb(dp2035
I00
I-65
sI01
F9.894493158999998
ss(i__main__
State
p2036
(dp2037
g3
F-7.0
sg4
F2.0
sg5
F7.0
sg6
F2.0
sb(dp2038
I00
I-97
sI01
F52.9
ss(i__main__
State
p2039
(dp2040
g3
F4.0
sg4
F5.0
sg5
F-4.0
sg6
F-2.0
sb(dp2041
I00
F25.88430250183779
sI01
F-64.55300000000001
ss(i__main__
State
p2042
(dp2043
g3
F-7.0
sg4
F6.0
sg5
F7.0
sg6
F-8.0
sb(dp2044
I00
I-15
sI01
F-59.5346196855
ss(i__main__
State
p2045
(dp2046
g3
F-7.0
sg4
F3.0
sg5
F7.0
sg6
F0.0
sb(dp2047
I00
I-79
sI01
F-33.53373
ss(i__main__
State
p2048
(dp2049
g3
F4.0
sg4
F1.0
sg5
F-4.0
sg6
F6.0
sb(dp2050
I00
F17.43407749450899
sI01
F-53.76546031014
ss(i__main__
State
p2051
(dp2052
g3
F-1.0
sg4
F10.0
sg5
F1.0
sg6
F2.0
sb(dp2053
I00
F10.0
sI01
F34.277781971156
ss(i__main__
State
p2054
(dp2055
g3
F8.0
sg4
F6.0
sg5
F-8.0
sg6
F-8.0
sb(dp2056
I00
F-45.67
sI01
F80.2784
ss(i__main__
State
p2057
(dp2058
g3
F0.0
sg4
F5.0
sg5
F0.0
sg6
F2.0
sb(dp2059
I00
F-43.077
sI01
I-60
ss(i__main__
State
p2060
(dp2061
g3
F1.0
sg4
F7.0
sg5
F-1.0
sg6
F-2.0
sb(dp2062
I00
F18.238000000000003
sI01
I-71
ss(i__main__
State
p2063
(dp2064
g3
F-7.0
sg4
F0.0
sg5
F7.0
sg6
F-4.0
sb(dp2065
I00
F86.1920789030062
sI01
I8
ss(i__main__
State
p2066
(dp2067
g3
F-4.0
sg4
F5.0
sg5
F4.0
sg6
F0.0
sb(dp2068
I00
F86.022
sI01
F84.2
ss(i__main__
State
p2069
(dp2070
g3
F-2.0
sg4
F0.0
sg5
F2.0
sg6
F4.0
sb(dp2071
I00
F-6.882589111045378
sI01
F-23.429999999999996
ss(i__main__
State
p2072
(dp2073
g3
F-2.0
sg4
F8.0
sg5
F2.0
sg6
F-6.0
sb(dp2074
I00
F20.0
sI01
F109.08796071178169
ss(i__main__
State
p2075
(dp2076
g3
F-1.0
sg4
F6.0
sg5
F1.0
sg6
F6.0
sb(dp2077
I00
I-88
sI01
F25.125320000000002
ss(i__main__
State
p2078
(dp2079
g3
F-7.0
sg4
F5.0
sg5
F7.0
sg6
F4.0
sb(dp2080
I00
F22.4
sI01
F41.92688431064665
ss(i__main__
State
p2081
(dp2082
g3
F0.0
sg4
F6.0
sg5
F0.0
sg6
F0.0
sb(dp2083
I00
F61.51373185539734
sI01
F-13.455225555778998
ss(i__main__
State
p2084
(dp2085
g3
F-3.0
sg4
F2.0
sg5
F3.0
sg6
F-6.0
sb(dp2086
I00
I-7
sI01
F90.50426462824001
ss(i__main__
State
p2087
(dp2088
g3
F-4.0
sg4
F4.0
sg5
F4.0
sg6
F4.0
sb(dp2089
I00
F15.47946
sI01
F21.624852523919564
ss(i__main__
State
p2090
(dp2091
g3
F5.0
sg4
F1.0
sg5
F-5.0
sg6
F0.0
sb(dp2092
I00
F8.04
sI01
F82.7883393
ss(i__main__
State
p2093
(dp2094
g3
F7.0
sg4
F7.0
sg5
F-7.0
sg6
F-2.0
sb(dp2095
I00
F25.61013230040383
sI01
F16.150134806359972
ss(i__main__
State
p2096
(dp2097
g3
F5.0
sg4
F10.0
sg5
F-5.0
sg6
F6.0
sb(dp2098
I00
F0.0
sI01
F14.57
ss(i__main__
State
p2099
(dp2100
g3
F2.0
sg4
F9.0
sg5
F-2.0
sg6
F-8.0
sb(dp2101
I00
F78.45346244154601
sI01
F0.0
ss(i__main__
State
p2102
(dp2103
g3
F3.0
sg4
F6.0
sg5
F-3.0
sg6
F-4.0
sb(dp2104
I00
F78.96
sI01
I-96
ss(i__main__
State
p2105
(dp2106
g3
F7.0
sg4
F0.0
sg5
F-7.0
sg6
F-2.0
sb(dp2107
I00
F48.4
sI01
F-84.8
ss(i__main__
State
p2108
(dp2109
g3
F3.0
sg4
F5.0
sg5
F-3.0
sg6
F0.0
sb(dp2110
I00
F-25.92879
sI01
F39.02464589464415
ss(i__main__
State
p2111
(dp2112
g3
F3.0
sg4
F9.0
sg5
F-3.0
sg6
F-8.0
sb(dp2113
I00
F0.0
sI01
F42.875710000000005
ss(i__main__
State
p2114
(dp2115
g3
F5.0
sg4
F9.0
sg5
F-5.0
sg6
F8.0
sb(dp2116
I00
F85.46450396888955
sI01
F0.0
ss(i__main__
State
p2117
(dp2118
g3
F5.0
sg4
F7.0
sg5
F-5.0
sg6
F-6.0
sb(dp2119
I00
F61.5431
sI01
I-95
ss(i__main__
State
p2120
(dp2121
g3
F-3.0
sg4
F7.0
sg5
F3.0
sg6
F8.0
sb(dp2122
I00
I16
sI01
F69.519
ss(i__main__
State
p2123
(dp2124
g3
F0.0
sg4
F7.0
sg5
F0.0
sg6
F2.0
sb(dp2125
I00
I-26
sI01
F59.04961
ss(i__main__
State
p2126
(dp2127
g3
F6.0
sg4
F9.0
sg5
F-6.0
sg6
F-6.0
sb(dp2128
I00
F101.61982618005604
sI01
F15.904545000000002
ss(i__main__
State
p2129
(dp2130
g3
F-5.0
sg4
F7.0
sg5
F5.0
sg6
F6.0
sb(dp2131
I00
F-4.469999999999999
sI01
F39.7043100734
ss(i__main__
State
p2132
(dp2133
g3
F-1.0
sg4
F5.0
sg5
F1.0
sg6
F-2.0
sb(dp2134
I00
F-22.9
sI01
F26.013034262
ss(i__main__
State
p2135
(dp2136
g3
F3.0
sg4
F10.0
sg5
F-3.0
sg6
F-8.0
sb(dp2137
I00
F48.358686000000006
sI01
F0.0
ss(i__main__
State
p2138
(dp2139
g3
F-6.0
sg4
F1.0
sg5
F6.0
sg6
F4.0
sb(dp2140
I00
I-85
sI01
F-8.630789189999998
ss(i__main__
State
p2141
(dp2142
g3
F-2.0
sg4
F2.0
sg5
F2.0
sg6
F4.0
sb(dp2143
I00
F-6.670662119080002
sI01
F23.041438802943997
ss(i__main__
State
p2144
(dp2145
g3
F5.0
sg4
F5.0
sg5
F-5.0
sg6
F-4.0
sb(dp2146
I00
F34.280826649241
sI01
F-59.568371
ss(i__main__
State
p2147
(dp2148
g3
F-5.0
sg4
F4.0
sg5
F5.0
sg6
F-8.0
sb(dp2149
I00
I48
sI01
F47.7
ss(i__main__
State
p2150
(dp2151
g3
F-6.0
sg4
F4.0
sg5
F6.0
sg6
F-4.0
sb(dp2152
I00
F19.075230000000005
sI01
F57.67744638605588
ss(i__main__
State
p2153
(dp2154
g3
F-3.0
sg4
F8.0
sg5
F3.0
sg6
F-6.0
sb(dp2155
I00
F20.0
sI01
F32.46018130658504
ss(i__main__
State
p2156
(dp2157
g3
F-1.0
sg4
F4.0
sg5
F1.0
sg6
F6.0
sb(dp2158
I00
I-94
sI01
F-44.787000000000006
ss(i__main__
State
p2159
(dp2160
g3
F-1.0
sg4
F8.0
sg5
F1.0
sg6
F-8.0
sb(dp2161
I00
F110.98065728741443
sI01
F30.258850462593404
ss(i__main__
State
p2162
(dp2163
g3
F-3.0
sg4
F8.0
sg5
F3.0
sg6
F4.0
sb(dp2164
I00
F57.37911982288747
sI01
F13.01
ss(i__main__
State
p2165
(dp2166
g3
F-2.0
sg4
F6.0
sg5
F2.0
sg6
F-8.0
sb(dp2167
I00
F48.592517
sI01
I-45
ss(i__main__
State
p2168
(dp2169
g3
F3.0
sg4
F8.0
sg5
F-3.0
sg6
F2.0
sb(dp2170
I00
F10.0
sI01
F0.0
ss(i__main__
State
p2171
(dp2172
g3
F1.0
sg4
F2.0
sg5
F-1.0
sg6
F-6.0
sb(dp2173
I00
F-56.33762490324
sI01
F-11.402590060924199
ss(i__main__
State
p2174
(dp2175
g3
F-5.0
sg4
F8.0
sg5
F5.0
sg6
F0.0
sb(dp2176
I00
F40.92107717955
sI01
F0.0
ss(i__main__
State
p2177
(dp2178
g3
F0.0
sg4
F8.0
sg5
F0.0
sg6
F-4.0
sb(dp2179
I00
F-1899.0
sI01
F0.0
ss(i__main__
State
p2180
(dp2181
g3
F-7.0
sg4
F3.0
sg5
F7.0
sg6
F-4.0
sb(dp2182
I00
F15.484335650595865
sI01
F-41.830000000000005
ss(i__main__
State
p2183
(dp2184
g3
F4.0
sg4
F0.0
sg5
F-4.0
sg6
F2.0
sb(dp2185
I00
F31.3989901
sI01
F-2.8999999999999995
ss(i__main__
State
p2186
(dp2187
g3
F7.0
sg4
F3.0
sg5
F-7.0
sg6
F8.0
sb(dp2188
I00
I33
sI01
F76.48592681747111
ss(i__main__
State
p2189
(dp2190
g3
F-4.0
sg4
F4.0
sg5
F4.0
sg6
F2.0
sb(dp2191
I00
I-65
sI01
F0.24527000000000188
ss(i__main__
State
p2192
(dp2193
g3
F-8.0
sg4
F1.0
sg5
F8.0
sg6
F-4.0
sb(dp2194
I00
F85.079
sI01
I-74
ss(i__main__
State
p2195
(dp2196
g3
F6.0
sg4
F1.0
sg5
F-6.0
sg6
F2.0
sb(dp2197
I00
I-63
sI01
F47.06461
ss(i__main__
State
p2198
(dp2199
g3
F-2.0
sg4
F4.0
sg5
F2.0
sg6
F4.0
sb(dp2200
I00
F38.549800000000005
sI01
I-81
ss(i__main__
State
p2201
(dp2202
g3
F-3.0
sg4
F4.0
sg5
F3.0
sg6
F8.0
sb(dp2203
I00
F34.3168
sI01
I-8
ss(i__main__
State
p2204
(dp2205
g3
F3.0
sg4
F1.0
sg5
F-3.0
sg6
F6.0
sb(dp2206
I00
I-11
sI01
F89.90817046973031
ss(i__main__
State
p2207
(dp2208
g3
F-2.0
sg4
F0.0
sg5
F2.0
sg6
F0.0
sb(dp2209
I00
I56
sI01
F71.40205399999999
ss(i__main__
State
p2210
(dp2211
g3
F-5.0
sg4
F5.0
sg5
F5.0
sg6
F6.0
sb(dp2212
I00
F-68.3977
sI01
F-9.163891101451416
ss(i__main__
State
p2213
(dp2214
g3
F-8.0
sg4
F7.0
sg5
F8.0
sg6
F2.0
sb(dp2215
I00
F-30.871879999999997
sI01
F91.64589242233546
ss(i__main__
State
p2216
(dp2217
g3
F-7.0
sg4
F2.0
sg5
F7.0
sg6
F6.0
sb(dp2218
I00
I-42
sI01
F61.52866851
ss(i__main__
State
p2219
(dp2220
g3
F3.0
sg4
F4.0
sg5
F-3.0
sg6
F-2.0
sb(dp2221
I00
F36.080561216999996
sI01
F-49.614401384
ss(i__main__
State
p2222
(dp2223
g3
F3.0
sg4
F4.0
sg5
F-3.0
sg6
F8.0
sb(dp2224
I00
F75.55781530000002
sI01
F-41.8
ss(i__main__
State
p2225
(dp2226
g3
F2.0
sg4
F8.0
sg5
F-2.0
sg6
F8.0
sb(dp2227
I00
F38.634459237937136
sI01
F0.0
ss(i__main__
State
p2228
(dp2229
g3
F-4.0
sg4
F3.0
sg5
F4.0
sg6
F8.0
sb(dp2230
I00
F-1.730573446699999
sI01
F-68.6
ss(i__main__
State
p2231
(dp2232
g3
F7.0
sg4
F0.0
sg5
F-7.0
sg6
F4.0
sb(dp2233
I00
F45.514233483
sI01
F24.990000000000002
ss(i__main__
State
p2234
(dp2235
g3
F-1.0
sg4
F2.0
sg5
F1.0
sg6
F6.0
sb(dp2236
I00
F-11.462175388152481
sI01
F49.346729999999994
ss(i__main__
State
p2237
(dp2238
g3
F-1.0
sg4
F9.0
sg5
F1.0
sg6
F4.0
sb(dp2239
I00
F30.020000000000003
sI01
F0.0
ss(i__main__
State
p2240
(dp2241
g3
F1.0
sg4
F7.0
sg5
F-1.0
sg6
F0.0
sb(dp2242
I00
F65.8689
sI01
I8
ss(i__main__
State
p2243
(dp2244
g3
F8.0
sg4
F6.0
sg5
F-8.0
sg6
F6.0
sb(dp2245
I00
F-48.787600000000005
sI01
I-98
ss(i__main__
State
p2246
(dp2247
g3
F-6.0
sg4
F6.0
sg5
F6.0
sg6
F0.0
sb(dp2248
I00
F60.280816
sI01
I-91
ss(i__main__
State
p2249
(dp2250
g3
F-7.0
sg4
F0.0
sg5
F7.0
sg6
F-8.0
sb(dp2251
I00
F54.1785413065923
sI01
F23.17
ss(i__main__
State
p2252
(dp2253
g3
F-3.0
sg4
F4.0
sg5
F3.0
sg6
F6.0
sb(dp2254
I00
F86.38570000000001
sI01
I-5
ss(i__main__
State
p2255
(dp2256
g3
F-7.0
sg4
F5.0
sg5
F7.0
sg6
F0.0
sb(dp2257
I00
I-61
sI01
F1.5490000000000013
ss(i__main__
State
p2258
(dp2259
g3
F-6.0
sg4
F10.0
sg5
F6.0
sg6
F-2.0
sb(dp2260
I00
F35.3062401
sI01
F0.0
ss(i__main__
State
p2261
(dp2262
g3
F7.0
sg4
F6.0
sg5
F-7.0
sg6
F8.0
sb(dp2263
I00
F-78.1
sI01
F-35.032000000000004
ss(i__main__
State
p2264
(dp2265
g3
F3.0
sg4
F1.0
sg5
F-3.0
sg6
F8.0
sb(dp2266
I00
F-70.1370468
sI01
F12.663848486469814
ss(i__main__
State
p2267
(dp2268
g3
F-7.0
sg4
F7.0
sg5
F7.0
sg6
F4.0
sb(dp2269
I00
F59.527423802667
sI01
F-12.858195076247476
ss(i__main__
State
p2270
(dp2271
g3
F4.0
sg4
F5.0
sg5
F-4.0
sg6
F2.0
sb(dp2272
I00
F-2.4158572421478075
sI01
F-17.05
ss(i__main__
State
p2273
(dp2274
g3
F-5.0
sg4
F6.0
sg5
F5.0
sg6
F-2.0
sb(dp2275
I00
F11.525269000000005
sI01
I-59
ss(i__main__
State
p2276
(dp2277
g3
F-8.0
sg4
F9.0
sg5
F8.0
sg6
F4.0
sb(dp2278
I00
F30.247928
sI01
F0.0
ss(i__main__
State
p2279
(dp2280
g3
F5.0
sg4
F5.0
sg5
F-5.0
sg6
F8.0
sb(dp2281
I00
F-22.604679047700003
sI01
F-77.8
ss(i__main__
State
p2282
(dp2283
g3
F0.0
sg4
F3.0
sg5
F0.0
sg6
F-8.0
sb(dp2284
I00
F-30.17
sI01
I-57
ss(i__main__
State
p2285
(dp2286
g3
F7.0
sg4
F5.0
sg5
F-7.0
sg6
F-2.0
sb(dp2287
I00
F-74.056
sI01
F53.978007868110005
ss(i__main__
State
p2288
(dp2289
g3
F-4.0
sg4
F2.0
sg5
F4.0
sg6
F-4.0
sb(dp2290
I00
F8.868047970835839
sI01
F29.220160172580524
ss(i__main__
State
p2291
(dp2292
g3
F4.0
sg4
F10.0
sg5
F-4.0
sg6
F-2.0
sb(dp2293
I00
F15.820097716000001
sI01
F0.0
ss(i__main__
State
p2294
(dp2295
g3
F-1.0
sg4
F5.0
sg5
F1.0
sg6
F8.0
sb(dp2296
I00
I-24
sI01
F50.694902
ss(i__main__
State
p2297
(dp2298
g3
F3.0
sg4
F7.0
sg5
F-3.0
sg6
F0.0
sb(dp2299
I00
I-56
sI01
F87.56316586395201
ss(i__main__
State
p2300
(dp2301
g3
F-3.0
sg4
F10.0
sg5
F3.0
sg6
F6.0
sb(dp2302
I00
F12.0
sI01
F0.0
ss(i__main__
State
p2303
(dp2304
g3
F-6.0
sg4
F2.0
sg5
F6.0
sg6
F0.0
sb(dp2305
I00
F-17.6
sI01
F75.77856999999999
ss(i__main__
State
p2306
(dp2307
g3
F7.0
sg4
F4.0
sg5
F-7.0
sg6
F2.0
sb(dp2308
I00
F47.18151495540909
sI01
F-37.1758
ss(i__main__
State
p2309
(dp2310
g3
F1.0
sg4
F5.0
sg5
F-1.0
sg6
F4.0
sb(dp2311
I00
F81.91135
sI01
F56.1
ss(i__main__
State
p2312
(dp2313
g3
F8.0
sg4
F0.0
sg5
F-8.0
sg6
F2.0
sb(dp2314
I00
F-17.881000000000004
sI01
I-86
ss(i__main__
State
p2315
(dp2316
g3
F-2.0
sg4
F8.0
sg5
F2.0
sg6
F2.0
sb(dp2317
I00
F44.2883906117556
sI01
F0.0
ss(i__main__
State
p2318
(dp2319
g3
F6.0
sg4
F0.0
sg5
F-6.0
sg6
F0.0
sb(dp2320
I00
F-25.2
sI01
F-74.2
ss(i__main__
State
p2321
(dp2322
g3
F-8.0
sg4
F8.0
sg5
F8.0
sg6
F-2.0
sb(dp2323
I00
F34.628148800000005
sI01
F0.0
ss(i__main__
State
p2324
(dp2325
g3
F-2.0
sg4
F9.0
sg5
F2.0
sg6
F6.0
sb(dp2326
I00
F29.589000000000006
sI01
F0.0
ss(i__main__
State
p2327
(dp2328
g3
F-6.0
sg4
F10.0
sg5
F6.0
sg6
F8.0
sb(dp2329
I00
F10.0
sI01
F117.54261188476104
ss(i__main__
State
p2330
(dp2331
g3
F-1.0
sg4
F2.0
sg5
F1.0
sg6
F-2.0
sb(dp2332
I00
F-28.390912
sI01
I-95
ss(i__main__
State
p2333
(dp2334
g3
F-4.0
sg4
F8.0
sg5
F4.0
sg6
F2.0
sb(dp2335
I00
F39.4439
sI01
F12.069
ss(i__main__
State
p2336
(dp2337
g3
F5.0
sg4
F3.0
sg5
F-5.0
sg6
F-2.0
sb(dp2338
I00
F-73.9
sI01
F-33.19909927999999
ss(i__main__
State
p2339
(dp2340
g3
F0.0
sg4
F1.0
sg5
F0.0
sg6
F-8.0
sb(dp2341
I00
F68.3
sI01
I69
ss(i__main__
State
p2342
(dp2343
g3
F8.0
sg4
F2.0
sg5
F-8.0
sg6
F8.0
sb(dp2344
I00
F29.7593
sI01
F34.74625279287
ss(i__main__
State
p2345
(dp2346
g3
F8.0
sg4
F4.0
sg5
F-8.0
sg6
F8.0
sb(dp2347
I00
F59.6399164
sI01
I50
ss(i__main__
State
p2348
(dp2349
g3
F-8.0
sg4
F9.0
sg5
F8.0
sg6
F6.0
sb(dp2350
I00
F32.19915159
sI01
F10.0
ss(i__main__
State
p2351
(dp2352
g3
F-3.0
sg4
F0.0
sg5
F3.0
sg6
F0.0
sb(dp2353
I00
I7
sI01
F39.5
ss(i__main__
State
p2354
(dp2355
g3
F-1.0
sg4
F3.0
sg5
F1.0
sg6
F4.0
sb(dp2356
I00
F-1.4114682787999993
sI01
I-46
ss(i__main__
State
p2357
(dp2358
g3
F-6.0
sg4
F5.0
sg5
F6.0
sg6
F0.0
sb(dp2359
I00
F46.019
sI01
I27
ss(i__main__
State
p2360
(dp2361
g3
F1.0
sg4
F10.0
sg5
F-1.0
sg6
F-2.0
sb(dp2362
I00
F-89.69000000000001
sI01
F49.69180726096382
ss(i__main__
State
p2363
(dp2364
g3
F5.0
sg4
F1.0
sg5
F-5.0
sg6
F-8.0
sb(dp2365
I00
I-26
sI01
F13.78
ss(i__main__
State
p2366
(dp2367
g3
F-3.0
sg4
F9.0
sg5
F3.0
sg6
F-2.0
sb(dp2368
I00
F-620.4447959494221
sI01
F258.1813079872849
ss(i__main__
State
p2369
(dp2370
g3
F-8.0
sg4
F6.0
sg5
F8.0
sg6
F-4.0
sb(dp2371
I00
F-28.774264095657998
sI01
I-99
ss(i__main__
State
p2372
(dp2373
g3
F2.0
sg4
F9.0
sg5
F-2.0
sg6
F-2.0
sb(dp2374
I00
F0.0
sI01
F85.69253475061309
ss(i__main__
State
p2375
(dp2376
g3
F7.0
sg4
F8.0
sg5
F-7.0
sg6
F-8.0
sb(dp2377
I00
F185.14832256521015
sI01
F65.7315091575004
ss(i__main__
State
p2378
(dp2379
g3
F8.0
sg4
F4.0
sg5
F-8.0
sg6
F-8.0
sb(dp2380
I00
I27
sI01
F-18.5
ss(i__main__
State
p2381
(dp2382
g3
F2.0
sg4
F5.0
sg5
F-2.0
sg6
F4.0
sb(dp2383
I00
F-50.308
sI01
F29.78748562773527
ss(i__main__
State
p2384
(dp2385
g3
F-3.0
sg4
F2.0
sg5
F3.0
sg6
F-2.0
sb(dp2386
I00
F35.8
sI01
I-7
ss(i__main__
State
p2387
(dp2388
g3
F8.0
sg4
F10.0
sg5
F-8.0
sg6
F-2.0
sb(dp2389
I00
F37.154301533
sI01
F0.0
ss(i__main__
State
p2390
(dp2391
g3
F2.0
sg4
F2.0
sg5
F-2.0
sg6
F-2.0
sb(dp2392
I00
F-85.3
sI01
F23.63773
ss(i__main__
State
p2393
(dp2394
g3
F-1.0
sg4
F8.0
sg5
F1.0
sg6
F0.0
sb(dp2395
I00
F33.2236110401476
sI01
F92.27833243
ss(i__main__
State
p2396
(dp2397
g3
F-6.0
sg4
F9.0
sg5
F6.0
sg6
F-6.0
sb(dp2398
I00
F142.3662140591813
sI01
F27.432524718100005
ss(i__main__
State
p2399
(dp2400
g3
F-3.0
sg4
F3.0
sg5
F3.0
sg6
F6.0
sb(dp2401
I00
F50.67552908706999
sI01
F31.575590000000002
ss(i__main__
State
p2402
(dp2403
g3
F0.0
sg4
F7.0
sg5
F0.0
sg6
F4.0
sb(dp2404
I00
I-70
sI01
F35.93165717065367
ss(i__main__
State
p2405
(dp2406
g3
F-8.0
sg4
F7.0
sg5
F8.0
sg6
F6.0
sb(dp2407
I00
F61.975286827
sI01
F87.39977870927868
ss(i__main__
State
p2408
(dp2409
g3
F4.0
sg4
F4.0
sg5
F-4.0
sg6
F6.0
sb(dp2410
I00
F-22.981904
sI01
I-84
ss(i__main__
State
p2411
(dp2412
g3
F-1.0
sg4
F5.0
sg5
F1.0
sg6
F-8.0
sb(dp2413
I00
I-50
sI01
F26.945240000000005
ss(i__main__
State
p2414
(dp2415
g3
F6.0
sg4
F5.0
sg5
F-6.0
sg6
F6.0
sb(dp2416
I00
F34.6490288352
sI01
F-59.14
ss(i__main__
State
p2417
(dp2418
g3
F-2.0
sg4
F7.0
sg5
F2.0
sg6
F6.0
sb(dp2419
I00
F-4.7499999999999964
sI01
F30.754174
ss(i__main__
State
p2420
(dp2421
g3
F4.0
sg4
F9.0
sg5
F-4.0
sg6
F-2.0
sb(dp2422
I00
F-759.5042614741001
sI01
F115.61604064506008
ss(i__main__
State
p2423
(dp2424
g3
F-3.0
sg4
F3.0
sg5
F3.0
sg6
F-8.0
sb(dp2425
I00
F-58.162317989984004
sI01
F49.0113989672428
ss(i__main__
State
p2426
(dp2427
g3
F-1.0
sg4
F8.0
sg5
F1.0
sg6
F-2.0
sb(dp2428
I00
F20.0
sI01
F0.0
ss(i__main__
State
p2429
(dp2430
g3
F-6.0
sg4
F8.0
sg5
F6.0
sg6
F-4.0
sb(dp2431
I00
F44.429
sI01
F0.0
ss(i__main__
State
p2432
(dp2433
g3
F-7.0
sg4
F2.0
sg5
F7.0
sg6
F-6.0
sb(dp2434
I00
F-35.4
sI01
I-60
ss(i__main__
State
p2435
(dp2436
g3
F5.0
sg4
F9.0
sg5
F-5.0
sg6
F-2.0
sb(dp2437
I00
F-319.48254000000003
sI01
F102.86732417357125
ss(i__main__
State
p2438
(dp2439
g3
F2.0
sg4
F3.0
sg5
F-2.0
sg6
F-8.0
sb(dp2440
I00
F68.4127
sI01
F78.73017993146001
ss(i__main__
State
p2441
(dp2442
g3
F7.0
sg4
F1.0
sg5
F-7.0
sg6
F2.0
sb(dp2443
I00
F71.00471148189632
sI01
F-70.8
ss(i__main__
State
p2444
(dp2445
g3
F-4.0
sg4
F2.0
sg5
F4.0
sg6
F8.0
sb(dp2446
I00
F2.0297661863080005
sI01
F-3.1431550177999985
ss(i__main__
State
p2447
(dp2448
g3
F-8.0
sg4
F6.0
sg5
F8.0
sg6
F-2.0
sb(dp2449
I00
I49
sI01
F81.40728731
ss(i__main__
State
p2450
(dp2451
g3
F3.0
sg4
F2.0
sg5
F-3.0
sg6
F2.0
sb(dp2452
I00
F14.831
sI01
F41.73719939564708
ss(i__main__
State
p2453
(dp2454
g3
F-7.0
sg4
F4.0
sg5
F7.0
sg6
F-6.0
sb(dp2455
I00
F-21.027069
sI01
F50.6494875
ss(i__main__
State
p2456
(dp2457
g3
F-5.0
sg4
F5.0
sg5
F5.0
sg6
F-8.0
sb(dp2458
I00
I23
sI01
F61.99244999999999
ss(i__main__
State
p2459
(dp2460
g3
F-6.0
sg4
F4.0
sg5
F6.0
sg6
F6.0
sb(dp2461
I00
I-48
sI01
F-77.9
ss(i__main__
State
p2462
(dp2463
g3
F5.0
sg4
F0.0
sg5
F-5.0
sg6
F6.0
sb(dp2464
I00
F-61.75867
sI01
F-28.0946279
ss(i__main__
State
p2465
(dp2466
g3
F-3.0
sg4
F9.0
sg5
F3.0
sg6
F0.0
sb(dp2467
I00
F-4085.527792192851
sI01
F-4062.218853866886
ss(i__main__
State
p2468
(dp2469
g3
F-7.0
sg4
F1.0
sg5
F7.0
sg6
F6.0
sb(dp2470
I00
I-12
sI01
F42.95
ss(i__main__
State
p2471
(dp2472
g3
F-8.0
sg4
F1.0
sg5
F8.0
sg6
F-6.0
sb(dp2473
I00
F51.318
sI01
F44.83
ss(i__main__
State
p2474
(dp2475
g3
F-4.0
sg4
F1.0
sg5
F4.0
sg6
F2.0
sb(dp2476
I00
F-86.0
sI01
F4.598699999999998
ss(i__main__
State
p2477
(dp2478
g3
F-5.0
sg4
F2.0
sg5
F5.0
sg6
F8.0
sb(dp2479
I00
F-5.8
sI01
F47.47089
ss(i__main__
State
p2480
(dp2481
g3
F8.0
sg4
F8.0
sg5
F-8.0
sg6
F8.0
sb(dp2482
I00
F180.90364102149584
sI01
F21.128
ss(i__main__
State
p2483
(dp2484
g3
F7.0
sg4
F1.0
sg5
F-7.0
sg6
F-6.0
sb(dp2485
I00
I-33
sI01
F-23.551916260000002
ss(i__main__
State
p2486
(dp2487
g3
F-1.0
sg4
F7.0
sg5
F1.0
sg6
F-8.0
sb(dp2488
I00
F39.3
sI01
I-61
ss(i__main__
State
p2489
(dp2490
g3
F-8.0
sg4
F7.0
sg5
F8.0
sg6
F4.0
sb(dp2491
I00
F30.1
sI01
F50.55317893565288
ss(i__main__
State
p2492
(dp2493
g3
F7.0
sg4
F4.0
sg5
F-7.0
sg6
F-2.0
sb(dp2494
I00
I95
sI01
F94.8614608
ss(i__main__
State
p2495
(dp2496
g3
F3.0
sg4
F0.0
sg5
F-3.0
sg6
F-4.0
sb(dp2497
I00
I-54
sI01
F-7.0
ss(i__main__
State
p2498
(dp2499
g3
F8.0
sg4
F3.0
sg5
F-8.0
sg6
F0.0
sb(dp2500
I00
F69.7384290014802
sI01
F-9.567508970999999
ss(i__main__
State
p2501
(dp2502
g3
F7.0
sg4
F9.0
sg5
F-7.0
sg6
F4.0
sb(dp2503
I00
F39.099000000000004
sI01
F18.283554773000002
ss(i__main__
State
p2504
(dp2505
g3
F-2.0
sg4
F5.0
sg5
F2.0
sg6
F-6.0
sb(dp2506
I00
F39.425667170849266
sI01
I-92
ss(i__main__
State
p2507
(dp2508
g3
F-2.0
sg4
F0.0
sg5
F2.0
sg6
F-4.0
sb(dp2509
I00
I13
sI01
F34.5476
ss(i__main__
State
p2510
(dp2511
g3
F5.0
sg4
F2.0
sg5
F-5.0
sg6
F-8.0
sb(dp2512
I00
F57.0161084
sI01
F57.72299000000001
ss(i__main__
State
p2513
(dp2514
g3
F6.0
sg4
F10.0
sg5
F-6.0
sg6
F0.0
sb(dp2515
I00
F11.0
sI01
F46.5542
ss(i__main__
State
p2516
(dp2517
g3
F-6.0
sg4
F2.0
sg5
F6.0
sg6
F2.0
sb(dp2518
I00
F63.0955
sI01
I32
ss(i__main__
State
p2519
(dp2520
g3
F8.0
sg4
F10.0
sg5
F-8.0
sg6
F2.0
sb(dp2521
I00
F128.03478231091879
sI01
F0.0
ss(i__main__
State
p2522
(dp2523
g3
F6.0
sg4
F5.0
sg5
F-6.0
sg6
F8.0
sb(dp2524
I00
F-85.0
sI01
F-13.452954425
ss(i__main__
State
p2525
(dp2526
g3
F4.0
sg4
F2.0
sg5
F-4.0
sg6
F-8.0
sb(dp2527
I00
F54.688281091533
sI01
I-33
ss(i__main__
State
p2528
(dp2529
g3
F-3.0
sg4
F6.0
sg5
F3.0
sg6
F2.0
sb(dp2530
I00
I-53
sI01
F68.95704036863302
ss(i__main__
State
p2531
(dp2532
g3
F-7.0
sg4
F10.0
sg5
F7.0
sg6
F8.0
sb(dp2533
I00
F21.0
sI01
F75.0791157780765
ss(i__main__
State
p2534
(dp2535
g3
F-7.0
sg4
F4.0
sg5
F7.0
sg6
F8.0
sb(dp2536
I00
F43.0015644
sI01
I40
ss(i__main__
State
p2537
(dp2538
g3
F-6.0
sg4
F6.0
sg5
F6.0
sg6
F-8.0
sb(dp2539
I00
F52.209317
sI01
F-90.7
ss(i__main__
State
p2540
(dp2541
g3
F6.0
sg4
F4.0
sg5
F-6.0
sg6
F4.0
sb(dp2542
I00
I-66
sI01
F-8.2370683671281
ss(i__main__
State
p2543
(dp2544
g3
F-6.0
sg4
F9.0
sg5
F6.0
sg6
F-4.0
sb(dp2545
I00
F76.38308256657
sI01
F0.0
ss(i__main__
State
p2546
(dp2547
g3
F-6.0
sg4
F5.0
sg5
F6.0
sg6
F4.0
sb(dp2548
I00
F24.721600000000002
sI01
F-35.6
ss(i__main__
State
p2549
(dp2550
g3
F6.0
sg4
F2.0
sg5
F-6.0
sg6
F-8.0
sb(dp2551
I00
I-69
sI01
F-49.4022584431102
ss(i__main__
State
p2552
(dp2553
g3
F6.0
sg4
F8.0
sg5
F-6.0
sg6
F-6.0
sb(dp2554
I00
F165.07899486153698
sI01
F51.007860052614504
ss(i__main__
State
p2555
(dp2556
g3
F-8.0
sg4
F9.0
sg5
F8.0
sg6
F2.0
sb(dp2557
I00
F10.0
sI01
F25.3149
ss(i__main__
State
p2558
(dp2559
g3
F8.0
sg4
F1.0
sg5
F-8.0
sg6
F-2.0
sb(dp2560
I00
I71
sI01
F83.349
ss(i__main__
State
p2561
(dp2562
g3
F-4.0
sg4
F10.0
sg5
F4.0
sg6
F2.0
sb(dp2563
I00
F178.83819143177692
sI01
F46.94156
ss(i__main__
State
p2564
(dp2565
g3
F4.0
sg4
F6.0
sg5
F-4.0
sg6
F-8.0
sb(dp2566
I00
F-80.424093
sI01
F30.2212
ss(i__main__
State
p2567
(dp2568
g3
F1.0
sg4
F9.0
sg5
F-1.0
sg6
F2.0
sb(dp2569
I00
F33.48003027625548
sI01
F0.0
ss(i__main__
State
p2570
(dp2571
g3
F-4.0
sg4
F7.0
sg5
F4.0
sg6
F4.0
sb(dp2572
I00
F49.29726323678901
sI01
I-69
ss(i__main__
State
p2573
(dp2574
g3
F6.0
sg4
F0.0
sg5
F-6.0
sg6
F8.0
sb(dp2575
I00
F56.108999999999995
sI01
I35
ss(i__main__
State
p2576
(dp2577
g3
F8.0
sg4
F1.0
sg5
F-8.0
sg6
F-8.0
sb(dp2578
I00
I-84
sI01
F-5.046692999999999
ss(i__main__
State
p2579
(dp2580
g3
F-4.0
sg4
F8.0
sg5
F4.0
sg6
F-6.0
sb(dp2581
I00
F22.619999999999997
sI01
F0.0
ss(i__main__
State
p2582
(dp2583
g3
F-5.0
sg4
F0.0
sg5
F5.0
sg6
F2.0
sb(dp2584
I00
I-95
sI01
F41.73368
ss(i__main__
State
p2585
(dp2586
g3
F3.0
sg4
F10.0
sg5
F-3.0
sg6
F0.0
sb(dp2587
I00
F121.99241072122615
sI01
F19.700000000000003
ss(i__main__
State
p2588
(dp2589
g3
F-2.0
sg4
F10.0
sg5
F2.0
sg6
F2.0
sb(dp2590
I00
F10.0
sI01
F13.504800000000001
ss(i__main__
State
p2591
(dp2592
g3
F-2.0
sg4
F3.0
sg5
F2.0
sg6
F-6.0
sb(dp2593
I00
F-38.6193361922941
sI01
I-94
ss(i__main__
State
p2594
(dp2595
g3
F-6.0
sg4
F8.0
sg5
F6.0
sg6
F0.0
sb(dp2596
I00
F10.0
sI01
F11.0
ss(i__main__
State
p2597
(dp2598
g3
F5.0
sg4
F4.0
sg5
F-5.0
sg6
F-8.0
sb(dp2599
I00
F-10.20159
sI01
I-55
ss(i__main__
State
p2600
(dp2601
g3
F-7.0
sg4
F7.0
sg5
F7.0
sg6
F-6.0
sb(dp2602
I00
F-23.212004099999994
sI01
I-97
ss(i__main__
State
p2603
(dp2604
g3
F-4.0
sg4
F6.0
sg5
F4.0
sg6
F6.0
sb(dp2605
I00
F-19.99
sI01
F9.104561917207498
ss(i__main__
State
p2606
(dp2607
g3
F8.0
sg4
F0.0
sg5
F-8.0
sg6
F-6.0
sb(dp2608
I00
F-44.96348781
sI01
F63.0723604473439
ss(i__main__
State
p2609
(dp2610
g3
F-7.0
sg4
F0.0
sg5
F7.0
sg6
F4.0
sb(dp2611
I00
F55.0
sI01
F74.718366901664
ss(i__main__
State
p2612
(dp2613
g3
F-4.0
sg4
F8.0
sg5
F4.0
sg6
F-8.0
sb(dp2614
I00
F33.738
sI01
F0.0
ss(i__main__
State
p2615
(dp2616
g3
F8.0
sg4
F8.0
sg5
F-8.0
sg6
F-6.0
sb(dp2617
I00
F0.0
sI01
F49.9187258711
ss(i__main__
State
p2618
(dp2619
g3
F-2.0
sg4
F4.0
sg5
F2.0
sg6
F-6.0
sb(dp2620
I00
I-79
sI01
F42.679
ss(i__main__
State
p2621
(dp2622
g3
F1.0
sg4
F6.0
sg5
F-1.0
sg6
F-4.0
sb(dp2623
I00
F-4.95582332154958
sI01
F36.943674958402006
ss(i__main__
State
p2624
(dp2625
g3
F-2.0
sg4
F6.0
sg5
F2.0
sg6
F6.0
sb(dp2626
I00
F92.4
sI01
I86
ss(i__main__
State
p2627
(dp2628
g3
F-1.0
sg4
F2.0
sg5
F1.0
sg6
F-8.0
sb(dp2629
I00
F9.66982765718808
sI01
F-18.545957827027475
ss(i__main__
State
p2630
(dp2631
g3
F-3.0
sg4
F10.0
sg5
F3.0
sg6
F-4.0
sb(dp2632
I00
F98.7703001894155
sI01
F47.809000000000005
ss(i__main__
State
p2633
(dp2634
g3
F-7.0
sg4
F6.0
sg5
F7.0
sg6
F-6.0
sb(dp2635
I00
F-61.654784688999996
sI01
I-96
ss(i__main__
State
p2636
(dp2637
g3
F5.0
sg4
F9.0
sg5
F-5.0
sg6
F6.0
sb(dp2638
I00
F10.0
sI01
F49.135729000000005
ss(i__main__
State
p2639
(dp2640
g3
F2.0
sg4
F5.0
sg5
F-2.0
sg6
F-8.0
sb(dp2641
I00
F10.370000000000001
sI01
I-62
ss(i__main__
State
p2642
(dp2643
g3
F5.0
sg4
F5.0
sg5
F-5.0
sg6
F-8.0
sb(dp2644
I00
F46.8
sI01
I-70
ss(i__main__
State
p2645
(dp2646
g3
F-3.0
sg4
F0.0
sg5
F3.0
sg6
F-6.0
sb(dp2647
I00
F-73.87
sI01
F5.7688766
ss(i__main__
State
p2648
(dp2649
g3
F0.0
sg4
F0.0
sg5
F0.0
sg6
F2.0
sb(dp2650
I00
F66.35140976926411
sI01
F-43.17438475041399
ss(i__main__
State
p2651
(dp2652
g3
F7.0
sg4
F2.0
sg5
F-7.0
sg6
F-6.0
sb(dp2653
I00
I22
sI01
F76.34903365899999
ss(i__main__
State
p2654
(dp2655
g3
F3.0
sg4
F9.0
sg5
F-3.0
sg6
F8.0
sb(dp2656
I00
F79.49104533292001
sI01
F17.738063460000003
ss(i__main__
State
p2657
(dp2658
g3
F4.0
sg4
F10.0
sg5
F-4.0
sg6
F2.0
sb(dp2659
I00
F103.5594225103
sI01
F0.0
ss(i__main__
State
p2660
(dp2661
g3
F-4.0
sg4
F2.0
sg5
F4.0
sg6
F4.0
sb(dp2662
I00
F-48.333999999999996
sI01
F62.512540400000006
ss(i__main__
State
p2663
(dp2664
g3
F3.0
sg4
F5.0
sg5
F-3.0
sg6
F-8.0
sb(dp2665
I00
F7.6
sI01
F14.534291335950398
ss(i__main__
State
p2666
(dp2667
g3
F8.0
sg4
F7.0
sg5
F-8.0
sg6
F-4.0
sb(dp2668
I00
F27.53673038815606
sI01
F-68.2
ss(i__main__
State
p2669
(dp2670
g3
F-7.0
sg4
F4.0
sg5
F7.0
sg6
F-2.0
sb(dp2671
I00
F8.5
sI01
F83.93683143982
ss(i__main__
State
p2672
(dp2673
g3
F-8.0
sg4
F9.0
sg5
F8.0
sg6
F-2.0
sb(dp2674
I00
F-72.9
sI01
F26.853856446500004
ss(i__main__
State
p2675
(dp2676
g3
F7.0
sg4
F2.0
sg5
F-7.0
sg6
F0.0
sb(dp2677
I00
I-97
sI01
F43.422
ss(i__main__
State
p2678
(dp2679
g3
F1.0
sg4
F10.0
sg5
F-1.0
sg6
F2.0
sb(dp2680
I00
F0.0
sI01
F30.345031216916006
ss(i__main__
State
p2681
(dp2682
g3
F1.0
sg4
F10.0
sg5
F-1.0
sg6
F-8.0
sb(dp2683
I00
F-89.51
sI01
F45.041500000000006
ss(i__main__
State
p2684
(dp2685
g3
F-7.0
sg4
F3.0
sg5
F7.0
sg6
F2.0
sb(dp2686
I00
F23.647866999999998
sI01
F17.055288866621876
ss(i__main__
State
p2687
(dp2688
g3
F5.0
sg4
F0.0
sg5
F-5.0
sg6
F2.0
sb(dp2689
I00
F62.717227000381925
sI01
F10.9
ss(i__main__
State
p2690
(dp2691
g3
F0.0
sg4
F0.0
sg5
F0.0
sg6
F-6.0
sb(dp2692
I00
I-29
sI01
F41.036100000000005
ss(i__main__
State
p2693
(dp2694
g3
F-5.0
sg4
F10.0
sg5
F5.0
sg6
F4.0
sb(dp2695
I00
F147.0585736503189
sI01
F31.468814360000003
ss(i__main__
State
p2696
(dp2697
g3
F-4.0
sg4
F1.0
sg5
F4.0
sg6
F6.0
sb(dp2698
I00
F-33.2
sI01
F-9.80828
ss(i__main__
State
p2699
(dp2700
g3
F8.0
sg4
F6.0
sg5
F-8.0
sg6
F-6.0
sb(dp2701
I00
F-15.509780960000002
sI01
F-77.8
ss(i__main__
State
p2702
(dp2703
g3
F2.0
sg4
F5.0
sg5
F-2.0
sg6
F2.0
sb(dp2704
I00
F-34.28789999999999
sI01
F-65.45954845503759
ss(i__main__
State
p2705
(dp2706
g3
F0.0
sg4
F1.0
sg5
F0.0
sg6
F4.0
sb(dp2707
I00
I72
sI01
F87.64467300000001
ss(i__main__
State
p2708
(dp2709
g3
F1.0
sg4
F3.0
sg5
F-1.0
sg6
F-8.0
sb(dp2710
I00
F-6.659999999999997
sI01
F66.91349526999913
ss(i__main__
State
p2711
(dp2712
g3
F7.0
sg4
F5.0
sg5
F-7.0
sg6
F6.0
sb(dp2713
I00
F-15.796920909999999
sI01
F-44.9
ss(i__main__
State
p2714
(dp2715
g3
F8.0
sg4
F3.0
sg5
F-8.0
sg6
F4.0
sb(dp2716
I00
I-88
sI01
F39.14002175
ss(i__main__
State
p2717
(dp2718
g3
F6.0
sg4
F6.0
sg5
F-6.0
sg6
F-6.0
sb(dp2719
I00
F-6.66951
sI01
I-49
ss(i__main__
State
p2720
(dp2721
g3
F4.0
sg4
F3.0
sg5
F-4.0
sg6
F6.0
sb(dp2722
I00
I-36
sI01
F65.372049
ss(i__main__
State
p2723
(dp2724
g3
F-3.0
sg4
F8.0
sg5
F3.0
sg6
F-8.0
sb(dp2725
I00
F20.0
sI01
F0.0
ss(i__main__
State
p2726
(dp2727
g3
F-1.0
sg4
F8.0
sg5
F1.0
sg6
F6.0
sb(dp2728
I00
F114.49884493188995
sI01
F17.57040705495968
ss(i__main__
State
p2729
(dp2730
g3
F1.0
sg4
F6.0
sg5
F-1.0
sg6
F6.0
sb(dp2731
I00
F-44.5
sI01
F46.176970125675226
ss(i__main__
State
p2732
(dp2733
g3
F-1.0
sg4
F7.0
sg5
F1.0
sg6
F8.0
sb(dp2734
I00
I53
sI01
F70.9584726111094
ss(i__main__
State
p2735
(dp2736
g3
F-8.0
sg4
F0.0
sg5
F8.0
sg6
F-2.0
sb(dp2737
I00
I-7
sI01
F64.65309317860383
ss(i__main__
State
p2738
(dp2739
g3
F2.0
sg4
F4.0
sg5
F-2.0
sg6
F2.0
sb(dp2740
I00
I29
sI01
F56.8595
ss(i__main__
State
p2741
(dp2742
g3
F-1.0
sg4
F4.0
sg5
F1.0
sg6
F-8.0
sb(dp2743
I00
F-51.3
sI01
F31.36091900461874
ss(i__main__
State
p2744
(dp2745
g3
F5.0
sg4
F2.0
sg5
F-5.0
sg6
F-4.0
sb(dp2746
I00
F41.36
sI01
I1
ss(i__main__
State
p2747
(dp2748
g3
F5.0
sg4
F4.0
sg5
F-5.0
sg6
F2.0
sb(dp2749
I00
F-14.32
sI01
I60
ss(i__main__
State
p2750
(dp2751
g3
F-7.0
sg4
F5.0
sg5
F7.0
sg6
F2.0
sb(dp2752
I00
F50.227999999999994
sI01
I34
ss(i__main__
State
p2753
(dp2754
g3
F-4.0
sg4
F6.0
sg5
F4.0
sg6
F-6.0
sb(dp2755
I00
F74.8
sI01
I-60
ss(i__main__
State
p2756
(dp2757
g3
F7.0
sg4
F7.0
sg5
F-7.0
sg6
F-8.0
sb(dp2758
I00
I-59
sI01
F4.977742069129498
ss(i__main__
State
p2759
(dp2760
g3
F-2.0
sg4
F3.0
sg5
F2.0
sg6
F8.0
sb(dp2761
I00
F56.12014
sI01
I42
ss(i__main__
State
p2762
(dp2763
g3
F-5.0
sg4
F4.0
sg5
F5.0
sg6
F-6.0
sb(dp2764
I00
F86.78866078381314
sI01
F8.87947795461601
ss(i__main__
State
p2765
(dp2766
g3
F6.0
sg4
F4.0
sg5
F-6.0
sg6
F8.0
sb(dp2767
I00
F-10.03483
sI01
I-81
ss(i__main__
State
p2768
(dp2769
g3
F-6.0
sg4
F9.0
sg5
F6.0
sg6
F-8.0
sb(dp2770
I00
F236.5303466804792
sI01
F12.295366937237851
ss(i__main__
State
p2771
(dp2772
g3
F7.0
sg4
F0.0
sg5
F-7.0
sg6
F2.0
sb(dp2773
I00
F-15.327601188049998
sI01
I-30
ss(i__main__
State
p2774
(dp2775
g3
F-8.0
sg4
F1.0
sg5
F8.0
sg6
F6.0
sb(dp2776
I00
F55.513000000000005
sI01
F59.07487053544
ss(i__main__
State
p2777
(dp2778
g3
F-7.0
sg4
F0.0
sg5
F7.0
sg6
F-2.0
sb(dp2779
I00
I-63
sI01
F25.8
ss(i__main__
State
p2780
(dp2781
g3
F4.0
sg4
F6.0
sg5
F-4.0
sg6
F0.0
sb(dp2782
I00
F-15.35381
sI01
F79.50799999999998
ss(i__main__
State
p2783
(dp2784
g3
F3.0
sg4
F8.0
sg5
F-3.0
sg6
F-8.0
sb(dp2785
I00
F93.28392892382
sI01
F10.0
ss(i__main__
State
p2786
(dp2787
g3
F-4.0
sg4
F7.0
sg5
F4.0
sg6
F0.0
sb(dp2788
I00
F23.72089757651254
sI01
F-77.17782
ss(i__main__
State
p2789
(dp2790
g3
F-4.0
sg4
F10.0
sg5
F4.0
sg6
F-2.0
sb(dp2791
I00
F130.06572266178327
sI01
F21.477170400000006
ss(i__main__
State
p2792
(dp2793
g3
F0.0
sg4
F3.0
sg5
F0.0
sg6
F8.0
sb(dp2794
I00
I-66
sI01
F34.728858433745465
ss(i__main__
State
p2795
(dp2796
g3
F-3.0
sg4
F0.0
sg5
F3.0
sg6
F8.0
sb(dp2797
I00
F-45.3
sI01
F7.2620000000000005
ss(i__main__
State
p2798
(dp2799
g3
F8.0
sg4
F1.0
sg5
F-8.0
sg6
F-4.0
sb(dp2800
I00
F-74.47311702
sI01
F52.938
ss(i__main__
State
p2801
(dp2802
g3
F-5.0
sg4
F4.0
sg5
F5.0
sg6
F-2.0
sb(dp2803
I00
F83.81
sI01
F-13.5
ss(i__main__
State
p2804
(dp2805
g3
F-6.0
sg4
F1.0
sg5
F6.0
sg6
F6.0
sb(dp2806
I00
I20
sI01
F56.188896
ss(i__main__
State
p2807
(dp2808
g3
F1.0
sg4
F4.0
sg5
F-1.0
sg6
F6.0
sb(dp2809
I00
F13.453078473076237
sI01
F-15.64
ss(i__main__
State
p2810
(dp2811
g3
F2.0
sg4
F10.0
sg5
F-2.0
sg6
F4.0
sb(dp2812
I00
F36.027
sI01
F73.40672612088748
ss(i__main__
State
p2813
(dp2814
g3
F-2.0
sg4
F2.0
sg5
F2.0
sg6
F6.0
sb(dp2815
I00
F57.86622318284603
sI01
F-33.850962788
ss(i__main__
State
p2816
(dp2817
g3
F-7.0
sg4
F5.0
sg5
F7.0
sg6
F-6.0
sb(dp2818
I00
F-46.93795
sI01
F-8.784355244698002
ss(i__main__
State
p2819
(dp2820
g3
F-1.0
sg4
F6.0
sg5
F1.0
sg6
F-8.0
sb(dp2821
I00
F-32.102028
sI01
I-88
ss(i__main__
State
p2822
(dp2823
g3
F-3.0
sg4
F8.0
sg5
F3.0
sg6
F0.0
sb(dp2824
I00
F21.91
sI01
F0.0
ss(i__main__
State
p2825
(dp2826
g3
F-5.0
sg4
F4.0
sg5
F5.0
sg6
F-4.0
sb(dp2827
I00
I-89
sI01
F-59.45519499999999
ss(i__main__
State
p2828
(dp2829
g3
F5.0
sg4
F2.0
sg5
F-5.0
sg6
F2.0
sb(dp2830
I00
F55.37854896492392
sI01
F-24.185049999999997
ss(i__main__
State
p2831
(dp2832
g3
F3.0
sg4
F8.0
sg5
F-3.0
sg6
F6.0
sb(dp2833
I00
F0.0
sI01
F10.0
ss(i__main__
State
p2834
(dp2835
g3
F7.0
sg4
F0.0
sg5
F-7.0
sg6
F0.0
sb(dp2836
I00
F43.917105491886545
sI01
F29.54998
ss(i__main__
State
p2837
(dp2838
g3
F5.0
sg4
F3.0
sg5
F-5.0
sg6
F8.0
sb(dp2839
I00
I-23
sI01
F60.930670674789994
ss(i__main__
State
p2840
(dp2841
g3
F-2.0
sg4
F5.0
sg5
F2.0
sg6
F0.0
sb(dp2842
I00
F50.676
sI01
F-26.136031669933
ss(i__main__
State
p2843
(dp2844
g3
F-5.0
sg4
F2.0
sg5
F5.0
sg6
F-4.0
sb(dp2845
I00
F11.4
sI01
F45.15
ss(i__main__
State
p2846
(dp2847
g3
F2.0
sg4
F6.0
sg5
F-2.0
sg6
F0.0
sb(dp2848
I00
F11.409903337
sI01
I8
ss(i__main__
State
p2849
(dp2850
g3
F-1.0
sg4
F10.0
sg5
F1.0
sg6
F-4.0
sb(dp2851
I00
F11.0
sI01
F83.9877616
ss(i__main__
State
p2852
(dp2853
g3
F-4.0
sg4
F6.0
sg5
F4.0
sg6
F-4.0
sb(dp2854
I00
F18.244
sI01
F34.040071662
ss(i__main__
State
p2855
(dp2856
g3
F6.0
sg4
F3.0
sg5
F-6.0
sg6
F4.0
sb(dp2857
I00
F-77.02862981574617
sI01
F76.12481302839001
ss(i__main__
State
p2858
(dp2859
g3
F-7.0
sg4
F3.0
sg5
F7.0
sg6
F-2.0
sb(dp2860
I00
F-88.8
sI01
F-4.233098
ss(i__main__
State
p2861
(dp2862
g3
F-5.0
sg4
F4.0
sg5
F5.0
sg6
F2.0
sb(dp2863
I00
F75.775
sI01
F7.642600000000002
ss(i__main__
State
p2864
(dp2865
g3
F-4.0
sg4
F9.0
sg5
F4.0
sg6
F-8.0
sb(dp2866
I00
F79.74123376100002
sI01
F28.366175000000002
ss(i__main__
State
p2867
(dp2868
g3
F-7.0
sg4
F2.0
sg5
F7.0
sg6
F-2.0
sb(dp2869
I00
I30
sI01
F39.9
ss(i__main__
State
p2870
(dp2871
g3
F0.0
sg4
F8.0
sg5
F0.0
sg6
F6.0
sb(dp2872
I00
F-2704.1049257221002
sI01
F-3414.142309252693
ss(i__main__
State
p2873
(dp2874
g3
F-8.0
sg4
F3.0
sg5
F8.0
sg6
F-2.0
sb(dp2875
I00
F42.686746038577915
sI01
F-83.0
ss(i__main__
State
p2876
(dp2877
g3
F3.0
sg4
F1.0
sg5
F-3.0
sg6
F4.0
sb(dp2878
I00
I7
sI01
F58.9
ss(i__main__
State
p2879
(dp2880
g3
F4.0
sg4
F7.0
sg5
F-4.0
sg6
F-6.0
sb(dp2881
I00
F-26.760316
sI01
I-89
ss(i__main__
State
p2882
(dp2883
g3
F7.0
sg4
F2.0
sg5
F-7.0
sg6
F4.0
sb(dp2884
I00
F95.4
sI01
F-16.7219482779
ss(i__main__
State
p2885
(dp2886
g3
F2.0
sg4
F6.0
sg5
F-2.0
sg6
F-4.0
sb(dp2887
I00
F26.03530815843909
sI01
F-85.298
ss(i__main__
State
p2888
(dp2889
g3
F-8.0
sg4
F9.0
sg5
F8.0
sg6
F8.0
sb(dp2890
I00
F89.90928496716553
sI01
F0.0
ss(i__main__
State
p2891
(dp2892
g3
F1.0
sg4
F2.0
sg5
F-1.0
sg6
F6.0
sb(dp2893
I00
F-61.615985260572
sI01
F2.2095882920000016
ss(i__main__
State
p2894
(dp2895
g3
F-4.0
sg4
F10.0
sg5
F4.0
sg6
F8.0
sb(dp2896
I00
F89.22161251928951
sI01
F15.990000000000002
ss(i__main__
State
p2897
(dp2898
g3
F-8.0
sg4
F6.0
sg5
F8.0
sg6
F2.0
sb(dp2899
I00
I30
sI01
F81.8395886876928
ss(i__main__
State
p2900
(dp2901
g3
F1.0
sg4
F9.0
sg5
F-1.0
sg6
F4.0
sb(dp2902
I00
F100.17234755334766
sI01
F-179.2033
ss(i__main__
State
p2903
(dp2904
g3
F-4.0
sg4
F10.0
sg5
F4.0
sg6
F-8.0
sb(dp2905
I00
F84.72350752
sI01
F12.200000000000001
ss(i__main__
State
p2906
(dp2907
g3
F-3.0
sg4
F6.0
sg5
F3.0
sg6
F-4.0
sb(dp2908
I00
F-49.55
sI01
F58.05357112195
ss(i__main__
State
p2909
(dp2910
g3
F-7.0
sg4
F4.0
sg5
F7.0
sg6
F4.0
sb(dp2911
I00
F-36.3
sI01
I69
ss(i__main__
State
p2912
(dp2913
g3
F5.0
sg4
F8.0
sg5
F-5.0
sg6
F0.0
sb(dp2914
I00
F10.0
sI01
F0.0
ss(i__main__
State
p2915
(dp2916
g3
F0.0
sg4
F9.0
sg5
F0.0
sg6
F8.0
sb(dp2917
I00
F55.614806500600004
sI01
F23.8
ss(i__main__
State
p2918
(dp2919
g3
F8.0
sg4
F8.0
sg5
F-8.0
sg6
F-2.0
sb(dp2920
I00
F40.039
sI01
F-90.0
ss(i__main__
State
p2921
(dp2922
g3
F8.0
sg4
F6.0
sg5
F-8.0
sg6
F0.0
sb(dp2923
I00
F-16.481434729999997
sI01
F-82.6
ss(i__main__
State
p2924
(dp2925
g3
F-6.0
sg4
F6.0
sg5
F6.0
sg6
F2.0
sb(dp2926
I00
F39.374039999999994
sI01
F45.5550104311266
ss(i__main__
State
p2927
(dp2928
g3
F7.0
sg4
F0.0
sg5
F-7.0
sg6
F-6.0
sb(dp2929
I00
F-62.128717149
sI01
F19.283193823625417
ss(i__main__
State
p2930
(dp2931
g3
F5.0
sg4
F10.0
sg5
F-5.0
sg6
F8.0
sb(dp2932
I00
F0.0
sI01
F55.796200000000006
ss(i__main__
State
p2933
(dp2934
g3
F2.0
sg4
F10.0
sg5
F-2.0
sg6
F-8.0
sb(dp2935
I00
F86.67768824
sI01
F14.3
ss(i__main__
State
p2936
(dp2937
g3
F-1.0
sg4
F0.0
sg5
F1.0
sg6
F2.0
sb(dp2938
I00
F3.9660278253155776
sI01
F-83.6
ss(i__main__
State
p2939
(dp2940
g3
F1.0
sg4
F0.0
sg5
F-1.0
sg6
F-8.0
sb(dp2941
I00
I1
sI01
F64.06
ss(i__main__
State
p2942
(dp2943
g3
F-7.0
sg4
F7.0
sg5
F7.0
sg6
F6.0
sb(dp2944
I00
F52.587999999999994
sI01
F30.6
ss(i__main__
State
p2945
(dp2946
g3
F-5.0
sg4
F4.0
sg5
F5.0
sg6
F6.0
sb(dp2947
I00
F20.59
sI01
F23.1536
ss(i__main__
State
p2948
(dp2949
g3
F4.0
sg4
F4.0
sg5
F-4.0
sg6
F-2.0
sb(dp2950
I00
F11.854000000000001
sI01
I-53
ss(i__main__
State
p2951
(dp2952
g3
F1.0
sg4
F5.0
sg5
F-1.0
sg6
F8.0
sb(dp2953
I00
F60.78
sI01
I-42
ss(i__main__
State
p2954
(dp2955
g3
F0.0
sg4
F7.0
sg5
F0.0
sg6
F-2.0
sb(dp2956
I00
I-48
sI01
F61.420514626618
ss(i__main__
State
p2957
(dp2958
g3
F7.0
sg4
F5.0
sg5
F-7.0
sg6
F-4.0
sb(dp2959
I00
F-1.2853432080000005
sI01
I-88
ss(i__main__
State
p2960
(dp2961
g3
F-8.0
sg4
F10.0
sg5
F8.0
sg6
F-8.0
sb(dp2962
I00
F31.1937
sI01
F45.25748853220767
ss(i__main__
State
p2963
(dp2964
g3
F5.0
sg4
F6.0
sg5
F-5.0
sg6
F-2.0
sb(dp2965
I00
F5.555
sI01
F-79.6
ss(i__main__
State
p2966
(dp2967
g3
F3.0
sg4
F7.0
sg5
F-3.0
sg6
F2.0
sb(dp2968
I00
F-20.457
sI01
F51.8828209
ss(i__main__
State
p2969
(dp2970
g3
F4.0
sg4
F7.0
sg5
F-4.0
sg6
F2.0
sb(dp2971
I00
F-62.5
sI01
F43.42200214684431
ss(i__main__
State
p2972
(dp2973
g3
F5.0
sg4
F1.0
sg5
F-5.0
sg6
F8.0
sb(dp2974
I00
F-75.9893456696
sI01
F78.46797866713
ss(i__main__
State
p2975
(dp2976
g3
F2.0
sg4
F9.0
sg5
F-2.0
sg6
F4.0
sb(dp2977
I00
F60.00971628844
sI01
F0.0
ss(i__main__
State
p2978
(dp2979
g3
F6.0
sg4
F8.0
sg5
F-6.0
sg6
F-2.0
sb(dp2980
I00
F10.0
sI01
F0.0
ss(i__main__
State
p2981
(dp2982
g3
F8.0
sg4
F0.0
sg5
F-8.0
sg6
F0.0
sb(dp2983
I00
F-52.63781992049999
sI01
F75.67847166031768
ss(i__main__
State
p2984
(dp2985
g3
F2.0
sg4
F8.0
sg5
F-2.0
sg6
F0.0
sb(dp2986
I00
F29.0
sI01
F22.217300809999998
ss(i__main__
State
p2987
(dp2988
g3
F-5.0
sg4
F3.0
sg5
F5.0
sg6
F-4.0
sb(dp2989
I00
I-46
sI01
F21.528196908688
ss(i__main__
State
p2990
(dp2991
g3
F-6.0
sg4
F0.0
sg5
F6.0
sg6
F6.0
sb(dp2992
I00
F-56.2850168
sI01
F-20.848477830991616
ss(i__main__
State
p2993
(dp2994
g3
F-6.0
sg4
F1.0
sg5
F6.0
sg6
F2.0
sb(dp2995
I00
I-27
sI01
F79.28687833000001
ss(i__main__
State
p2996
(dp2997
g3
F2.0
sg4
F4.0
sg5
F-2.0
sg6
F-2.0
sb(dp2998
I00
F28.160946782800004
sI01
F-14.6
ss(i__main__
State
p2999
(dp3000
g3
F-2.0
sg4
F1.0
sg5
F2.0
sg6
F8.0
sb(dp3001
I00
F19.187780965199998
sI01
I-88
ss(i__main__
State
p3002
(dp3003
g3
F-4.0
sg4
F5.0
sg5
F4.0
sg6
F-6.0
sb(dp3004
I00
F18.5195553747774
sI01
F-79.1
ss(i__main__
State
p3005
(dp3006
g3
F5.0
sg4
F8.0
sg5
F-5.0
sg6
F4.0
sb(dp3007
I00
F36.7499176
sI01
F0.0
ss(i__main__
State
p3008
(dp3009
g3
F2.0
sg4
F2.0
sg5
F-2.0
sg6
F8.0
sb(dp3010
I00
F37.5
sI01
F75.73779737955797
ss(i__main__
State
p3011
(dp3012
g3
F8.0
sg4
F10.0
sg5
F-8.0
sg6
F8.0
sb(dp3013
I00
F32.35637
sI01
F0.0
ss(i__main__
State
p3014
(dp3015
g3
F-5.0
sg4
F2.0
sg5
F5.0
sg6
F6.0
sb(dp3016
I00
F45.31
sI01
F86.3365646
ss(i__main__
State
p3017
(dp3018
g3
F2.0
sg4
F5.0
sg5
F-2.0
sg6
F8.0
sb(dp3019
I00
F-24.9
sI01
F49.997
ss(i__main__
State
p3020
(dp3021
g3
F-7.0
sg4
F9.0
sg5
F7.0
sg6
F4.0
sb(dp3022
I00
F22.009
sI01
F10.0
ss(i__main__
State
p3023
(dp3024
g3
F0.0
sg4
F1.0
sg5
F0.0
sg6
F2.0
sb(dp3025
I00
F3.1191398620953867
sI01
F-22.9
ss(i__main__
State
p3026
(dp3027
g3
F1.0
sg4
F3.0
sg5
F-1.0
sg6
F4.0
sb(dp3028
I00
F-2.692
sI01
I12
ss(i__main__
State
p3029
(dp3030
g3
F7.0
sg4
F2.0
sg5
F-7.0
sg6
F-4.0
sb(dp3031
I00
I26
sI01
F63.850546954281285
ss(i__main__
State
p3032
(dp3033
g3
F-8.0
sg4
F0.0
sg5
F8.0
sg6
F6.0
sb(dp3034
I00
F66.39999999999999
sI01
F-41.1
ss(i__main__
State
p3035
(dp3036
g3
F0.0
sg4
F5.0
sg5
F0.0
sg6
F-6.0
sb(dp3037
I00
F47.832255
sI01
I-6
ss(i__main__
State
p3038
(dp3039
g3
F-5.0
sg4
F1.0
sg5
F5.0
sg6
F-6.0
sb(dp3040
I00
F7.169800000000003
sI01
F-79.62036
ss(i__main__
State
p3041
(dp3042
g3
F3.0
sg4
F0.0
sg5
F-3.0
sg6
F2.0
sb(dp3043
I00
I-54
sI01
F-28.551781159999997
ss(i__main__
State
p3044
(dp3045
g3
F-1.0
sg4
F7.0
sg5
F1.0
sg6
F6.0
sb(dp3046
I00
F-57.5
sI01
F17.266224516191045
ss(i__main__
State
p3047
(dp3048
g3
F-6.0
sg4
F4.0
sg5
F6.0
sg6
F8.0
sb(dp3049
I00
F-25.681354
sI01
F-4.7
ss(i__main__
State
p3050
(dp3051
g3
F8.0
sg4
F5.0
sg5
F-8.0
sg6
F-4.0
sb(dp3052
I00
F40.35584953
sI01
F51.7284462383689
ss(i__main__
State
p3053
(dp3054
g3
F5.0
sg4
F4.0
sg5
F-5.0
sg6
F8.0
sb(dp3055
I00
F47.22
sI01
I-3
ss(i__main__
State
p3056
(dp3057
g3
F-6.0
sg4
F5.0
sg5
F6.0
sg6
F2.0
sb(dp3058
I00
F32.20536577455203
sI01
F-22.73844827145058
ss(i__main__
State
p3059
(dp3060
g3
F-3.0
sg4
F6.0
sg5
F3.0
sg6
F-6.0
sb(dp3061
I00
F57.61795699999999
sI01
I56
ss(i__main__
State
p3062
(dp3063
g3
F-7.0
sg4
F1.0
sg5
F7.0
sg6
F-2.0
sb(dp3064
I00
F15.884460000000002
sI01
I-100
ss(i__main__
State
p3065
(dp3066
g3
F-3.0
sg4
F9.0
sg5
F3.0
sg6
F-4.0
sb(dp3067
I00
F20.0
sI01
F116.77170116020454
ss(i__main__
State
p3068
(dp3069
g3
F5.0
sg4
F0.0
sg5
F-5.0
sg6
F-8.0
sb(dp3070
I00
F52.2
sI01
F39.5118
ss(i__main__
State
p3071
(dp3072
g3
F6.0
sg4
F3.0
sg5
F-6.0
sg6
F0.0
sb(dp3073
I00
F-34.2
sI01
F-48.54
ss(i__main__
State
p3074
(dp3075
g3
F0.0
sg4
F2.0
sg5
F0.0
sg6
F0.0
sb(dp3076
I00
F43.986273451668104
sI01
I-58
ss(i__main__
State
p3077
(dp3078
g3
F3.0
sg4
F3.0
sg5
F-3.0
sg6
F4.0
sb(dp3079
I00
F69.40559
sI01
F44.21
ss(i__main__
State
p3080
(dp3081
g3
F7.0
sg4
F4.0
sg5
F-7.0
sg6
F4.0
sb(dp3082
I00
I-26
sI01
F76.2595262397
ss(i__main__
State
p3083
(dp3084
g3
F-3.0
sg4
F2.0
sg5
F3.0
sg6
F-4.0
sb(dp3085
I00
F-53.119
sI01
F-20.6
ss(i__main__
State
p3086
(dp3087
g3
F1.0
sg4
F8.0
sg5
F-1.0
sg6
F0.0
sb(dp3088
I00
F-155.61
sI01
F59.78023000000001
ss(i__main__
State
p3089
(dp3090
g3
F6.0
sg4
F10.0
sg5
F-6.0
sg6
F-6.0
sb(dp3091
I00
F52.24199
sI01
F0.0
ss(i__main__
State
p3092
(dp3093
g3
F5.0
sg4
F6.0
sg5
F-5.0
sg6
F4.0
sb(dp3094
I00
F-3.299999999999999
sI01
F8.6
ss(i__main__
State
p3095
(dp3096
g3
F-8.0
sg4
F3.0
sg5
F8.0
sg6
F-6.0
sb(dp3097
I00
F88.655337559
sI01
F30.3151442869
ss(i__main__
State
p3098
(dp3099
g3
F0.0
sg4
F3.0
sg5
F0.0
sg6
F2.0
sb(dp3100
I00
F36.3573
sI01
I-87
ss(i__main__
State
p3101
(dp3102
g3
F6.0
sg4
F7.0
sg5
F-6.0
sg6
F0.0
sb(dp3103
I00
F-19.7789313726
sI01
F50.027789417999585
ss(i__main__
State
p3104
(dp3105
g3
F4.0
sg4
F4.0
sg5
F-4.0
sg6
F4.0
sb(dp3106
I00
F-77.3
sI01
F12.5
ss(i__main__
State
p3107
(dp3108
g3
F-8.0
sg4
F5.0
sg5
F8.0
sg6
F4.0
sb(dp3109
I00
I-79
sI01
F-0.01860000000000195
ss(i__main__
State
p3110
(dp3111
g3
F-1.0
sg4
F1.0
sg5
F1.0
sg6
F-2.0
sb(dp3112
I00
F-84.63238834
sI01
F30.450287
ss(i__main__
State
p3113
(dp3114
g3
F4.0
sg4
F1.0
sg5
F-4.0
sg6
F0.0
sb(dp3115
I00
F-44.01
sI01
F29.678999700936735
ss(i__main__
State
p3116
(dp3117
g3
F-1.0
sg4
F5.0
sg5
F1.0
sg6
F6.0
sb(dp3118
I00
F76.78
sI01
F60.1
ss(i__main__
State
p3119
(dp3120
g3
F2.0
sg4
F10.0
sg5
F-2.0
sg6
F2.0
sb(dp3121
I00
F121.41629574185536
sI01
F0.0
ss(i__main__
State
p3122
(dp3123
g3
F4.0
sg4
F3.0
sg5
F-4.0
sg6
F-2.0
sb(dp3124
I00
I27
sI01
F36.711071
ss(i__main__
State
p3125
(dp3126
g3
F-2.0
sg4
F7.0
sg5
F2.0
sg6
F4.0
sb(dp3127
I00
F-67.3
sI01
F96.44654024113146
ss(i__main__
State
p3128
(dp3129
g3
F0.0
sg4
F2.0
sg5
F0.0
sg6
F-6.0
sb(dp3130
I00
F-16.93021
sI01
I33
ss(i__main__
State
p3131
(dp3132
g3
F4.0
sg4
F8.0
sg5
F-4.0
sg6
F6.0
sb(dp3133
I00
F81.88866307590513
sI01
F0.0
ss(i__main__
State
p3134
(dp3135
g3
F-3.0
sg4
F3.0
sg5
F3.0
sg6
F-6.0
sb(dp3136
I00
F11.39426462824
sI01
I-90
ss(i__main__
State
p3137
(dp3138
g3
F1.0
sg4
F9.0
sg5
F-1.0
sg6
F-2.0
sb(dp3139
I00
F-554.41758
sI01
F-400.06667000000004
ss(i__main__
State
p3140
(dp3141
g3
F-3.0
sg4
F6.0
sg5
F3.0
sg6
F4.0
sb(dp3142
I00
F47.37637958917936
sI01
F68.83281905316102
ss(i__main__
State
p3143
(dp3144
g3
F3.0
sg4
F9.0
sg5
F-3.0
sg6
F2.0
sb(dp3145
I00
F59.695597222580005
sI01
F0.0
ss(i__main__
State
p3146
(dp3147
g3
F7.0
sg4
F1.0
sg5
F-7.0
sg6
F0.0
sb(dp3148
I00
F14.8
sI01
I-84
ss(i__main__
State
p3149
(dp3150
g3
F3.0
sg4
F2.0
sg5
F-3.0
sg6
F0.0
sb(dp3151
I00
I-92
sI01
F48.050000000000004
ss(i__main__
State
p3152
(dp3153
g3
F-6.0
sg4
F0.0
sg5
F6.0
sg6
F-6.0
sb(dp3154
I00
F8.854042600000001
sI01
I-73
ss(i__main__
State
p3155
(dp3156
g3
F6.0
sg4
F8.0
sg5
F-6.0
sg6
F6.0
sb(dp3157
I00
F145.5473789519824
sI01
F28.202571145327532
ss(i__main__
State
p3158
(dp3159
g3
F2.0
sg4
F6.0
sg5
F-2.0
sg6
F6.0
sb(dp3160
I00
F43.759521891696735
sI01
F-17.768897860284
ss(i__main__
State
p3161
(dp3162
g3
F6.0
sg4
F2.0
sg5
F-6.0
sg6
F4.0
sb(dp3163
I00
F64.4833628190425
sI01
I-48
ss(i__main__
State
p3164
(dp3165
g3
F7.0
sg4
F4.0
sg5
F-7.0
sg6
F-4.0
sb(dp3166
I00
F-20.49513057
sI01
F-39.09
ss(i__main__
State
p3167
(dp3168
g3
F5.0
sg4
F1.0
sg5
F-5.0
sg6
F4.0
sb(dp3169
I00
F22.552362636904462
sI01
F-45.89
ss(i__main__
State
p3170
(dp3171
g3
F7.0
sg4
F2.0
sg5
F-7.0
sg6
F2.0
sb(dp3172
I00
I-12
sI01
F4.123101051000001
ss(i__main__
State
p3173
(dp3174
g3
F5.0
sg4
F9.0
sg5
F-5.0
sg6
F-8.0
sb(dp3175
I00
F187.0397544054297
sI01
F16.07883437800993
ss(i__main__
State
p3176
(dp3177
g3
F2.0
sg4
F1.0
sg5
F-2.0
sg6
F0.0
sb(dp3178
I00
F70.80083877432529
sI01
F47.092
ss(i__main__
State
p3179
(dp3180
g3
F4.0
sg4
F0.0
sg5
F-4.0
sg6
F-6.0
sb(dp3181
I00
I90
sI01
F60.55
ss(i__main__
State
p3182
(dp3183
g3
F0.0
sg4
F8.0
sg5
F0.0
sg6
F0.0
sb(dp3184
I00
F-2700.6433791625122
sI01
F-2700.589
ss(i__main__
State
p3185
(dp3186
g3
F-4.0
sg4
F5.0
sg5
F4.0
sg6
F4.0
sb(dp3187
I00
F-24.47
sI01
F-2.426388293004054
ss(i__main__
State
p3188
(dp3189
g3
F-8.0
sg4
F3.0
sg5
F8.0
sg6
F-8.0
sb(dp3190
I00
F-16.24098
sI01
F-42.0666822
ss(i__main__
State
p3191
(dp3192
g3
F5.0
sg4
F8.0
sg5
F-5.0
sg6
F-6.0
sb(dp3193
I00
F10.0
sI01
F0.0
ss(i__main__
State
p3194
(dp3195
g3
F7.0
sg4
F1.0
sg5
F-7.0
sg6
F-8.0
sb(dp3196
I00
I-17
sI01
F-50.224000000000004
ss(i__main__
State
p3197
(dp3198
g3
F-1.0
sg4
F3.0
sg5
F1.0
sg6
F-6.0
sb(dp3199
I00
F-2.0875576699999985
sI01
F-15.4663
ss(i__main__
State
p3200
(dp3201
g3
F3.0
sg4
F0.0
sg5
F-3.0
sg6
F-2.0
sb(dp3202
I00
F13.68
sI01
F47.406657580380006
ss(i__main__
State
p3203
(dp3204
g3
F6.0
sg4
F10.0
sg5
F-6.0
sg6
F-4.0
sb(dp3205
I00
F60.0900982312
sI01
F0.0
ss(i__main__
State
p3206
(dp3207
g3
F1.0
sg4
F2.0
sg5
F-1.0
sg6
F0.0
sb(dp3208
I00
I-98
sI01
F-4.214599999999998
ss(i__main__
State
p3209
(dp3210
g3
F5.0
sg4
F3.0
sg5
F-5.0
sg6
F2.0
sb(dp3211
I00
F2.0
sI01
I-84
ss(i__main__
State
p3212
(dp3213
g3
F8.0
sg4
F10.0
sg5
F-8.0
sg6
F4.0
sb(dp3214
I00
F55.06711
sI01
F0.0
ss(i__main__
State
p3215
(dp3216
g3
F-5.0
sg4
F9.0
sg5
F5.0
sg6
F0.0
sb(dp3217
I00
F-1000.0
sI01
F-989.734161502804
ss(i__main__
State
p3218
(dp3219
g3
F4.0
sg4
F2.0
sg5
F-4.0
sg6
F-6.0
sb(dp3220
I00
F9.31
sI01
F24.2502574
ss(i__main__
State
p3221
(dp3222
g3
F0.0
sg4
F9.0
sg5
F0.0
sg6
F6.0
sb(dp3223
I00
F182.70746759497135
sI01
F30.069770500000004
ss(i__main__
State
p3224
(dp3225
g3
F-5.0
sg4
F3.0
sg5
F5.0
sg6
F6.0
sb(dp3226
I00
F91.57973077999999
sI01
F-38.27
ss(i__main__
State
p3227
(dp3228
g3
F-6.0
sg4
F10.0
sg5
F6.0
sg6
F4.0
sb(dp3229
I00
F184.9649444603384
sI01
F26.02686
ss(i__main__
State
p3230
(dp3231
g3
F-6.0
sg4
F3.0
sg5
F6.0
sg6
F8.0
sb(dp3232
I00
F66.59128
sI01
F88.7403679
ss(i__main__
State
p3233
(dp3234
g3
F-6.0
sg4
F6.0
sg5
F6.0
sg6
F-6.0
sb(dp3235
I00
F22.929389999999998
sI01
I-73
ss(i__main__
State
p3236
(dp3237
g3
F8.0
sg4
F5.0
sg5
F-8.0
sg6
F-8.0
sb(dp3238
I00
I-91
sI01
F-0.8229999999999995
ss(i__main__
State
p3239
(dp3240
g3
F-6.0
sg4
F4.0
sg5
F6.0
sg6
F2.0
sb(dp3241
I00
F36.6
sI01
I-90
ss(i__main__
State
p3242
(dp3243
g3
F-3.0
sg4
F7.0
sg5
F3.0
sg6
F-4.0
sb(dp3244
I00
F65.703147271
sI01
F89.2
ss(i__main__
State
p3245
(dp3246
g3
F-6.0
sg4
F9.0
sg5
F6.0
sg6
F-2.0
sb(dp3247
I00
F10.0
sI01
F41.20512000000001
ss(i__main__
State
p3248
(dp3249
g3
F-5.0
sg4
F7.0
sg5
F5.0
sg6
F4.0
sb(dp3250
I00
F-40.07599999999999
sI01
F71.91840670434735
ss(i__main__
State
p3251
(dp3252
g3
F-6.0
sg4
F5.0
sg5
F6.0
sg6
F6.0
sb(dp3253
I00
I-1
sI01
F72.025149
ss(i__main__
State
p3254
(dp3255
g3
F0.0
sg4
F10.0
sg5
F0.0
sg6
F-4.0
sb(dp3256
I00
F-1896.0430861
sI01
F-1888.74
ss(i__main__
State
p3257
(dp3258
g3
F2.0
sg4
F7.0
sg5
F-2.0
sg6
F-4.0
sb(dp3259
I00
F-81.6
sI01
F-84.402
ss(i__main__
State
p3260
(dp3261
g3
F-4.0
sg4
F3.0
sg5
F4.0
sg6
F-8.0
sb(dp3262
I00
F50.17454383013436
sI01
F11.134968007842716
ss(i__main__
State
p3263
(dp3264
g3
F4.0
sg4
F6.0
sg5
F-4.0
sg6
F-6.0
sb(dp3265
I00
F-13.299999999999999
sI01
F9.8618639
ss(i__main__
State
p3266
(dp3267
g3
F2.0
sg4
F7.0
sg5
F-2.0
sg6
F6.0
sb(dp3268
I00
F20.725296833380504
sI01
I-9
ss(i__main__
State
p3269
(dp3270
g3
F3.0
sg4
F3.0
sg5
F-3.0
sg6
F-8.0
sb(dp3271
I00
F-13.7399671
sI01
F-33.93989429957931
ss(i__main__
State
p3272
(dp3273
g3
F8.0
sg4
F1.0
sg5
F-8.0
sg6
F-6.0
sb(dp3274
I00
F-49.54306202094594
sI01
F19.910594337245442
ss(i__main__
State
p3275
(dp3276
g3
F-2.0
sg4
F3.0
sg5
F2.0
sg6
F-8.0
sb(dp3277
I00
I-4
sI01
F44.333703
ss(i__main__
State
p3278
(dp3279
g3
F6.0
sg4
F4.0
sg5
F-6.0
sg6
F-4.0
sb(dp3280
I00
F78.764794633
sI01
F78.9
ss(i__main__
State
p3281
(dp3282
g3
F5.0
sg4
F1.0
sg5
F-5.0
sg6
F2.0
sb(dp3283
I00
I-35
sI01
F-9.666267999999999
ss(i__main__
State
p3284
(dp3285
g3
F5.0
sg4
F6.0
sg5
F-5.0
sg6
F0.0
sb(dp3286
I00
F49.5
sI01
F44.61962688628
ss(i__main__
State
p3287
(dp3288
g3
F-4.0
sg4
F4.0
sg5
F4.0
sg6
F-8.0
sb(dp3289
I00
F-30.1
sI01
F54.339898286234785
ss(i__main__
State
p3290
(dp3291
g3
F-5.0
sg4
F8.0
sg5
F5.0
sg6
F-8.0
sb(dp3292
I00
F40.001
sI01
F134.73976011096454
ss(i__main__
State
p3293
(dp3294
g3
F7.0
sg4
F5.0
sg5
F-7.0
sg6
F8.0
sb(dp3295
I00
I52
sI01
F58.5513
ss(i__main__
State
p3296
(dp3297
g3
F0.0
sg4
F9.0
sg5
F0.0
sg6
F-4.0
sb(dp3298
I00
F110.11286858301736
sI01
F21.020200000000003
ss(i__main__
State
p3299
(dp3300
g3
F0.0
sg4
F6.0
sg5
F0.0
sg6
F-8.0
sb(dp3301
I00
I-9
sI01
F66.7877
ss(i__main__
State
p3302
(dp3303
g3
F-1.0
sg4
F1.0
sg5
F1.0
sg6
F8.0
sb(dp3304
I00
F-64.1605
sI01
F51.0
ss(i__main__
State
p3305
(dp3306
g3
F3.0
sg4
F10.0
sg5
F-3.0
sg6
F-2.0
sb(dp3307
I00
F133.94710675829904
sI01
F0.0
ss(i__main__
State
p3308
(dp3309
g3
F6.0
sg4
F7.0
sg5
F-6.0
sg6
F4.0
sb(dp3310
I00
F37.12373600000001
sI01
F-58.56
ss(i__main__
State
p3311
(dp3312
g3
F8.0
sg4
F0.0
sg5
F-8.0
sg6
F-8.0
sb(dp3313
I00
F13.726445532257321
sI01
F8.110946999999998
ss(i__main__
State
p3314
(dp3315
g3
F-3.0
sg4
F4.0
sg5
F3.0
sg6
F-8.0
sb(dp3316
I00
F4.052763000000002
sI01
F20.236714042691318
ss(i__main__
State
p3317
(dp3318
g3
F7.0
sg4
F0.0
sg5
F-7.0
sg6
F6.0
sb(dp3319
I00
F52.798
sI01
F33.2364
ss(i__main__
State
p3320
(dp3321
g3
F-5.0
sg4
F1.0
sg5
F5.0
sg6
F6.0
sb(dp3322
I00
I-23
sI01
F35.941
ss(i__main__
State
p3323
(dp3324
g3
F-1.0
sg4
F9.0
sg5
F1.0
sg6
F-6.0
sb(dp3325
I00
F164.47585181406953
sI01
F11.0
ss(i__main__
State
p3326
(dp3327
g3
F2.0
sg4
F4.0
sg5
F-2.0
sg6
F-8.0
sb(dp3328
I00
F63.79248465
sI01
I10
ss(i__main__
State
p3329
(dp3330
g3
F2.0
sg4
F2.0
sg5
F-2.0
sg6
F6.0
sb(dp3331
I00
F47.029999999999994
sI01
I-81
ss(i__main__
State
p3332
(dp3333
g3
F-3.0
sg4
F1.0
sg5
F3.0
sg6
F-6.0
sb(dp3334
I00
I-9
sI01
F55.29635348122246
ss(i__main__
State
p3335
(dp3336
g3
F0.0
sg4
F1.0
sg5
F0.0
sg6
F8.0
sb(dp3337
I00
I-26
sI01
F0.7401820851548638
ss(i__main__
State
p3338
(dp3339
g3
F-4.0
sg4
F8.0
sg5
F4.0
sg6
F-2.0
sb(dp3340
I00
F31.028
sI01
F0.0
ss(i__main__
State
p3341
(dp3342
g3
F2.0
sg4
F1.0
sg5
F-2.0
sg6
F-6.0
sb(dp3343
I00
I10
sI01
F87.7
ss(i__main__
State
p3344
(dp3345
g3
F-5.0
sg4
F3.0
sg5
F5.0
sg6
F0.0
sb(dp3346
I00
I68
sI01
F84.3
ss(i__main__
State
p3347
(dp3348
g3
F3.0
sg4
F4.0
sg5
F-3.0
sg6
F0.0
sb(dp3349
I00
F28.7769
sI01
F21.317610000000005
ss(i__main__
State
p3350
(dp3351
g3
F-7.0
sg4
F2.0
sg5
F7.0
sg6
F-8.0
sb(dp3352
I00
F69.0826
sI01
F29.0188
ss(i__main__
State
p3353
(dp3354
g3
F-5.0
sg4
F2.0
sg5
F5.0
sg6
F2.0
sb(dp3355
I00
F46.70290000000001
sI01
I-24
ss(i__main__
State
p3356
(dp3357
g3
F-8.0
sg4
F8.0
sg5
F8.0
sg6
F8.0
sb(dp3358
I00
F0.0
sI01
F138.5024129795324
ss(i__main__
State
p3359
(dp3360
g3
F-4.0
sg4
F3.0
sg5
F4.0
sg6
F0.0
sb(dp3361
I00
I17
sI01
F64.0615306
ss(i__main__
State
p3362
(dp3363
g3
F5.0
sg4
F8.0
sg5
F-5.0
sg6
F-2.0
sb(dp3364
I00
F30.560900000000004
sI01
F-179.9
ss(i__main__
State
p3365
(dp3366
g3
F7.0
sg4
F8.0
sg5
F-7.0
sg6
F8.0
sb(dp3367
I00
F0.0
sI01
F39.9731052331428
ss(i__main__
State
p3368
(dp3369
g3
F0.0
sg4
F4.0
sg5
F0.0
sg6
F-8.0
sb(dp3370
I00
F-30.347119999999997
sI01
F-83.4
ss(i__main__
State
p3371
(dp3372
g3
F6.0
sg4
F9.0
sg5
F-6.0
sg6
F-4.0
sb(dp3373
I00
F106.82182104020164
sI01
F35.9828368
ss(i__main__
State
p3374
(dp3375
g3
F8.0
sg4
F9.0
sg5
F-8.0
sg6
F4.0
sb(dp3376
I00
F0.0
sI01
F23.990000000000002
ss(i__main__
State
p3377
(dp3378
g3
F-3.0
sg4
F8.0
sg5
F3.0
sg6
F-2.0
sb(dp3379
I00
F30.126414160000003
sI01
F-90.0
ss(i__main__
State
p3380
(dp3381
g3
F4.0
sg4
F8.0
sg5
F-4.0
sg6
F-2.0
sb(dp3382
I00
F142.5854984285802
sI01
F-170.9
ss(i__main__
State
p3383
(dp3384
g3
F1.0
sg4
F8.0
sg5
F-1.0
sg6
F6.0
sb(dp3385
I00
F19.0
sI01
F0.0
ss(i__main__
State
p3386
(dp3387
g3
F1.0
sg4
F7.0
sg5
F-1.0
sg6
F8.0
sb(dp3388
I00
F7.744475895395066
sI01
F-43.74
ss(i__main__
State
p3389
(dp3390
g3
F7.0
sg4
F5.0
sg5
F-7.0
sg6
F4.0
sb(dp3391
I00
F31.321824449999998
sI01
F-18.091
ss(i__main__
State
p3392
(dp3393
g3
F-2.0
sg4
F7.0
sg5
F2.0
sg6
F-2.0
sb(dp3394
I00
F90.273
sI01
F-52.2
ss(i__main__
State
p3395
(dp3396
g3
F-6.0
sg4
F6.0
sg5
F6.0
sg6
F8.0
sb(dp3397
I00
I-86
sI01
F24.66600869733974
ss(i__main__
State
p3398
(dp3399
g3
F4.0
sg4
F3.0
sg5
F-4.0
sg6
F4.0
sb(dp3400
I00
F24.095
sI01
F7.74
ss(i__main__
State
p3401
(dp3402
g3
F3.0
sg4
F8.0
sg5
F-3.0
sg6
F-6.0
sb(dp3403
I00
F67.0079
sI01
F0.0
ss(i__main__
State
p3404
(dp3405
g3
F8.0
sg4
F4.0
sg5
F-8.0
sg6
F4.0
sb(dp3406
I00
F20.1
sI01
I83
ss(i__main__
State
p3407
(dp3408
g3
F-3.0
sg4
F8.0
sg5
F3.0
sg6
F6.0
sb(dp3409
I00
F185.25042156557384
sI01
F0.0
ss(i__main__
State
p3410
(dp3411
g3
F1.0
sg4
F5.0
sg5
F-1.0
sg6
F-4.0
sb(dp3412
I00
F55.274304202606025
sI01
F73.39110447178814
ss(i__main__
State
p3413
(dp3414
g3
F5.0
sg4
F5.0
sg5
F-5.0
sg6
F0.0
sb(dp3415
I00
F-62.964999999999996
sI01
F52.24220892085971
ss(i__main__
State
p3416
(dp3417
g3
F-7.0
sg4
F0.0
sg5
F7.0
sg6
F0.0
sb(dp3418
I00
F-1.335
sI01
F55.924172536
ss(i__main__
State
p3419
(dp3420
g3
F7.0
sg4
F0.0
sg5
F-7.0
sg6
F-4.0
sb(dp3421
I00
F52.34034132000001
sI01
I-7
ss(i__main__
State
p3422
(dp3423
g3
F-2.0
sg4
F9.0
sg5
F2.0
sg6
F8.0
sb(dp3424
I00
F122.13310649812598
sI01
F0.0
ss(i__main__
State
p3425
(dp3426
g3
F3.0
sg4
F10.0
sg5
F-3.0
sg6
F6.0
sb(dp3427
I00
F21.137700000000002
sI01
F14.86
ss(i__main__
State
p3428
(dp3429
g3
F-1.0
sg4
F5.0
sg5
F1.0
sg6
F0.0
sb(dp3430
I00
F3.892514405730852
sI01
F70.8415662494568
ss(i__main__
State
p3431
(dp3432
g3
F2.0
sg4
F10.0
sg5
F-2.0
sg6
F8.0
sb(dp3433
I00
F32.7107
sI01
F0.0
ss(i__main__
State
p3434
(dp3435
g3
F7.0
sg4
F7.0
sg5
F-7.0
sg6
F-6.0
sb(dp3436
I00
I41
sI01
F55.4756
ss(i__main__
State
p3437
(dp3438
g3
F6.0
sg4
F6.0
sg5
F-6.0
sg6
F2.0
sb(dp3439
I00
F52.43
sI01
F69.80788155823218
ss(i__main__
State
p3440
(dp3441
g3
F3.0
sg4
F7.0
sg5
F-3.0
sg6
F8.0
sb(dp3442
I00
I-3
sI01
F25.955244296861874
ss(i__main__
State
p3443
(dp3444
g3
F2.0
sg4
F4.0
sg5
F-2.0
sg6
F0.0
sb(dp3445
I00
F31.89
sI01
F35.4077319
ss(i__main__
State
p3446
(dp3447
g3
F-7.0
sg4
F8.0
sg5
F7.0
sg6
F8.0
sb(dp3448
I00
F40.01
sI01
F10.0
ss(i__main__
State
p3449
(dp3450
g3
F8.0
sg4
F2.0
sg5
F-8.0
sg6
F-8.0
sb(dp3451
I00
F66.99626108099999
sI01
I-15
ss(i__main__
State
p3452
(dp3453
g3
F1.0
sg4
F8.0
sg5
F-1.0
sg6
F-6.0
sb(dp3454
I00
F19.0
sI01
F91.12763472875011
ss(i__main__
State
p3455
(dp3456
g3
F2.0
sg4
F0.0
sg5
F-2.0
sg6
F4.0
sb(dp3457
I00
F-22.6044
sI01
F-48.6
ss(i__main__
State
p3458
(dp3459
g3
F-7.0
sg4
F7.0
sg5
F7.0
sg6
F-2.0
sb(dp3460
I00
F-27.2
sI01
I-40
ss(i__main__
State
p3461
(dp3462
g3
F5.0
sg4
F7.0
sg5
F-5.0
sg6
F6.0
sb(dp3463
I00
F4.0
sI01
F19.6123118181
ss(i__main__
State
p3464
(dp3465
g3
F-8.0
sg4
F5.0
sg5
F8.0
sg6
F-6.0
sb(dp3466
I00
F69.9220068292
sI01
F48.064457160172005
ss(i__main__
State
p3467
(dp3468
g3
F0.0
sg4
F4.0
sg5
F0.0
sg6
F4.0
sb(dp3469
I00
F75.03
sI01
I73
ss(i__main__
State
p3470
(dp3471
g3
F-6.0
sg4
F0.0
sg5
F6.0
sg6
F-4.0
sb(dp3472
I00
I43
sI01
F52.70868
ss(i__main__
State
p3473
(dp3474
g3
F6.0
sg4
F1.0
sg5
F-6.0
sg6
F4.0
sb(dp3475
I00
F-51.039777
sI01
F56.90197407455115
ss(i__main__
State
p3476
(dp3477
g3
F-4.0
sg4
F3.0
sg5
F4.0
sg6
F-4.0
sb(dp3478
I00
F78.94582723214673
sI01
F-49.219
ss(i__main__
State
p3479
(dp3480
g3
F4.0
sg4
F6.0
sg5
F-4.0
sg6
F2.0
sb(dp3481
I00
F-0.6754050382028409
sI01
F-87.49379
ss(i__main__
State
p3482
(dp3483
g3
F0.0
sg4
F2.0
sg5
F0.0
sg6
F-8.0
sb(dp3484
I00
I-42
sI01
F23.992147397499995
ss(i__main__
State
p3485
(dp3486
g3
F3.0
sg4
F6.0
sg5
F-3.0
sg6
F2.0
sb(dp3487
I00
F41.00873630900001
sI01
F50.23441
ss(i__main__
State
p3488
(dp3489
g3
F-5.0
sg4
F7.0
sg5
F5.0
sg6
F2.0
sb(dp3490
I00
F61.4585598087169
sI01
F-65.7
ss(i__main__
State
p3491
(dp3492
g3
F-6.0
sg4
F0.0
sg5
F6.0
sg6
F8.0
sb(dp3493
I00
I53
sI01
F-45.2
ss(i__main__
State
p3494
(dp3495
g3
F-6.0
sg4
F1.0
sg5
F6.0
sg6
F8.0
sb(dp3496
I00
F36.49
sI01
F-35.378600000000006
ss(i__main__
State
p3497
(dp3498
g3
F-1.0
sg4
F10.0
sg5
F1.0
sg6
F4.0
sb(dp3499
I00
F83.87319362
sI01
F0.0
ss(i__main__
State
p3500
(dp3501
g3
F-7.0
sg4
F5.0
sg5
F7.0
sg6
F-8.0
sb(dp3502
I00
F-13.87771
sI01
F-53.3
ss(i__main__
State
p3503
(dp3504
g3
F-8.0
sg4
F4.0
sg5
F8.0
sg6
F6.0
sb(dp3505
I00
F35.414378
sI01
I-62
ss(i__main__
State
p3506
(dp3507
g3
F1.0
sg4
F7.0
sg5
F-1.0
sg6
F-4.0
sb(dp3508
I00
F11.128090577740004
sI01
I-61
ss(i__main__
State
p3509
(dp3510
g3
F-5.0
sg4
F10.0
sg5
F5.0
sg6
F-6.0
sb(dp3511
I00
F94.43188913000002
sI01
F0.0
ss(i__main__
State
p3512
(dp3513
g3
F-8.0
sg4
F5.0
sg5
F8.0
sg6
F-8.0
sb(dp3514
I00
F89.8
sI01
I-19
ss(i__main__
State
p3515
(dp3516
g3
F6.0
sg4
F7.0
sg5
F-6.0
sg6
F-2.0
sb(dp3517
I00
F78.33244158268
sI01
I-56
ss(i__main__
State
p3518
(dp3519
g3
F8.0
sg4
F2.0
sg5
F-8.0
sg6
F0.0
sb(dp3520
I00
F-2.3
sI01
I-31
ss(i__main__
State
p3521
(dp3522
g3
F-7.0
sg4
F0.0
sg5
F7.0
sg6
F2.0
sb(dp3523
I00
F-7.3679999999999986
sI01
F49.57878940000001
ss(i__main__
State
p3524
(dp3525
g3
F3.0
sg4
F0.0
sg5
F-3.0
sg6
F8.0
sb(dp3526
I00
F85.2534626
sI01
I-98
ss(i__main__
State
p3527
(dp3528
g3
F-6.0
sg4
F3.0
sg5
F6.0
sg6
F6.0
sb(dp3529
I00
F46.48457086732
sI01
F-53.1
ss(i__main__
State
p3530
(dp3531
g3
F2.0
sg4
F0.0
sg5
F-2.0
sg6
F6.0
sb(dp3532
I00
F10.451
sI01
F27.1931234798
ss(i__main__
State
p3533
(dp3534
g3
F-3.0
sg4
F3.0
sg5
F3.0
sg6
F8.0
sb(dp3535
I00
F48.710666025027386
sI01
F-21.408499999999997
ss(i__main__
State
p3536
(dp3537
g3
F-2.0
sg4
F4.0
sg5
F2.0
sg6
F6.0
sb(dp3538
I00
F36.352
sI01
F59.1140835
ss(i__main__
State
p3539
(dp3540
g3
F-2.0
sg4
F5.0
sg5
F2.0
sg6
F2.0
sb(dp3541
I00
F-22.799999999999997
sI01
F64.20733539934582
ss(i__main__
State
p3542
(dp3543
g3
F-1.0
sg4
F6.0
sg5
F1.0
sg6
F0.0
sb(dp3544
I00
F67.44489464735128
sI01
F38.35
ss(i__main__
State
p3545
(dp3546
g3
F5.0
sg4
F5.0
sg5
F-5.0
sg6
F6.0
sb(dp3547
I00
F41.307482583028
sI01
F-50.203499111999996
ss(i__main__
State
p3548
(dp3549
g3
F6.0
sg4
F7.0
sg5
F-6.0
sg6
F-8.0
sb(dp3550
I00
F14.72
sI01
F-19.8
ss(i__main__
State
p3551
(dp3552
g3
F0.0
sg4
F6.0
sg5
F0.0
sg6
F6.0
sb(dp3553
I00
F7.85
sI01
F50.85
ss(i__main__
State
p3554
(dp3555
g3
F-5.0
sg4
F9.0
sg5
F5.0
sg6
F8.0
sb(dp3556
I00
F81.2439612158686
sI01
F0.0
ss(i__main__
State
p3557
(dp3558
g3
F-7.0
sg4
F6.0
sg5
F7.0
sg6
F4.0
sb(dp3559
I00
I-91
sI01
F-7.717806710998133
ss(i__main__
State
p3560
(dp3561
g3
F-5.0
sg4
F9.0
sg5
F5.0
sg6
F-8.0
sb(dp3562
I00
F40.03686240112247
sI01
F0.0
ss(i__main__
State
p3563
(dp3564
g3
F3.0
sg4
F10.0
sg5
F-3.0
sg6
F2.0
sb(dp3565
I00
F115.3889857470196
sI01
F13.870000000000001
ss(i__main__
State
p3566
(dp3567
g3
F-7.0
sg4
F2.0
sg5
F7.0
sg6
F-4.0
sb(dp3568
I00
I-45
sI01
F24.7787676067302
ss(i__main__
State
p3569
(dp3570
g3
F-7.0
sg4
F4.0
sg5
F7.0
sg6
F2.0
sb(dp3571
I00
F14.35829467297035
sI01
F-57.5
ss(i__main__
State
p3572
(dp3573
g3
F-5.0
sg4
F5.0
sg5
F5.0
sg6
F2.0
sb(dp3574
I00
F-60.3
sI01
F64.62
ss(i__main__
State
p3575
(dp3576
g3
F4.0
sg4
F7.0
sg5
F-4.0
sg6
F-8.0
sb(dp3577
I00
I-97
sI01
F-30.3
ss(i__main__
State
p3578
(dp3579
g3
F4.0
sg4
F9.0
sg5
F-4.0
sg6
F-8.0
sb(dp3580
I00
F146.63893942392312
sI01
F10.0
ss(i__main__
State
p3581
(dp3582
g3
F-8.0
sg4
F4.0
sg5
F8.0
sg6
F-4.0
sb(dp3583
I00
F-43.5
sI01
F-15.249689999999998
ss(i__main__
State
p3584
(dp3585
g3
F5.0
sg4
F7.0
sg5
F-5.0
sg6
F-8.0
sb(dp3586
I00
I3
sI01
F89.1
ss(i__main__
State
p3587
(dp3588
g3
F-8.0
sg4
F10.0
sg5
F8.0
sg6
F0.0
sb(dp3589
I00
F97.3658937613554
sI01
F6.690000000000001
ss(i__main__
State
p3590
(dp3591
g3
F-4.0
sg4
F3.0
sg5
F4.0
sg6
F4.0
sb(dp3592
I00
F90.17922602
sI01
F41.94
ss(i__main__
State
p3593
(dp3594
g3
F-5.0
sg4
F8.0
sg5
F5.0
sg6
F-6.0
sb(dp3595
I00
F40.28
sI01
F16.87555406533
ss(i__main__
State
p3596
(dp3597
g3
F2.0
sg4
F7.0
sg5
F-2.0
sg6
F0.0
sb(dp3598
I00
F32.94736283799277
sI01
F36.22930081
ss(i__main__
State
p3599
(dp3600
g3
F0.0
sg4
F10.0
sg5
F0.0
sg6
F2.0
sb(dp3601
I00
F-3423.8019999999997
sI01
F-2685.7917327301457
ss(i__main__
State
p3602
(dp3603
g3
F-8.0
sg4
F4.0
sg5
F8.0
sg6
F4.0
sb(dp3604
I00
F15.95733027978909
sI01
I-70
ss(i__main__
State
p3605
(dp3606
g3
F6.0
sg4
F9.0
sg5
F-6.0
sg6
F-8.0
sb(dp3607
I00
F0.0
sI01
F132.19187169953042
ss(i__main__
State
p3608
(dp3609
g3
F7.0
sg4
F7.0
sg5
F-7.0
sg6
F4.0
sb(dp3610
I00
F28.2
sI01
F91.0029420345155
ss(i__main__
State
p3611
(dp3612
g3
F-8.0
sg4
F0.0
sg5
F8.0
sg6
F-4.0
sb(dp3613
I00
F6.76582461351717
sI01
I1
ss(i__main__
State
p3614
(dp3615
g3
F8.0
sg4
F8.0
sg5
F-8.0
sg6
F-4.0
sb(dp3616
I00
F42.37362061906475
sI01
F0.0
ss(i__main__
State
p3617
(dp3618
g3
F1.0
sg4
F0.0
sg5
F-1.0
sg6
F2.0
sb(dp3619
I00
F49.73591731125532
sI01
F-68.21
ss(i__main__
State
p3620
(dp3621
g3
F8.0
sg4
F6.0
sg5
F-8.0
sg6
F2.0
sb(dp3622
I00
F-48.113
sI01
F62.435696229411796
ss(i__main__
State
p3623
(dp3624
g3
F-3.0
sg4
F9.0
sg5
F3.0
sg6
F6.0
sb(dp3625
I00
F0.0
sI01
F94.03263869208853
ss(i__main__
State
p3626
(dp3627
g3
F-6.0
sg4
F6.0
sg5
F6.0
sg6
F4.0
sb(dp3628
I00
I-89
sI01
F3.402000000000001
ss(i__main__
State
p3629
(dp3630
g3
F5.0
sg4
F5.0
sg5
F-5.0
sg6
F-2.0
sb(dp3631
I00
F77.571924994
sI01
I36
ss(i__main__
State
p3632
(dp3633
g3
F-5.0
sg4
F0.0
sg5
F5.0
sg6
F-4.0
sb(dp3634
I00
F-30.71060105
sI01
F84.44
ss(i__main__
State
p3635
(dp3636
g3
F-6.0
sg4
F10.0
sg5
F6.0
sg6
F-6.0
sb(dp3637
I00
F96.73102199810891
sI01
F20.0
ss(i__main__
State
p3638
(dp3639
g3
F-1.0
sg4
F4.0
sg5
F1.0
sg6
F4.0
sb(dp3640
I00
F35.76884848200001
sI01
F-70.0
ss(i__main__
State
p3641
(dp3642
g3
F0.0
sg4
F9.0
sg5
F0.0
sg6
F-6.0
sb(dp3643
I00
F207.60881214316922
sI01
F50.0478167
ss(i__main__
State
p3644
(dp3645
g3
F4.0
sg4
F4.0
sg5
F-4.0
sg6
F-4.0
sb(dp3646
I00
F18.3789437146273
sI01
F-31.927137639999994
ss(i__main__
State
p3647
(dp3648
g3
F7.0
sg4
F5.0
sg5
F-7.0
sg6
F-6.0
sb(dp3649
I00
I-59
sI01
F-8.3
ss(i__main__
State
p3650
(dp3651
g3
F-1.0
sg4
F9.0
sg5
F1.0
sg6
F-4.0
sb(dp3652
I00
F191.4445574653733
sI01
F33.48862166781316
ss(i__main__
State
p3653
(dp3654
g3
F-2.0
sg4
F1.0
sg5
F2.0
sg6
F4.0
sb(dp3655
I00
I-41
sI01
F-24.806983732508
ss(i__main__
State
p3656
(dp3657
g3
F1.0
sg4
F2.0
sg5
F-1.0
sg6
F-4.0
sb(dp3658
I00
I-92
sI01
F24.0
ss(i__main__
State
p3659
(dp3660
g3
F-7.0
sg4
F2.0
sg5
F7.0
sg6
F0.0
sb(dp3661
I00
F-61.3
sI01
F43.0
ss(i__main__
State
p3662
(dp3663
g3
F4.0
sg4
F8.0
sg5
F-4.0
sg6
F8.0
sb(dp3664
I00
F99.72147277321801
sI01
F30.0
ss(i__main__
State
p3665
(dp3666
g3
F4.0
sg4
F7.0
sg5
F-4.0
sg6
F0.0
sb(dp3667
I00
F9.911000000000001
sI01
F-63.9
ss(i__main__
State
p3668
(dp3669
g3
F4.0
sg4
F0.0
sg5
F-4.0
sg6
F-4.0
sb(dp3670
I00
F27.98722786
sI01
I13
ss(i__main__
State
p3671
(dp3672
g3
F6.0
sg4
F1.0
sg5
F-6.0
sg6
F0.0
sb(dp3673
I00
F-2.84958
sI01
F50.138898991276996
ss(i__main__
State
p3674
(dp3675
g3
F-8.0
sg4
F10.0
sg5
F8.0
sg6
F2.0
sb(dp3676
I00
F31.361000000000004
sI01
F0.0
ss(i__main__
State
p3677
(dp3678
g3
F7.0
sg4
F2.0
sg5
F-7.0
sg6
F-2.0
sb(dp3679
I00
F-69.8791142151
sI01
F-21.42
ss(i__main__
State
p3680
(dp3681
g3
F8.0
sg4
F1.0
sg5
F-8.0
sg6
F8.0
sb(dp3682
I00
F50.230000000000004
sI01
F23.84
ss(i__main__
State
p3683
(dp3684
g3
F8.0
sg4
F3.0
sg5
F-8.0
sg6
F8.0
sb(dp3685
I00
F-12.989796409999999
sI01
I-68
ss(i__main__
State
p3686
(dp3687
g3
F7.0
sg4
F3.0
sg5
F-7.0
sg6
F-2.0
sb(dp3688
I00
F-78.12
sI01
F35.2493
ss(i__main__
State
p3689
(dp3690
g3
F-6.0
sg4
F0.0
sg5
F6.0
sg6
F4.0
sb(dp3691
I00
F-49.1
sI01
F-21.809999999999995
ss(i__main__
State
p3692
(dp3693
g3
F-7.0
sg4
F9.0
sg5
F7.0
sg6
F-6.0
sb(dp3694
I00
F26.618739420400004
sI01
F205.09686531725495
ss(i__main__
State
p3695
(dp3696
g3
F-7.0
sg4
F4.0
sg5
F7.0
sg6
F0.0
sb(dp3697
I00
F-60.83073
sI01
F36.7559975395
ss(i__main__
State
p3698
(dp3699
g3
F5.0
sg4
F1.0
sg5
F-5.0
sg6
F-4.0
sb(dp3700
I00
F74.2
sI01
F-79.98
ss(i__main__
State
p3701
(dp3702
g3
F-5.0
sg4
F5.0
sg5
F5.0
sg6
F0.0
sb(dp3703
I00
F21.535280578795593
sI01
F10.678764
ss(i__main__
State
p3704
(dp3705
g3
F-3.0
sg4
F5.0
sg5
F3.0
sg6
F4.0
sb(dp3706
I00
I-14
sI01
F63.518812250915
ss(i__main__
State
p3707
(dp3708
g3
F-5.0
sg4
F6.0
sg5
F5.0
sg6
F8.0
sb(dp3709
I00
F11.452000000000002
sI01
F-66.87
ss(i__main__
State
p3710
(dp3711
g3
F6.0
sg4
F5.0
sg5
F-6.0
sg6
F0.0
sb(dp3712
I00
I13
sI01
F86.98879391642467
ss(i__main__
State
p3713
(dp3714
g3
F-1.0
sg4
F9.0
sg5
F1.0
sg6
F6.0
sb(dp3715
I00
F81.74575026512994
sI01
F0.0
ss(i__main__
State
p3716
(dp3717
g3
F1.0
sg4
F7.0
sg5
F-1.0
sg6
F6.0
sb(dp3718
I00
F29.585466158171496
sI01
F-40.870000000000005
ss(i__main__
State
p3719
(dp3720
g3
F1.0
sg4
F4.0
sg5
F-1.0
sg6
F-4.0
sb(dp3721
I00
I-84
sI01
F1.1811165678198616
ss(i__main__
State
p3722
(dp3723
g3
F8.0
sg4
F5.0
sg5
F-8.0
sg6
F-2.0
sb(dp3724
I00
F2.331578300000002
sI01
F20.11863
ss(i__main__
State
p3725
(dp3726
g3
F-8.0
sg4
F5.0
sg5
F8.0
sg6
F-4.0
sb(dp3727
I00
F17.0029623
sI01
F-31.777
ss(i__main__
State
p3728
(dp3729
g3
F8.0
sg4
F0.0
sg5
F-8.0
sg6
F8.0
sb(dp3730
I00
F63.309999999999995
sI01
I-39
ss(i__main__
State
p3731
(dp3732
g3
F8.0
sg4
F0.0
sg5
F-8.0
sg6
F-2.0
sb(dp3733
I00
F53.57729035905464
sI01
F-61.8
ss(i__main__
State
p3734
(dp3735
g3
F-7.0
sg4
F1.0
sg5
F7.0
sg6
F-4.0
sb(dp3736
I00
I-18
sI01
F-57.7
ss(i__main__
State
p3737
(dp3738
g3
F-7.0
sg4
F2.0
sg5
F7.0
sg6
F4.0
sb(dp3739
I00
F-65.3
sI01
F48.68323279
ss(i__main__
State
p3740
(dp3741
g3
F0.0
sg4
F3.0
sg5
F0.0
sg6
F-6.0
sb(dp3742
I00
I-98
sI01
F84.63288483
ss(i__main__
State
p3743
(dp3744
g3
F-8.0
sg4
F3.0
sg5
F8.0
sg6
F2.0
sb(dp3745
I00
F-5.199999999999999
sI01
I88
ss(i__main__
State
p3746
(dp3747
g3
F-7.0
sg4
F6.0
sg5
F7.0
sg6
F6.0
sb(dp3748
I00
I-89
sI01
F53.1
ss(i__main__
State
p3749
(dp3750
g3
F3.0
sg4
F3.0
sg5
F-3.0
sg6
F6.0
sb(dp3751
I00
F24.051862774350003
sI01
F-52.9
ss(i__main__
State
p3752
(dp3753
g3
F8.0
sg4
F4.0
sg5
F-8.0
sg6
F-4.0
sb(dp3754
I00
I-50
sI01
F19.271292986790005
ss(i__main__
State
p3755
(dp3756
g3
F-6.0
sg4
F7.0
sg5
F6.0
sg6
F2.0
sb(dp3757
I00
F-13.66668
sI01
F48.453952575383155
ss(i__main__
State
p3758
(dp3759
g3
F4.0
sg4
F10.0
sg5
F-4.0
sg6
F4.0
sb(dp3760
I00
F20.9
sI01
F0.0
ss(i__main__
State
p3761
(dp3762
g3
F6.0
sg4
F3.0
sg5
F-6.0
sg6
F-4.0
sb(dp3763
I00
I-5
sI01
F66.204590122
ss(i__main__
State
p3764
(dp3765
g3
F1.0
sg4
F5.0
sg5
F-1.0
sg6
F6.0
sb(dp3766
I00
F-52.251999999999995
sI01
I-55
ss(i__main__
State
p3767
(dp3768
g3
F6.0
sg4
F0.0
sg5
F-6.0
sg6
F2.0
sb(dp3769
I00
F16.932598077137
sI01
F32.56181702324135
ss(i__main__
State
p3770
(dp3771
g3
F4.0
sg4
F1.0
sg5
F-4.0
sg6
F2.0
sb(dp3772
I00
I-13
sI01
F52.0314
ss(i__main__
State
p3773
(dp3774
g3
F6.0
sg4
F0.0
sg5
F-6.0
sg6
F4.0
sb(dp3775
I00
F-26.076268369999994
sI01
F-48.051576299999994
ss(i__main__
State
p3776
(dp3777
g3
F-3.0
sg4
F1.0
sg5
F3.0
sg6
F2.0
sb(dp3778
I00
F2.337022400000003
sI01
I-73
ss(i__main__
State
p3779
(dp3780
g3
F-8.0
sg4
F4.0
sg5
F8.0
sg6
F8.0
sb(dp3781
I00
I-96
sI01
F-2.23
ss(i__main__
State
p3782
(dp3783
g3
F0.0
sg4
F5.0
sg5
F0.0
sg6
F6.0
sb(dp3784
I00
F55.970092
sI01
F-16.1
ss(i__main__
State
p3785
(dp3786
g3
F-7.0
sg4
F8.0
sg5
F7.0
sg6
F6.0
sb(dp3787
I00
F130.51967533631003
sI01
F31.422603134594006
ss(i__main__
State
p3788
(dp3789
g3
F-8.0
sg4
F5.0
sg5
F8.0
sg6
F-2.0
sb(dp3790
I00
I6
sI01
F14.417401869999997
ss(i__main__
State
p3791
(dp3792
g3
F4.0
sg4
F8.0
sg5
F-4.0
sg6
F4.0
sb(dp3793
I00
F10.0
sI01
F94.66634381778866
ss(i__main__
State
p3794
(dp3795
g3
F5.0
sg4
F3.0
sg5
F-5.0
sg6
F-4.0
sb(dp3796
I00
F59.486619
sI01
F-67.5
ss(i__main__
State
p3797
(dp3798
g3
F-1.0
sg4
F3.0
sg5
F1.0
sg6
F2.0
sb(dp3799
I00
F-80.4
sI01
F46.6092
ss(i__main__
State
p3800
(dp3801
g3
F3.0
sg4
F9.0
sg5
F-3.0
sg6
F0.0
sb(dp3802
I00
F-3430.9329850561307
sI01
F-3423.989240417037
ss(i__main__
State
p3803
(dp3804
g3
F7.0
sg4
F1.0
sg5
F-7.0
sg6
F6.0
sb(dp3805
I00
F65.13959651
sI01
F59.8
ss(i__main__
State
p3806
(dp3807
g3
F6.0
sg4
F0.0
sg5
F-6.0
sg6
F-8.0
sb(dp3808
I00
F36.23449430337
sI01
F-40.0
ss(i__main__
State
p3809
(dp3810
g3
F-2.0
sg4
F8.0
sg5
F2.0
sg6
F-2.0
sb(dp3811
I00
F11.100000000000001
sI01
F0.0
ss(i__main__
State
p3812
(dp3813
g3
F5.0
sg4
F1.0
sg5
F-5.0
sg6
F-6.0
sb(dp3814
I00
I5
sI01
F73.21
ss(i__main__
State
p3815
(dp3816
g3
F2.0
sg4
F9.0
sg5
F-2.0
sg6
F-4.0
sb(dp3817
I00
F-4.828060690000019
sI01
F53.21733384964731
ss(i__main__
State
p3818
(dp3819
g3
F4.0
sg4
F0.0
sg5
F-4.0
sg6
F-8.0
sb(dp3820
I00
F44.632778898904775
sI01
F-43.358191672415195
ss(i__main__
State
p3821
(dp3822
g3
F8.0
sg4
F9.0
sg5
F-8.0
sg6
F2.0
sb(dp3823
I00
F0.0
sI01
F66.194159049163
ss(i__main__
State
p3824
(dp3825
g3
F-2.0
sg4
F9.0
sg5
F2.0
sg6
F2.0
sb(dp3826
I00
F75.29433900000001
sI01
F22.107064
ss(i__main__
State
p3827
(dp3828
g3
F7.0
sg4
F1.0
sg5
F-7.0
sg6
F-2.0
sb(dp3829
I00
F48.45297672
sI01
F65.50522199875293
ss(i__main__
State
p3830
(dp3831
g3
F3.0
sg4
F9.0
sg5
F-3.0
sg6
F-4.0
sb(dp3832
I00
F64.06955657505281
sI01
F165.47679176035018
ss(i__main__
State
p3833
(dp3834
g3
F-7.0
sg4
F9.0
sg5
F7.0
sg6
F2.0
sb(dp3835
I00
F30.0
sI01
F0.0
ss(i__main__
State
p3836
(dp3837
g3
F2.0
sg4
F2.0
sg5
F-2.0
sg6
F-4.0
sb(dp3838
I00
F36.23876952127701
sI01
F-71.6
ss(i__main__
State
p3839
(dp3840
g3
F-3.0
sg4
F7.0
sg5
F3.0
sg6
F4.0
sb(dp3841
I00
F-51.981176632643056
sI01
F33.171347970065966
ss(i__main__
State
p3842
(dp3843
g3
F0.0
sg4
F7.0
sg5
F0.0
sg6
F6.0
sb(dp3844
I00
F-67.1
sI01
F87.01979708068158
ss(i__main__
State
p3845
(dp3846
g3
F-8.0
sg4
F7.0
sg5
F8.0
sg6
F0.0
sb(dp3847
I00
F-19.8
sI01
I-38
ss(i__main__
State
p3848
(dp3849
g3
F8.0
sg4
F10.0
sg5
F-8.0
sg6
F6.0
sb(dp3850
I00
F123.0706328710358
sI01
F38.253302500000004
ss(i__main__
State
p3851
(dp3852
g3
F-6.0
sg4
F8.0
sg5
F6.0
sg6
F8.0
sb(dp3853
I00
F83.93512000000001
sI01
F20.1
ss(i__main__
State
p3854
(dp3855
g3
F-1.0
sg4
F5.0
sg5
F1.0
sg6
F-6.0
sb(dp3856
I00
F-8.488
sI01
F28.32
ss(i__main__
State
p3857
(dp3858
g3
F6.0
sg4
F5.0
sg5
F-6.0
sg6
F4.0
sb(dp3859
I00
F-37.148329420289
sI01
I-73
ss(i__main__
State
p3860
(dp3861
g3
F-3.0
sg4
F10.0
sg5
F3.0
sg6
F-8.0
sb(dp3862
I00
F20.94
sI01
F0.0
ss(i__main__
State
p3863
(dp3864
g3
F-6.0
sg4
F10.0
sg5
F6.0
sg6
F6.0
sb(dp3865
I00
F70.324954383222
sI01
F120.89868583425915
ss(i__main__
State
p3866
(dp3867
g3
F-2.0
sg4
F2.0
sg5
F2.0
sg6
F0.0
sb(dp3868
I00
F31.936432000000003
sI01
F3.35842512554
ss(i__main__
State
p3869
(dp3870
g3
F-6.0
sg4
F3.0
sg5
F6.0
sg6
F-2.0
sb(dp3871
I00
F-54.6
sI01
F31.8
ss(i__main__
State
p3872
(dp3873
g3
F-2.0
sg4
F3.0
sg5
F2.0
sg6
F0.0
sb(dp3874
I00
F-11.752974
sI01
F37.8397340077693
ss(i__main__
State
p3875
(dp3876
g3
F-1.0
sg4
F4.0
sg5
F1.0
sg6
F2.0
sb(dp3877
I00
F72.605
sI01
I-72
ss(i__main__
State
p3878
(dp3879
g3
F6.0
sg4
F4.0
sg5
F-6.0
sg6
F0.0
sb(dp3880
I00
I10
sI01
F58.043150675099994
ss(i__main__
State
p3881
(dp3882
g3
F-3.0
sg4
F7.0
sg5
F3.0
sg6
F-2.0
sb(dp3883
I00
F-10.519934004180568
sI01
I-77
ss(i__main__
State
p3884
(dp3885
g3
F-1.0
sg4
F8.0
sg5
F1.0
sg6
F-4.0
sb(dp3886
I00
F0.0
sI01
F101.5597089839337
ss(i__main__
State
p3887
(dp3888
g3
F3.0
sg4
F8.0
sg5
F-3.0
sg6
F8.0
sb(dp3889
I00
F85.5924887342805
sI01
F0.0
ss(i__main__
State
p3890
(dp3891
g3
F-6.0
sg4
F4.0
sg5
F6.0
sg6
F-2.0
sb(dp3892
I00
F22.202322013809997
sI01
F-74.35
ss(i__main__
State
p3893
(dp3894
g3
F-4.0
sg4
F10.0
sg5
F4.0
sg6
F6.0
sb(dp3895
I00
F48.706508591125015
sI01
F0.0
ss(i__main__
State
p3896
(dp3897
g3
F2.0
sg4
F3.0
sg5
F-2.0
sg6
F-6.0
sb(dp3898
I00
F-44.95399999999999
sI01
F-16.448558858372426
ss(i__main__
State
p3899
(dp3900
g3
F4.0
sg4
F6.0
sg5
F-4.0
sg6
F8.0
sb(dp3901
I00
F37.573516872
sI01
I24
ss(i__main__
State
p3902
(dp3903
g3
F-2.0
sg4
F6.0
sg5
F2.0
sg6
F8.0
sb(dp3904
I00
F79.5
sI01
I-84
ss(i__main__
State
p3905
(dp3906
g3
F-7.0
sg4
F6.0
sg5
F7.0
sg6
F2.0
sb(dp3907
I00
I-87
sI01
F54.84925843
ss(i__main__
State
p3908
(dp3909
g3
F-7.0
sg4
F5.0
sg5
F7.0
sg6
F-4.0
sb(dp3910
I00
I-46
sI01
F90.64551308
ss(i__main__
State
p3911
(dp3912
g3
F-6.0
sg4
F7.0
sg5
F6.0
sg6
F6.0
sb(dp3913
I00
I40
sI01
F52.84919999999999
ss(i__main__
State
p3914
(dp3915
g3
F1.0
sg4
F3.0
sg5
F-1.0
sg6
F2.0
sb(dp3916
I00
F16.1
sI01
I-48
ss(i__main__
State
p3917
(dp3918
g3
F5.0
sg4
F0.0
sg5
F-5.0
sg6
F4.0
sb(dp3919
I00
F19.1
sI01
F31.29642001967772
ss(i__main__
State
p3920
(dp3921
g3
F0.0
sg4
F8.0
sg5
F0.0
sg6
F-8.0
sb(dp3922
I00
F-988.7044450078455
sI01
F-992.8936116629164
ss(i__main__
State
p3923
(dp3924
g3
F-4.0
sg4
F1.0
sg5
F4.0
sg6
F0.0
sb(dp3925
I00
F-7.23
sI01
F59.936400000000006
ss(i__main__
State
p3926
(dp3927
g3
F-4.0
sg4
F0.0
sg5
F4.0
sg6
F-2.0
sb(dp3928
I00
I-74
sI01
F72.54331376
ss(i__main__
State
p3929
(dp3930
g3
F-8.0
sg4
F0.0
sg5
F8.0
sg6
F-6.0
sb(dp3931
I00
F53.197871374206
sI01
F-75.8
ss(i__main__
State
p3932
(dp3933
g3
F8.0
sg4
F6.0
sg5
F-8.0
sg6
F-2.0
sb(dp3934
I00
I-97
sI01
F-3.203370440937994
ss(i__main__
State
p3935
(dp3936
g3
F4.0
sg4
F2.0
sg5
F-4.0
sg6
F0.0
sb(dp3937
I00
F-47.695595
sI01
I15
ss(i__main__
State
p3938
(dp3939
g3
F-7.0
sg4
F0.0
sg5
F7.0
sg6
F-6.0
sb(dp3940
I00
F55.0
sI01
F-33.2
ss(i__main__
State
p3941
(dp3942
g3
F3.0
sg4
F4.0
sg5
F-3.0
sg6
F-6.0
sb(dp3943
I00
I-88
sI01
F16.845786834160002
ss(i__main__
State
p3944
(dp3945
g3
F-7.0
sg4
F0.0
sg5
F7.0
sg6
F8.0
sb(dp3946
I00
F77.9572794457835
sI01
F-22.201290698898465
ss(i__main__
State
p3947
(dp3948
g3
F8.0
sg4
F8.0
sg5
F-8.0
sg6
F0.0
sb(dp3949
I00
F58.69982898000001
sI01
F0.0
ss(i__main__
State
p3950
(dp3951
g3
F-2.0
sg4
F1.0
sg5
F2.0
sg6
F-8.0
sb(dp3952
I00
F52.48439420086932
sI01
F26.910000000000004
ss(i__main__
State
p3953
(dp3954
g3
F-5.0
sg4
F10.0
sg5
F5.0
sg6
F8.0
sb(dp3955
I00
F39.65216723137515
sI01
F18.928
ss(i__main__
State
p3956
(dp3957
g3
F-4.0
sg4
F9.0
sg5
F4.0
sg6
F-4.0
sb(dp3958
I00
F217.15770221890352
sI01
F29.647252447766
ss(i__main__
State
p3959
(dp3960
g3
F2.0
sg4
F0.0
sg5
F-2.0
sg6
F-2.0
sb(dp3961
I00
F-10.85
sI01
I30
ss(i__main__
State
p3962
(dp3963
g3
F-5.0
sg4
F2.0
sg5
F5.0
sg6
F-6.0
sb(dp3964
I00
F28.189999999999998
sI01
I-97
ss(i__main__
State
p3965
(dp3966
g3
F-6.0
sg4
F10.0
sg5
F6.0
sg6
F-8.0
sb(dp3967
I00
F37.49828601566398
sI01
F16.1
ss(i__main__
State
p3968
(dp3969
g3
F-1.0
sg4
F2.0
sg5
F1.0
sg6
F2.0
sb(dp3970
I00
F24.371402687362597
sI01
F-44.6
ss(i__main__
State
p3971
(dp3972
g3
F2.0
sg4
F6.0
sg5
F-2.0
sg6
F8.0
sb(dp3973
I00
F57.2447
sI01
I-7
ss(i__main__
State
p3974
(dp3975
g3
F-3.0
sg4
F1.0
sg5
F3.0
sg6
F-8.0
sb(dp3976
I00
I-17
sI01
F46.8596362914
ss(i__main__
State
p3977
(dp3978
g3
F-1.0
sg4
F9.0
sg5
F1.0
sg6
F8.0
sb(dp3979
I00
F207.8740811413389
sI01
F0.0
ss(i__main__
State
p3980
(dp3981
g3
F-8.0
sg4
F8.0
sg5
F8.0
sg6
F-4.0
sb(dp3982
I00
F0.0
sI01
F31.0561
ss(i__main__
State
p3983
(dp3984
g3
F-4.0
sg4
F0.0
sg5
F4.0
sg6
F8.0
sb(dp3985
I00
F-36.2914
sI01
F19.327916949630893
ss(i__main__
State
p3986
(dp3987
g3
F7.0
sg4
F3.0
sg5
F-7.0
sg6
F2.0
sb(dp3988
I00
F82.9419856095204
sI01
F-53.89
ss(i__main__
State
p3989
(dp3990
g3
F-8.0
sg4
F1.0
sg5
F8.0
sg6
F8.0
sb(dp3991
I00
F4.8162
sI01
F24.324465018
ss(i__main__
State
p3992
(dp3993
g3
F4.0
sg4
F3.0
sg5
F-4.0
sg6
F8.0
sb(dp3994
I00
F-76.927581
sI01
F31.753876225407833
ss(i__main__
State
p3995
(dp3996
g3
F-3.0
sg4
F4.0
sg5
F3.0
sg6
F2.0
sb(dp3997
I00
F65.03026094915431
sI01
F-68.2919
ss(i__main__
State
p3998
(dp3999
g3
F-2.0
sg4
F2.0
sg5
F2.0
sg6
F-8.0
sb(dp4000
I00
I-48
sI01
F-84.3
ss(i__main__
State
p4001
(dp4002
g3
F-7.0
sg4
F8.0
sg5
F7.0
sg6
F-4.0
sb(dp4003
I00
F30.380110000000002
sI01
F0.0
ss(i__main__
State
p4004
(dp4005
g3
F1.0
sg4
F4.0
sg5
F-1.0
sg6
F-6.0
sb(dp4006
I00
I-50
sI01
F25.846413461030007
ss(i__main__
State
p4007
(dp4008
g3
F6.0
sg4
F4.0
sg5
F-6.0
sg6
F6.0
sb(dp4009
I00
F-41.1
sI01
F58.977
ss(i__main__
State
p4010
(dp4011
g3
F3.0
sg4
F8.0
sg5
F-3.0
sg6
F-4.0
sb(dp4012
I00
F32.124
sI01
F0.0
ss(i__main__
State
p4013
(dp4014
g3
F4.0
sg4
F5.0
sg5
F-4.0
sg6
F6.0
sb(dp4015
I00
F17.7
sI01
I-89
ss(i__main__
State
p4016
(dp4017
g3
F6.0
sg4
F8.0
sg5
F-6.0
sg6
F-4.0
sb(dp4018
I00
F40.074090000000005
sI01
F0.0
ss(i__main__
State
p4019
(dp4020
g3
F-7.0
sg4
F3.0
sg5
F7.0
sg6
F6.0
sb(dp4021
I00
F95.3
sI01
I-44
ss(i__main__
State
p4022
(dp4023
g3
F-4.0
sg4
F10.0
sg5
F4.0
sg6
F0.0
sb(dp4024
I00
F249.1128482775256
sI01
F29.1231
ss(i__main__
State
p4025
(dp4026
g3
F2.0
sg4
F3.0
sg5
F-2.0
sg6
F2.0
sb(dp4027
I00
I-72
sI01
F20.334000000000003
ss(i__main__
State
p4028
(dp4029
g3
F-4.0
sg4
F7.0
sg5
F4.0
sg6
F6.0
sb(dp4030
I00
I-91
sI01
F119.26621061073253
ss(i__main__
State
p4031
(dp4032
g3
F-2.0
sg4
F9.0
sg5
F2.0
sg6
F-2.0
sb(dp4033
I00
F-1339.7015378609585
sI01
F189.21310734859128
ss(i__main__
State
p4034
(dp4035
g3
F0.0
sg4
F4.0
sg5
F0.0
sg6
F8.0
sb(dp4036
I00
F11.339832315302024
sI01
F-32.897999999999996
ss(i__main__
State
p4037
(dp4038
g3
F3.0
sg4
F7.0
sg5
F-3.0
sg6
F-4.0
sb(dp4039
I00
F19.076369
sI01
F-65.31617
ss(i__main__
State
p4040
(dp4041
g3
F3.0
sg4
F8.0
sg5
F-3.0
sg6
F4.0
sb(dp4042
I00
F105.69985025068662
sI01
F11.100000000000001
ss(i__main__
State
p4043
(dp4044
g3
F8.0
sg4
F9.0
sg5
F-8.0
sg6
F6.0
sb(dp4045
I00
F37.316371211786
sI01
F0.0
ss(i__main__
State
p4046
(dp4047
g3
F5.0
sg4
F4.0
sg5
F-5.0
sg6
F6.0
sb(dp4048
I00
F-33.7
sI01
F53.081446901804505
ss(i__main__
State
p4049
(dp4050
g3
F4.0
sg4
F8.0
sg5
F-4.0
sg6
F-4.0
sb(dp4051
I00
F12.0
sI01
F0.0
ss(i__main__
State
p4052
(dp4053
g3
F4.0
sg4
F9.0
sg5
F-4.0
sg6
F4.0
sb(dp4054
I00
F148.68058055750396
sI01
F21.113770000000002
ss(i__main__
State
p4055
(dp4056
g3
F-2.0
sg4
F7.0
sg5
F2.0
sg6
F-4.0
sb(dp4057
I00
F30.5496726484103
sI01
F-22.3
ss(i__main__
State
p4058
(dp4059
g3
F6.0
sg4
F6.0
sg5
F-6.0
sg6
F-2.0
sb(dp4060
I00
I-75
sI01
F4.027378
ss(i__main__
State
p4061
(dp4062
g3
F5.0
sg4
F10.0
sg5
F-5.0
sg6
F0.0
sb(dp4063
I00
F108.59472639590001
sI01
F27.55
ss(i__main__
State
p4064
(dp4065
g3
F-4.0
sg4
F6.0
sg5
F4.0
sg6
F4.0
sb(dp4066
I00
F29.1165534
sI01
I-26
ss(i__main__
State
p4067
(dp4068
g3
F-8.0
sg4
F2.0
sg5
F8.0
sg6
F2.0
sb(dp4069
I00
F75.08896
sI01
I43
ss(i__main__
State
p4070
(dp4071
g3
F1.0
sg4
F5.0
sg5
F-1.0
sg6
F0.0
sb(dp4072
I00
I-78
sI01
F62.438
ss(i__main__
State
p4073
(dp4074
g3
F1.0
sg4
F1.0
sg5
F-1.0
sg6
F-6.0
sb(dp4075
I00
F32.5
sI01
I-45
ss(i__main__
State
p4076
(dp4077
g3
F-2.0
sg4
F8.0
sg5
F2.0
sg6
F6.0
sb(dp4078
I00
F67.6221201
sI01
F0.0
ss(i__main__
State
p4079
(dp4080
g3
F-8.0
sg4
F8.0
sg5
F8.0
sg6
F-6.0
sb(dp4081
I00
F32.825503259974724
sI01
F0.0
ss(i__main__
State
p4082
(dp4083
g3
F-3.0
sg4
F10.0
sg5
F3.0
sg6
F4.0
sb(dp4084
I00
F33.827152
sI01
F0.0
ss(i__main__
State
p4085
(dp4086
g3
F-1.0
sg4
F10.0
sg5
F1.0
sg6
F8.0
sb(dp4087
I00
F0.0
sI01
F27.818750970000007
ss(i__main__
State
p4088
(dp4089
g3
F2.0
sg4
F8.0
sg5
F-2.0
sg6
F-4.0
sb(dp4090
I00
F10.39639999999999
sI01
F0.0
ss(i__main__
State
p4091
(dp4092
g3
F1.0
sg4
F6.0
sg5
F-1.0
sg6
F-2.0
sb(dp4093
I00
F68.7810833191382
sI01
F71.26520420224429
ss(i__main__
State
p4094
(dp4095
g3
F-6.0
sg4
F3.0
sg5
F6.0
sg6
F-6.0
sb(dp4096
I00
F30.53497618527531
sI01
I-14
ss(i__main__
State
p4097
(dp4098
g3
F-3.0
sg4
F5.0
sg5
F3.0
sg6
F-2.0
sb(dp4099
I00
I-77
sI01
F29.724180970000003
ss(i__main__
State
p4100
(dp4101
g3
F8.0
sg4
F2.0
sg5
F-8.0
sg6
F-6.0
sb(dp4102
I00
F72.27031825305279
sI01
F-23.987116166006253
ss(i__main__
State
p4103
(dp4104
g3
F-5.0
sg4
F10.0
sg5
F5.0
sg6
F-8.0
sb(dp4105
I00
F88.53656659467077
sI01
F0.0
ss(i__main__
State
p4106
(dp4107
g3
F-8.0
sg4
F2.0
sg5
F8.0
sg6
F-8.0
sb(dp4108
I00
F49.51031822047685
sI01
I-40
ss(i__main__
State
p4109
(dp4110
g3
F2.0
sg4
F5.0
sg5
F-2.0
sg6
F-2.0
sb(dp4111
I00
I-13
sI01
F60.05260004
ss(i__main__
State
p4112
(dp4113
g3
F-3.0
sg4
F0.0
sg5
F3.0
sg6
F4.0
sb(dp4114
I00
I-85
sI01
F24.78084
ss(i__main__
State
p4115
(dp4116
g3
F0.0
sg4
F0.0
sg5
F0.0
sg6
F4.0
sb(dp4117
I00
F-82.0
sI01
F59.54273989653268
ss(i__main__
State
p4118
(dp4119
g3
F-1.0
sg4
F3.0
sg5
F1.0
sg6
F8.0
sb(dp4120
I00
F-15.437400000000002
sI01
F-82.5
ss(i__main__
State
p4121
(dp4122
g3
F-5.0
sg4
F5.0
sg5
F5.0
sg6
F-6.0
sb(dp4123
I00
F-1.984714245757224
sI01
I-4
ss(i__main__
State
p4124
(dp4125
g3
F-6.0
sg4
F2.0
sg5
F6.0
sg6
F-6.0
sb(dp4126
I00
I95
sI01
F-63.522298293957974
ss(i__main__
State
p4127
(dp4128
g3
F3.0
sg4
F1.0
sg5
F-3.0
sg6
F-6.0
sb(dp4129
I00
F82.6878024231185
sI01
I-44
ss(i__main__
State
p4130
(dp4131
g3
F-3.0
sg4
F6.0
sg5
F3.0
sg6
F0.0
sb(dp4132
I00
F64.19032744733934
sI01
F48.7325768
ss(i__main__
State
p4133
(dp4134
g3
F1.0
sg4
F10.0
sg5
F-1.0
sg6
F4.0
sb(dp4135
I00
F-319.444986726
sI01
F83.8188932540712
ss(i__main__
State
p4136
(dp4137
g3
F1.0
sg4
F10.0
sg5
F-1.0
sg6
F-6.0
sb(dp4138
I00
F-162.233
sI01
F79.2382998
ss(i__main__
State
p4139
(dp4140
g3
F5.0
sg4
F0.0
sg5
F-5.0
sg6
F0.0
sb(dp4141
I00
F32.1852313
sI01
F-8.899999999999999
ss(i__main__
State
p4142
(dp4143
g3
F-4.0
sg4
F2.0
sg5
F4.0
sg6
F-6.0
sb(dp4144
I00
F-42.816
sI01
F49.190320296
ss(i__main__
State
p4145
(dp4146
g3
F-8.0
sg4
F6.0
sg5
F8.0
sg6
F-8.0
sb(dp4147
I00
F-21.496340000000004
sI01
I-91
ss(i__main__
State
p4148
(dp4149
g3
F0.0
sg4
F0.0
sg5
F0.0
sg6
F-4.0
sb(dp4150
I00
F-15.8236879
sI01
F56.3452418
ss(i__main__
State
p4151
(dp4152
g3
F-4.0
sg4
F1.0
sg5
F4.0
sg6
F4.0
sb(dp4153
I00
F-24.911399999999997
sI01
F42.609002000000004
ss(i__main__
State
p4154
(dp4155
g3
F-5.0
sg4
F7.0
sg5
F5.0
sg6
F8.0
sb(dp4156
I00
F-11.240644368417998
sI01
F-64.8
ss(i__main__
State
p4157
(dp4158
g3
F2.0
sg4
F5.0
sg5
F-2.0
sg6
F0.0
sb(dp4159
I00
F5.885051883999999
sI01
F-43.8
ss(i__main__
State
p4160
(dp4161
g3
F3.0
sg4
F2.0
sg5
F-3.0
sg6
F-6.0
sb(dp4162
I00
F27.0353723093883
sI01
F-36.424
ss(i__main__
State
p4163
(dp4164
g3
F8.0
sg4
F2.0
sg5
F-8.0
sg6
F2.0
sb(dp4165
I00
I-85
sI01
F57.849529999999994
ss(i__main__
State
p4166
(dp4167
g3
F2.0
sg4
F2.0
sg5
F-2.0
sg6
F-6.0
sb(dp4168
I00
I-91
sI01
F65.2033196885
ss(i__main__
State
p4169
(dp4170
g3
F6.0
sg4
F6.0
sg5
F-6.0
sg6
F-8.0
sb(dp4171
I00
I-66
sI01
F79.83550000000001
ss(i__main__
State
p4172
(dp4173
g3
F7.0
sg4
F6.0
sg5
F-7.0
sg6
F6.0
sb(dp4174
I00
I32
sI01
F86.20215939667297
ss(i__main__
State
p4175
(dp4176
g3
F-1.0
sg4
F8.0
sg5
F1.0
sg6
F4.0
sb(dp4177
I00
F60.873469
sI01
F0.0
ss(i__main__
State
p4178
(dp4179
g3
F-2.0
sg4
F8.0
sg5
F2.0
sg6
F0.0
sb(dp4180
I00
F21.0
sI01
F0.0
ss(i__main__
State
p4181
(dp4182
g3
F1.0
sg4
F6.0
sg5
F-1.0
sg6
F0.0
sb(dp4183
I00
F77.7802784
sI01
F-30.677999999999997
ss(i__main__
State
p4184
(dp4185
g3
F2.0
sg4
F4.0
sg5
F-2.0
sg6
F4.0
sb(dp4186
I00
I-15
sI01
F-18.0
ss(i__main__
State
p4187
(dp4188
g3
F-8.0
sg4
F8.0
sg5
F8.0
sg6
F6.0
sb(dp4189
I00
F128.72004264180595
sI01
F22.080000000000005
ss(i__main__
State
p4190
(dp4191
g3
F-1.0
sg4
F4.0
sg5
F1.0
sg6
F-2.0
sb(dp4192
I00
I-37
sI01
F24.9099
ss(i__main__
State
p4193
(dp4194
g3
F-5.0
sg4
F2.0
sg5
F5.0
sg6
F-2.0
sb(dp4195
I00
F20.51803
sI01
F36.722431737522555
ss(i__main__
State
p4196
(dp4197
g3
F0.0
sg4
F7.0
sg5
F0.0
sg6
F8.0
sb(dp4198
I00
F-3.5999999999999996
sI01
F58.003353874529125
ss(i__main__
State
p4199
(dp4200
g3
F2.0
sg4
F8.0
sg5
F-2.0
sg6
F-6.0
sb(dp4201
I00
F0.0
sI01
F98.88661733937002
ss(i__main__
State
p4202
(dp4203
g3
F-8.0
sg4
F2.0
sg5
F8.0
sg6
F-6.0
sb(dp4204
I00
F10.232
sI01
F1.7054462000000008
ss(i__main__
State
p4205
(dp4206
g3
F-4.0
sg4
F6.0
sg5
F4.0
sg6
F-8.0
sb(dp4207
I00
I-84
sI01
F13.2400192
ss(i__main__
State
p4208
(dp4209
g3
F-1.0
sg4
F1.0
sg5
F1.0
sg6
F4.0
sb(dp4210
I00
I-29
sI01
F61.892714660864875
ss(i__main__
State
p4211
(dp4212
g3
F-5.0
sg4
F0.0
sg5
F5.0
sg6
F-2.0
sb(dp4213
I00
F7.35411
sI01
I-48
ss(i__main__
State
p4214
(dp4215
g3
F-7.0
sg4
F8.0
sg5
F7.0
sg6
F-8.0
sb(dp4216
I00
F11.100000000000001
sI01
F82.35114000000002
ss(i__main__
State
p4217
(dp4218
g3
F-2.0
sg4
F7.0
sg5
F2.0
sg6
F2.0
sb(dp4219
I00
F-4.164
sI01
F83.2618958222
ss(i__main__
State
p4220
(dp4221
g3
F-2.0
sg4
F10.0
sg5
F2.0
sg6
F-4.0
sb(dp4222
I00
F22.810367712
sI01
F0.0
ss(i__main__
State
p4223
(dp4224
g3
F4.0
sg4
F9.0
sg5
F-4.0
sg6
F-6.0
sb(dp4225
I00
F194.9250684119825
sI01
F18.158895787086188
ss(i__main__
State
p4226
(dp4227
g3
F-4.0
sg4
F8.0
sg5
F4.0
sg6
F4.0
sb(dp4228
I00
F0.0
sI01
F43.618973745110004
ss(i__main__
State
p4229
(dp4230
g3
F-3.0
sg4
F3.0
sg5
F3.0
sg6
F-4.0
sb(dp4231
I00
I-17
sI01
F25.71862774264751
ss(i__main__
State
p4232
(dp4233
g3
F-7.0
sg4
F4.0
sg5
F7.0
sg6
F6.0
sb(dp4234
I00
F7.82
sI01
F92.93886
ss(i__main__
State
p4235
(dp4236
g3
F8.0
sg4
F9.0
sg5
F-8.0
sg6
F-8.0
sb(dp4237
I00
F141.9950720055753
sI01
F36.780278784900005
ss(i__main__
State
p4238
(dp4239
g3
F7.0
sg4
F1.0
sg5
F-7.0
sg6
F-4.0
sb(dp4240
I00
F45.97103
sI01
F52.7921232510321
ss(i__main__
State
p4241
(dp4242
g3
F-4.0
sg4
F7.0
sg5
F4.0
sg6
F-8.0
sb(dp4243
I00
I-85
sI01
F49.18
ss(i__main__
State
p4244
(dp4245
g3
F2.0
sg4
F3.0
sg5
F-2.0
sg6
F-4.0
sb(dp4246
I00
F44.884
sI01
I-99
ss(i__main__
State
p4247
(dp4248
g3
F-8.0
sg4
F6.0
sg5
F8.0
sg6
F-6.0
sb(dp4249
I00
F-7.757
sI01
I-58
ss(i__main__
State
p4250
(dp4251
g3
F7.0
sg4
F10.0
sg5
F-7.0
sg6
F8.0
sb(dp4252
I00
F118.08564471069555
sI01
F11.100000000000001
ss(i__main__
State
p4253
(dp4254
g3
F-4.0
sg4
F7.0
sg5
F4.0
sg6
F2.0
sb(dp4255
I00
F40.161772128558916
sI01
I5
ss(i__main__
State
p4256
(dp4257
g3
F-4.0
sg4
F10.0
sg5
F4.0
sg6
F-4.0
sb(dp4258
I00
F54.24641536583602
sI01
F18.45048
ss(i__main__
State
p4259
(dp4260
g3
F8.0
sg4
F8.0
sg5
F-8.0
sg6
F-8.0
sb(dp4261
I00
F20.1
sI01
F22.11209629382931
ss(i__main__
State
p4262
(dp4263
g3
F6.0
sg4
F7.0
sg5
F-6.0
sg6
F8.0
sb(dp4264
I00
I-30
sI01
F38.66760149610623
ss(i__main__
State
p4265
(dp4266
g3
F1.0
sg4
F1.0
sg5
F-1.0
sg6
F8.0
sb(dp4267
I00
F-44.4
sI01
F28.514905409499995
ss(i__main__
State
p4268
(dp4269
g3
F7.0
sg4
F7.0
sg5
F-7.0
sg6
F6.0
sb(dp4270
I00
F68.6
sI01
F77.8855105
ss(i__main__
State
p4271
(dp4272
g3
F4.0
sg4
F5.0
sg5
F-4.0
sg6
F-8.0
sb(dp4273
I00
F-78.0
sI01
F-35.12933934200001
ss(i__main__
State
p4274
(dp4275
g3
F-6.0
sg4
F4.0
sg5
F6.0
sg6
F-6.0
sb(dp4276
I00
F5.204210677
sI01
F-80.8
ss(i__main__
State
p4277
(dp4278
g3
F4.0
sg4
F1.0
sg5
F-4.0
sg6
F8.0
sb(dp4279
I00
F-56.373678
sI01
F-1.0791135237932516
ss(i__main__
State
p4280
(dp4281
g3
F1.0
sg4
F4.0
sg5
F-1.0
sg6
F4.0
sb(dp4282
I00
I-40
sI01
F8.270382000000001
ss(i__main__
State
p4283
(dp4284
g3
F-3.0
sg4
F9.0
sg5
F3.0
sg6
F4.0
sb(dp4285
I00
F58.145178
sI01
F22.0516
ss(i__main__
State
p4286
(dp4287
g3
F-6.0
sg4
F6.0
sg5
F6.0
sg6
F6.0
sb(dp4288
I00
F11.315190000000001
sI01
I-36
ss(i__main__
State
p4289
(dp4290
g3
F-8.0
sg4
F1.0
sg5
F8.0
sg6
F2.0
sb(dp4291
I00
F47.81298757
sI01
F-1.3543200999999971
ss(i__main__
State
p4292
(dp4293
g3
F-4.0
sg4
F4.0
sg5
F4.0
sg6
F8.0
sb(dp4294
I00
I0
sI01
F80.21547000000001
ss(i__main__
State
p4295
(dp4296
g3
F-5.0
sg4
F3.0
sg5
F5.0
sg6
F8.0
sb(dp4297
I00
F6.749469100000001
sI01
F70.50313467901
ss(i__main__
State
p4298
(dp4299
g3
F5.0
sg4
F10.0
sg5
F-5.0
sg6
F4.0
sb(dp4300
I00
F83.9021062709
sI01
F0.0
ss(i__main__
State
p4301
(dp4302
g3
F-1.0
sg4
F6.0
sg5
F1.0
sg6
F-6.0
sb(dp4303
I00
F11.2
sI01
I2
ss(i__main__
State
p4304
(dp4305
g3
F-8.0
sg4
F8.0
sg5
F8.0
sg6
F4.0
sb(dp4306
I00
F10.0
sI01
F0.0
ss(i__main__
State
p4307
(dp4308
g3
F-7.0
sg4
F7.0
sg5
F7.0
sg6
F2.0
sb(dp4309
I00
F-29.70263605429588
sI01
I-87
ss(i__main__
State
p4310
(dp4311
g3
F-4.0
sg4
F9.0
sg5
F4.0
sg6
F4.0
sb(dp4312
I00
F0.0
sI01
F37.260627099782
ss(i__main__
State
p4313
(dp4314
g3
F-7.0
sg4
F1.0
sg5
F7.0
sg6
F8.0
sb(dp4315
I00
F2.8385153782711514
sI01
F-36.71
ss(i__main__
State
p4316
(dp4317
g3
F7.0
sg4
F10.0
sg5
F-7.0
sg6
F-8.0
sb(dp4318
I00
F43.69533
sI01
F0.0
ss(i__main__
State
p4319
(dp4320
g3
F-6.0
sg4
F2.0
sg5
F6.0
sg6
F-4.0
sb(dp4321
I00
I-68
sI01
F-36.33134999999999
ss(i__main__
State
p4322
(dp4323
g3
F-3.0
sg4
F6.0
sg5
F3.0
sg6
F-2.0
sb(dp4324
I00
I-90
sI01
F-66.26427
ss(i__main__
State
p4325
(dp4326
g3
F-2.0
sg4
F0.0
sg5
F2.0
sg6
F2.0
sb(dp4327
I00
F-32.151759999999996
sI01
F13.671078411223
ss(i__main__
State
p4328
(dp4329
g3
F7.0
sg4
F1.0
sg5
F-7.0
sg6
F8.0
sb(dp4330
I00
I-72
sI01
F-55.084706040118895
ss(i__main__
State
p4331
(dp4332
g3
F-2.0
sg4
F1.0
sg5
F2.0
sg6
F6.0
sb(dp4333
I00
F-47.63399999999999
sI01
F68.57617642593819
ss(i__main__
State
p4334
(dp4335
g3
F3.0
sg4
F2.0
sg5
F-3.0
sg6
F8.0
sb(dp4336
I00
F-44.146908853199996
sI01
F78.116268570705
ss(i__main__
State
p4337
(dp4338
g3
F5.0
sg4
F9.0
sg5
F-5.0
sg6
F0.0
sb(dp4339
I00
F-1000.0
sI01
F0.0
ss(i__main__
State
p4340
(dp4341
g3
F-3.0
sg4
F5.0
sg5
F3.0
sg6
F8.0
sb(dp4342
I00
F8.5
sI01
F17.260075000000004
ss(i__main__
State
p4343
(dp4344
g3
F-1.0
sg4
F10.0
sg5
F1.0
sg6
F-2.0
sb(dp4345
I00
F44.440088258100005
sI01
F0.0
ss(i__main__
State
p4346
(dp4347
g3
F4.0
sg4
F2.0
sg5
F-4.0
sg6
F-4.0
sb(dp4348
I00
F86.7
sI01
I82
ss(i__main__
State
p4349
(dp4350
g3
F6.0
sg4
F3.0
sg5
F-6.0
sg6
F6.0
sb(dp4351
I00
F52.29651821743
sI01
I-14
ss(i__main__
State
p4352
(dp4353
g3
F-4.0
sg4
F0.0
sg5
F4.0
sg6
F2.0
sb(dp4354
I00
F-8.5
sI01
F-81.142
ss(i__main__
State
p4355
(dp4356
g3
F-4.0
sg4
F1.0
sg5
F4.0
sg6
F-2.0
sb(dp4357
I00
I-38
sI01
F53.4
ss(i__main__
State
p4358
(dp4359
g3
F-2.0
sg4
F2.0
sg5
F2.0
sg6
F-2.0
sb(dp4360
I00
I5
sI01
F75.82979
ss(i__main__
State
p4361
(dp4362
g3
F3.0
sg4
F6.0
sg5
F-3.0
sg6
F-6.0
sb(dp4363
I00
F-5.083175348000001
sI01
I-46
ss(i__main__
State
p4364
(dp4365
g3
F0.0
sg4
F8.0
sg5
F0.0
sg6
F8.0
sb(dp4366
I00
F-1898.0
sI01
F-1896.12144804
ss(i__main__
State
p4367
(dp4368
g3
F8.0
sg4
F9.0
sg5
F-8.0
sg6
F8.0
sb(dp4369
I00
F43.565100779000005
sI01
F11.100000000000001
ss(i__main__
State
p4370
(dp4371
g3
F3.0
sg4
F5.0
sg5
F-3.0
sg6
F6.0
sb(dp4372
I00
I-23
sI01
F61.2
ss(i__main__
State
p4373
(dp4374
g3
F-6.0
sg4
F7.0
sg5
F6.0
sg6
F-8.0
sb(dp4375
I00
F-28.716397
sI01
F3.013550900000004
ss(i__main__
State
p4376
(dp4377
g3
F2.0
sg4
F6.0
sg5
F-2.0
sg6
F-6.0
sb(dp4378
I00
F4.346283678800004
sI01
F-61.56183888956001
ss(i__main__
State
p4379
(dp4380
g3
F1.0
sg4
F2.0
sg5
F-1.0
sg6
F8.0
sb(dp4381
I00
F-41.9517745
sI01
F71.6
ss(i__main__
State
p4382
(dp4383
g3
F-7.0
sg4
F9.0
sg5
F7.0
sg6
F-8.0
sb(dp4384
I00
F0.0
sI01
F22.094054
ss(i__main__
State
p4385
(dp4386
g3
F2.0
sg4
F3.0
sg5
F-2.0
sg6
F4.0
sb(dp4387
I00
F-40.67084553459981
sI01
F33.21467199213984
ss(i__main__
State
p4388
(dp4389
g3
F1.0
sg4
F9.0
sg5
F-1.0
sg6
F6.0
sb(dp4390
I00
F66.64978485758
sI01
F-72.74000000000001
ss(i__main__
State
p4391
(dp4392
g3
F-6.0
sg4
F8.0
sg5
F6.0
sg6
F2.0
sb(dp4393
I00
F50.898559025
sI01
F20.1
ss(i__main__
State
p4394
(dp4395
g3
F3.0
sg4
F0.0
sg5
F-3.0
sg6
F-6.0
sb(dp4396
I00
I-100
sI01
F12.035760927020688
ss(i__main__
State
p4397
(dp4398
g3
F7.0
sg4
F2.0
sg5
F-7.0
sg6
F6.0
sb(dp4399
I00
F-18.590404
sI01
I-97
ss(i__main__
State
p4400
(dp4401
g3
F-3.0
sg4
F10.0
sg5
F3.0
sg6
F-2.0
sb(dp4402
I00
F85.86731643880528
sI01
F0.0
ss(i__main__
State
p4403
(dp4404
g3
F8.0
sg4
F5.0
sg5
F-8.0
sg6
F4.0
sb(dp4405
I00
F1.9086819169999962
sI01
F-62.07297885
ss(i__main__
State
p4406
(dp4407
g3
F-5.0
sg4
F1.0
sg5
F5.0
sg6
F-2.0
sb(dp4408
I00
I-53
sI01
F54.6919
ss(i__main__
State
p4409
(dp4410
g3
F-3.0
sg4
F4.0
sg5
F3.0
sg6
F-2.0
sb(dp4411
I00
I25
sI01
F69.16300000000001
ss(i__main__
State
p4412
(dp4413
g3
F-2.0
sg4
F3.0
sg5
F2.0
sg6
F-2.0
sb(dp4414
I00
F-10.177
sI01
I21
ss(i__main__
State
p4415
(dp4416
g3
F-4.0
sg4
F3.0
sg5
F4.0
sg6
F-2.0
sb(dp4417
I00
F26.1
sI01
I-1
ss(i__main__
State
p4418
(dp4419
g3
F-6.0
sg4
F3.0
sg5
F6.0
sg6
F0.0
sb(dp4420
I00
F51.44553051084652
sI01
F44.32881524491981
ss(i__main__
State
p4421
(dp4422
g3
F2.0
sg4
F10.0
sg5
F-2.0
sg6
F-2.0
sb(dp4423
I00
F155.2144510360848
sI01
F30.211779406938355
ss(i__main__
State
p4424
(dp4425
g3
F-1.0
sg4
F0.0
sg5
F1.0
sg6
F0.0
sb(dp4426
I00
F11.674116399142001
sI01
I-69
ss(i__main__
State
p4427
(dp4428
g3
F6.0
sg4
F5.0
sg5
F-6.0
sg6
F-6.0
sb(dp4429
I00
F68.63836842671002
sI01
F-87.03
ss(i__main__
State
p4430
(dp4431
g3
F5.0
sg4
F4.0
sg5
F-5.0
sg6
F4.0
sb(dp4432
I00
F-53.330760000000005
sI01
I-98
ss(i__main__
State
p4433
(dp4434
g3
F-8.0
sg4
F7.0
sg5
F8.0
sg6
F-2.0
sb(dp4435
I00
F-22.7
sI01
F-0.5583882799999982
ss(i__main__
State
p4436
(dp4437
g3
F0.0
sg4
F7.0
sg5
F0.0
sg6
F-8.0
sb(dp4438
I00
F-47.89354
sI01
F124.9801864467161
ss(i__main__
State
p4439
(dp4440
g3
F7.0
sg4
F6.0
sg5
F-7.0
sg6
F4.0
sb(dp4441
I00
F65.26
sI01
F-46.5
ss(i__main__
State
p4442
(dp4443
g3
F6.0
sg4
F10.0
sg5
F-6.0
sg6
F6.0
sb(dp4444
I00
F26.333600000000004
sI01
F107.81384736585346
ss(i__main__
State
p4445
(dp4446
g3
F-6.0
sg4
F7.0
sg5
F6.0
sg6
F0.0
sb(dp4447
I00
F32.569013330672774
sI01
I-28
ss(i__main__
State
p4448
(dp4449
g3
F-4.0
sg4
F8.0
sg5
F4.0
sg6
F8.0
sb(dp4450
I00
F162.73270474873618
sI01
F20.952901609003632
ss(i__main__
State
p4451
(dp4452
g3
F8.0
sg4
F9.0
sg5
F-8.0
sg6
F-4.0
sb(dp4453
I00
F59.04335999999999
sI01
F0.0
ss(i__main__
State
p4454
(dp4455
g3
F7.0
sg4
F3.0
sg5
F-7.0
sg6
F-4.0
sb(dp4456
I00
F10.328838339937484
sI01
F-60.78140040000001
ss(i__main__
State
p4457
(dp4458
g3
F2.0
sg4
F9.0
sg5
F-2.0
sg6
F2.0
sb(dp4459
I00
F78.636688147693
sI01
F0.0
ss(i__main__
State
p4460
(dp4461
g3
F5.0
sg4
F6.0
sg5
F-5.0
sg6
F8.0
sb(dp4462
I00
F-40.872
sI01
F-51.4
ss(i__main__
State
p4463
(dp4464
g3
F4.0
sg4
F10.0
sg5
F-4.0
sg6
F6.0
sb(dp4465
I00
F91.0635033511
sI01
F49.929
ss(i__main__
State
p4466
(dp4467
g3
F7.0
sg4
F8.0
sg5
F-7.0
sg6
F4.0
sb(dp4468
I00
F0.0
sI01
F24.035299000000002
ss(i__main__
State
p4469
(dp4470
g3
F6.0
sg4
F2.0
sg5
F-6.0
sg6
F-2.0
sb(dp4471
I00
I33
sI01
F46.17014692320094
ss(i__main__
State
p4472
(dp4473
g3
F2.0
sg4
F8.0
sg5
F-2.0
sg6
F2.0
sb(dp4474
I00
F137.7181302165149
sI01
F15.251308445600001
ss(i__main__
State
p4475
(dp4476
g3
F-3.0
sg4
F1.0
sg5
F3.0
sg6
F0.0
sb(dp4477
I00
F78.236
sI01
F81.7643882
ss(i__main__
State
p4478
(dp4479
g3
F0.0
sg4
F1.0
sg5
F0.0
sg6
F0.0
sb(dp4480
I00
I-20
sI01
F49.34035995867233
ss(i__main__
State
p4481
(dp4482
g3
F-4.0
sg4
F8.0
sg5
F4.0
sg6
F-4.0
sb(dp4483
I00
F20.0
sI01
F0.0
ss(i__main__
State
p4484
(dp4485
g3
F-8.0
sg4
F5.0
sg5
F8.0
sg6
F0.0
sb(dp4486
I00
F51.6391511
sI01
F54.32911698836164
ss(i__main__
State
p4487
(dp4488
g3
F1.0
sg4
F3.0
sg5
F-1.0
sg6
F-4.0
sb(dp4489
I00
F46.5
sI01
F44.712207535
ss(i__main__
State
p4490
(dp4491
g3
F-8.0
sg4
F0.0
sg5
F8.0
sg6
F8.0
sb(dp4492
I00
F-33.937807799398165
sI01
F-84.5
ss(i__main__
State
p4493
(dp4494
g3
F0.0
sg4
F5.0
sg5
F0.0
sg6
F-8.0
sb(dp4495
I00
F41.71
sI01
F-50.8
ss(i__main__
State
p4496
(dp4497
g3
F7.0
sg4
F9.0
sg5
F-7.0
sg6
F-6.0
sb(dp4498
I00
F128.76938265396035
sI01
F30.0
ss(i__main__
State
p4499
(dp4500
g3
F-3.0
sg4
F8.0
sg5
F3.0
sg6
F-4.0
sb(dp4501
I00
F21.0
sI01
F0.0
ss(i__main__
State
p4502
(dp4503
g3
F-1.0
sg4
F7.0
sg5
F1.0
sg6
F4.0
sb(dp4504
I00
F56.624
sI01
I-37
ss(i__main__
State
p4505
(dp4506
g3
F7.0
sg4
F1.0
sg5
F-7.0
sg6
F4.0
sb(dp4507
I00
I-73
sI01
F45.06
ss(i__main__
State
p4508
(dp4509
g3
F-8.0
sg4
F0.0
sg5
F8.0
sg6
F-8.0
sb(dp4510
I00
F75.8159512183951
sI01
F32.50105943372455
ss(i__main__
State
p4511
(dp4512
g3
F4.0
sg4
F1.0
sg5
F-4.0
sg6
F-4.0
sb(dp4513
I00
F60.50664000378
sI01
I-11
ss(i__main__
State
p4514
(dp4515
g3
F-6.0
sg4
F0.0
sg5
F6.0
sg6
F-2.0
sb(dp4516
I00
F60.7275850531
sI01
F47.900568793000005
ss(i__main__
State
p4517
(dp4518
g3
F-2.0
sg4
F8.0
sg5
F2.0
sg6
F-4.0
sb(dp4519
I00
F20.9
sI01
F24.999517567897456
ss(i__main__
State
p4520
(dp4521
g3
F5.0
sg4
F10.0
sg5
F-5.0
sg6
F-8.0
sb(dp4522
I00
F69.23775311634
sI01
F19.0
ss(i__main__
State
p4523
(dp4524
g3
F6.0
sg4
F2.0
sg5
F-6.0
sg6
F0.0
sb(dp4525
I00
F48.648893360143134
sI01
I-17
ss(i__main__
State
p4526
(dp4527
g3
F-6.0
sg4
F2.0
sg5
F6.0
sg6
F8.0
sb(dp4528
I00
F46.01866
sI01
I-49
ss(i__main__
State
p4529
(dp4530
g3
F6.0
sg4
F3.0
sg5
F-6.0
sg6
F2.0
sb(dp4531
I00
I51
sI01
F45.4351
ss(i__main__
State
p4532
(dp4533
g3
F-6.0
sg4
F10.0
sg5
F6.0
sg6
F0.0
sb(dp4534
I00
F195.8489826470063
sI01
F57.50739251000001
ss(i__main__
State
p4535
(dp4536
g3
F-6.0
sg4
F7.0
sg5
F6.0
sg6
F-4.0
sb(dp4537
I00
F-72.1
sI01
F37.69706300000001
ss(i__main__
State
p4538
(dp4539
g3
F-7.0
sg4
F9.0
sg5
F7.0
sg6
F0.0
sb(dp4540
I00
F-1899.0
sI01
F-1897.99
ss(i__main__
State
p4541
(dp4542
g3
F3.0
sg4
F10.0
sg5
F-3.0
sg6
F-6.0
sb(dp4543
I00
F11.0
sI01
F0.0
ss(i__main__
State
p4544
(dp4545
g3
F5.0
sg4
F2.0
sg5
F-5.0
sg6
F6.0
sb(dp4546
I00
I-86
sI01
F44.21712788931123
ss(i__main__
State
p4547
(dp4548
g3
F5.0
sg4
F0.0
sg5
F-5.0
sg6
F-2.0
sb(dp4549
I00
I-48
sI01
F-2.2441505962568806
ss(i__main__
State
p4550
(dp4551
g3
F-5.0
sg4
F6.0
sg5
F5.0
sg6
F6.0
sb(dp4552
I00
F46.727158651335486
sI01
I-26
ss(i__main__
State
p4553
(dp4554
g3
F5.0
sg4
F3.0
sg5
F-5.0
sg6
F6.0
sb(dp4555
I00
F-42.614203376952226
sI01
I-64
ss(i__main__
State
p4556
(dp4557
g3
F-3.0
sg4
F7.0
sg5
F3.0
sg6
F6.0
sb(dp4558
I00
I-87
sI01
F70.6001
ss(i__main__
State
p4559
(dp4560
g3
F-4.0
sg4
F2.0
sg5
F4.0
sg6
F2.0
sb(dp4561
I00
F-32.8053
sI01
F51.61429548
ss(i__main__
State
p4562
(dp4563
g3
F0.0
sg4
F3.0
sg5
F0.0
sg6
F4.0
sb(dp4564
I00
F-55.223685
sI01
F56.2
ss(i__main__
State
p4565
(dp4566
g3
F6.0
sg4
F7.0
sg5
F-6.0
sg6
F2.0
sb(dp4567
I00
I3
sI01
F58.3628
ss(i__main__
State
p4568
(dp4569
g3
F1.0
sg4
F1.0
sg5
F-1.0
sg6
F2.0
sb(dp4570
I00
F39.4
sI01
F59.00791860966275
ss(i__main__
State
p4571
(dp4572
g3
F-5.0
sg4
F9.0
sg5
F5.0
sg6
F4.0
sb(dp4573
I00
F25.0902649939
sI01
F52.16924405134
ss(i__main__
State
p4574
(dp4575
g3
F-8.0
sg4
F5.0
sg5
F8.0
sg6
F2.0
sb(dp4576
I00
F33.594717470499994
sI01
I-74
ss(i__main__
State
p4577
(dp4578
g3
F-1.0
sg4
F1.0
sg5
F1.0
sg6
F-8.0
sb(dp4579
I00
I-72
sI01
F-11.251699242335999
ss(i__main__
State
p4580
(dp4581
g3
F-2.0
sg4
F9.0
sg5
F2.0
sg6
F0.0
sb(dp4582
I00
F-3434.39
sI01
F-2703.18621669
ss(i__main__
State
p4583
(dp4584
g3
F1.0
sg4
F4.0
sg5
F-1.0
sg6
F2.0
sb(dp4585
I00
F34.2
sI01
F66.9
ss(i__main__
State
p4586
(dp4587
g3
F2.0
sg4
F10.0
sg5
F-2.0
sg6
F0.0
sb(dp4588
I00
F20.57
sI01
F104.30800698830053
ss(i__main__
State
p4589
(dp4590
g3
F1.0
sg4
F3.0
sg5
F-1.0
sg6
F-2.0
sb(dp4591
I00
F74.86
sI01
F80.9
ss(i__main__
State
p4592
(dp4593
g3
F-6.0
sg4
F3.0
sg5
F6.0
sg6
F-4.0
sb(dp4594
I00
F23.200378000000004
sI01
F21.297067878
ss(i__main__
State
p4595
(dp4596
g3
F-6.0
sg4
F6.0
sg5
F6.0
sg6
F-2.0
sb(dp4597
I00
F54.0971310445904
sI01
I-54
ss.