(dp0
(i__main__
State
p1
(dp2
S'y1'
p3
F8.0
sS'x'
p4
F3.0
sS'y3'
p5
F-3.0
sS'y2'
p6
F-6.0
sb(dp7
I00
F55.12698934072844
sI01
F-15.771988261672071
ss(i__main__
State
p8
(dp9
g3
F4.0
sg4
F7.0
sg5
F-7.0
sg6
F7.0
sb(dp10
I00
F85.77272162967868
sI01
F344.6110971607606
ss(i__main__
State
p11
(dp12
g3
F-7.0
sg4
F5.0
sg5
F-1.0
sg6
F-4.0
sb(dp13
I00
F75.41451703281795
sI01
F-28.1632521
ss(i__main__
State
p14
(dp15
g3
F-5.0
sg4
F2.0
sg5
F1.0
sg6
F-2.0
sb(dp16
I00
F-3.684444240662885
sI01
F66.54999143374702
ss(i__main__
State
p17
(dp18
g3
F7.0
sg4
F6.0
sg5
F-4.0
sg6
F-7.0
sb(dp19
I00
F26.395057874283495
sI01
F-38.95408974922883
ss(i__main__
State
p20
(dp21
g3
F0.0
sg4
F7.0
sg5
F6.0
sg6
F3.0
sb(dp22
I00
F229.2930253248889
sI01
F440.435252441256
ss(i__main__
State
p23
(dp24
g3
F-1.0
sg4
F3.0
sg5
F5.0
sg6
F2.0
sb(dp25
I00
F90.49746007194756
sI01
F384.5497801185673
ss(i__main__
State
p26
(dp27
g3
F1.0
sg4
F4.0
sg5
F7.0
sg6
F4.0
sb(dp28
I00
F179.90599892618093
sI01
F96.23652466736573
ss(i__main__
State
p29
(dp30
g3
F-1.0
sg4
F7.0
sg5
F5.0
sg6
F2.0
sb(dp31
I00
F160.8161332209334
sI01
F-2397.513251207977
ss(i__main__
State
p32
(dp33
g3
F2.0
sg4
F7.0
sg5
F8.0
sg6
F5.0
sb(dp34
I00
F249.03936151338843
sI01
F52.74490236451571
ss(i__main__
State
p35
(dp36
g3
F-6.0
sg4
F5.0
sg5
F0.0
sg6
F-3.0
sb(dp37
I00
F97.50047963733849
sI01
F28.045727251024392
ss(i__main__
State
p38
(dp39
g3
F-2.0
sg4
F8.0
sg5
F4.0
sg6
F1.0
sb(dp40
I00
F107.27173112774113
sI01
F8.165095944752805
ss(i__main__
State
p41
(dp42
g3
F6.0
sg4
F0.0
sg5
F-5.0
sg6
F-8.0
sb(dp43
I00
F48.15821805512918
sI01
F24.762123422572035
ss(i__main__
State
p44
(dp45
g3
F0.0
sg4
F1.0
sg5
F6.0
sg6
F3.0
sb(dp46
I00
F20.53752898544202
sI01
F-42.654992850062115
ss(i__main__
State
p47
(dp48
g3
F-4.0
sg4
F7.0
sg5
F2.0
sg6
F-1.0
sb(dp49
I00
F82.17434654619186
sI01
F-291.08816176852037
ss(i__main__
State
p50
(dp51
g3
F-3.0
sg4
F2.0
sg5
F3.0
sg6
F0.0
sb(dp52
I00
F91.03469748725236
sI01
F310.13307715033847
ss(i__main__
State
p53
(dp54
g3
F5.0
sg4
F0.0
sg5
F-6.0
sg6
F8.0
sb(dp55
I00
F-41.35138134335559
sI01
F23.34746030417821
ss(i__main__
State
p56
(dp57
g3
F3.0
sg4
F2.0
sg5
F-8.0
sg6
F6.0
sb(dp58
I00
F27.920600626301688
sI01
F-12.40282638415301
ss(i__main__
State
p59
(dp60
g3
F3.0
sg4
F3.0
sg5
F-8.0
sg6
F6.0
sb(dp61
I00
F29.36344712999988
sI01
F-23.792388464042116
ss(i__main__
State
p62
(dp63
g3
F-5.0
sg4
F8.0
sg5
F1.0
sg6
F-2.0
sb(dp64
I00
F185.05313700527486
sI01
F45.11613087725066
ss(i__main__
State
p65
(dp66
g3
F2.0
sg4
F0.0
sg5
F8.0
sg6
F5.0
sb(dp67
I00
F-13.453606284866327
sI01
F32.52880508021332
ss(i__main__
State
p68
(dp69
g3
F4.0
sg4
F4.0
sg5
F-7.0
sg6
F7.0
sb(dp70
I00
F11.072826259966458
sI01
F1.1185095375065397
ss(i__main__
State
p71
(dp72
g3
F-2.0
sg4
F2.0
sg5
F4.0
sg6
F1.0
sb(dp73
I00
F-68.19969454464267
sI01
F222.74841529424845
ss(i__main__
State
p74
(dp75
g3
F-4.0
sg4
F2.0
sg5
F2.0
sg6
F-1.0
sb(dp76
I00
F168.76787993402397
sI01
F57.7073312181727
ss(i__main__
State
p77
(dp78
g3
F-6.0
sg4
F3.0
sg5
F0.0
sg6
F-3.0
sb(dp79
I00
F63.23403798112634
sI01
F-28.928748156016326
ss(i__main__
State
p80
(dp81
g3
F2.0
sg4
F8.0
sg5
F8.0
sg6
F5.0
sb(dp82
I00
F559.4968250302221
sI01
F76.25575893457457
ss(i__main__
State
p83
(dp84
g3
F-7.0
sg4
F3.0
sg5
F-1.0
sg6
F-4.0
sb(dp85
I00
F12.315301137837345
sI01
F89.13603268170858
ss(i__main__
State
p86
(dp87
g3
F5.0
sg4
F6.0
sg5
F-6.0
sg6
F8.0
sb(dp88
I00
F137.54610673796012
sI01
F347.6090442621549
ss(i__main__
State
p89
(dp90
g3
F8.0
sg4
F1.0
sg5
F-3.0
sg6
F-6.0
sb(dp91
I00
F-81.79567259968391
sI01
F48.337005294622855
ss(i__main__
State
p92
(dp93
g3
F-2.0
sg4
F5.0
sg5
F4.0
sg6
F1.0
sb(dp94
I00
F-2.712450571292968
sI01
F279.6596124272203
ss(i__main__
State
p95
(dp96
g3
F-5.0
sg4
F5.0
sg5
F1.0
sg6
F-2.0
sb(dp97
I00
F36.42914495683298
sI01
F113.37458608592053
ss(i__main__
State
p98
(dp99
g3
F-2.0
sg4
F1.0
sg5
F4.0
sg6
F1.0
sb(dp100
I00
F-51.43610474869478
sI01
F61.32457028312031
ss(i__main__
State
p101
(dp102
g3
F7.0
sg4
F5.0
sg5
F-4.0
sg6
F-7.0
sb(dp103
I00
F46.480372447879134
sI01
F-56.85700404150743
ss(i__main__
State
p104
(dp105
g3
F-6.0
sg4
F0.0
sg5
F0.0
sg6
F-3.0
sb(dp106
I00
F57.00729687335599
sI01
F219.20845692817102
ss(i__main__
State
p107
(dp108
g3
F3.0
sg4
F6.0
sg5
F-8.0
sg6
F6.0
sb(dp109
I00
F69.80789741346798
sI01
F159.9275530525441
ss(i__main__
State
p110
(dp111
g3
F8.0
sg4
F7.0
sg5
F-3.0
sg6
F-6.0
sb(dp112
I00
F31.9476247203795
sI01
F20.72805065143172
ss(i__main__
State
p113
(dp114
g3
F8.0
sg4
F4.0
sg5
F-3.0
sg6
F-6.0
sb(dp115
I00
F35.148052146074534
sI01
F-3.0800000960210756
ss(i__main__
State
p116
(dp117
g3
F6.0
sg4
F3.0
sg5
F-5.0
sg6
F-8.0
sb(dp118
I00
F41.54540358122156
sI01
F19.706061154315183
ss(i__main__
State
p119
(dp120
g3
F8.0
sg4
F8.0
sg5
F-3.0
sg6
F-6.0
sb(dp121
I00
F329.3005610441595
sI01
F148.14480488685186
ss(i__main__
State
p122
(dp123
g3
F7.0
sg4
F8.0
sg5
F-4.0
sg6
F-7.0
sb(dp124
I00
F403.58127618699615
sI01
F132.09492613727352
ss(i__main__
State
p125
(dp126
g3
F-7.0
sg4
F8.0
sg5
F-1.0
sg6
F-4.0
sb(dp127
I00
F-624.2203651965563
sI01
F203.35961500372014
ss(i__main__
State
p128
(dp129
g3
F-6.0
sg4
F8.0
sg5
F0.0
sg6
F-3.0
sb(dp130
I00
F-3405.5274410982393
sI01
F-3414.33735580251
ss(i__main__
State
p131
(dp132
g3
F8.0
sg4
F2.0
sg5
F-3.0
sg6
F-6.0
sb(dp133
I00
F55.16239634531541
sI01
F-48.73298400375285
ss(i__main__
State
p134
(dp135
g3
F-5.0
sg4
F3.0
sg5
F1.0
sg6
F-2.0
sb(dp136
I00
F114.95256225080776
sI01
F31.531392514256815
ss(i__main__
State
p137
(dp138
g3
F6.0
sg4
F6.0
sg5
F-5.0
sg6
F-8.0
sb(dp139
I00
F41.32519051040664
sI01
F213.16591111029288
ss(i__main__
State
p140
(dp141
g3
F-8.0
sg4
F6.0
sg5
F-2.0
sg6
F-5.0
sb(dp142
I00
F72.6069892016644
sI01
F-68.69012057181189
ss(i__main__
State
p143
(dp144
g3
F8.0
sg4
F5.0
sg5
F-3.0
sg6
F-6.0
sb(dp145
I00
F50.540204610332
sI01
F-60.00575014233
ss(i__main__
State
p146
(dp147
g3
F1.0
sg4
F3.0
sg5
F7.0
sg6
F4.0
sb(dp148
I00
F80.41132484830322
sI01
F227.63391562125233
ss(i__main__
State
p149
(dp150
g3
F1.0
sg4
F1.0
sg5
F7.0
sg6
F4.0
sb(dp151
I00
F24.479412044691486
sI01
F25.94824164315168
ss(i__main__
State
p152
(dp153
g3
F2.0
sg4
F5.0
sg5
F8.0
sg6
F5.0
sb(dp154
I00
F213.99675003918853
sI01
F-11.78228385383518
ss(i__main__
State
p155
(dp156
g3
F0.0
sg4
F2.0
sg5
F6.0
sg6
F3.0
sb(dp157
I00
F38.156609399661754
sI01
F139.95994003375603
ss(i__main__
State
p158
(dp159
g3
F-1.0
sg4
F4.0
sg5
F5.0
sg6
F2.0
sb(dp160
I00
F264.4765848098551
sI01
F30.659325207370784
ss(i__main__
State
p161
(dp162
g3
F2.0
sg4
F6.0
sg5
F8.0
sg6
F5.0
sb(dp163
I00
F73.61723269613205
sI01
F540.5831462643368
ss(i__main__
State
p164
(dp165
g3
F-1.0
sg4
F1.0
sg5
F5.0
sg6
F2.0
sb(dp166
I00
F10.791810160291123
sI01
F-40.857125396586916
ss(i__main__
State
p167
(dp168
g3
F-1.0
sg4
F5.0
sg5
F5.0
sg6
F2.0
sb(dp169
I00
F-24.59075
sI01
F87.41934123046039
ss(i__main__
State
p170
(dp171
g3
F-7.0
sg4
F1.0
sg5
F-1.0
sg6
F-4.0
sb(dp172
I00
F-2.2919762895074047
sI01
F63.05159352127654
ss(i__main__
State
p173
(dp174
g3
F-5.0
sg4
F6.0
sg5
F1.0
sg6
F-2.0
sb(dp175
I00
F-47.300181737580196
sI01
F37.984914851631736
ss(i__main__
State
p176
(dp177
g3
F-6.0
sg4
F7.0
sg5
F0.0
sg6
F-3.0
sb(dp178
I00
F10.996552429366037
sI01
F152.91717377458528
ss(i__main__
State
p179
(dp180
g3
F3.0
sg4
F4.0
sg5
F-8.0
sg6
F6.0
sb(dp181
I00
F18.39023595472034
sI01
F304.8919199463571
ss(i__main__
State
p182
(dp183
g3
F4.0
sg4
F1.0
sg5
F-7.0
sg6
F7.0
sb(dp184
I00
F38.03961640999883
sI01
I2
ss(i__main__
State
p185
(dp186
g3
F1.0
sg4
F7.0
sg5
F7.0
sg6
F4.0
sb(dp187
I00
F28.7316209339567
sI01
F402.65951134237764
ss(i__main__
State
p188
(dp189
g3
F1.0
sg4
F5.0
sg5
F7.0
sg6
F4.0
sb(dp190
I00
F123.28780925765524
sI01
F494.31854150998754
ss(i__main__
State
p191
(dp192
g3
F-3.0
sg4
F0.0
sg5
F3.0
sg6
F0.0
sb(dp193
I00
F-2.8271077207695168
sI01
F20.294847377437076
ss(i__main__
State
p194
(dp195
g3
F-8.0
sg4
F4.0
sg5
F-2.0
sg6
F-5.0
sb(dp196
I00
F51.06315816711746
sI01
F19.666394325859176
ss(i__main__
State
p197
(dp198
g3
F1.0
sg4
F2.0
sg5
F7.0
sg6
F4.0
sb(dp199
I00
F28.370033666423772
sI01
F37.49714865142745
ss(i__main__
State
p200
(dp201
g3
F5.0
sg4
F4.0
sg5
F-6.0
sg6
F8.0
sb(dp202
I00
F5.115578364068909
sI01
F14.047950833084597
ss(i__main__
State
p203
(dp204
g3
F7.0
sg4
F2.0
sg5
F-4.0
sg6
F-7.0
sb(dp205
I00
F40.81157589429306
sI01
F22.1999937326091
ss(i__main__
State
p206
(dp207
g3
F-8.0
sg4
F2.0
sg5
F-2.0
sg6
F-5.0
sb(dp208
I00
F-21.833100645327292
sI01
F73.28469493393777
ss(i__main__
State
p209
(dp210
g3
F-8.0
sg4
F7.0
sg5
F-2.0
sg6
F-5.0
sb(dp211
I00
F42.803026174393665
sI01
F66.29836964328673
ss(i__main__
State
p212
(dp213
g3
F1.0
sg4
F8.0
sg5
F7.0
sg6
F4.0
sb(dp214
I00
F533.7060982890779
sI01
F131.9231303962253
ss(i__main__
State
p215
(dp216
g3
F0.0
sg4
F5.0
sg5
F6.0
sg6
F3.0
sb(dp217
I00
F63.528805363394596
sI01
F-0.585223710050089
ss(i__main__
State
p218
(dp219
g3
F-4.0
sg4
F3.0
sg5
F2.0
sg6
F-1.0
sb(dp220
I00
F172.80391066196026
sI01
F9.52864976157406
ss(i__main__
State
p221
(dp222
g3
F-8.0
sg4
F5.0
sg5
F-2.0
sg6
F-5.0
sb(dp223
I00
F58.30873510244822
sI01
F10.086535123613611
ss(i__main__
State
p224
(dp225
g3
F-3.0
sg4
F6.0
sg5
F3.0
sg6
F0.0
sb(dp226
I00
F41.98321586729273
sI01
F128.7966880276658
ss(i__main__
State
p227
(dp228
g3
F7.0
sg4
F3.0
sg5
F-4.0
sg6
F-7.0
sb(dp229
I00
F46.54106192448503
sI01
F31.267563129686415
ss(i__main__
State
p230
(dp231
g3
F5.0
sg4
F5.0
sg5
F-6.0
sg6
F8.0
sb(dp232
I00
F-21.618891388951855
sI01
F120.94558944733939
ss(i__main__
State
p233
(dp234
g3
F-5.0
sg4
F7.0
sg5
F1.0
sg6
F-2.0
sb(dp235
I00
F65.72503893433061
sI01
I33
ss(i__main__
State
p236
(dp237
g3
F-4.0
sg4
F4.0
sg5
F2.0
sg6
F-1.0
sb(dp238
I00
F181.34351060998026
sI01
F-22.52215020828931
ss(i__main__
State
p239
(dp240
g3
F3.0
sg4
F7.0
sg5
F-8.0
sg6
F6.0
sb(dp241
I00
F128.01168535048774
sI01
F594.2852156333947
ss(i__main__
State
p242
(dp243
g3
F7.0
sg4
F0.0
sg5
F-4.0
sg6
F-7.0
sb(dp244
I00
F43.140880910796945
sI01
F32.99753015718015
ss(i__main__
State
p245
(dp246
g3
F-6.0
sg4
F6.0
sg5
F0.0
sg6
F-3.0
sb(dp247
I00
F-18.999879116069337
sI01
I-65
ss(i__main__
State
p248
(dp249
g3
F5.0
sg4
F8.0
sg5
F-6.0
sg6
F8.0
sb(dp250
I00
F558.5773988185216
sI01
F129.78288175408812
ss(i__main__
State
p251
(dp252
g3
F-8.0
sg4
F0.0
sg5
F-2.0
sg6
F-5.0
sb(dp253
I00
F100.81548647592574
sI01
F-7.150644624273079
ss(i__main__
State
p254
(dp255
g3
F-3.0
sg4
F3.0
sg5
F3.0
sg6
F0.0
sb(dp256
I00
F263.3827482873979
sI01
F-17.764337161845752
ss(i__main__
State
p257
(dp258
g3
F0.0
sg4
F0.0
sg5
F6.0
sg6
F3.0
sb(dp259
I00
F27.24369634854712
sI01
F27.602177395099737
ss(i__main__
State
p260
(dp261
g3
F5.0
sg4
F2.0
sg5
F-6.0
sg6
F8.0
sb(dp262
I00
F-0.03336428553887627
sI01
F12.250982150907532
ss(i__main__
State
p263
(dp264
g3
F-8.0
sg4
F3.0
sg5
F-2.0
sg6
F-5.0
sb(dp265
I00
F46.9162405769397
sI01
F66.7897851509716
ss(i__main__
State
p266
(dp267
g3
F-2.0
sg4
F7.0
sg5
F4.0
sg6
F1.0
sb(dp268
I00
F23.43120241511985
sI01
F130.28294626773268
ss(i__main__
State
p269
(dp270
g3
F0.0
sg4
F6.0
sg5
F6.0
sg6
F3.0
sb(dp271
I00
F-14.022998416259986
sI01
F192.54245828706794
ss(i__main__
State
p272
(dp273
g3
F-4.0
sg4
F8.0
sg5
F2.0
sg6
F-1.0
sb(dp274
I00
F-898.4365505492001
sI01
F102.58656284051017
ss(i__main__
State
p275
(dp276
g3
F-8.0
sg4
F1.0
sg5
F-2.0
sg6
F-5.0
sb(dp277
I00
F53.89401898591082
sI01
F18.75712635655003
ss(i__main__
State
p278
(dp279
g3
F-3.0
sg4
F1.0
sg5
F3.0
sg6
F0.0
sb(dp280
I00
F37.37967625344034
sI01
F-48.9511934554637
ss(i__main__
State
p281
(dp282
g3
F7.0
sg4
F7.0
sg5
F-4.0
sg6
F-7.0
sb(dp283
I00
F30.04328252120843
sI01
F256.78555998396325
ss(i__main__
State
p284
(dp285
g3
F-3.0
sg4
F7.0
sg5
F3.0
sg6
F0.0
sb(dp286
I00
F115.90215559818978
sI01
F44.304377333773694
ss(i__main__
State
p287
(dp288
g3
F4.0
sg4
F5.0
sg5
F-7.0
sg6
F7.0
sb(dp289
I00
F66.27016087386164
sI01
F329.43355138611884
ss(i__main__
State
p290
(dp291
g3
F7.0
sg4
F4.0
sg5
F-4.0
sg6
F-7.0
sb(dp292
I00
F24.029621441174594
sI01
F-1.7451804156656436
ss(i__main__
State
p293
(dp294
g3
F-5.0
sg4
F4.0
sg5
F1.0
sg6
F-2.0
sb(dp295
I00
F146.23611631334228
sI01
F55.258932740118915
ss(i__main__
State
p296
(dp297
g3
F-3.0
sg4
F8.0
sg5
F3.0
sg6
F0.0
sb(dp298
I00
F-3430.066189092
sI01
F-4102.849544482932
ss(i__main__
State
p299
(dp300
g3
F0.0
sg4
F8.0
sg5
F6.0
sg6
F3.0
sb(dp301
I00
F-6751.278904736307
sI01
F-6842.80982550589
ss(i__main__
State
p302
(dp303
g3
F-5.0
sg4
F0.0
sg5
F1.0
sg6
F-2.0
sb(dp304
I00
F34.04197915369544
sI01
F113.34444774032463
ss(i__main__
State
p305
(dp306
g3
F8.0
sg4
F0.0
sg5
F-3.0
sg6
F-6.0
sb(dp307
I00
F30.490303793918688
sI01
F48.80204575312296
ss(i__main__
State
p308
(dp309
g3
F5.0
sg4
F3.0
sg5
F-6.0
sg6
F8.0
sb(dp310
I00
F37.41965233351111
sI01
F26.81948282004536
ss(i__main__
State
p311
(dp312
g3
F-1.0
sg4
F6.0
sg5
F5.0
sg6
F2.0
sb(dp313
I00
F48.27365465007996
sI01
F373.6309311343834
ss(i__main__
State
p314
(dp315
g3
F-7.0
sg4
F7.0
sg5
F-1.0
sg6
F-4.0
sb(dp316
I00
F4.4096295609964855
sI01
F-355.88384640000004
ss(i__main__
State
p317
(dp318
g3
F-7.0
sg4
F4.0
sg5
F-1.0
sg6
F-4.0
sb(dp319
I00
F88.96565219494266
sI01
F7.179251445823802
ss(i__main__
State
p320
(dp321
g3
F-4.0
sg4
F1.0
sg5
F2.0
sg6
F-1.0
sb(dp322
I00
F9.10568011023792
sI01
F278.4779351658484
ss(i__main__
State
p323
(dp324
g3
F1.0
sg4
F0.0
sg5
F7.0
sg6
F4.0
sb(dp325
I00
F-21.680272360467917
sI01
F27.05572694611875
ss(i__main__
State
p326
(dp327
g3
F6.0
sg4
F7.0
sg5
F-5.0
sg6
F-8.0
sb(dp328
I00
F132.80277377994722
sI01
F372.499184160976
ss(i__main__
State
p329
(dp330
g3
F3.0
sg4
F0.0
sg5
F-8.0
sg6
F6.0
sb(dp331
I00
F-1.205478884305511
sI01
F-14.349149451224484
ss(i__main__
State
p332
(dp333
g3
F7.0
sg4
F1.0
sg5
F-4.0
sg6
F-7.0
sb(dp334
I00
F42.67741612572065
sI01
F36.17117308086757
ss(i__main__
State
p335
(dp336
g3
F4.0
sg4
F2.0
sg5
F-7.0
sg6
F7.0
sb(dp337
I00
F-44.451220668321035
sI01
F30.022445603348785
ss(i__main__
State
p338
(dp339
g3
F-6.0
sg4
F4.0
sg5
F0.0
sg6
F-3.0
sb(dp340
I00
F119.88214701144362
sI01
F61.61348747964343
ss(i__main__
State
p341
(dp342
g3
F-4.0
sg4
F5.0
sg5
F2.0
sg6
F-1.0
sb(dp343
I00
F-11.313378974816686
sI01
F98.59748393043765
ss(i__main__
State
p344
(dp345
g3
F-3.0
sg4
F4.0
sg5
F3.0
sg6
F0.0
sb(dp346
I00
F20.11839633452685
sI01
F217.90594521642703
ss(i__main__
State
p347
(dp348
g3
F0.0
sg4
F3.0
sg5
F6.0
sg6
F3.0
sb(dp349
I00
F159.76166480694906
sI01
F-3.919267025577394
ss(i__main__
State
p350
(dp351
g3
F4.0
sg4
F3.0
sg5
F-7.0
sg6
F7.0
sb(dp352
I00
F32.93981572766678
sI01
F-5.7304199972318255
ss(i__main__
State
p353
(dp354
g3
F-4.0
sg4
F6.0
sg5
F2.0
sg6
F-1.0
sb(dp355
I00
F122.42011769043792
sI01
F30.470830320793336
ss(i__main__
State
p356
(dp357
g3
F-6.0
sg4
F2.0
sg5
F0.0
sg6
F-3.0
sb(dp358
I00
F35.4649097390664
sI01
F78.6094006571184
ss(i__main__
State
p359
(dp360
g3
F-7.0
sg4
F6.0
sg5
F-1.0
sg6
F-4.0
sb(dp361
I00
I-54
sI01
F115.65616218430668
ss(i__main__
State
p362
(dp363
g3
F6.0
sg4
F2.0
sg5
F-5.0
sg6
F-8.0
sb(dp364
I00
F-13.182225551623901
sI01
I-64
ss(i__main__
State
p365
(dp366
g3
F3.0
sg4
F5.0
sg5
F-8.0
sg6
F6.0
sb(dp367
I00
F281.1947311568071
sI01
F35.42364657797155
ss(i__main__
State
p368
(dp369
g3
F-8.0
sg4
F8.0
sg5
F-2.0
sg6
F-5.0
sb(dp370
I00
F208.15530614185965
sI01
F255.35126686383484
ss(i__main__
State
p371
(dp372
g3
F4.0
sg4
F0.0
sg5
F-7.0
sg6
F7.0
sb(dp373
I00
F-0.7728810642025628
sI01
F-17.4653993614072
ss(i__main__
State
p374
(dp375
g3
F-2.0
sg4
F0.0
sg5
F4.0
sg6
F1.0
sb(dp376
I00
F-53.39327794476217
sI01
F-2.0376504034605483
ss(i__main__
State
p377
(dp378
g3
F6.0
sg4
F8.0
sg5
F-5.0
sg6
F-8.0
sb(dp379
I00
F479.3717674400624
sI01
F139.65337130853706
ss(i__main__
State
p380
(dp381
g3
F5.0
sg4
F1.0
sg5
F-6.0
sg6
F8.0
sb(dp382
I00
F24.548152797355282
sI01
F19.86239255051992
ss(i__main__
State
p383
(dp384
g3
F-2.0
sg4
F4.0
sg5
F4.0
sg6
F1.0
sb(dp385
I00
F89.52390822998613
sI01
F9.437170814679572
ss(i__main__
State
p386
(dp387
g3
F-7.0
sg4
F2.0
sg5
F-1.0
sg6
F-4.0
sb(dp388
I00
F-47.82
sI01
F33.328487833487316
ss(i__main__
State
p389
(dp390
g3
F2.0
sg4
F4.0
sg5
F8.0
sg6
F5.0
sb(dp391
I00
F275.57663442470573
sI01
F121.80426585627823
ss(i__main__
State
p392
(dp393
g3
F-2.0
sg4
F3.0
sg5
F4.0
sg6
F1.0
sb(dp394
I00
F349.12566874159074
sI01
F130.69516270665557
ss(i__main__
State
p395
(dp396
g3
F6.0
sg4
F4.0
sg5
F-5.0
sg6
F-8.0
sb(dp397
I00
F-55.35544682576911
sI01
F39.67257798231744
ss(i__main__
State
p398
(dp399
g3
F-4.0
sg4
F0.0
sg5
F2.0
sg6
F-1.0
sb(dp400
I00
F-70.86459563179552
sI01
F5.304305067115571
ss(i__main__
State
p401
(dp402
g3
F3.0
sg4
F1.0
sg5
F-8.0
sg6
F6.0
sb(dp403
I00
F27.54118268311537
sI01
F29.859265705515806
ss(i__main__
State
p404
(dp405
g3
F-2.0
sg4
F6.0
sg5
F4.0
sg6
F1.0
sb(dp406
I00
F173.53505157110712
sI01
F36.66837348214362
ss(i__main__
State
p407
(dp408
g3
F-6.0
sg4
F1.0
sg5
F0.0
sg6
F-3.0
sb(dp409
I00
F118.2582829318697
sI01
F-37.161348492541904
ss(i__main__
State
p410
(dp411
g3
F2.0
sg4
F1.0
sg5
F8.0
sg6
F5.0
sb(dp412
I00
F8.636466201950245
sI01
F28.362866975993295
ss(i__main__
State
p413
(dp414
g3
F4.0
sg4
F8.0
sg5
F-7.0
sg6
F7.0
sb(dp415
I00
F633.7234366605511
sI01
F99.16862928192307
ss(i__main__
State
p416
(dp417
g3
F6.0
sg4
F5.0
sg5
F-5.0
sg6
F-8.0
sb(dp418
I00
F-16.018836608949115
sI01
F19.16019030438085
ss(i__main__
State
p419
(dp420
g3
F2.0
sg4
F3.0
sg5
F8.0
sg6
F5.0
sb(dp421
I00
F-2.064721924173274
sI01
F181.41026656066995
ss(i__main__
State
p422
(dp423
g3
F0.0
sg4
F4.0
sg5
F6.0
sg6
F3.0
sb(dp424
I00
F137.77390738381712
sI01
F439.0521550320308
ss(i__main__
State
p425
(dp426
g3
F-1.0
sg4
F8.0
sg5
F5.0
sg6
F2.0
sb(dp427
I00
F-3247.5066437464143
sI01
F129.52436875928163
ss(i__main__
State
p428
(dp429
g3
F8.0
sg4
F6.0
sg5
F-3.0
sg6
F-6.0
sb(dp430
I00
F41.28765736979612
sI01
F15.225719417824426
ss(i__main__
State
p431
(dp432
g3
F5.0
sg4
F7.0
sg5
F-6.0
sg6
F8.0
sb(dp433
I00
F159.91358897549543
sI01
F2.5548121844483855
ss(i__main__
State
p434
(dp435
g3
F2.0
sg4
F2.0
sg5
F8.0
sg6
F5.0
sb(dp436
I00
F24.74218432173977
sI01
F26.708865460978487
ss(i__main__
State
p437
(dp438
g3
F6.0
sg4
F1.0
sg5
F-5.0
sg6
F-8.0
sb(dp439
I00
F14.445326434306264
sI01
F32.71242169600645
ss(i__main__
State
p440
(dp441
g3
F-5.0
sg4
F1.0
sg5
F1.0
sg6
F-2.0
sb(dp442
I00
F247.43393182381118
sI01
F102.43112841024694
ss(i__main__
State
p443
(dp444
g3
F-1.0
sg4
F0.0
sg5
F5.0
sg6
F2.0
sb(dp445
I00
F-13.420837877305999
sI01
I-86
ss(i__main__
State
p446
(dp447
g3
F4.0
sg4
F6.0
sg5
F-7.0
sg6
F7.0
sb(dp448
I00
F205.34046702618866
sI01
F-18.379700018972144
ss(i__main__
State
p449
(dp450
g3
F-3.0
sg4
F5.0
sg5
F3.0
sg6
F0.0
sb(dp451
I00
F-41.12750256188171
sI01
F44.26611402085848
ss(i__main__
State
p452
(dp453
g3
F1.0
sg4
F6.0
sg5
F7.0
sg6
F4.0
sb(dp454
I00
I-73
sI01
F76.74076908461365
ss(i__main__
State
p455
(dp456
g3
F-1.0
sg4
F2.0
sg5
F5.0
sg6
F2.0
sb(dp457
I00
F85.45827041365905
sI01
F58.36220478735886
ss(i__main__
State
p458
(dp459
g3
F3.0
sg4
F8.0
sg5
F-8.0
sg6
F6.0
sb(dp460
I00
F581.0609075850583
sI01
F65.58525721207779
ss(i__main__
State
p461
(dp462
g3
F-7.0
sg4
F0.0
sg5
F-1.0
sg6
F-4.0
sb(dp463
I00
F190.8066824166172
sI01
F71.19886972673889
ss.