(dp0
(i__main__
State
p1
(dp2
S'y1'
p3
F8.0
sS'x'
p4
F3.0
sS'y3'
p5
F-3.0
sS'y2'
p6
F-6.0
sb(dp7
I00
F-34.796570419981734
sI01
I-96
ss(i__main__
State
p8
(dp9
g3
F4.0
sg4
F7.0
sg5
F-7.0
sg6
F7.0
sb(dp10
I00
F137.53884361176804
sI01
F563.9792236245979
ss(i__main__
State
p11
(dp12
g3
F-7.0
sg4
F5.0
sg5
F-1.0
sg6
F-4.0
sb(dp13
I00
F-26.14758743442669
sI01
F38.730946726731126
ss(i__main__
State
p14
(dp15
g3
F-5.0
sg4
F2.0
sg5
F1.0
sg6
F-2.0
sb(dp16
I00
F204.6418628121005
sI01
F-70.90966230424658
ss(i__main__
State
p17
(dp18
g3
F7.0
sg4
F6.0
sg5
F-4.0
sg6
F-7.0
sb(dp19
I00
F1060.617222862668
sI01
F1214.662785068421
ss(i__main__
State
p20
(dp21
g3
F3.0
sg4
F7.0
sg5
F-8.0
sg6
F6.0
sb(dp22
I00
F7.732221948247457
sI01
F193.9042491780067
ss(i__main__
State
p23
(dp24
g3
F-1.0
sg4
F3.0
sg5
F5.0
sg6
F2.0
sb(dp25
I00
F917.3098387935688
sI01
F1056.3546029576385
ss(i__main__
State
p26
(dp27
g3
F1.0
sg4
F4.0
sg5
F7.0
sg6
F4.0
sb(dp28
I00
F1105.115176848247
sI01
F929.1604657080601
ss(i__main__
State
p29
(dp30
g3
F1.0
sg4
F2.0
sg5
F7.0
sg6
F4.0
sb(dp31
I00
F660.1745699489752
sI01
F1111.313471172264
ss(i__main__
State
p32
(dp33
g3
F-1.0
sg4
F5.0
sg5
F5.0
sg6
F2.0
sb(dp34
I00
F-9.751851076046648
sI01
F56.27332559885559
ss(i__main__
State
p35
(dp36
g3
F-6.0
sg4
F5.0
sg5
F0.0
sg6
F-3.0
sb(dp37
I00
I-37
sI01
F58.43100992848167
ss(i__main__
State
p38
(dp39
g3
F-2.0
sg4
F8.0
sg5
F4.0
sg6
F1.0
sb(dp40
I00
F222.22989768556585
sI01
F52.321680521296585
ss(i__main__
State
p41
(dp42
g3
F6.0
sg4
F0.0
sg5
F-5.0
sg6
F-8.0
sb(dp43
I00
F78.42954890726347
sI01
F-45.1389142598559
ss(i__main__
State
p44
(dp45
g3
F0.0
sg4
F1.0
sg5
F6.0
sg6
F3.0
sb(dp46
I00
F158.5344495020107
sI01
F981.3350161959784
ss(i__main__
State
p47
(dp48
g3
F-4.0
sg4
F7.0
sg5
F2.0
sg6
F-1.0
sb(dp49
I00
F94.70690253501681
sI01
F-3113.603459702362
ss(i__main__
State
p50
(dp51
g3
F-3.0
sg4
F2.0
sg5
F3.0
sg6
F0.0
sb(dp52
I00
F755.7112627763822
sI01
F983.8565850709924
ss(i__main__
State
p53
(dp54
g3
F5.0
sg4
F0.0
sg5
F-6.0
sg6
F8.0
sb(dp55
I00
F71.1227947165123
sI01
F21.332868648101787
ss(i__main__
State
p56
(dp57
g3
F3.0
sg4
F2.0
sg5
F-8.0
sg6
F6.0
sb(dp58
I00
F68.30328502462642
sI01
F371.4868203533574
ss(i__main__
State
p59
(dp60
g3
F3.0
sg4
F3.0
sg5
F-8.0
sg6
F6.0
sb(dp61
I00
F1002.5009055750874
sI01
F1166.2139314853675
ss(i__main__
State
p62
(dp63
g3
F2.0
sg4
F0.0
sg5
F8.0
sg6
F5.0
sb(dp64
I00
F37.5987518319087
sI01
F-62.11599477804073
ss(i__main__
State
p65
(dp66
g3
F4.0
sg4
F4.0
sg5
F-7.0
sg6
F7.0
sb(dp67
I00
F1039.9656327463988
sI01
F1181.4858092183938
ss(i__main__
State
p68
(dp69
g3
F-2.0
sg4
F2.0
sg5
F4.0
sg6
F1.0
sb(dp70
I00
F1102.3547294800087
sI01
F985.5805989113658
ss(i__main__
State
p71
(dp72
g3
F-6.0
sg4
F3.0
sg5
F0.0
sg6
F-3.0
sb(dp73
I00
F-70.63
sI01
F65.84270689534952
ss(i__main__
State
p74
(dp75
g3
F2.0
sg4
F8.0
sg5
F8.0
sg6
F5.0
sb(dp76
I00
F203.14282232384136
sI01
F29.981927995334583
ss(i__main__
State
p77
(dp78
g3
F6.0
sg4
F1.0
sg5
F-5.0
sg6
F-8.0
sb(dp79
I00
F27.058882051122822
sI01
F-21.602676374930695
ss(i__main__
State
p80
(dp81
g3
F5.0
sg4
F6.0
sg5
F-6.0
sg6
F8.0
sb(dp82
I00
F1071.9683621100448
sI01
F450.7663687263464
ss(i__main__
State
p83
(dp84
g3
F8.0
sg4
F1.0
sg5
F-3.0
sg6
F-6.0
sb(dp85
I00
F18.96435382937847
sI01
F-44.28564940354189
ss(i__main__
State
p86
(dp87
g3
F-2.0
sg4
F5.0
sg5
F4.0
sg6
F1.0
sb(dp88
I00
F59.59154370126984
sI01
F58.83509734676504
ss(i__main__
State
p89
(dp90
g3
F-5.0
sg4
F5.0
sg5
F1.0
sg6
F-2.0
sb(dp91
I00
F0.6760199399328144
sI01
I-14
ss(i__main__
State
p92
(dp93
g3
F-5.0
sg4
F8.0
sg5
F1.0
sg6
F-2.0
sb(dp94
I00
F1110.5171368416172
sI01
F877.5162852398505
ss(i__main__
State
p95
(dp96
g3
F7.0
sg4
F5.0
sg5
F-4.0
sg6
F-7.0
sb(dp97
I00
F408.1583212581568
sI01
F1027.1985675032681
ss(i__main__
State
p98
(dp99
g3
F5.0
sg4
F8.0
sg5
F-6.0
sg6
F8.0
sb(dp100
I00
F1062.809286738777
sI01
F117.94316179021682
ss(i__main__
State
p101
(dp102
g3
F3.0
sg4
F6.0
sg5
F-8.0
sg6
F6.0
sb(dp103
I00
F1137.0272563452768
sI01
F227.9612913884467
ss(i__main__
State
p104
(dp105
g3
F8.0
sg4
F7.0
sg5
F-3.0
sg6
F-6.0
sb(dp106
I00
F1072.7966208764767
sI01
F1225.6581542442066
ss(i__main__
State
p107
(dp108
g3
F8.0
sg4
F4.0
sg5
F-3.0
sg6
F-6.0
sb(dp109
I00
I6
sI01
F29.334442283260735
ss(i__main__
State
p110
(dp111
g3
F6.0
sg4
F3.0
sg5
F-5.0
sg6
F-8.0
sb(dp112
I00
F13.542521944336102
sI01
F0.2664763160675774
ss(i__main__
State
p113
(dp114
g3
F8.0
sg4
F8.0
sg5
F-3.0
sg6
F-6.0
sb(dp115
I00
F1279.1829252771327
sI01
F700.90450486779
ss(i__main__
State
p116
(dp117
g3
F7.0
sg4
F8.0
sg5
F-4.0
sg6
F-7.0
sb(dp118
I00
F1291.7297333884874
sI01
F593.4082481914428
ss(i__main__
State
p119
(dp120
g3
F-7.0
sg4
F8.0
sg5
F-1.0
sg6
F-4.0
sb(dp121
I00
F-8890.065161997727
sI01
F1147.7433075479755
ss(i__main__
State
p122
(dp123
g3
F-6.0
sg4
F8.0
sg5
F0.0
sg6
F-3.0
sb(dp124
I00
F-8943.38008170277
sI01
F-9218.629079677317
ss(i__main__
State
p125
(dp126
g3
F4.0
sg4
F1.0
sg5
F-7.0
sg6
F7.0
sb(dp127
I00
F46.338048962757604
sI01
F83.3906477610671
ss(i__main__
State
p128
(dp129
g3
F-5.0
sg4
F3.0
sg5
F1.0
sg6
F-2.0
sb(dp130
I00
F43.35829840133252
sI01
F73.62572099225628
ss(i__main__
State
p131
(dp132
g3
F6.0
sg4
F6.0
sg5
F-5.0
sg6
F-8.0
sb(dp133
I00
F1168.1192538821415
sI01
F899.9810442067953
ss(i__main__
State
p134
(dp135
g3
F-8.0
sg4
F6.0
sg5
F-2.0
sg6
F-5.0
sb(dp136
I00
F226.23619210267304
sI01
F845.6056539846887
ss(i__main__
State
p137
(dp138
g3
F6.0
sg4
F7.0
sg5
F-5.0
sg6
F-8.0
sb(dp139
I00
F881.6110640036104
sI01
F643.5269953892694
ss(i__main__
State
p140
(dp141
g3
F1.0
sg4
F3.0
sg5
F7.0
sg6
F4.0
sb(dp142
I00
F1140.3960024132487
sI01
F1044.8308111086676
ss(i__main__
State
p143
(dp144
g3
F1.0
sg4
F1.0
sg5
F7.0
sg6
F4.0
sb(dp145
I00
F41.05945697800431
sI01
F602.0683372489302
ss(i__main__
State
p146
(dp147
g3
F2.0
sg4
F5.0
sg5
F8.0
sg6
F5.0
sb(dp148
I00
F664.8640033243855
sI01
F1052.1480160059032
ss(i__main__
State
p149
(dp150
g3
F0.0
sg4
F2.0
sg5
F6.0
sg6
F3.0
sb(dp151
I00
F1058.0906820493149
sI01
F1126.6261470864397
ss(i__main__
State
p152
(dp153
g3
F-1.0
sg4
F4.0
sg5
F5.0
sg6
F2.0
sb(dp154
I00
F292.5756889438685
sI01
F467.45254256584946
ss(i__main__
State
p155
(dp156
g3
F2.0
sg4
F6.0
sg5
F8.0
sg6
F5.0
sb(dp157
I00
F962.4989818693748
sI01
F46.625632975369534
ss(i__main__
State
p158
(dp159
g3
F-1.0
sg4
F1.0
sg5
F5.0
sg6
F2.0
sb(dp160
I00
F834.3482876103942
sI01
F1076.978391114665
ss(i__main__
State
p161
(dp162
g3
F2.0
sg4
F7.0
sg5
F8.0
sg6
F5.0
sb(dp163
I00
F-9.237686348810527
sI01
F143.55548459003518
ss(i__main__
State
p164
(dp165
g3
F-7.0
sg4
F1.0
sg5
F-1.0
sg6
F-4.0
sb(dp166
I00
I-54
sI01
F30.477683368883866
ss(i__main__
State
p167
(dp168
g3
F-3.0
sg4
F0.0
sg5
F3.0
sg6
F0.0
sb(dp169
I00
F781.8322369603837
sI01
F1004.7494681879597
ss(i__main__
State
p170
(dp171
g3
F-6.0
sg4
F7.0
sg5
F0.0
sg6
F-3.0
sb(dp172
I00
F517.3566232131144
sI01
F1035.050664052466
ss(i__main__
State
p173
(dp174
g3
F3.0
sg4
F4.0
sg5
F-8.0
sg6
F6.0
sb(dp175
I00
F1080.4855216348863
sI01
F1152.1325045453261
ss(i__main__
State
p176
(dp177
g3
F8.0
sg4
F2.0
sg5
F-3.0
sg6
F-6.0
sb(dp178
I00
F-6.799475509960634
sI01
F38.70918954970378
ss(i__main__
State
p179
(dp180
g3
F1.0
sg4
F7.0
sg5
F7.0
sg6
F4.0
sb(dp181
I00
F4.744820415024622
sI01
F-35.204992341776155
ss(i__main__
State
p182
(dp183
g3
F1.0
sg4
F5.0
sg5
F7.0
sg6
F4.0
sb(dp184
I00
F798.1211066180197
sI01
F263.71106712529775
ss(i__main__
State
p185
(dp186
g3
F-5.0
sg4
F6.0
sg5
F1.0
sg6
F-2.0
sb(dp187
I00
F45.892116440633174
sI01
F63.98692488245525
ss(i__main__
State
p188
(dp189
g3
F5.0
sg4
F5.0
sg5
F-6.0
sg6
F8.0
sb(dp190
I00
F1196.7823611294411
sI01
F1107.1964597563735
ss(i__main__
State
p191
(dp192
g3
F5.0
sg4
F4.0
sg5
F-6.0
sg6
F8.0
sb(dp193
I00
F537.0578435156694
sI01
F1153.0467739384462
ss(i__main__
State
p194
(dp195
g3
F7.0
sg4
F2.0
sg5
F-4.0
sg6
F-7.0
sb(dp196
I00
F38.70242570882196
sI01
F30.46344947239827
ss(i__main__
State
p197
(dp198
g3
F-8.0
sg4
F2.0
sg5
F-2.0
sg6
F-5.0
sb(dp199
I00
F9.75939437528979
sI01
F49.35592715333815
ss(i__main__
State
p200
(dp201
g3
F-8.0
sg4
F7.0
sg5
F-2.0
sg6
F-5.0
sb(dp202
I00
F794.3478424003877
sI01
F1128.3630056536658
ss(i__main__
State
p203
(dp204
g3
F1.0
sg4
F8.0
sg5
F7.0
sg6
F4.0
sb(dp205
I00
F182.648128155595
sI01
F39.16244523678
ss(i__main__
State
p206
(dp207
g3
F0.0
sg4
F5.0
sg5
F6.0
sg6
F3.0
sb(dp208
I00
F240.0456218314011
sI01
F567.7077107170442
ss(i__main__
State
p209
(dp210
g3
F-6.0
sg4
F2.0
sg5
F0.0
sg6
F-3.0
sb(dp211
I00
F-19.768105579455632
sI01
F59.95638372117578
ss(i__main__
State
p212
(dp213
g3
F-8.0
sg4
F5.0
sg5
F-2.0
sg6
F-5.0
sb(dp214
I00
F1.3561057976343833
sI01
F-17.99602454743369
ss(i__main__
State
p215
(dp216
g3
F-3.0
sg4
F6.0
sg5
F3.0
sg6
F0.0
sb(dp217
I00
F-26.321973406204147
sI01
F114.79400466109966
ss(i__main__
State
p218
(dp219
g3
F7.0
sg4
F3.0
sg5
F-4.0
sg6
F-7.0
sb(dp220
I00
F-17.737139231561308
sI01
F43.63649084212069
ss(i__main__
State
p221
(dp222
g3
F-5.0
sg4
F7.0
sg5
F1.0
sg6
F-2.0
sb(dp223
I00
F69.03005455381422
sI01
F777.8302216211148
ss(i__main__
State
p224
(dp225
g3
F-4.0
sg4
F4.0
sg5
F2.0
sg6
F-1.0
sb(dp226
I00
F91.14024924817015
sI01
F44.986489565279996
ss(i__main__
State
p227
(dp228
g3
F7.0
sg4
F0.0
sg5
F-4.0
sg6
F-7.0
sb(dp229
I00
F346.8158990720191
sI01
F-4.39634309508509
ss(i__main__
State
p230
(dp231
g3
F-6.0
sg4
F6.0
sg5
F0.0
sg6
F-3.0
sb(dp232
I00
F64.5068900870659
sI01
F-15.990970413666922
ss(i__main__
State
p233
(dp234
g3
F-6.0
sg4
F0.0
sg5
F0.0
sg6
F-3.0
sb(dp235
I00
F1011.1806013295449
sI01
F1053.752384255165
ss(i__main__
State
p236
(dp237
g3
F-8.0
sg4
F0.0
sg5
F-2.0
sg6
F-5.0
sb(dp238
I00
F888.2050239405378
sI01
F-9.511412800924386
ss(i__main__
State
p239
(dp240
g3
F6.0
sg4
F8.0
sg5
F-5.0
sg6
F-8.0
sb(dp241
I00
F1325.3024957171497
sI01
F225.39802969674977
ss(i__main__
State
p242
(dp243
g3
F-3.0
sg4
F3.0
sg5
F3.0
sg6
F0.0
sb(dp244
I00
F957.8954878315935
sI01
F149.49474892167905
ss(i__main__
State
p245
(dp246
g3
F-1.0
sg4
F8.0
sg5
F5.0
sg6
F2.0
sb(dp247
I00
F-1451.9334967937
sI01
F224.6448267246222
ss(i__main__
State
p248
(dp249
g3
F5.0
sg4
F2.0
sg5
F-6.0
sg6
F8.0
sb(dp250
I00
F70.95109247684024
sI01
F62.30526182430665
ss(i__main__
State
p251
(dp252
g3
F-8.0
sg4
F3.0
sg5
F-2.0
sg6
F-5.0
sb(dp253
I00
F48.34439881333836
sI01
F-2.26890494516506
ss(i__main__
State
p254
(dp255
g3
F-2.0
sg4
F7.0
sg5
F4.0
sg6
F1.0
sb(dp256
I00
F5.502910704207629
sI01
F150.46153056431592
ss(i__main__
State
p257
(dp258
g3
F0.0
sg4
F6.0
sg5
F6.0
sg6
F3.0
sb(dp259
I00
F202.66963212383297
sI01
F-29.102157928988028
ss(i__main__
State
p260
(dp261
g3
F-2.0
sg4
F1.0
sg5
F4.0
sg6
F1.0
sb(dp262
I00
F1044.0147688207235
sI01
F856.8371102115112
ss(i__main__
State
p263
(dp264
g3
F-4.0
sg4
F8.0
sg5
F2.0
sg6
F-1.0
sb(dp265
I00
F-7941.206925560467
sI01
F1056.2482114865497
ss(i__main__
State
p266
(dp267
g3
F-8.0
sg4
F1.0
sg5
F-2.0
sg6
F-5.0
sb(dp268
I00
F-33.164382937633526
sI01
F28.24679173001315
ss(i__main__
State
p269
(dp270
g3
F-3.0
sg4
F1.0
sg5
F3.0
sg6
F0.0
sb(dp271
I00
F982.9125374265642
sI01
F1092.4630586799283
ss(i__main__
State
p272
(dp273
g3
F7.0
sg4
F7.0
sg5
F-4.0
sg6
F-7.0
sb(dp274
I00
F380.30791603169286
sI01
F1155.8170677644694
ss(i__main__
State
p275
(dp276
g3
F-3.0
sg4
F7.0
sg5
F3.0
sg6
F0.0
sb(dp277
I00
F115.84436714654119
sI01
F23.039988140080553
ss(i__main__
State
p278
(dp279
g3
F4.0
sg4
F5.0
sg5
F-7.0
sg6
F7.0
sb(dp280
I00
F1174.569160432228
sI01
F925.4819251013093
ss(i__main__
State
p281
(dp282
g3
F6.0
sg4
F5.0
sg5
F-5.0
sg6
F-8.0
sb(dp283
I00
F965.7246751936996
sI01
F1207.2093951322863
ss(i__main__
State
p284
(dp285
g3
F-5.0
sg4
F4.0
sg5
F1.0
sg6
F-2.0
sb(dp286
I00
F9.591894693230946
sI01
F81.35118585292255
ss(i__main__
State
p287
(dp288
g3
F-3.0
sg4
F8.0
sg5
F3.0
sg6
F0.0
sb(dp289
I00
F-8952.691387971694
sI01
F-8780.71483568259
ss(i__main__
State
p290
(dp291
g3
F0.0
sg4
F8.0
sg5
F6.0
sg6
F3.0
sb(dp292
I00
F-4663.6354251776465
sI01
F-4084.7717935856945
ss(i__main__
State
p293
(dp294
g3
F-5.0
sg4
F0.0
sg5
F1.0
sg6
F-2.0
sb(dp295
I00
F782.3897404927242
sI01
F1046.173124554716
ss(i__main__
State
p296
(dp297
g3
F-1.0
sg4
F2.0
sg5
F5.0
sg6
F2.0
sb(dp298
I00
F1113.607421237783
sI01
F933.8015500035101
ss(i__main__
State
p299
(dp300
g3
F5.0
sg4
F3.0
sg5
F-6.0
sg6
F8.0
sb(dp301
I00
F21.475115963633346
sI01
F440.15579622405886
ss(i__main__
State
p302
(dp303
g3
F-1.0
sg4
F6.0
sg5
F5.0
sg6
F2.0
sb(dp304
I00
I-99
sI01
F33.999567530220595
ss(i__main__
State
p305
(dp306
g3
F-7.0
sg4
F4.0
sg5
F-1.0
sg6
F-4.0
sb(dp307
I00
F19.503174681901637
sI01
F68.63143408292679
ss(i__main__
State
p308
(dp309
g3
F-4.0
sg4
F1.0
sg5
F2.0
sg6
F-1.0
sb(dp310
I00
F1079.2791430819418
sI01
F913.9335451698976
ss(i__main__
State
p311
(dp312
g3
F1.0
sg4
F0.0
sg5
F7.0
sg6
F4.0
sb(dp313
I00
F24.774780537605825
sI01
F2.3980275245143066
ss(i__main__
State
p314
(dp315
g3
F8.0
sg4
F5.0
sg5
F-3.0
sg6
F-6.0
sb(dp316
I00
F-39.00775014641978
sI01
F648.1071300163794
ss(i__main__
State
p317
(dp318
g3
F3.0
sg4
F0.0
sg5
F-8.0
sg6
F6.0
sb(dp319
I00
F-18.575529740688445
sI01
F65.23116026423033
ss(i__main__
State
p320
(dp321
g3
F7.0
sg4
F1.0
sg5
F-4.0
sg6
F-7.0
sb(dp322
I00
F-31.957256459920895
sI01
F29.293809202566177
ss(i__main__
State
p323
(dp324
g3
F4.0
sg4
F2.0
sg5
F-7.0
sg6
F7.0
sb(dp325
I00
F40.94056892277034
sI01
F124.01767091568365
ss(i__main__
State
p326
(dp327
g3
F-6.0
sg4
F4.0
sg5
F0.0
sg6
F-3.0
sb(dp328
I00
F1.5380643637134028
sI01
F-58.3
ss(i__main__
State
p329
(dp330
g3
F-4.0
sg4
F5.0
sg5
F2.0
sg6
F-1.0
sb(dp331
I00
F-15.206423703959999
sI01
F98.47530774689498
ss(i__main__
State
p332
(dp333
g3
F-3.0
sg4
F4.0
sg5
F3.0
sg6
F0.0
sb(dp334
I00
F141.03190781755023
sI01
F80.50741052695908
ss(i__main__
State
p335
(dp336
g3
F0.0
sg4
F3.0
sg5
F6.0
sg6
F3.0
sb(dp337
I00
F799.2300321516007
sI01
F1034.316258323722
ss(i__main__
State
p338
(dp339
g3
F4.0
sg4
F3.0
sg5
F-7.0
sg6
F7.0
sb(dp340
I00
F234.55695351633415
sI01
F1065.1024347017224
ss(i__main__
State
p341
(dp342
g3
F-4.0
sg4
F6.0
sg5
F2.0
sg6
F-1.0
sb(dp343
I00
F70.3382226883235
sI01
I-48
ss(i__main__
State
p344
(dp345
g3
F-4.0
sg4
F3.0
sg5
F2.0
sg6
F-1.0
sb(dp346
I00
F153.65386199530258
sI01
F-26.581087571724986
ss(i__main__
State
p347
(dp348
g3
F-7.0
sg4
F6.0
sg5
F-1.0
sg6
F-4.0
sb(dp349
I00
F-24.220889916382195
sI01
F544.2784733231152
ss(i__main__
State
p350
(dp351
g3
F6.0
sg4
F2.0
sg5
F-5.0
sg6
F-8.0
sb(dp352
I00
F52.964798087433365
sI01
F37.056482
ss(i__main__
State
p353
(dp354
g3
F3.0
sg4
F5.0
sg5
F-8.0
sg6
F6.0
sb(dp355
I00
F391.8326424895327
sI01
F1099.1756185867025
ss(i__main__
State
p356
(dp357
g3
F-8.0
sg4
F8.0
sg5
F-2.0
sg6
F-5.0
sb(dp358
I00
F1238.4186576740526
sI01
F1015.620269680077
ss(i__main__
State
p359
(dp360
g3
F4.0
sg4
F0.0
sg5
F-7.0
sg6
F7.0
sb(dp361
I00
F-27.00175759470568
sI01
F47.66240125583031
ss(i__main__
State
p362
(dp363
g3
F-2.0
sg4
F0.0
sg5
F4.0
sg6
F1.0
sb(dp364
I00
F53.84193468800852
sI01
F955.1734986428698
ss(i__main__
State
p365
(dp366
g3
F2.0
sg4
F2.0
sg5
F8.0
sg6
F5.0
sb(dp367
I00
F139.71099396639806
sI01
F971.385728397243
ss(i__main__
State
p368
(dp369
g3
F5.0
sg4
F1.0
sg5
F-6.0
sg6
F8.0
sb(dp370
I00
F50.111792470232025
sI01
F58.38048962757605
ss(i__main__
State
p371
(dp372
g3
F-2.0
sg4
F4.0
sg5
F4.0
sg6
F1.0
sb(dp373
I00
F276.21614125769986
sI01
F44.867608993070974
ss(i__main__
State
p374
(dp375
g3
F-7.0
sg4
F2.0
sg5
F-1.0
sg6
F-4.0
sb(dp376
I00
F34.3494996481913
sI01
F-28.618409978105227
ss(i__main__
State
p377
(dp378
g3
F2.0
sg4
F4.0
sg5
F8.0
sg6
F5.0
sb(dp379
I00
F1127.7163366544942
sI01
F944.995452995309
ss(i__main__
State
p380
(dp381
g3
F-2.0
sg4
F3.0
sg5
F4.0
sg6
F1.0
sb(dp382
I00
F1025.1986247493626
sI01
F363.6397632314446
ss(i__main__
State
p383
(dp384
g3
F6.0
sg4
F4.0
sg5
F-5.0
sg6
F-8.0
sb(dp385
I00
F66.21124586582351
sI01
F798.1653102763548
ss(i__main__
State
p386
(dp387
g3
F-4.0
sg4
F0.0
sg5
F2.0
sg6
F-1.0
sb(dp388
I00
F528.3562366053441
sI01
F1003.163335757177
ss(i__main__
State
p389
(dp390
g3
F3.0
sg4
F1.0
sg5
F-8.0
sg6
F6.0
sb(dp391
I00
F-53.955812572569876
sI01
F74.62420531423973
ss(i__main__
State
p392
(dp393
g3
F-2.0
sg4
F6.0
sg5
F4.0
sg6
F1.0
sb(dp394
I00
I-55
sI01
F29.613852326765617
ss(i__main__
State
p395
(dp396
g3
F-6.0
sg4
F1.0
sg5
F0.0
sg6
F-3.0
sb(dp397
I00
F827.199619729496
sI01
F28.84148084886495
ss(i__main__
State
p398
(dp399
g3
F0.0
sg4
F7.0
sg5
F6.0
sg6
F3.0
sb(dp400
I00
F-44.77550717831188
sI01
F89.52903866592303
ss(i__main__
State
p401
(dp402
g3
F2.0
sg4
F1.0
sg5
F8.0
sg6
F5.0
sb(dp403
I00
F74.76186169117919
sI01
F40.03100650955552
ss(i__main__
State
p404
(dp405
g3
F4.0
sg4
F8.0
sg5
F-7.0
sg6
F7.0
sb(dp406
I00
F693.6544935660067
sI01
F94.53524437254214
ss(i__main__
State
p407
(dp408
g3
F7.0
sg4
F4.0
sg5
F-4.0
sg6
F-7.0
sb(dp409
I00
F-23.923431736757163
sI01
F245.04264111885237
ss(i__main__
State
p410
(dp411
g3
F2.0
sg4
F3.0
sg5
F8.0
sg6
F5.0
sb(dp412
I00
F1153.9320293902085
sI01
F1079.6609993839988
ss(i__main__
State
p413
(dp414
g3
F0.0
sg4
F4.0
sg5
F6.0
sg6
F3.0
sb(dp415
I00
F1081.3204527357623
sI01
F555.1183203891271
ss(i__main__
State
p416
(dp417
g3
F0.0
sg4
F0.0
sg5
F6.0
sg6
F3.0
sb(dp418
I00
F4.74427931342804
sI01
F270.0839806158823
ss(i__main__
State
p419
(dp420
g3
F8.0
sg4
F6.0
sg5
F-3.0
sg6
F-6.0
sb(dp421
I00
F661.0104691084194
sI01
F1101.5299249840032
ss(i__main__
State
p422
(dp423
g3
F-1.0
sg4
F7.0
sg5
F5.0
sg6
F2.0
sb(dp424
I00
F23.761496832986598
sI01
F-116.2
ss(i__main__
State
p425
(dp426
g3
F5.0
sg4
F7.0
sg5
F-6.0
sg6
F8.0
sb(dp427
I00
F628.739522909157
sI01
F1254.2232586325563
ss(i__main__
State
p428
(dp429
g3
F-7.0
sg4
F7.0
sg5
F-1.0
sg6
F-4.0
sb(dp430
I00
F958.48014714849
sI01
F-8770.543652453674
ss(i__main__
State
p431
(dp432
g3
F-7.0
sg4
F3.0
sg5
F-1.0
sg6
F-4.0
sb(dp433
I00
F56.25776784991083
sI01
F-22.12328763906428
ss(i__main__
State
p434
(dp435
g3
F-5.0
sg4
F1.0
sg5
F1.0
sg6
F-2.0
sb(dp436
I00
F1064.014315402527
sI01
F852.0240517565419
ss(i__main__
State
p437
(dp438
g3
F-1.0
sg4
F0.0
sg5
F5.0
sg6
F2.0
sb(dp439
I00
F-41.10054766434256
sI01
F345.6117853991269
ss(i__main__
State
p440
(dp441
g3
F4.0
sg4
F6.0
sg5
F-7.0
sg6
F7.0
sb(dp442
I00
F768.5306657871198
sI01
F1197.7276401350005
ss(i__main__
State
p443
(dp444
g3
F-3.0
sg4
F5.0
sg5
F3.0
sg6
F0.0
sb(dp445
I00
F-6.59
sI01
F32.6504514858
ss(i__main__
State
p446
(dp447
g3
F1.0
sg4
F6.0
sg5
F7.0
sg6
F4.0
sb(dp448
I00
F747.195039854656
sI01
F2.355369796985922
ss(i__main__
State
p449
(dp450
g3
F8.0
sg4
F0.0
sg5
F-3.0
sg6
F-6.0
sb(dp451
I00
F720.857991557172
sI01
F-16.970991079428998
ss(i__main__
State
p452
(dp453
g3
F3.0
sg4
F8.0
sg5
F-8.0
sg6
F6.0
sb(dp454
I00
F413.7059066971809
sI01
F93.10909764745159
ss(i__main__
State
p455
(dp456
g3
F-7.0
sg4
F0.0
sg5
F-1.0
sg6
F-4.0
sb(dp457
I00
F999.9749616450845
sI01
F569.8041756381401
ss(i__main__
State
p458
(dp459
g3
F-4.0
sg4
F2.0
sg5
F2.0
sg6
F-1.0
sb(dp460
I00
F699.4291164118183
sI01
F899.912559244065
ss.