(dp0
(i__main__
State
p1
(dp2
S'y1'
p3
F8.0
sS'x'
p4
F3.0
sS'y3'
p5
F-3.0
sS'y2'
p6
F-6.0
sb(dp7
I00
F24.93898853506685
sI01
F-29.861909244288412
ss(i__main__
State
p8
(dp9
g3
F4.0
sg4
F7.0
sg5
F-7.0
sg6
F7.0
sb(dp10
I00
F85.3
sI01
I19
ss(i__main__
State
p11
(dp12
g3
F-7.0
sg4
F5.0
sg5
F-1.0
sg6
F-4.0
sb(dp13
I00
F49.603181300066026
sI01
F-28.533612
ss(i__main__
State
p14
(dp15
g3
F-5.0
sg4
F2.0
sg5
F1.0
sg6
F-2.0
sb(dp16
I00
I-6
sI01
F70.0209202
ss(i__main__
State
p17
(dp18
g3
F7.0
sg4
F6.0
sg5
F-4.0
sg6
F-7.0
sb(dp19
I00
F9.888490286136001
sI01
F-61.03999999999999
ss(i__main__
State
p20
(dp21
g3
F0.0
sg4
F7.0
sg5
F6.0
sg6
F3.0
sb(dp22
I00
F34.568852289599995
sI01
F90.30393823187525
ss(i__main__
State
p23
(dp24
g3
F-1.0
sg4
F3.0
sg5
F5.0
sg6
F2.0
sb(dp25
I00
F-74.471
sI01
F47.917108279877425
ss(i__main__
State
p26
(dp27
g3
F1.0
sg4
F4.0
sg5
F7.0
sg6
F4.0
sb(dp28
I00
F71.236807207828
sI01
F27.39286498584142
ss(i__main__
State
p29
(dp30
g3
F-1.0
sg4
F7.0
sg5
F5.0
sg6
F2.0
sb(dp31
I00
F18.33741537071998
sI01
F-619.3413428000001
ss(i__main__
State
p32
(dp33
g3
F2.0
sg4
F7.0
sg5
F8.0
sg6
F5.0
sb(dp34
I00
F80.95
sI01
F-0.3957599999999992
ss(i__main__
State
p35
(dp36
g3
F-6.0
sg4
F5.0
sg5
F0.0
sg6
F-3.0
sb(dp37
I00
F38.41996974481273
sI01
F28.700821804313488
ss(i__main__
State
p38
(dp39
g3
F-2.0
sg4
F8.0
sg5
F4.0
sg6
F1.0
sb(dp40
I00
F61.4724890800009
sI01
F0.0
ss(i__main__
State
p41
(dp42
g3
F6.0
sg4
F0.0
sg5
F-5.0
sg6
F-8.0
sb(dp43
I00
F70.3889554
sI01
I11
ss(i__main__
State
p44
(dp45
g3
F0.0
sg4
F1.0
sg5
F6.0
sg6
F3.0
sb(dp46
I00
F-1.8513252034221805
sI01
F-70.38045718420001
ss(i__main__
State
p47
(dp48
g3
F-4.0
sg4
F7.0
sg5
F2.0
sg6
F-1.0
sb(dp49
I00
F44.23517801145783
sI01
F-21.430000000000007
ss(i__main__
State
p50
(dp51
g3
F-3.0
sg4
F2.0
sg5
F3.0
sg6
F0.0
sb(dp52
I00
F-14.520000000000001
sI01
F24.163502739976984
ss(i__main__
State
p53
(dp54
g3
F5.0
sg4
F0.0
sg5
F-6.0
sg6
F8.0
sb(dp55
I00
F-80.5
sI01
F-36.32894876176622
ss(i__main__
State
p56
(dp57
g3
F3.0
sg4
F2.0
sg5
F-8.0
sg6
F6.0
sb(dp58
I00
F26.11445508300819
sI01
F-16.758088081110092
ss(i__main__
State
p59
(dp60
g3
F3.0
sg4
F3.0
sg5
F-8.0
sg6
F6.0
sb(dp61
I00
F22.072418303797573
sI01
F-56.16115310000001
ss(i__main__
State
p62
(dp63
g3
F-5.0
sg4
F8.0
sg5
F1.0
sg6
F-2.0
sb(dp64
I00
F59.336963
sI01
F24.174
ss(i__main__
State
p65
(dp66
g3
F2.0
sg4
F0.0
sg5
F8.0
sg6
F5.0
sb(dp67
I00
F-32.1045093
sI01
F30.06509980511102
ss(i__main__
State
p68
(dp69
g3
F4.0
sg4
F4.0
sg5
F-7.0
sg6
F7.0
sb(dp70
I00
F34.258543021
sI01
F-2.600921
ss(i__main__
State
p71
(dp72
g3
F-2.0
sg4
F2.0
sg5
F4.0
sg6
F1.0
sb(dp73
I00
F-80.72
sI01
F-50.948712
ss(i__main__
State
p74
(dp75
g3
F-4.0
sg4
F2.0
sg5
F2.0
sg6
F-1.0
sb(dp76
I00
F-14.51378
sI01
F-58.79296016403788
ss(i__main__
State
p77
(dp78
g3
F-6.0
sg4
F3.0
sg5
F0.0
sg6
F-3.0
sb(dp79
I00
F64.5762283573498
sI01
I-55
ss(i__main__
State
p80
(dp81
g3
F2.0
sg4
F8.0
sg5
F8.0
sg6
F5.0
sb(dp82
I00
F113.08909645839
sI01
F19.712209044370002
ss(i__main__
State
p83
(dp84
g3
F-7.0
sg4
F3.0
sg5
F-1.0
sg6
F-4.0
sb(dp85
I00
F-12.63505246819114
sI01
F18.01735656099768
ss(i__main__
State
p86
(dp87
g3
F5.0
sg4
F6.0
sg5
F-6.0
sg6
F8.0
sb(dp88
I00
F-26.10917243157206
sI01
F39.6455233262928
ss(i__main__
State
p89
(dp90
g3
F8.0
sg4
F1.0
sg5
F-3.0
sg6
F-6.0
sb(dp91
I00
I-95
sI01
F3.6886229019209895
ss(i__main__
State
p92
(dp93
g3
F-2.0
sg4
F5.0
sg5
F4.0
sg6
F1.0
sb(dp94
I00
F-54.125913541282806
sI01
F62.43076308316961
ss(i__main__
State
p95
(dp96
g3
F-5.0
sg4
F5.0
sg5
F1.0
sg6
F-2.0
sb(dp97
I00
F12.5437769419616
sI01
F27.360955789745407
ss(i__main__
State
p98
(dp99
g3
F-2.0
sg4
F1.0
sg5
F4.0
sg6
F1.0
sb(dp100
I00
F-58.23
sI01
F-30.463063767741474
ss(i__main__
State
p101
(dp102
g3
F7.0
sg4
F5.0
sg5
F-4.0
sg6
F-7.0
sb(dp103
I00
F33.216908501759605
sI01
I-88
ss(i__main__
State
p104
(dp105
g3
F-6.0
sg4
F0.0
sg5
F0.0
sg6
F-3.0
sb(dp106
I00
F-63.0981502151464
sI01
F31.256947302373806
ss(i__main__
State
p107
(dp108
g3
F3.0
sg4
F6.0
sg5
F-8.0
sg6
F6.0
sb(dp109
I00
F21.160110011752
sI01
I58
ss(i__main__
State
p110
(dp111
g3
F8.0
sg4
F7.0
sg5
F-3.0
sg6
F-6.0
sb(dp112
I00
I7
sI01
F2.7805292147920007
ss(i__main__
State
p113
(dp114
g3
F8.0
sg4
F4.0
sg5
F-3.0
sg6
F-6.0
sb(dp115
I00
F9.25858885646321
sI01
F-38.077810703517386
ss(i__main__
State
p116
(dp117
g3
F6.0
sg4
F3.0
sg5
F-5.0
sg6
F-8.0
sb(dp118
I00
F11.733163102403294
sI01
F32.93304493631229
ss(i__main__
State
p119
(dp120
g3
F8.0
sg4
F8.0
sg5
F-3.0
sg6
F-6.0
sb(dp121
I00
F94.50623808807192
sI01
F37.728545700547116
ss(i__main__
State
p122
(dp123
g3
F7.0
sg4
F8.0
sg5
F-4.0
sg6
F-7.0
sb(dp124
I00
F84.1307721804072
sI01
F41.002840750000004
ss(i__main__
State
p125
(dp126
g3
F-7.0
sg4
F8.0
sg5
F-1.0
sg6
F-4.0
sb(dp127
I00
F10.0
sI01
F7.93
ss(i__main__
State
p128
(dp129
g3
F-6.0
sg4
F8.0
sg5
F0.0
sg6
F-3.0
sb(dp130
I00
F-1000.0
sI01
F-991.3000000000001
ss(i__main__
State
p131
(dp132
g3
F8.0
sg4
F2.0
sg5
F-3.0
sg6
F-6.0
sb(dp133
I00
F47.11250390283659
sI01
I-59
ss(i__main__
State
p134
(dp135
g3
F-5.0
sg4
F3.0
sg5
F1.0
sg6
F-2.0
sb(dp136
I00
F62.71511605816852
sI01
F-36.18542484353999
ss(i__main__
State
p137
(dp138
g3
F6.0
sg4
F6.0
sg5
F-5.0
sg6
F-8.0
sb(dp139
I00
F52.345122499999995
sI01
F58.04695861258361
ss(i__main__
State
p140
(dp141
g3
F-8.0
sg4
F6.0
sg5
F-2.0
sg6
F-5.0
sb(dp142
I00
F-6.728003748
sI01
F-74.4
ss(i__main__
State
p143
(dp144
g3
F8.0
sg4
F5.0
sg5
F-3.0
sg6
F-6.0
sb(dp145
I00
F43.45013659711344
sI01
F-66.2
ss(i__main__
State
p146
(dp147
g3
F1.0
sg4
F3.0
sg5
F7.0
sg6
F4.0
sb(dp148
I00
F-12.0
sI01
F62.444855059
ss(i__main__
State
p149
(dp150
g3
F1.0
sg4
F1.0
sg5
F7.0
sg6
F4.0
sb(dp151
I00
I22
sI01
F43.66267265683493
ss(i__main__
State
p152
(dp153
g3
F2.0
sg4
F5.0
sg5
F8.0
sg6
F5.0
sb(dp154
I00
F39.7579258427722
sI01
I-72
ss(i__main__
State
p155
(dp156
g3
F0.0
sg4
F2.0
sg5
F6.0
sg6
F3.0
sb(dp157
I00
F51.66164522639368
sI01
I19
ss(i__main__
State
p158
(dp159
g3
F-1.0
sg4
F4.0
sg5
F5.0
sg6
F2.0
sb(dp160
I00
F50.57080570153256
sI01
F44.225
ss(i__main__
State
p161
(dp162
g3
F2.0
sg4
F6.0
sg5
F8.0
sg6
F5.0
sb(dp163
I00
F-73.4
sI01
I96
ss(i__main__
State
p164
(dp165
g3
F-1.0
sg4
F1.0
sg5
F5.0
sg6
F2.0
sb(dp166
I00
F-8.11298052034222
sI01
I-78
ss(i__main__
State
p167
(dp168
g3
F-1.0
sg4
F5.0
sg5
F5.0
sg6
F2.0
sb(dp169
I00
F-27.019
sI01
F22.855631167271998
ss(i__main__
State
p170
(dp171
g3
F-7.0
sg4
F1.0
sg5
F-1.0
sg6
F-4.0
sb(dp172
I00
F-48.62780000000001
sI01
F33.122776056523065
ss(i__main__
State
p173
(dp174
g3
F-5.0
sg4
F6.0
sg5
F1.0
sg6
F-2.0
sb(dp175
I00
F-47.300181737580196
sI01
F23.167318149757353
ss(i__main__
State
p176
(dp177
g3
F-6.0
sg4
F7.0
sg5
F0.0
sg6
F-3.0
sb(dp178
I00
F-37.26937161579238
sI01
F15.904274570000002
ss(i__main__
State
p179
(dp180
g3
F3.0
sg4
F4.0
sg5
F-8.0
sg6
F6.0
sb(dp181
I00
F64.92472212039999
sI01
F65.89867140782201
ss(i__main__
State
p182
(dp183
g3
F4.0
sg4
F1.0
sg5
F-7.0
sg6
F7.0
sb(dp184
I00
F42.401534879
sI01
I2
ss(i__main__
State
p185
(dp186
g3
F1.0
sg4
F7.0
sg5
F7.0
sg6
F4.0
sb(dp187
I00
I-73
sI01
F73.71843279436379
ss(i__main__
State
p188
(dp189
g3
F1.0
sg4
F5.0
sg5
F7.0
sg6
F4.0
sb(dp190
I00
F60.3330082112577
sI01
F56.4
ss(i__main__
State
p191
(dp192
g3
F-3.0
sg4
F0.0
sg5
F3.0
sg6
F0.0
sb(dp193
I00
F43.8473
sI01
F-0.2600000000000007
ss(i__main__
State
p194
(dp195
g3
F-8.0
sg4
F4.0
sg5
F-2.0
sg6
F-5.0
sb(dp196
I00
F13.719328127831009
sI01
F0.7785766529032561
ss(i__main__
State
p197
(dp198
g3
F1.0
sg4
F2.0
sg5
F7.0
sg6
F4.0
sb(dp199
I00
F39.943006827497484
sI01
I23
ss(i__main__
State
p200
(dp201
g3
F5.0
sg4
F4.0
sg5
F-6.0
sg6
F8.0
sb(dp202
I00
F-22.800212250440843
sI01
F2.797232247549
ss(i__main__
State
p203
(dp204
g3
F7.0
sg4
F2.0
sg5
F-4.0
sg6
F-7.0
sb(dp205
I00
F16.445676245488723
sI01
F-5.822931911844533
ss(i__main__
State
p206
(dp207
g3
F-8.0
sg4
F2.0
sg5
F-2.0
sg6
F-5.0
sb(dp208
I00
I-43
sI01
F-1.8816105585805518
ss(i__main__
State
p209
(dp210
g3
F-8.0
sg4
F7.0
sg5
F-2.0
sg6
F-5.0
sb(dp211
I00
F64.53
sI01
F68.023
ss(i__main__
State
p212
(dp213
g3
F1.0
sg4
F8.0
sg5
F7.0
sg6
F4.0
sb(dp214
I00
F32.0
sI01
F117.77683201236718
ss(i__main__
State
p215
(dp216
g3
F0.0
sg4
F5.0
sg5
F6.0
sg6
F3.0
sb(dp217
I00
F-39.64873083135605
sI01
F-0.19000000000000128
ss(i__main__
State
p218
(dp219
g3
F-4.0
sg4
F3.0
sg5
F2.0
sg6
F-1.0
sb(dp220
I00
F41.52449441265916
sI01
F-82.9139
ss(i__main__
State
p221
(dp222
g3
F-8.0
sg4
F5.0
sg5
F-2.0
sg6
F-5.0
sb(dp223
I00
F52.36665863210001
sI01
F-23.690710799999998
ss(i__main__
State
p224
(dp225
g3
F-3.0
sg4
F6.0
sg5
F3.0
sg6
F0.0
sb(dp226
I00
F-12.278257251368746
sI01
F88.09684439300173
ss(i__main__
State
p227
(dp228
g3
F7.0
sg4
F3.0
sg5
F-4.0
sg6
F-7.0
sb(dp229
I00
F43.40289825265522
sI01
F33.360144082159415
ss(i__main__
State
p230
(dp231
g3
F5.0
sg4
F5.0
sg5
F-6.0
sg6
F8.0
sb(dp232
I00
F-33.4928
sI01
F28.163662
ss(i__main__
State
p233
(dp234
g3
F-5.0
sg4
F7.0
sg5
F1.0
sg6
F-2.0
sb(dp235
I00
F69.46167819414217
sI01
I33
ss(i__main__
State
p236
(dp237
g3
F-4.0
sg4
F4.0
sg5
F2.0
sg6
F-1.0
sb(dp238
I00
F52.64363870858963
sI01
F-62.8638499704576
ss(i__main__
State
p239
(dp240
g3
F3.0
sg4
F7.0
sg5
F-8.0
sg6
F6.0
sb(dp241
I00
F-66.6
sI01
F85.788979904
ss(i__main__
State
p242
(dp243
g3
F7.0
sg4
F0.0
sg5
F-4.0
sg6
F-7.0
sb(dp244
I00
F74.09009649999999
sI01
F65.918482277286
ss(i__main__
State
p245
(dp246
g3
F-6.0
sg4
F6.0
sg5
F0.0
sg6
F-3.0
sb(dp247
I00
F-24.830013
sI01
I-65
ss(i__main__
State
p248
(dp249
g3
F5.0
sg4
F8.0
sg5
F-6.0
sg6
F8.0
sb(dp250
I00
F88.45348735
sI01
F32.2259423
ss(i__main__
State
p251
(dp252
g3
F-8.0
sg4
F0.0
sg5
F-2.0
sg6
F-5.0
sb(dp253
I00
F13.213209729452839
sI01
F-68.47585663501471
ss(i__main__
State
p254
(dp255
g3
F-3.0
sg4
F3.0
sg5
F3.0
sg6
F0.0
sb(dp256
I00
F36.8207162072351
sI01
F-80.133872
ss(i__main__
State
p257
(dp258
g3
F0.0
sg4
F0.0
sg5
F6.0
sg6
F3.0
sb(dp259
I00
F32.6679855237838
sI01
F26.199920052220627
ss(i__main__
State
p260
(dp261
g3
F-8.0
sg4
F3.0
sg5
F-2.0
sg6
F-5.0
sb(dp262
I00
F36.54268107382155
sI01
F41.05273520474743
ss(i__main__
State
p263
(dp264
g3
F-2.0
sg4
F7.0
sg5
F4.0
sg6
F1.0
sb(dp265
I00
F-46.43346410772637
sI01
F117.32470403673284
ss(i__main__
State
p266
(dp267
g3
F0.0
sg4
F6.0
sg5
F6.0
sg6
F3.0
sb(dp268
I00
F-49.7
sI01
F-6.090689461807402
ss(i__main__
State
p269
(dp270
g3
F-4.0
sg4
F8.0
sg5
F2.0
sg6
F-1.0
sb(dp271
I00
F-253.1105
sI01
F42.910900000000005
ss(i__main__
State
p272
(dp273
g3
F-8.0
sg4
F1.0
sg5
F-2.0
sg6
F-5.0
sb(dp274
I00
F39.042549385
sI01
F20.5
ss(i__main__
State
p275
(dp276
g3
F-3.0
sg4
F1.0
sg5
F3.0
sg6
F0.0
sb(dp277
I00
F-29.159599999999998
sI01
F-78.15
ss(i__main__
State
p278
(dp279
g3
F7.0
sg4
F7.0
sg5
F-4.0
sg6
F-7.0
sb(dp280
I00
I34
sI01
F81.36521827939667
ss(i__main__
State
p281
(dp282
g3
F-3.0
sg4
F7.0
sg5
F3.0
sg6
F0.0
sb(dp283
I00
F82.54031330039126
sI01
F27.670366109079268
ss(i__main__
State
p284
(dp285
g3
F4.0
sg4
F5.0
sg5
F-7.0
sg6
F7.0
sb(dp286
I00
F26.320999999999998
sI01
F30.230410243981563
ss(i__main__
State
p287
(dp288
g3
F7.0
sg4
F4.0
sg5
F-4.0
sg6
F-7.0
sb(dp289
I00
F19.854956211535523
sI01
F-35.51061380070489
ss(i__main__
State
p290
(dp291
g3
F-5.0
sg4
F4.0
sg5
F1.0
sg6
F-2.0
sb(dp292
I00
F50.89960046600216
sI01
F24.2310218396861
ss(i__main__
State
p293
(dp294
g3
F-3.0
sg4
F8.0
sg5
F3.0
sg6
F0.0
sb(dp295
I00
F-2706.90382
sI01
F-1906.06214
ss(i__main__
State
p296
(dp297
g3
F0.0
sg4
F8.0
sg5
F6.0
sg6
F3.0
sb(dp298
I00
F-4651.81510216052
sI01
F-4671.3887115232965
ss(i__main__
State
p299
(dp300
g3
F-5.0
sg4
F0.0
sg5
F1.0
sg6
F-2.0
sb(dp301
I00
I79
sI01
F73.76450445176857
ss(i__main__
State
p302
(dp303
g3
F8.0
sg4
F0.0
sg5
F-3.0
sg6
F-6.0
sb(dp304
I00
F-15.1
sI01
F46.491126756999996
ss(i__main__
State
p305
(dp306
g3
F5.0
sg4
F3.0
sg5
F-6.0
sg6
F8.0
sb(dp307
I00
F37.994889123759066
sI01
F11.149814715852328
ss(i__main__
State
p308
(dp309
g3
F-1.0
sg4
F6.0
sg5
F5.0
sg6
F2.0
sb(dp310
I00
F-56.347231213639404
sI01
F71.61998732824182
ss(i__main__
State
p311
(dp312
g3
F-7.0
sg4
F7.0
sg5
F-1.0
sg6
F-4.0
sb(dp313
I00
F-24.09215797
sI01
F-96.70000000000002
ss(i__main__
State
p314
(dp315
g3
F-7.0
sg4
F4.0
sg5
F-1.0
sg6
F-4.0
sb(dp316
I00
F31.962740497384566
sI01
F-71.14665829470924
ss(i__main__
State
p317
(dp318
g3
F-4.0
sg4
F1.0
sg5
F2.0
sg6
F-1.0
sb(dp319
I00
F-78.56900000000002
sI01
F17.9531001016488
ss(i__main__
State
p320
(dp321
g3
F1.0
sg4
F0.0
sg5
F7.0
sg6
F4.0
sb(dp322
I00
F-41.64295148088107
sI01
F25.679807652526254
ss(i__main__
State
p323
(dp324
g3
F6.0
sg4
F7.0
sg5
F-5.0
sg6
F-8.0
sb(dp325
I00
F8.4117742524
sI01
F64.6951316981856
ss(i__main__
State
p326
(dp327
g3
F3.0
sg4
F0.0
sg5
F-8.0
sg6
F6.0
sb(dp328
I00
F8.730701147387865
sI01
F-35.24
ss(i__main__
State
p329
(dp330
g3
F7.0
sg4
F1.0
sg5
F-4.0
sg6
F-7.0
sb(dp331
I00
F72.91098134252313
sI01
I36
ss(i__main__
State
p332
(dp333
g3
F4.0
sg4
F2.0
sg5
F-7.0
sg6
F7.0
sb(dp334
I00
I-80
sI01
F37.97839101623063
ss(i__main__
State
p335
(dp336
g3
F-6.0
sg4
F4.0
sg5
F0.0
sg6
F-3.0
sb(dp337
I00
F48.7813886604742
sI01
F-15.595832693689715
ss(i__main__
State
p338
(dp339
g3
F-4.0
sg4
F5.0
sg5
F2.0
sg6
F-1.0
sb(dp340
I00
F-11.072700000000001
sI01
F41.992286408126276
ss(i__main__
State
p341
(dp342
g3
F-3.0
sg4
F4.0
sg5
F3.0
sg6
F0.0
sb(dp343
I00
F-35.304872
sI01
F57.65523701236304
ss(i__main__
State
p344
(dp345
g3
F0.0
sg4
F3.0
sg5
F6.0
sg6
F3.0
sb(dp346
I00
F9.1964855059
sI01
I-62
ss(i__main__
State
p347
(dp348
g3
F4.0
sg4
F3.0
sg5
F-7.0
sg6
F7.0
sb(dp349
I00
F25.23485255023994
sI01
F-20.476100000000002
ss(i__main__
State
p350
(dp351
g3
F-4.0
sg4
F6.0
sg5
F2.0
sg6
F-1.0
sb(dp352
I00
F43.63816968065602
sI01
F-28.182628531093034
ss(i__main__
State
p353
(dp354
g3
F-6.0
sg4
F2.0
sg5
F0.0
sg6
F-3.0
sb(dp355
I00
I-45
sI01
F18.92088355071642
ss(i__main__
State
p356
(dp357
g3
F-7.0
sg4
F6.0
sg5
F-1.0
sg6
F-4.0
sb(dp358
I00
I-54
sI01
F17.977019498999997
ss(i__main__
State
p359
(dp360
g3
F6.0
sg4
F2.0
sg5
F-5.0
sg6
F-8.0
sb(dp361
I00
F-46.739
sI01
I-64
ss(i__main__
State
p362
(dp363
g3
F3.0
sg4
F5.0
sg5
F-8.0
sg6
F6.0
sb(dp364
I00
F31.13654601612871
sI01
F-47.87044575616027
ss(i__main__
State
p365
(dp366
g3
F-8.0
sg4
F8.0
sg5
F-2.0
sg6
F-5.0
sb(dp367
I00
F0.0
sI01
F90.90836556449324
ss(i__main__
State
p368
(dp369
g3
F4.0
sg4
F0.0
sg5
F-7.0
sg6
F7.0
sb(dp370
I00
F15.406774834994252
sI01
I-48
ss(i__main__
State
p371
(dp372
g3
F-2.0
sg4
F0.0
sg5
F4.0
sg6
F1.0
sb(dp373
I00
F-59.7
sI01
F-27.495132
ss(i__main__
State
p374
(dp375
g3
F6.0
sg4
F8.0
sg5
F-5.0
sg6
F-8.0
sb(dp376
I00
F11.0
sI01
F97.2964365
ss(i__main__
State
p377
(dp378
g3
F5.0
sg4
F1.0
sg5
F-6.0
sg6
F8.0
sb(dp379
I00
F33.03726668917927
sI01
F45.695
ss(i__main__
State
p380
(dp381
g3
F-2.0
sg4
F4.0
sg5
F4.0
sg6
F1.0
sb(dp382
I00
F11.3169708
sI01
F-21.759999999999998
ss(i__main__
State
p383
(dp384
g3
F-7.0
sg4
F2.0
sg5
F-1.0
sg6
F-4.0
sb(dp385
I00
F-47.82
sI01
I-29
ss(i__main__
State
p386
(dp387
g3
F2.0
sg4
F4.0
sg5
F8.0
sg6
F5.0
sb(dp388
I00
F77.33369553099999
sI01
F0.47263705466203154
ss(i__main__
State
p389
(dp390
g3
F-2.0
sg4
F3.0
sg5
F4.0
sg6
F1.0
sb(dp391
I00
F43.06150965279454
sI01
F-47.908391845010115
ss(i__main__
State
p392
(dp393
g3
F6.0
sg4
F4.0
sg5
F-5.0
sg6
F-8.0
sb(dp394
I00
F-63.7317246251
sI01
F17.60228252667784
ss(i__main__
State
p395
(dp396
g3
F-4.0
sg4
F0.0
sg5
F2.0
sg6
F-1.0
sb(dp397
I00
I-81
sI01
F19.453599999999998
ss(i__main__
State
p398
(dp399
g3
F3.0
sg4
F1.0
sg5
F-8.0
sg6
F6.0
sb(dp400
I00
F24.419791431
sI01
F33.75282794455036
ss(i__main__
State
p401
(dp402
g3
F-2.0
sg4
F6.0
sg5
F4.0
sg6
F1.0
sb(dp403
I00
F-32.8
sI01
F11.86250119110057
ss(i__main__
State
p404
(dp405
g3
F-6.0
sg4
F1.0
sg5
F0.0
sg6
F-3.0
sb(dp406
I00
F81.81939731778
sI01
F-59.81
ss(i__main__
State
p407
(dp408
g3
F2.0
sg4
F1.0
sg5
F8.0
sg6
F5.0
sb(dp409
I00
F-3.7837380509149607
sI01
F23.04043983115529
ss(i__main__
State
p410
(dp411
g3
F4.0
sg4
F8.0
sg5
F-7.0
sg6
F7.0
sb(dp412
I00
F102.446167871
sI01
F11.3151760303
ss(i__main__
State
p413
(dp414
g3
F6.0
sg4
F5.0
sg5
F-5.0
sg6
F-8.0
sb(dp415
I00
F-67.40764727794672
sI01
F-2.3690003249249996
ss(i__main__
State
p416
(dp417
g3
F2.0
sg4
F3.0
sg5
F8.0
sg6
F5.0
sb(dp418
I00
I-9
sI01
F68.8952074246
ss(i__main__
State
p419
(dp420
g3
F0.0
sg4
F4.0
sg5
F6.0
sg6
F3.0
sb(dp421
I00
F57.49793708678276
sI01
F30.290899168643953
ss(i__main__
State
p422
(dp423
g3
F-1.0
sg4
F8.0
sg5
F5.0
sg6
F2.0
sb(dp424
I00
F-1485.6573457958307
sI01
F130.39194098287481
ss(i__main__
State
p425
(dp426
g3
F8.0
sg4
F6.0
sg5
F-3.0
sg6
F-6.0
sb(dp427
I00
F42.060596919299996
sI01
F-8.073599999999995
ss(i__main__
State
p428
(dp429
g3
F5.0
sg4
F7.0
sg5
F-6.0
sg6
F8.0
sb(dp430
I00
F45.947
sI01
I-72
ss(i__main__
State
p431
(dp432
g3
F2.0
sg4
F2.0
sg5
F8.0
sg6
F5.0
sb(dp433
I00
F20.780084897698988
sI01
F24.957333683599035
ss(i__main__
State
p434
(dp435
g3
F6.0
sg4
F1.0
sg5
F-5.0
sg6
F-8.0
sb(dp436
I00
F-29.4087
sI01
F-18.787808164205387
ss(i__main__
State
p437
(dp438
g3
F-5.0
sg4
F1.0
sg5
F1.0
sg6
F-2.0
sb(dp439
I00
F41.62923237780001
sI01
F-14.7993698
ss(i__main__
State
p440
(dp441
g3
F-1.0
sg4
F0.0
sg5
F5.0
sg6
F2.0
sb(dp442
I00
F-29.79421
sI01
I-86
ss(i__main__
State
p443
(dp444
g3
F4.0
sg4
F6.0
sg5
F-7.0
sg6
F7.0
sb(dp445
I00
F54.99954052718684
sI01
I-31
ss(i__main__
State
p446
(dp447
g3
F-3.0
sg4
F5.0
sg5
F3.0
sg6
F0.0
sb(dp448
I00
F-70.70397431890379
sI01
F-42.46566868239415
ss(i__main__
State
p449
(dp450
g3
F1.0
sg4
F6.0
sg5
F7.0
sg6
F4.0
sb(dp451
I00
I-73
sI01
F-25.655
ss(i__main__
State
p452
(dp453
g3
F-1.0
sg4
F2.0
sg5
F5.0
sg6
F2.0
sb(dp454
I00
F42.79918760562784
sI01
F32.3
ss(i__main__
State
p455
(dp456
g3
F3.0
sg4
F8.0
sg5
F-8.0
sg6
F6.0
sb(dp457
I00
F104.11224091039999
sI01
F12.801740332359998
ss(i__main__
State
p458
(dp459
g3
F-7.0
sg4
F0.0
sg5
F-1.0
sg6
F-4.0
sb(dp460
I00
F28.538587214508283
sI01
F1.8141445280000017
ss.