(dp0
(i__main__
State
p1
(dp2
S'v1'
p3
I2
sS'v2'
p4
I3
sS'v3'
p5
I2
sS'y1'
p6
F8.0
sS'x'
p7
F3.0
sS'y3'
p8
F-8.0
sS'y2'
p9
F4.0
sb(dp10
I00
F53.03898377397752
sI01
F60.043956151009894
ss(i__main__
State
p11
(dp12
g3
I2
sg4
I3
sg5
I2
sg6
F-2.0
sg7
F1.0
sg8
F2.0
sg9
F-8.0
sb(dp13
I00
F16.65664418796104
sI01
F24.519649597239358
ss(i__main__
State
p14
(dp15
g3
I2
sg4
I3
sg5
I2
sg6
F-4.0
sg7
F8.0
sg8
F4.0
sg9
F-2.0
sb(dp16
I00
F22.46
sI01
F0.0
ss(i__main__
State
p17
(dp18
g3
I2
sg4
I3
sg5
I2
sg6
F-8.0
sg7
F5.0
sg8
F8.0
sg9
F-2.0
sb(dp19
I00
F35.59935895071511
sI01
F66.26191128017925
ss(i__main__
State
p20
(dp21
g3
I2
sg4
I3
sg5
I2
sg6
F8.0
sg7
F1.0
sg8
F-8.0
sg9
F-5.0
sb(dp22
I00
F32.08506375532115
sI01
F65.54485422357399
ss(i__main__
State
p23
(dp24
g3
I2
sg4
I3
sg5
I2
sg6
F6.0
sg7
F10.0
sg8
F-6.0
sg9
F-2.0
sb(dp25
I00
F236.5553649310985
sI01
F0.0
ss(i__main__
State
p26
(dp27
g3
I2
sg4
I3
sg5
I2
sg6
F6.0
sg7
F7.0
sg8
F-6.0
sg9
F-5.0
sb(dp28
I00
F53.691174422658946
sI01
F352.9319843313762
ss(i__main__
State
p29
(dp30
g3
I2
sg4
I3
sg5
I2
sg6
F-2.0
sg7
F2.0
sg8
F2.0
sg9
F-8.0
sb(dp31
I00
F-62.62200989997676
sI01
F0.37418835807099254
ss(i__main__
State
p32
(dp33
g3
I2
sg4
I3
sg5
I2
sg6
F0.0
sg7
F8.0
sg8
F0.0
sg9
F7.0
sb(dp34
I00
F-4015.502141219619
sI01
F-4031.846462329978
ss(i__main__
State
p35
(dp36
g3
I2
sg4
I3
sg5
I2
sg6
F-5.0
sg7
F0.0
sg8
F5.0
sg9
F3.0
sb(dp37
I00
F74.6
sI01
I4
ss(i__main__
State
p38
(dp39
g3
I2
sg4
I3
sg5
I2
sg6
F4.0
sg7
F4.0
sg8
F-4.0
sg9
F-8.0
sb(dp40
I00
F-4.778761833139486
sI01
F45.88967051172592
ss(i__main__
State
p41
(dp42
g3
I2
sg4
I3
sg5
I2
sg6
F6.0
sg7
F4.0
sg8
F-6.0
sg9
F-2.0
sb(dp43
I00
F119.47350644919337
sI01
F-86.14054623950041
ss(i__main__
State
p44
(dp45
g3
I2
sg4
I3
sg5
I2
sg6
F2.0
sg7
F9.0
sg8
F-2.0
sg9
F1.0
sb(dp46
I00
F-6392.235521782584
sI01
F-7979.107464963561
ss(i__main__
State
p47
(dp48
g3
I2
sg4
I3
sg5
I2
sg6
F0.0
sg7
F8.0
sg8
F0.0
sg9
F-2.0
sb(dp49
I00
F-2686.9140155818814
sI01
F-3303.8484639834737
ss(i__main__
State
p50
(dp51
g3
I2
sg4
I3
sg5
I2
sg6
F-6.0
sg7
F10.0
sg8
F6.0
sg9
F-2.0
sb(dp52
I00
F349.67875720506095
sI01
F105.63408604705994
ss(i__main__
State
p53
(dp54
g3
I2
sg4
I3
sg5
I2
sg6
F2.0
sg7
F0.0
sg8
F-2.0
sg9
F-8.0
sb(dp55
I00
F32.353249829996585
sI01
I-3
ss(i__main__
State
p56
(dp57
g3
I2
sg4
I3
sg5
I2
sg6
F-6.0
sg7
F6.0
sg8
F6.0
sg9
F4.0
sb(dp58
I00
F30.611319796381792
sI01
F108.91100110079638
ss(i__main__
State
p59
(dp60
g3
I2
sg4
I3
sg5
I2
sg6
F-4.0
sg7
F6.0
sg8
F4.0
sg9
F1.0
sb(dp61
I00
F70.34776970296457
sI01
F27.397843554989926
ss(i__main__
State
p62
(dp63
g3
I2
sg4
I3
sg5
I2
sg6
F-8.0
sg7
F3.0
sg8
F8.0
sg9
F1.0
sb(dp64
I00
F50.805717992130994
sI01
F31.16869145046178
ss(i__main__
State
p65
(dp66
g3
I2
sg4
I3
sg5
I2
sg6
F2.0
sg7
F10.0
sg8
F-2.0
sg9
F-5.0
sb(dp67
I00
F-1087.0660014264492
sI01
F129.24811412252632
ss(i__main__
State
p68
(dp69
g3
I2
sg4
I3
sg5
I2
sg6
F8.0
sg7
F6.0
sg8
F-8.0
sg9
F-2.0
sb(dp70
I00
F-27.37084692656989
sI01
F120.6661444307457
ss(i__main__
State
p71
(dp72
g3
I2
sg4
I3
sg5
I2
sg6
F-4.0
sg7
F1.0
sg8
F4.0
sg9
F-8.0
sb(dp73
I00
F71.91829165791492
sI01
F-46.26519254944889
ss(i__main__
State
p74
(dp75
g3
I2
sg4
I3
sg5
I2
sg6
F8.0
sg7
F4.0
sg8
F-8.0
sg9
F1.0
sb(dp76
I00
F-8.222924186030097
sI01
F-56.35653153028622
ss(i__main__
State
p77
(dp78
g3
I2
sg4
I3
sg5
I2
sg6
F8.0
sg7
F5.0
sg8
F-8.0
sg9
F1.0
sb(dp79
I00
I-94
sI01
F-3.6471423815439312
ss(i__main__
State
p80
(dp81
g3
I2
sg4
I3
sg5
I2
sg6
F-4.0
sg7
F1.0
sg8
F4.0
sg9
F10.0
sb(dp82
I00
F-46.530092091999826
sI01
F49.40019560703622
ss(i__main__
State
p83
(dp84
g3
I2
sg4
I3
sg5
I2
sg6
F0.0
sg7
F10.0
sg8
F0.0
sg9
F-2.0
sb(dp85
I00
F-4606.514658707671
sI01
F-4077.182457466615
ss(i__main__
State
p86
(dp87
g3
I2
sg4
I3
sg5
I2
sg6
F-2.0
sg7
F0.0
sg8
F2.0
sg9
F1.0
sb(dp88
I00
F59.04048988904253
sI01
F20.750471907186018
ss(i__main__
State
p89
(dp90
g3
I2
sg4
I3
sg5
I2
sg6
F4.0
sg7
F10.0
sg8
F-4.0
sg9
F10.0
sb(dp91
I00
F22.619800400000003
sI01
F65.51754108846035
ss(i__main__
State
p92
(dp93
g3
I2
sg4
I3
sg5
I2
sg6
F2.0
sg7
F9.0
sg8
F-2.0
sg9
F7.0
sb(dp94
I00
F338.73713789187923
sI01
F-1077.6099957493007
ss(i__main__
State
p95
(dp96
g3
I2
sg4
I3
sg5
I2
sg6
F-4.0
sg7
F7.0
sg8
F4.0
sg9
F-8.0
sb(dp97
I00
F50.108534211450774
sI01
F558.084627036649
ss(i__main__
State
p98
(dp99
g3
I2
sg4
I3
sg5
I2
sg6
F2.0
sg7
F6.0
sg8
F-2.0
sg9
F4.0
sb(dp100
I00
F186.72474807742248
sI01
F476.69810904172056
ss(i__main__
State
p101
(dp102
g3
I2
sg4
I3
sg5
I2
sg6
F6.0
sg7
F3.0
sg8
F-6.0
sg9
F4.0
sb(dp103
I00
F51.86974905742374
sI01
F-47.3986
ss(i__main__
State
p104
(dp105
g3
I2
sg4
I3
sg5
I2
sg6
F-4.0
sg7
F2.0
sg8
F4.0
sg9
F-2.0
sb(dp106
I00
F35.767724109244085
sI01
F43.103828002414524
ss(i__main__
State
p107
(dp108
g3
I2
sg4
I3
sg5
I2
sg6
F0.0
sg7
F1.0
sg8
F0.0
sg9
F10.0
sb(dp109
I00
F33.54338364601401
sI01
F17.528583485655254
ss(i__main__
State
p110
(dp111
g3
I2
sg4
I3
sg5
I2
sg6
F8.0
sg7
F10.0
sg8
F-8.0
sg9
F4.0
sb(dp112
I00
F210.85779734090283
sI01
F74.24102933485769
ss(i__main__
State
p113
(dp114
g3
I2
sg4
I3
sg5
I2
sg6
F0.0
sg7
F1.0
sg8
F0.0
sg9
F-2.0
sb(dp115
I00
F80.45144560249767
sI01
F78.66282187054013
ss(i__main__
State
p116
(dp117
g3
I2
sg4
I3
sg5
I2
sg6
F4.0
sg7
F1.0
sg8
F-4.0
sg9
F7.0
sb(dp118
I00
F58.51666870228008
sI01
F42.799252075519554
ss(i__main__
State
p119
(dp120
g3
I2
sg4
I3
sg5
I2
sg6
F0.0
sg7
F3.0
sg8
F0.0
sg9
F-8.0
sb(dp121
I00
F-13.904885853023126
sI01
F6.639360942506339
ss(i__main__
State
p122
(dp123
g3
I2
sg4
I3
sg5
I2
sg6
F-2.0
sg7
F0.0
sg8
F2.0
sg9
F-2.0
sb(dp124
I00
F36.02099601005304
sI01
F-0.7455879464075998
ss(i__main__
State
p125
(dp126
g3
I2
sg4
I3
sg5
I2
sg6
F-8.0
sg7
F0.0
sg8
F8.0
sg9
F-5.0
sb(dp127
I00
F18.04382074557301
sI01
F66.80017434517694
ss(i__main__
State
p128
(dp129
g3
I2
sg4
I3
sg5
I2
sg6
F4.0
sg7
F7.0
sg8
F-4.0
sg9
F-5.0
sb(dp130
I00
F6.125620365835502
sI01
F-388.78449597552355
ss(i__main__
State
p131
(dp132
g3
I2
sg4
I3
sg5
I2
sg6
F6.0
sg7
F4.0
sg8
F-6.0
sg9
F10.0
sb(dp133
I00
F14.40203281141182
sI01
F27.314030086708755
ss(i__main__
State
p134
(dp135
g3
I2
sg4
I3
sg5
I2
sg6
F8.0
sg7
F2.0
sg8
F-8.0
sg9
F-2.0
sb(dp136
I00
F-31.981038230221564
sI01
F31.124290264435253
ss(i__main__
State
p137
(dp138
g3
I2
sg4
I3
sg5
I2
sg6
F-4.0
sg7
F1.0
sg8
F4.0
sg9
F7.0
sb(dp139
I00
F55.54237575708341
sI01
F-9.64123098911362
ss(i__main__
State
p140
(dp141
g3
I2
sg4
I3
sg5
I2
sg6
F8.0
sg7
F7.0
sg8
F-8.0
sg9
F10.0
sb(dp142
I00
F-44.37685407944776
sI01
F133.7856625538756
ss(i__main__
State
p143
(dp144
g3
I2
sg4
I3
sg5
I2
sg6
F2.0
sg7
F3.0
sg8
F-2.0
sg9
F-5.0
sb(dp145
I00
F-65.51426718151984
sI01
F18.686584673529097
ss(i__main__
State
p146
(dp147
g3
I2
sg4
I3
sg5
I2
sg6
F0.0
sg7
F4.0
sg8
F0.0
sg9
F10.0
sb(dp148
I00
F199.64587793235813
sI01
F53.87416088748753
ss(i__main__
State
p149
(dp150
g3
I2
sg4
I3
sg5
I2
sg6
F6.0
sg7
F2.0
sg8
F-6.0
sg9
F10.0
sb(dp151
I00
F-15.385944754778667
sI01
F55.71163461887718
ss(i__main__
State
p152
(dp153
g3
I2
sg4
I3
sg5
I2
sg6
F4.0
sg7
F8.0
sg8
F-4.0
sg9
F7.0
sb(dp154
I00
F302.58950473209757
sI01
F715.6829124457247
ss(i__main__
State
p155
(dp156
g3
I2
sg4
I3
sg5
I2
sg6
F-8.0
sg7
F7.0
sg8
F8.0
sg9
F4.0
sb(dp157
I00
F58.3920097575007
sI01
F83.60705713035631
ss(i__main__
State
p158
(dp159
g3
I2
sg4
I3
sg5
I2
sg6
F-8.0
sg7
F5.0
sg8
F8.0
sg9
F-8.0
sb(dp160
I00
F83.66698049079798
sI01
F-7.750424613278738
ss(i__main__
State
p161
(dp162
g3
I2
sg4
I3
sg5
I2
sg6
F-6.0
sg7
F6.0
sg8
F6.0
sg9
F-5.0
sb(dp163
I00
F25.520179230455703
sI01
I-50
ss(i__main__
State
p164
(dp165
g3
I2
sg4
I3
sg5
I2
sg6
F-8.0
sg7
F9.0
sg8
F8.0
sg9
F7.0
sb(dp166
I00
F48.39099751352176
sI01
F49.84295786726514
ss(i__main__
State
p167
(dp168
g3
I2
sg4
I3
sg5
I2
sg6
F0.0
sg7
F8.0
sg8
F0.0
sg9
F1.0
sb(dp169
I00
F-6456.144666185976
sI01
F-6443.826949480767
ss(i__main__
State
p170
(dp171
g3
I2
sg4
I3
sg5
I2
sg6
F-2.0
sg7
F7.0
sg8
F2.0
sg9
F-8.0
sb(dp172
I00
F119.61958493261525
sI01
F-65.71680158
ss(i__main__
State
p173
(dp174
g3
I2
sg4
I3
sg5
I2
sg6
F4.0
sg7
F9.0
sg8
F-4.0
sg9
F10.0
sb(dp175
I00
F692.9397340513307
sI01
F64.65106914278235
ss(i__main__
State
p176
(dp177
g3
I2
sg4
I3
sg5
I2
sg6
F8.0
sg7
F7.0
sg8
F-8.0
sg9
F1.0
sb(dp178
I00
F199.09917963031276
sI01
F53.19599413151844
ss(i__main__
State
p179
(dp180
g3
I2
sg4
I3
sg5
I2
sg6
F6.0
sg7
F9.0
sg8
F-6.0
sg9
F1.0
sb(dp181
I00
F-4657.976843088849
sI01
F-5655.745842252917
ss(i__main__
State
p182
(dp183
g3
I2
sg4
I3
sg5
I2
sg6
F4.0
sg7
F3.0
sg8
F-4.0
sg9
F10.0
sb(dp184
I00
F-21.05598542373354
sI01
I-86
ss(i__main__
State
p185
(dp186
g3
I2
sg4
I3
sg5
I2
sg6
F-2.0
sg7
F2.0
sg8
F2.0
sg9
F7.0
sb(dp187
I00
F57.104011979679676
sI01
F49.380047225426125
ss(i__main__
State
p188
(dp189
g3
I2
sg4
I3
sg5
I2
sg6
F2.0
sg7
F5.0
sg8
F-2.0
sg9
F-2.0
sb(dp190
I00
F48.30464054048442
sI01
F44.52869356939349
ss(i__main__
State
p191
(dp192
g3
I2
sg4
I3
sg5
I2
sg6
F-6.0
sg7
F8.0
sg8
F6.0
sg9
F-5.0
sb(dp193
I00
F900.7884349962231
sI01
F191.98567657883225
ss(i__main__
State
p194
(dp195
g3
I2
sg4
I3
sg5
I2
sg6
F4.0
sg7
F1.0
sg8
F-4.0
sg9
F-2.0
sb(dp196
I00
F63.253743306676995
sI01
F23.107800835689126
ss(i__main__
State
p197
(dp198
g3
I2
sg4
I3
sg5
I2
sg6
F-4.0
sg7
F8.0
sg8
F4.0
sg9
F1.0
sb(dp199
I00
F213.53361129032973
sI01
F64.08001819674632
ss(i__main__
State
p200
(dp201
g3
I2
sg4
I3
sg5
I2
sg6
F6.0
sg7
F6.0
sg8
F-6.0
sg9
F-2.0
sb(dp202
I00
F227.3571275917373
sI01
F52.30865066528798
ss(i__main__
State
p203
(dp204
g3
I2
sg4
I3
sg5
I2
sg6
F-2.0
sg7
F1.0
sg8
F2.0
sg9
F7.0
sb(dp205
I00
F54.92254753698026
sI01
F57.107341911397064
ss(i__main__
State
p206
(dp207
g3
I2
sg4
I3
sg5
I2
sg6
F0.0
sg7
F0.0
sg8
F0.0
sg9
F-5.0
sb(dp208
I00
F21.136024608464435
sI01
F-12.425329769939228
ss(i__main__
State
p209
(dp210
g3
I2
sg4
I3
sg5
I2
sg6
F4.0
sg7
F3.0
sg8
F-4.0
sg9
F1.0
sb(dp211
I00
F5.757733025545688
sI01
F76.38284037362469
ss(i__main__
State
p212
(dp213
g3
I2
sg4
I3
sg5
I2
sg6
F-2.0
sg7
F7.0
sg8
F2.0
sg9
F-5.0
sb(dp214
I00
F-14.76
sI01
F63.489999999999995
ss(i__main__
State
p215
(dp216
g3
I2
sg4
I3
sg5
I2
sg6
F-6.0
sg7
F7.0
sg8
F6.0
sg9
F10.0
sb(dp217
I00
F128.43062111768793
sI01
F62.47435731067709
ss(i__main__
State
p218
(dp219
g3
I2
sg4
I3
sg5
I2
sg6
F6.0
sg7
F7.0
sg8
F-6.0
sg9
F1.0
sb(dp220
I00
F-89.3
sI01
F227.8121371363123
ss(i__main__
State
p221
(dp222
g3
I2
sg4
I3
sg5
I2
sg6
F8.0
sg7
F9.0
sg8
F-8.0
sg9
F1.0
sb(dp223
I00
F-7195.333298904895
sI01
F-6712.820519868204
ss(i__main__
State
p224
(dp225
g3
I2
sg4
I3
sg5
I2
sg6
F-6.0
sg7
F0.0
sg8
F6.0
sg9
F1.0
sb(dp226
I00
I4
sI01
F23.387937219972226
ss(i__main__
State
p227
(dp228
g3
I2
sg4
I3
sg5
I2
sg6
F-6.0
sg7
F6.0
sg8
F6.0
sg9
F-2.0
sb(dp229
I00
F14.59817306215211
sI01
F70.55348337026014
ss(i__main__
State
p230
(dp231
g3
I2
sg4
I3
sg5
I2
sg6
F-6.0
sg7
F10.0
sg8
F6.0
sg9
F4.0
sb(dp232
I00
F567.6060507728969
sI01
F114.47202992696283
ss(i__main__
State
p233
(dp234
g3
I2
sg4
I3
sg5
I2
sg6
F-8.0
sg7
F7.0
sg8
F8.0
sg9
F-8.0
sb(dp235
I00
F198.55327524956886
sI01
F140.4754217222366
ss(i__main__
State
p236
(dp237
g3
I2
sg4
I3
sg5
I2
sg6
F6.0
sg7
F1.0
sg8
F-6.0
sg9
F-8.0
sb(dp238
I00
F32.93144774230922
sI01
F78.59499414469703
ss(i__main__
State
p239
(dp240
g3
I2
sg4
I3
sg5
I2
sg6
F6.0
sg7
F8.0
sg8
F-6.0
sg9
F-2.0
sb(dp241
I00
F438.42891325745103
sI01
F-1196.829646944911
ss(i__main__
State
p242
(dp243
g3
I2
sg4
I3
sg5
I2
sg6
F-8.0
sg7
F10.0
sg8
F8.0
sg9
F10.0
sb(dp244
I00
F186.8620069160377
sI01
F0.0
ss(i__main__
State
p245
(dp246
g3
I2
sg4
I3
sg5
I2
sg6
F-6.0
sg7
F0.0
sg8
F6.0
sg9
F7.0
sb(dp247
I00
F72.27285029847884
sI01
F19.154104815022382
ss(i__main__
State
p248
(dp249
g3
I2
sg4
I3
sg5
I2
sg6
F0.0
sg7
F2.0
sg8
F0.0
sg9
F7.0
sb(dp250
I00
I-68
sI01
F4.553751999602107
ss(i__main__
State
p251
(dp252
g3
I2
sg4
I3
sg5
I2
sg6
F-8.0
sg7
F0.0
sg8
F8.0
sg9
F4.0
sb(dp253
I00
F21.15557963130142
sI01
F14.438855876858359
ss(i__main__
State
p254
(dp255
g3
I2
sg4
I3
sg5
I2
sg6
F2.0
sg7
F10.0
sg8
F-2.0
sg9
F-8.0
sb(dp256
I00
F0.0
sI01
F63.7744028665588
ss(i__main__
State
p257
(dp258
g3
I2
sg4
I3
sg5
I2
sg6
F4.0
sg7
F9.0
sg8
F-4.0
sg9
F4.0
sb(dp259
I00
F153.55263860459044
sI01
F26.949061915544
ss(i__main__
State
p260
(dp261
g3
I2
sg4
I3
sg5
I2
sg6
F2.0
sg7
F4.0
sg8
F-2.0
sg9
F10.0
sb(dp262
I00
F-8.458783938830754
sI01
F-28.385109985286327
ss(i__main__
State
p263
(dp264
g3
I2
sg4
I3
sg5
I2
sg6
F-4.0
sg7
F3.0
sg8
F4.0
sg9
F4.0
sb(dp265
I00
F31.73523346180182
sI01
F29.047165089416584
ss(i__main__
State
p266
(dp267
g3
I2
sg4
I3
sg5
I2
sg6
F8.0
sg7
F1.0
sg8
F-8.0
sg9
F10.0
sb(dp268
I00
F-65.709121543072
sI01
F-51.47494659455658
ss(i__main__
State
p269
(dp270
g3
I2
sg4
I3
sg5
I2
sg6
F-4.0
sg7
F8.0
sg8
F4.0
sg9
F4.0
sb(dp271
I00
F22.1001
sI01
F194.2286425410135
ss(i__main__
State
p272
(dp273
g3
I2
sg4
I3
sg5
I2
sg6
F-6.0
sg7
F7.0
sg8
F6.0
sg9
F4.0
sb(dp274
I00
F-6.219301532478486
sI01
F230.72773009210346
ss(i__main__
State
p275
(dp276
g3
I2
sg4
I3
sg5
I2
sg6
F-8.0
sg7
F1.0
sg8
F8.0
sg9
F7.0
sb(dp277
I00
F-62.5007913358
sI01
F46.63432304545928
ss(i__main__
State
p278
(dp279
g3
I2
sg4
I3
sg5
I2
sg6
F-8.0
sg7
F3.0
sg8
F8.0
sg9
F4.0
sb(dp280
I00
F35.75131148430741
sI01
F36.67990248465308
ss(i__main__
State
p281
(dp282
g3
I2
sg4
I3
sg5
I2
sg6
F-2.0
sg7
F8.0
sg8
F2.0
sg9
F-5.0
sb(dp283
I00
F0.0
sI01
F106.88611611005132
ss(i__main__
State
p284
(dp285
g3
I2
sg4
I3
sg5
I2
sg6
F4.0
sg7
F10.0
sg8
F-4.0
sg9
F1.0
sb(dp286
I00
F219.55391648352492
sI01
F27.739274343799213
ss(i__main__
State
p287
(dp288
g3
I2
sg4
I3
sg5
I2
sg6
F-2.0
sg7
F1.0
sg8
F2.0
sg9
F-5.0
sb(dp289
I00
F23.325625524653997
sI01
F45.19826216242728
ss(i__main__
State
p290
(dp291
g3
I2
sg4
I3
sg5
I2
sg6
F-2.0
sg7
F5.0
sg8
F2.0
sg9
F4.0
sb(dp292
I00
F31.091241715902733
sI01
F-24.270096358995684
ss(i__main__
State
p293
(dp294
g3
I2
sg4
I3
sg5
I2
sg6
F-4.0
sg7
F0.0
sg8
F4.0
sg9
F-2.0
sb(dp295
I00
I-4
sI01
F78.76106263859994
ss(i__main__
State
p296
(dp297
g3
I2
sg4
I3
sg5
I2
sg6
F8.0
sg7
F6.0
sg8
F-8.0
sg9
F-8.0
sb(dp298
I00
F23.83481479559578
sI01
F247.42538161559463
ss(i__main__
State
p299
(dp300
g3
I2
sg4
I3
sg5
I2
sg6
F-6.0
sg7
F0.0
sg8
F6.0
sg9
F4.0
sb(dp301
I00
F-59.53994211472959
sI01
F47.002151273391846
ss(i__main__
State
p302
(dp303
g3
I2
sg4
I3
sg5
I2
sg6
F8.0
sg7
F8.0
sg8
F-8.0
sg9
F-5.0
sb(dp304
I00
F343.7666605706669
sI01
F148.8900790868834
ss(i__main__
State
p305
(dp306
g3
I2
sg4
I3
sg5
I2
sg6
F4.0
sg7
F0.0
sg8
F-4.0
sg9
F10.0
sb(dp307
I00
F11.6188626
sI01
F26.32698144572128
ss(i__main__
State
p308
(dp309
g3
I2
sg4
I3
sg5
I2
sg6
F2.0
sg7
F7.0
sg8
F-2.0
sg9
F7.0
sb(dp310
I00
F-30.376770397952285
sI01
F-501.44822000000005
ss(i__main__
State
p311
(dp312
g3
I2
sg4
I3
sg5
I2
sg6
F8.0
sg7
F5.0
sg8
F-8.0
sg9
F7.0
sb(dp313
I00
F-5.422982290818042
sI01
F-81.47420449
ss(i__main__
State
p314
(dp315
g3
I2
sg4
I3
sg5
I2
sg6
F-4.0
sg7
F6.0
sg8
F4.0
sg9
F4.0
sb(dp316
I00
F82.3737266691685
sI01
F-27.86069045951411
ss(i__main__
State
p317
(dp318
g3
I2
sg4
I3
sg5
I2
sg6
F-8.0
sg7
F10.0
sg8
F8.0
sg9
F4.0
sb(dp319
I00
F375.4497180131061
sI01
F150.01696236322385
ss(i__main__
State
p320
(dp321
g3
I2
sg4
I3
sg5
I2
sg6
F2.0
sg7
F2.0
sg8
F-2.0
sg9
F1.0
sb(dp322
I00
F56.26446921081775
sI01
F-26.629147564239002
ss(i__main__
State
p323
(dp324
g3
I2
sg4
I3
sg5
I2
sg6
F-6.0
sg7
F7.0
sg8
F6.0
sg9
F7.0
sb(dp325
I00
F299.35791063815896
sI01
F41.005038957828425
ss(i__main__
State
p326
(dp327
g3
I2
sg4
I3
sg5
I2
sg6
F6.0
sg7
F2.0
sg8
F-6.0
sg9
F7.0
sb(dp328
I00
F35.459268340643455
sI01
F30.750728846586135
ss(i__main__
State
p329
(dp330
g3
I2
sg4
I3
sg5
I2
sg6
F6.0
sg7
F5.0
sg8
F-6.0
sg9
F-2.0
sb(dp331
I00
F10.730249960499592
sI01
F166.2690031987537
ss(i__main__
State
p332
(dp333
g3
I2
sg4
I3
sg5
I2
sg6
F-2.0
sg7
F8.0
sg8
F2.0
sg9
F-8.0
sb(dp334
I00
F10.0
sI01
F170.98500041459369
ss(i__main__
State
p335
(dp336
g3
I2
sg4
I3
sg5
I2
sg6
F2.0
sg7
F6.0
sg8
F-2.0
sg9
F10.0
sb(dp337
I00
F6.610691700000003
sI01
I-100
ss(i__main__
State
p338
(dp339
g3
I2
sg4
I3
sg5
I2
sg6
F6.0
sg7
F6.0
sg8
F-6.0
sg9
F1.0
sb(dp340
I00
F16.637577796091797
sI01
I-71
ss(i__main__
State
p341
(dp342
g3
I2
sg4
I3
sg5
I2
sg6
F8.0
sg7
F2.0
sg8
F-8.0
sg9
F-8.0
sb(dp343
I00
F-31.858109443469495
sI01
F-85.7854149904
ss(i__main__
State
p344
(dp345
g3
I2
sg4
I3
sg5
I2
sg6
F0.0
sg7
F9.0
sg8
F0.0
sg9
F-8.0
sb(dp346
I00
F591.1013865977077
sI01
F352.60891390923445
ss(i__main__
State
p347
(dp348
g3
I2
sg4
I3
sg5
I2
sg6
F0.0
sg7
F9.0
sg8
F0.0
sg9
F4.0
sb(dp349
I00
F340.2654899613465
sI01
F200.80991904394645
ss(i__main__
State
p350
(dp351
g3
I2
sg4
I3
sg5
I2
sg6
F2.0
sg7
F7.0
sg8
F-2.0
sg9
F1.0
sb(dp352
I00
F123.13978396741896
sI01
F-738.2103408623
ss(i__main__
State
p353
(dp354
g3
I2
sg4
I3
sg5
I2
sg6
F-4.0
sg7
F9.0
sg8
F4.0
sg9
F-2.0
sb(dp355
I00
F-3097.250609154698
sI01
F479.46476533069483
ss(i__main__
State
p356
(dp357
g3
I2
sg4
I3
sg5
I2
sg6
F-8.0
sg7
F10.0
sg8
F8.0
sg9
F1.0
sb(dp358
I00
F294.6497511644714
sI01
F56.19056089160877
ss(i__main__
State
p359
(dp360
g3
I2
sg4
I3
sg5
I2
sg6
F6.0
sg7
F2.0
sg8
F-6.0
sg9
F-5.0
sb(dp361
I00
F48.65650840305644
sI01
F24.435322495999998
ss(i__main__
State
p362
(dp363
g3
I2
sg4
I3
sg5
I2
sg6
F8.0
sg7
F2.0
sg8
F-8.0
sg9
F10.0
sb(dp364
I00
F-1.7540184610547165
sI01
F46.98198649037465
ss(i__main__
State
p365
(dp366
g3
I2
sg4
I3
sg5
I2
sg6
F2.0
sg7
F8.0
sg8
F-2.0
sg9
F7.0
sb(dp367
I00
F-2281.4262598646737
sI01
F487.9464328400311
ss(i__main__
State
p368
(dp369
g3
I2
sg4
I3
sg5
I2
sg6
F2.0
sg7
F8.0
sg8
F-2.0
sg9
F-2.0
sb(dp370
I00
F-2511.924828749784
sI01
F-2269.466654158142
ss(i__main__
State
p371
(dp372
g3
I2
sg4
I3
sg5
I2
sg6
F6.0
sg7
F5.0
sg8
F-6.0
sg9
F1.0
sb(dp373
I00
F-62.69772
sI01
F-20.332411445210397
ss(i__main__
State
p374
(dp375
g3
I2
sg4
I3
sg5
I2
sg6
F2.0
sg7
F4.0
sg8
F-2.0
sg9
F4.0
sb(dp376
I00
F100.30291151418847
sI01
F45.54922803087249
ss(i__main__
State
p377
(dp378
g3
I2
sg4
I3
sg5
I2
sg6
F2.0
sg7
F2.0
sg8
F-2.0
sg9
F-2.0
sb(dp379
I00
F11.980692139082503
sI01
F30.899087912664886
ss(i__main__
State
p380
(dp381
g3
I2
sg4
I3
sg5
I2
sg6
F-8.0
sg7
F6.0
sg8
F8.0
sg9
F10.0
sb(dp382
I00
F181.2264488116428
sI01
F71.35200870422436
ss(i__main__
State
p383
(dp384
g3
I2
sg4
I3
sg5
I2
sg6
F2.0
sg7
F7.0
sg8
F-2.0
sg9
F-8.0
sb(dp385
I00
F-1.5424666505705922
sI01
F-282.59590000000003
ss(i__main__
State
p386
(dp387
g3
I2
sg4
I3
sg5
I2
sg6
F8.0
sg7
F8.0
sg8
F-8.0
sg9
F4.0
sb(dp388
I00
F656.2814087753234
sI01
F184.2353873922273
ss(i__main__
State
p389
(dp390
g3
I2
sg4
I3
sg5
I2
sg6
F6.0
sg7
F0.0
sg8
F-6.0
sg9
F-5.0
sb(dp391
I00
F-17.97019187
sI01
F64.77158270354848
ss(i__main__
State
p392
(dp393
g3
I2
sg4
I3
sg5
I2
sg6
F-2.0
sg7
F2.0
sg8
F2.0
sg9
F-2.0
sb(dp394
I00
F-35.46789476970902
sI01
F53.347823753614534
ss(i__main__
State
p395
(dp396
g3
I2
sg4
I3
sg5
I2
sg6
F8.0
sg7
F6.0
sg8
F-8.0
sg9
F10.0
sb(dp397
I00
F34.59380937434443
sI01
F21.979381345703032
ss(i__main__
State
p398
(dp399
g3
I2
sg4
I3
sg5
I2
sg6
F-8.0
sg7
F2.0
sg8
F8.0
sg9
F10.0
sb(dp400
I00
F10.130935259200161
sI01
F33.96882619196458
ss(i__main__
State
p401
(dp402
g3
I2
sg4
I3
sg5
I2
sg6
F8.0
sg7
F9.0
sg8
F-8.0
sg9
F7.0
sb(dp403
I00
F10.0
sI01
F174.1842414851003
ss(i__main__
State
p404
(dp405
g3
I2
sg4
I3
sg5
I2
sg6
F6.0
sg7
F1.0
sg8
F-6.0
sg9
F-5.0
sb(dp406
I00
F69.79589673513095
sI01
F9.072845526191031
ss(i__main__
State
p407
(dp408
g3
I2
sg4
I3
sg5
I2
sg6
F0.0
sg7
F2.0
sg8
F0.0
sg9
F-5.0
sb(dp409
I00
F48.906649246187456
sI01
F46.65698188730239
ss(i__main__
State
p410
(dp411
g3
I2
sg4
I3
sg5
I2
sg6
F-8.0
sg7
F6.0
sg8
F8.0
sg9
F-2.0
sb(dp412
I00
F-26.808361665811343
sI01
F72.79098528464243
ss(i__main__
State
p413
(dp414
g3
I2
sg4
I3
sg5
I2
sg6
F-6.0
sg7
F6.0
sg8
F6.0
sg9
F-8.0
sb(dp415
I00
F-61.91472292594093
sI01
F60.226444285057006
ss(i__main__
State
p416
(dp417
g3
I2
sg4
I3
sg5
I2
sg6
F6.0
sg7
F1.0
sg8
F-6.0
sg9
F4.0
sb(dp418
I00
F43.32599061260564
sI01
I1
ss(i__main__
State
p419
(dp420
g3
I2
sg4
I3
sg5
I2
sg6
F8.0
sg7
F9.0
sg8
F-8.0
sg9
F-8.0
sb(dp421
I00
F87.34760433830131
sI01
F0.0
ss(i__main__
State
p422
(dp423
g3
I2
sg4
I3
sg5
I2
sg6
F-6.0
sg7
F8.0
sg8
F6.0
sg9
F-8.0
sb(dp424
I00
F393.9912604079362
sI01
F103.00609468194534
ss(i__main__
State
p425
(dp426
g3
I2
sg4
I3
sg5
I2
sg6
F-2.0
sg7
F2.0
sg8
F2.0
sg9
F4.0
sb(dp427
I00
F30.362667501051817
sI01
F-44.24015971493233
ss(i__main__
State
p428
(dp429
g3
I2
sg4
I3
sg5
I2
sg6
F-8.0
sg7
F2.0
sg8
F8.0
sg9
F1.0
sb(dp430
I00
F54.299236182774834
sI01
F-2.969375833347782
ss(i__main__
State
p431
(dp432
g3
I2
sg4
I3
sg5
I2
sg6
F-6.0
sg7
F1.0
sg8
F6.0
sg9
F-8.0
sb(dp433
I00
F-36.640964085227054
sI01
F29.19556335499409
ss(i__main__
State
p434
(dp435
g3
I2
sg4
I3
sg5
I2
sg6
F0.0
sg7
F4.0
sg8
F0.0
sg9
F7.0
sb(dp436
I00
F36.173661075795486
sI01
F144.3711157306701
ss(i__main__
State
p437
(dp438
g3
I2
sg4
I3
sg5
I2
sg6
F-4.0
sg7
F0.0
sg8
F4.0
sg9
F7.0
sb(dp439
I00
F-15.977708100909135
sI01
F38.32923081963933
ss(i__main__
State
p440
(dp441
g3
I2
sg4
I3
sg5
I2
sg6
F8.0
sg7
F4.0
sg8
F-8.0
sg9
F10.0
sb(dp442
I00
F51.40835793151393
sI01
F34.78012155413958
ss(i__main__
State
p443
(dp444
g3
I2
sg4
I3
sg5
I2
sg6
F0.0
sg7
F7.0
sg8
F0.0
sg9
F-8.0
sb(dp445
I00
F56.547000000000004
sI01
F-41.022091037966234
ss(i__main__
State
p446
(dp447
g3
I2
sg4
I3
sg5
I2
sg6
F-4.0
sg7
F10.0
sg8
F4.0
sg9
F-8.0
sb(dp448
I00
F35.594886842159156
sI01
F149.73448969245635
ss(i__main__
State
p449
(dp450
g3
I2
sg4
I3
sg5
I2
sg6
F-2.0
sg7
F9.0
sg8
F2.0
sg9
F1.0
sb(dp451
I00
F-4080.9891088569593
sI01
F-4030.2212605501636
ss(i__main__
State
p452
(dp453
g3
I2
sg4
I3
sg5
I2
sg6
F-4.0
sg7
F5.0
sg8
F4.0
sg9
F-2.0
sb(dp454
I00
F0.5065859195276428
sI01
F-36.152367999999996
ss(i__main__
State
p455
(dp456
g3
I2
sg4
I3
sg5
I2
sg6
F-8.0
sg7
F6.0
sg8
F8.0
sg9
F-8.0
sb(dp457
I00
F59.95356696973928
sI01
I-21
ss(i__main__
State
p458
(dp459
g3
I2
sg4
I3
sg5
I2
sg6
F-6.0
sg7
F1.0
sg8
F6.0
sg9
F-2.0
sb(dp460
I00
F74.95571129205844
sI01
F73.64143243106517
ss(i__main__
State
p461
(dp462
g3
I2
sg4
I3
sg5
I2
sg6
F2.0
sg7
F2.0
sg8
F-2.0
sg9
F10.0
sb(dp463
I00
F57.473555187160684
sI01
F59.314517746100094
ss(i__main__
State
p464
(dp465
g3
I2
sg4
I3
sg5
I2
sg6
F4.0
sg7
F1.0
sg8
F-4.0
sg9
F1.0
sb(dp466
I00
F-73.6
sI01
F33.324167082689854
ss(i__main__
State
p467
(dp468
g3
I2
sg4
I3
sg5
I2
sg6
F4.0
sg7
F6.0
sg8
F-4.0
sg9
F10.0
sb(dp469
I00
F-35.61619592161933
sI01
F-2.0061514086499557
ss(i__main__
State
p470
(dp471
g3
I2
sg4
I3
sg5
I2
sg6
F0.0
sg7
F7.0
sg8
F0.0
sg9
F1.0
sb(dp472
I00
F190.43409406511577
sI01
F9.862499822314184
ss(i__main__
State
p473
(dp474
g3
I2
sg4
I3
sg5
I2
sg6
F-2.0
sg7
F3.0
sg8
F2.0
sg9
F10.0
sb(dp475
I00
F57.906746975514245
sI01
F-11.718481311345753
ss(i__main__
State
p476
(dp477
g3
I2
sg4
I3
sg5
I2
sg6
F2.0
sg7
F5.0
sg8
F-2.0
sg9
F1.0
sb(dp478
I00
F39.76735182397784
sI01
F106.60262652632159
ss(i__main__
State
p479
(dp480
g3
I2
sg4
I3
sg5
I2
sg6
F0.0
sg7
F4.0
sg8
F0.0
sg9
F-2.0
sb(dp481
I00
F39.09225338384245
sI01
F-31.543739395883527
ss(i__main__
State
p482
(dp483
g3
I2
sg4
I3
sg5
I2
sg6
F2.0
sg7
F8.0
sg8
F-2.0
sg9
F1.0
sb(dp484
I00
F-2626.9827812972508
sI01
F420.2124098969468
ss(i__main__
State
p485
(dp486
g3
I2
sg4
I3
sg5
I2
sg6
F6.0
sg7
F2.0
sg8
F-6.0
sg9
F4.0
sb(dp487
I00
F55.09256028044512
sI01
F54.37764958506975
ss(i__main__
State
p488
(dp489
g3
I2
sg4
I3
sg5
I2
sg6
F6.0
sg7
F9.0
sg8
F-6.0
sg9
F-2.0
sb(dp490
I00
F-1893.5089457416934
sI01
F281.71325873044174
ss(i__main__
State
p491
(dp492
g3
I2
sg4
I3
sg5
I2
sg6
F-4.0
sg7
F3.0
sg8
F4.0
sg9
F1.0
sb(dp493
I00
F56.603268843077814
sI01
F5.54585792729305
ss(i__main__
State
p494
(dp495
g3
I2
sg4
I3
sg5
I2
sg6
F-4.0
sg7
F4.0
sg8
F4.0
sg9
F7.0
sb(dp496
I00
F24.866742907323772
sI01
F42.07152447288257
ss(i__main__
State
p497
(dp498
g3
I2
sg4
I3
sg5
I2
sg6
F2.0
sg7
F0.0
sg8
F-2.0
sg9
F10.0
sb(dp499
I00
F40.18752907135088
sI01
F-66.396486076833
ss(i__main__
State
p500
(dp501
g3
I2
sg4
I3
sg5
I2
sg6
F-6.0
sg7
F7.0
sg8
F6.0
sg9
F1.0
sb(dp502
I00
F-4.94206935614214
sI01
F105.72178534855783
ss(i__main__
State
p503
(dp504
g3
I2
sg4
I3
sg5
I2
sg6
F-8.0
sg7
F5.0
sg8
F8.0
sg9
F4.0
sb(dp505
I00
F-57.03780138301937
sI01
F41.45177213566635
ss(i__main__
State
p506
(dp507
g3
I2
sg4
I3
sg5
I2
sg6
F2.0
sg7
F8.0
sg8
F-2.0
sg9
F4.0
sb(dp508
I00
F-689.6680792497916
sI01
F277.4011869119127
ss(i__main__
State
p509
(dp510
g3
I2
sg4
I3
sg5
I2
sg6
F2.0
sg7
F7.0
sg8
F-2.0
sg9
F-2.0
sb(dp511
I00
F115.95969296473183
sI01
F-2440.8161015067494
ss(i__main__
State
p512
(dp513
g3
I2
sg4
I3
sg5
I2
sg6
F-2.0
sg7
F1.0
sg8
F2.0
sg9
F10.0
sb(dp514
I00
F63.227823529601324
sI01
F4.084371335229406
ss(i__main__
State
p515
(dp516
g3
I2
sg4
I3
sg5
I2
sg6
F0.0
sg7
F5.0
sg8
F0.0
sg9
F1.0
sb(dp517
I00
F0.36831018835738627
sI01
F59.940670412694274
ss(i__main__
State
p518
(dp519
g3
I2
sg4
I3
sg5
I2
sg6
F-6.0
sg7
F4.0
sg8
F6.0
sg9
F-5.0
sb(dp520
I00
F24.05250698626539
sI01
F58.900374360046094
ss(i__main__
State
p521
(dp522
g3
I2
sg4
I3
sg5
I2
sg6
F8.0
sg7
F2.0
sg8
F-8.0
sg9
F7.0
sb(dp523
I00
F-17.95170257111608
sI01
F41.850990907365144
ss(i__main__
State
p524
(dp525
g3
I2
sg4
I3
sg5
I2
sg6
F-2.0
sg7
F8.0
sg8
F2.0
sg9
F10.0
sb(dp526
I00
F494.3114062157104
sI01
F57.53950002645916
ss(i__main__
State
p527
(dp528
g3
I2
sg4
I3
sg5
I2
sg6
F-2.0
sg7
F6.0
sg8
F2.0
sg9
F7.0
sb(dp529
I00
F-49.709444712310265
sI01
F76.6872540941948
ss(i__main__
State
p530
(dp531
g3
I2
sg4
I3
sg5
I2
sg6
F-4.0
sg7
F8.0
sg8
F4.0
sg9
F-8.0
sb(dp532
I00
F913.9046769737298
sI01
F252.31786765041804
ss(i__main__
State
p533
(dp534
g3
I2
sg4
I3
sg5
I2
sg6
F-6.0
sg7
F9.0
sg8
F6.0
sg9
F4.0
sb(dp535
I00
F32.07994211874941
sI01
F271.8674545270661
ss(i__main__
State
p536
(dp537
g3
I2
sg4
I3
sg5
I2
sg6
F8.0
sg7
F5.0
sg8
F-8.0
sg9
F10.0
sb(dp538
I00
F50.22457530363754
sI01
I-45
ss(i__main__
State
p539
(dp540
g3
I2
sg4
I3
sg5
I2
sg6
F2.0
sg7
F3.0
sg8
F-2.0
sg9
F4.0
sb(dp541
I00
F7.32149188361223
sI01
F79.2350044385118
ss(i__main__
State
p542
(dp543
g3
I2
sg4
I3
sg5
I2
sg6
F-8.0
sg7
F10.0
sg8
F8.0
sg9
F-2.0
sb(dp544
I00
F329.7507783056798
sI01
F33.37432982
ss(i__main__
State
p545
(dp546
g3
I2
sg4
I3
sg5
I2
sg6
F8.0
sg7
F2.0
sg8
F-8.0
sg9
F1.0
sb(dp547
I00
F59.26552037891765
sI01
F28.218885715956933
ss(i__main__
State
p548
(dp549
g3
I2
sg4
I3
sg5
I2
sg6
F-2.0
sg7
F5.0
sg8
F2.0
sg9
F7.0
sb(dp550
I00
F-49.854957946670574
sI01
F32.9388630374997
ss(i__main__
State
p551
(dp552
g3
I2
sg4
I3
sg5
I2
sg6
F4.0
sg7
F7.0
sg8
F-4.0
sg9
F4.0
sb(dp553
I00
I-73
sI01
F10.442959181485222
ss(i__main__
State
p554
(dp555
g3
I2
sg4
I3
sg5
I2
sg6
F-2.0
sg7
F3.0
sg8
F2.0
sg9
F-5.0
sb(dp556
I00
F42.9485071935068
sI01
F16.8741621598
ss(i__main__
State
p557
(dp558
g3
I2
sg4
I3
sg5
I2
sg6
F6.0
sg7
F1.0
sg8
F-6.0
sg9
F1.0
sb(dp559
I00
F9.729797765988636
sI01
F33.73948063185485
ss(i__main__
State
p560
(dp561
g3
I2
sg4
I3
sg5
I2
sg6
F8.0
sg7
F5.0
sg8
F-8.0
sg9
F-8.0
sb(dp562
I00
F6.396662423075661
sI01
F72.6937619672507
ss(i__main__
State
p563
(dp564
g3
I2
sg4
I3
sg5
I2
sg6
F-6.0
sg7
F4.0
sg8
F6.0
sg9
F-8.0
sb(dp565
I00
I-74
sI01
F60.16411581884384
ss(i__main__
State
p566
(dp567
g3
I2
sg4
I3
sg5
I2
sg6
F8.0
sg7
F6.0
sg8
F-8.0
sg9
F7.0
sb(dp568
I00
F69.24069821453335
sI01
F-35.06862422692102
ss(i__main__
State
p569
(dp570
g3
I2
sg4
I3
sg5
I2
sg6
F6.0
sg7
F3.0
sg8
F-6.0
sg9
F-5.0
sb(dp571
I00
F39.6813418893
sI01
F-0.23098165028406936
ss(i__main__
State
p572
(dp573
g3
I2
sg4
I3
sg5
I2
sg6
F0.0
sg7
F5.0
sg8
F0.0
sg9
F7.0
sb(dp574
I00
F39.783653944979804
sI01
F-52.47468376000022
ss(i__main__
State
p575
(dp576
g3
I2
sg4
I3
sg5
I2
sg6
F-8.0
sg7
F4.0
sg8
F8.0
sg9
F4.0
sb(dp577
I00
F2.386008629107664
sI01
F-33.67507518361474
ss(i__main__
State
p578
(dp579
g3
I2
sg4
I3
sg5
I2
sg6
F0.0
sg7
F6.0
sg8
F0.0
sg9
F-8.0
sb(dp580
I00
F59.286901183679475
sI01
I-17
ss(i__main__
State
p581
(dp582
g3
I2
sg4
I3
sg5
I2
sg6
F6.0
sg7
F4.0
sg8
F-6.0
sg9
F7.0
sb(dp583
I00
F53.37537002897759
sI01
F-1.7680693320744911
ss(i__main__
State
p584
(dp585
g3
I2
sg4
I3
sg5
I2
sg6
F-4.0
sg7
F1.0
sg8
F4.0
sg9
F4.0
sb(dp586
I00
F-87.85
sI01
F50.73512562794261
ss(i__main__
State
p587
(dp588
g3
I2
sg4
I3
sg5
I2
sg6
F8.0
sg7
F5.0
sg8
F-8.0
sg9
F-2.0
sb(dp589
I00
F-62.8
sI01
F1.925678083204563
ss(i__main__
State
p590
(dp591
g3
I2
sg4
I3
sg5
I2
sg6
F-4.0
sg7
F9.0
sg8
F4.0
sg9
F-5.0
sb(dp592
I00
F103.56875774967585
sI01
F401.69957534147005
ss(i__main__
State
p593
(dp594
g3
I2
sg4
I3
sg5
I2
sg6
F-6.0
sg7
F9.0
sg8
F6.0
sg9
F1.0
sb(dp595
I00
F-5675.969008893499
sI01
F-6039.768190747329
ss(i__main__
State
p596
(dp597
g3
I2
sg4
I3
sg5
I2
sg6
F-8.0
sg7
F4.0
sg8
F8.0
sg9
F-5.0
sb(dp598
I00
F7.625835716484755
sI01
F14.079299640000002
ss(i__main__
State
p599
(dp600
g3
I2
sg4
I3
sg5
I2
sg6
F-6.0
sg7
F8.0
sg8
F6.0
sg9
F1.0
sb(dp601
I00
F45.79556255895869
sI01
F0.0
ss(i__main__
State
p602
(dp603
g3
I2
sg4
I3
sg5
I2
sg6
F-2.0
sg7
F1.0
sg8
F2.0
sg9
F-2.0
sb(dp604
I00
F-58.37385738656277
sI01
F42.906702388201076
ss(i__main__
State
p605
(dp606
g3
I2
sg4
I3
sg5
I2
sg6
F4.0
sg7
F9.0
sg8
F-4.0
sg9
F-5.0
sb(dp607
I00
F-949.1360867668036
sI01
F210.8563145636398
ss(i__main__
State
p608
(dp609
g3
I2
sg4
I3
sg5
I2
sg6
F2.0
sg7
F10.0
sg8
F-2.0
sg9
F7.0
sb(dp610
I00
F-561.40876889
sI01
F87.34424688097604
ss(i__main__
State
p611
(dp612
g3
I2
sg4
I3
sg5
I2
sg6
F8.0
sg7
F6.0
sg8
F-8.0
sg9
F-5.0
sb(dp613
I00
F84.39440722636147
sI01
F-46.67913006176988
ss(i__main__
State
p614
(dp615
g3
I2
sg4
I3
sg5
I2
sg6
F6.0
sg7
F8.0
sg8
F-6.0
sg9
F1.0
sb(dp616
I00
F517.578975813768
sI01
F75.89780876894567
ss(i__main__
State
p617
(dp618
g3
I2
sg4
I3
sg5
I2
sg6
F6.0
sg7
F1.0
sg8
F-6.0
sg9
F7.0
sb(dp619
I00
F-38.738221849809754
sI01
F23.882526252764567
ss(i__main__
State
p620
(dp621
g3
I2
sg4
I3
sg5
I2
sg6
F2.0
sg7
F9.0
sg8
F-2.0
sg9
F-2.0
sb(dp622
I00
F-2821.4767710815186
sI01
F-3203.111597032682
ss(i__main__
State
p623
(dp624
g3
I2
sg4
I3
sg5
I2
sg6
F4.0
sg7
F4.0
sg8
F-4.0
sg9
F7.0
sb(dp625
I00
F-90.49646298
sI01
F36.45852040017958
ss(i__main__
State
p626
(dp627
g3
I2
sg4
I3
sg5
I2
sg6
F6.0
sg7
F0.0
sg8
F-6.0
sg9
F10.0
sb(dp628
I00
F-40.42679194808884
sI01
F14.979076405602914
ss(i__main__
State
p629
(dp630
g3
I2
sg4
I3
sg5
I2
sg6
F2.0
sg7
F5.0
sg8
F-2.0
sg9
F-8.0
sb(dp631
I00
F5.664255741842192
sI01
I-62
ss(i__main__
State
p632
(dp633
g3
I2
sg4
I3
sg5
I2
sg6
F-2.0
sg7
F7.0
sg8
F2.0
sg9
F1.0
sb(dp634
I00
F137.79548940713406
sI01
F72.1378325141739
ss(i__main__
State
p635
(dp636
g3
I2
sg4
I3
sg5
I2
sg6
F-2.0
sg7
F4.0
sg8
F2.0
sg9
F-2.0
sb(dp637
I00
F60.185046512777916
sI01
F34.72741031300027
ss(i__main__
State
p638
(dp639
g3
I2
sg4
I3
sg5
I2
sg6
F6.0
sg7
F7.0
sg8
F-6.0
sg9
F-2.0
sb(dp640
I00
I-75
sI01
F141.12018055585523
ss(i__main__
State
p641
(dp642
g3
I2
sg4
I3
sg5
I2
sg6
F6.0
sg7
F10.0
sg8
F-6.0
sg9
F1.0
sb(dp643
I00
F111.84685488651157
sI01
F158.25011515018235
ss(i__main__
State
p644
(dp645
g3
I2
sg4
I3
sg5
I2
sg6
F4.0
sg7
F3.0
sg8
F-4.0
sg9
F-2.0
sb(dp646
I00
F-63.848
sI01
F23.97584542947422
ss(i__main__
State
p647
(dp648
g3
I2
sg4
I3
sg5
I2
sg6
F-4.0
sg7
F1.0
sg8
F4.0
sg9
F1.0
sb(dp649
I00
F60.72
sI01
F88.01472193778748
ss(i__main__
State
p650
(dp651
g3
I2
sg4
I3
sg5
I2
sg6
F-6.0
sg7
F5.0
sg8
F6.0
sg9
F1.0
sb(dp652
I00
F17.635486728854435
sI01
F-54.02596591276544
ss(i__main__
State
p653
(dp654
g3
I2
sg4
I3
sg5
I2
sg6
F-6.0
sg7
F8.0
sg8
F6.0
sg9
F10.0
sb(dp655
I00
F127.3181107862089
sI01
F34.270781344508684
ss(i__main__
State
p656
(dp657
g3
I2
sg4
I3
sg5
I2
sg6
F-8.0
sg7
F2.0
sg8
F8.0
sg9
F4.0
sb(dp658
I00
F54.279885923876364
sI01
F11.46099068253175
ss(i__main__
State
p659
(dp660
g3
I2
sg4
I3
sg5
I2
sg6
F8.0
sg7
F3.0
sg8
F-8.0
sg9
F-5.0
sb(dp661
I00
F184.0119180214749
sI01
F25.7319303960752
ss(i__main__
State
p662
(dp663
g3
I2
sg4
I3
sg5
I2
sg6
F8.0
sg7
F9.0
sg8
F-8.0
sg9
F10.0
sb(dp664
I00
F152.2041663095822
sI01
F33.02614219265797
ss(i__main__
State
p665
(dp666
g3
I2
sg4
I3
sg5
I2
sg6
F-8.0
sg7
F4.0
sg8
F8.0
sg9
F7.0
sb(dp667
I00
F55.53977892533946
sI01
F53.90967064424575
ss(i__main__
State
p668
(dp669
g3
I2
sg4
I3
sg5
I2
sg6
F-2.0
sg7
F0.0
sg8
F2.0
sg9
F7.0
sb(dp670
I00
F-75.07067690444313
sI01
F51.8643860526908
ss(i__main__
State
p671
(dp672
g3
I2
sg4
I3
sg5
I2
sg6
F8.0
sg7
F7.0
sg8
F-8.0
sg9
F-2.0
sb(dp673
I00
F56.11550905430989
sI01
F294.9203941260587
ss(i__main__
State
p674
(dp675
g3
I2
sg4
I3
sg5
I2
sg6
F-3.0
sg7
F0.0
sg8
F3.0
sg9
F0.0
sb(dp676
I00
F-9.0
sI01
I-75
ss(i__main__
State
p677
(dp678
g3
I2
sg4
I3
sg5
I2
sg6
F-8.0
sg7
F0.0
sg8
F8.0
sg9
F-2.0
sb(dp679
I00
F84.23514586109548
sI01
F76.57524659138048
ss(i__main__
State
p680
(dp681
g3
I2
sg4
I3
sg5
I2
sg6
F4.0
sg7
F2.0
sg8
F-4.0
sg9
F4.0
sb(dp682
I00
F56.41163010703005
sI01
I-81
ss(i__main__
State
p683
(dp684
g3
I2
sg4
I3
sg5
I2
sg6
F8.0
sg7
F9.0
sg8
F-8.0
sg9
F-2.0
sb(dp685
I00
F-536.797684308885
sI01
F134.80565694468848
ss(i__main__
State
p686
(dp687
g3
I2
sg4
I3
sg5
I2
sg6
F8.0
sg7
F3.0
sg8
F-8.0
sg9
F7.0
sb(dp688
I00
F-17.65884341296171
sI01
F28.49759380507304
ss(i__main__
State
p689
(dp690
g3
I2
sg4
I3
sg5
I2
sg6
F8.0
sg7
F7.0
sg8
F-8.0
sg9
F-8.0
sb(dp691
I00
F18.436431478227274
sI01
F295.15199081839637
ss(i__main__
State
p692
(dp693
g3
I2
sg4
I3
sg5
I2
sg6
F-8.0
sg7
F8.0
sg8
F8.0
sg9
F1.0
sb(dp694
I00
F602.1512951637403
sI01
F65.05351501049026
ss(i__main__
State
p695
(dp696
g3
I2
sg4
I3
sg5
I2
sg6
F-4.0
sg7
F2.0
sg8
F4.0
sg9
F7.0
sb(dp697
I00
F55.797231077834844
sI01
F-9.571243592520181
ss(i__main__
State
p698
(dp699
g3
I2
sg4
I3
sg5
I2
sg6
F8.0
sg7
F4.0
sg8
F-8.0
sg9
F7.0
sb(dp700
I00
F30.704426642863446
sI01
F-24.584855341044847
ss(i__main__
State
p701
(dp702
g3
I2
sg4
I3
sg5
I2
sg6
F-4.0
sg7
F5.0
sg8
F4.0
sg9
F-5.0
sb(dp703
I00
F396.1524572677336
sI01
F43.0452139162237
ss(i__main__
State
p704
(dp705
g3
I2
sg4
I3
sg5
I2
sg6
F-6.0
sg7
F1.0
sg8
F6.0
sg9
F-5.0
sb(dp706
I00
F71.40873442331014
sI01
F18.47698633278726
ss(i__main__
State
p707
(dp708
g3
I2
sg4
I3
sg5
I2
sg6
F-6.0
sg7
F5.0
sg8
F6.0
sg9
F4.0
sb(dp709
I00
F-59.519999999999996
sI01
F45.06879407023348
ss(i__main__
State
p710
(dp711
g3
I2
sg4
I3
sg5
I2
sg6
F-2.0
sg7
F0.0
sg8
F2.0
sg9
F4.0
sb(dp712
I00
F-5.996126890373166
sI01
F43.148087859777135
ss(i__main__
State
p713
(dp714
g3
I2
sg4
I3
sg5
I2
sg6
F-2.0
sg7
F10.0
sg8
F2.0
sg9
F-5.0
sb(dp715
I00
F395.45810147237626
sI01
F63.59908886665494
ss(i__main__
State
p716
(dp717
g3
I2
sg4
I3
sg5
I2
sg6
F6.0
sg7
F7.0
sg8
F-6.0
sg9
F7.0
sb(dp718
I00
F81.42613931388732
sI01
F807.3886968314423
ss(i__main__
State
p719
(dp720
g3
I2
sg4
I3
sg5
I2
sg6
F2.0
sg7
F3.0
sg8
F-2.0
sg9
F-8.0
sb(dp721
I00
F18.914656578960543
sI01
F-46.90269530077593
ss(i__main__
State
p722
(dp723
g3
I2
sg4
I3
sg5
I2
sg6
F4.0
sg7
F1.0
sg8
F-4.0
sg9
F-8.0
sb(dp724
I00
F35.55336938251715
sI01
F-20.55375444977032
ss(i__main__
State
p725
(dp726
g3
I2
sg4
I3
sg5
I2
sg6
F2.0
sg7
F1.0
sg8
F-2.0
sg9
F10.0
sb(dp727
I00
F17.246444655079248
sI01
F51.010518237029885
ss(i__main__
State
p728
(dp729
g3
I2
sg4
I3
sg5
I2
sg6
F8.0
sg7
F10.0
sg8
F-8.0
sg9
F-5.0
sb(dp730
I00
F182.74596473152044
sI01
F0.0
ss(i__main__
State
p731
(dp732
g3
I2
sg4
I3
sg5
I2
sg6
F6.0
sg7
F6.0
sg8
F-6.0
sg9
F10.0
sb(dp733
I00
F-11.21400778088635
sI01
F99.3591734040485
ss(i__main__
State
p734
(dp735
g3
I2
sg4
I3
sg5
I2
sg6
F-4.0
sg7
F6.0
sg8
F4.0
sg9
F7.0
sb(dp736
I00
F10.482385069474466
sI01
F53.29661399033815
ss(i__main__
State
p737
(dp738
g3
I2
sg4
I3
sg5
I2
sg6
F6.0
sg7
F8.0
sg8
F-6.0
sg9
F-8.0
sb(dp739
I00
F-111.37900635226413
sI01
F293.48440761044634
ss(i__main__
State
p740
(dp741
g3
I2
sg4
I3
sg5
I2
sg6
F-8.0
sg7
F6.0
sg8
F8.0
sg9
F1.0
sb(dp742
I00
F341.649180080913
sI01
F11.247798062602838
ss(i__main__
State
p743
(dp744
g3
I2
sg4
I3
sg5
I2
sg6
F0.0
sg7
F10.0
sg8
F0.0
sg9
F4.0
sb(dp745
I00
F-4628.546290537071
sI01
F-4657.682864666995
ss(i__main__
State
p746
(dp747
g3
I2
sg4
I3
sg5
I2
sg6
F2.0
sg7
F6.0
sg8
F-2.0
sg9
F-5.0
sb(dp748
I00
F46.850002674746264
sI01
F26.447447088772268
ss(i__main__
State
p749
(dp750
g3
I2
sg4
I3
sg5
I2
sg6
F4.0
sg7
F3.0
sg8
F-4.0
sg9
F4.0
sb(dp751
I00
F6.014771465974126
sI01
F83.68818409628173
ss(i__main__
State
p752
(dp753
g3
I2
sg4
I3
sg5
I2
sg6
F2.0
sg7
F9.0
sg8
F-2.0
sg9
F-8.0
sb(dp754
I00
F839.0286037920763
sI01
F-2830.8760167725527
ss(i__main__
State
p755
(dp756
g3
I2
sg4
I3
sg5
I2
sg6
F-6.0
sg7
F4.0
sg8
F6.0
sg9
F-2.0
sb(dp757
I00
F53.17130226094108
sI01
F-19.892027793128978
ss(i__main__
State
p758
(dp759
g3
I2
sg4
I3
sg5
I2
sg6
F-4.0
sg7
F4.0
sg8
F4.0
sg9
F-5.0
sb(dp760
I00
F-4.292448982874467
sI01
F190.7945505878078
ss(i__main__
State
p761
(dp762
g3
I2
sg4
I3
sg5
I2
sg6
F-9.0
sg7
F1.0
sg8
F9.0
sg9
F9.0
sb(dp763
I00
F48.1
sI01
I-54
ss(i__main__
State
p764
(dp765
g3
I2
sg4
I3
sg5
I2
sg6
F8.0
sg7
F0.0
sg8
F-8.0
sg9
F10.0
sb(dp766
I00
F39.60546817023571
sI01
F-22.581468482698913
ss(i__main__
State
p767
(dp768
g3
I2
sg4
I3
sg5
I2
sg6
F8.0
sg7
F10.0
sg8
F-8.0
sg9
F10.0
sb(dp769
I00
F404.1580440555372
sI01
F110.93648206854914
ss(i__main__
State
p770
(dp771
g3
I2
sg4
I3
sg5
I2
sg6
F-8.0
sg7
F3.0
sg8
F8.0
sg9
F-5.0
sb(dp772
I00
F37.373888881192954
sI01
F58.2307067766187
ss(i__main__
State
p773
(dp774
g3
I2
sg4
I3
sg5
I2
sg6
F4.0
sg7
F2.0
sg8
F-4.0
sg9
F10.0
sb(dp775
I00
F27.638110188021557
sI01
F20.930489792962593
ss(i__main__
State
p776
(dp777
g3
I2
sg4
I3
sg5
I2
sg6
F2.0
sg7
F10.0
sg8
F-2.0
sg9
F4.0
sb(dp778
I00
F-2020.0857182733062
sI01
F136.86011121456824
ss(i__main__
State
p779
(dp780
g3
I2
sg4
I3
sg5
I2
sg6
F-2.0
sg7
F1.0
sg8
F2.0
sg9
F4.0
sb(dp781
I00
F7.9402402433882
sI01
F31.731250312619736
ss(i__main__
State
p782
(dp783
g3
I2
sg4
I3
sg5
I2
sg6
F0.0
sg7
F8.0
sg8
F0.0
sg9
F4.0
sb(dp784
I00
F-5612.231388159485
sI01
F-5613.002932564695
ss(i__main__
State
p785
(dp786
g3
I2
sg4
I3
sg5
I2
sg6
F-2.0
sg7
F6.0
sg8
F2.0
sg9
F4.0
sb(dp787
I00
F41.9359772645029
sI01
F69.90259271976218
ss(i__main__
State
p788
(dp789
g3
I2
sg4
I3
sg5
I2
sg6
F-6.0
sg7
F9.0
sg8
F6.0
sg9
F7.0
sb(dp790
I00
F35.424561000000004
sI01
F200.8385592067251
ss(i__main__
State
p791
(dp792
g3
I2
sg4
I3
sg5
I2
sg6
F-4.0
sg7
F7.0
sg8
F4.0
sg9
F-2.0
sb(dp793
I00
F-53.88024447727439
sI01
F5.4
ss(i__main__
State
p794
(dp795
g3
I2
sg4
I3
sg5
I2
sg6
F0.0
sg7
F7.0
sg8
F0.0
sg9
F4.0
sb(dp796
I00
F2.636555999026962
sI01
F267.14509945611974
ss(i__main__
State
p797
(dp798
g3
I2
sg4
I3
sg5
I2
sg6
F6.0
sg7
F4.0
sg8
F-6.0
sg9
F1.0
sb(dp799
I00
F75.00977868112139
sI01
F-2.7772706479400684
ss(i__main__
State
p800
(dp801
g3
I2
sg4
I3
sg5
I2
sg6
F-4.0
sg7
F0.0
sg8
F4.0
sg9
F-5.0
sb(dp802
I00
F59.86461594614229
sI01
F-3.402366516982159
ss(i__main__
State
p803
(dp804
g3
I2
sg4
I3
sg5
I2
sg6
F-2.0
sg7
F2.0
sg8
F2.0
sg9
F10.0
sb(dp805
I00
F-24.0369
sI01
I-80
ss(i__main__
State
p806
(dp807
g3
I2
sg4
I3
sg5
I2
sg6
F0.0
sg7
F4.0
sg8
F0.0
sg9
F-5.0
sb(dp808
I00
F-69.92569322657069
sI01
F52.53192494245174
ss(i__main__
State
p809
(dp810
g3
I2
sg4
I3
sg5
I2
sg6
F-4.0
sg7
F4.0
sg8
F4.0
sg9
F1.0
sb(dp811
I00
F67.00347520001783
sI01
F-42.2621429042404
ss(i__main__
State
p812
(dp813
g3
I2
sg4
I3
sg5
I2
sg6
F4.0
sg7
F10.0
sg8
F-4.0
sg9
F7.0
sb(dp814
I00
F241.56089837261445
sI01
F71.25069462229965
ss(i__main__
State
p815
(dp816
g3
I2
sg4
I3
sg5
I2
sg6
F4.0
sg7
F8.0
sg8
F-4.0
sg9
F4.0
sb(dp817
I00
F497.5185967175263
sI01
F207.10539663733766
ss(i__main__
State
p818
(dp819
g3
I2
sg4
I3
sg5
I2
sg6
F8.0
sg7
F1.0
sg8
F-8.0
sg9
F4.0
sb(dp820
I00
F38.75606660053436
sI01
F52.558294377159775
ss(i__main__
State
p821
(dp822
g3
I2
sg4
I3
sg5
I2
sg6
F2.0
sg7
F7.0
sg8
F-2.0
sg9
F-5.0
sb(dp823
I00
F61.33895628623391
sI01
F36.0
ss(i__main__
State
p824
(dp825
g3
I2
sg4
I3
sg5
I2
sg6
F0.0
sg7
F8.0
sg8
F0.0
sg9
F10.0
sb(dp826
I00
F-5662.453684817776
sI01
F-5111.75975943017
ss(i__main__
State
p827
(dp828
g3
I2
sg4
I3
sg5
I2
sg6
F-6.0
sg7
F4.0
sg8
F6.0
sg9
F10.0
sb(dp829
I00
F35.76000760892974
sI01
I-78
ss(i__main__
State
p830
(dp831
g3
I2
sg4
I3
sg5
I2
sg6
F-2.0
sg7
F6.0
sg8
F2.0
sg9
F10.0
sb(dp832
I00
F83.61562442445974
sI01
F-53.0653397798738
ss(i__main__
State
p833
(dp834
g3
I2
sg4
I3
sg5
I2
sg6
F2.0
sg7
F3.0
sg8
F-2.0
sg9
F1.0
sb(dp835
I00
I65
sI01
F84.88281373365918
ss(i__main__
State
p836
(dp837
g3
I2
sg4
I3
sg5
I2
sg6
F-4.0
sg7
F7.0
sg8
F4.0
sg9
F-5.0
sb(dp838
I00
F62.72378326776964
sI01
F337.38775121486105
ss(i__main__
State
p839
(dp840
g3
I2
sg4
I3
sg5
I2
sg6
F0.0
sg7
F3.0
sg8
F0.0
sg9
F4.0
sb(dp841
I00
I-92
sI01
F-32.62955935853517
ss(i__main__
State
p842
(dp843
g3
I2
sg4
I3
sg5
I2
sg6
F6.0
sg7
F1.0
sg8
F-6.0
sg9
F10.0
sb(dp844
I00
F1.9046462263729071
sI01
F51.227127426670975
ss(i__main__
State
p845
(dp846
g3
I2
sg4
I3
sg5
I2
sg6
F4.0
sg7
F7.0
sg8
F-4.0
sg9
F1.0
sb(dp847
I00
I-40
sI01
F81.8783202785601
ss(i__main__
State
p848
(dp849
g3
I2
sg4
I3
sg5
I2
sg6
F-8.0
sg7
F5.0
sg8
F8.0
sg9
F1.0
sb(dp850
I00
F-24.704082828795443
sI01
F581.4548920957963
ss(i__main__
State
p851
(dp852
g3
I2
sg4
I3
sg5
I2
sg6
F-2.0
sg7
F3.0
sg8
F2.0
sg9
F1.0
sb(dp853
I00
F-24.36713775713735
sI01
F24.10026785945866
ss(i__main__
State
p854
(dp855
g3
I2
sg4
I3
sg5
I2
sg6
F2.0
sg7
F1.0
sg8
F-2.0
sg9
F4.0
sb(dp856
I00
I83
sI01
F28.909999999999997
ss(i__main__
State
p857
(dp858
g3
I2
sg4
I3
sg5
I2
sg6
F-4.0
sg7
F8.0
sg8
F4.0
sg9
F10.0
sb(dp859
I00
F79.58831402899396
sI01
F382.76839335509345
ss(i__main__
State
p860
(dp861
g3
I2
sg4
I3
sg5
I2
sg6
F0.0
sg7
F2.0
sg8
F0.0
sg9
F10.0
sb(dp862
I00
F-0.3063191624184431
sI01
F-74.2
ss(i__main__
State
p863
(dp864
g3
I2
sg4
I3
sg5
I2
sg6
F0.0
sg7
F3.0
sg8
F0.0
sg9
F-5.0
sb(dp865
I00
I-98
sI01
F38.24325186948701
ss(i__main__
State
p866
(dp867
g3
I2
sg4
I3
sg5
I2
sg6
F-8.0
sg7
F6.0
sg8
F8.0
sg9
F7.0
sb(dp868
I00
F2.5842885651717578
sI01
F68.19827909711934
ss(i__main__
State
p869
(dp870
g3
I2
sg4
I3
sg5
I2
sg6
F-8.0
sg7
F3.0
sg8
F8.0
sg9
F-8.0
sb(dp871
I00
F81.19633442217012
sI01
F20.863898800589972
ss(i__main__
State
p872
(dp873
g3
I2
sg4
I3
sg5
I2
sg6
F4.0
sg7
F0.0
sg8
F-4.0
sg9
F-5.0
sb(dp874
I00
F-50.07026259673545
sI01
F4.154534686738856
ss(i__main__
State
p875
(dp876
g3
I2
sg4
I3
sg5
I2
sg6
F2.0
sg7
F6.0
sg8
F-2.0
sg9
F-2.0
sb(dp877
I00
I-44
sI01
F55.24971055770898
ss(i__main__
State
p878
(dp879
g3
I2
sg4
I3
sg5
I2
sg6
F-2.0
sg7
F7.0
sg8
F2.0
sg9
F4.0
sb(dp880
I00
F-6.85530812101749
sI01
F291.2920234085632
ss(i__main__
State
p881
(dp882
g3
I2
sg4
I3
sg5
I2
sg6
F0.0
sg7
F5.0
sg8
F0.0
sg9
F10.0
sb(dp883
I00
F-48.84710147793861
sI01
F63.21680382770667
ss(i__main__
State
p884
(dp885
g3
I2
sg4
I3
sg5
I2
sg6
F8.0
sg7
F3.0
sg8
F-8.0
sg9
F1.0
sb(dp886
I00
F-32.062738299575905
sI01
F-62.416011986937406
ss(i__main__
State
p887
(dp888
g3
I2
sg4
I3
sg5
I2
sg6
F6.0
sg7
F0.0
sg8
F-6.0
sg9
F1.0
sb(dp889
I00
F57.21516206668288
sI01
F2.756422058980291
ss(i__main__
State
p890
(dp891
g3
I2
sg4
I3
sg5
I2
sg6
F-8.0
sg7
F1.0
sg8
F8.0
sg9
F-5.0
sb(dp892
I00
F62.325210728780306
sI01
F15.624398866961982
ss(i__main__
State
p893
(dp894
g3
I2
sg4
I3
sg5
I2
sg6
F-8.0
sg7
F9.0
sg8
F8.0
sg9
F-8.0
sb(dp895
I00
F353.0799439219948
sI01
F84.41670181053854
ss(i__main__
State
p896
(dp897
g3
I2
sg4
I3
sg5
I2
sg6
F-2.0
sg7
F5.0
sg8
F2.0
sg9
F1.0
sb(dp898
I00
F43.3214335
sI01
F67.50213482047661
ss(i__main__
State
p899
(dp900
g3
I2
sg4
I3
sg5
I2
sg6
F2.0
sg7
F8.0
sg8
F-2.0
sg9
F-5.0
sb(dp901
I00
F-508.5057959484677
sI01
F291.6136969315063
ss(i__main__
State
p902
(dp903
g3
I2
sg4
I3
sg5
I2
sg6
F6.0
sg7
F6.0
sg8
F-6.0
sg9
F-5.0
sb(dp904
I00
F84.39356721022354
sI01
F63.831237513616706
ss(i__main__
State
p905
(dp906
g3
I2
sg4
I3
sg5
I2
sg6
F-2.0
sg7
F6.0
sg8
F2.0
sg9
F-2.0
sb(dp907
I00
F-2.664234872888498
sI01
F77.2793636246735
ss(i__main__
State
p908
(dp909
g3
I2
sg4
I3
sg5
I2
sg6
F8.0
sg7
F4.0
sg8
F-8.0
sg9
F-2.0
sb(dp910
I00
F62.82643551523606
sI01
F-42.78078403740208
ss(i__main__
State
p911
(dp912
g3
I2
sg4
I3
sg5
I2
sg6
F-8.0
sg7
F5.0
sg8
F8.0
sg9
F7.0
sb(dp913
I00
F21.70082514133921
sI01
F50.057073078599736
ss(i__main__
State
p914
(dp915
g3
I2
sg4
I3
sg5
I2
sg6
F0.0
sg7
F1.0
sg8
F0.0
sg9
F7.0
sb(dp916
I00
I-98
sI01
F-40.5
ss(i__main__
State
p917
(dp918
g3
I2
sg4
I3
sg5
I2
sg6
F-4.0
sg7
F10.0
sg8
F4.0
sg9
F-5.0
sb(dp919
I00
F162.533350417991
sI01
F16.484013224446148
ss(i__main__
State
p920
(dp921
g3
I2
sg4
I3
sg5
I2
sg6
F-6.0
sg7
F2.0
sg8
F6.0
sg9
F7.0
sb(dp922
I00
F48.89123062862083
sI01
F-36.52338473472526
ss(i__main__
State
p923
(dp924
g3
I2
sg4
I3
sg5
I2
sg6
F4.0
sg7
F1.0
sg8
F-4.0
sg9
F10.0
sb(dp925
I00
F4.456783072307726
sI01
F-81.484706
ss(i__main__
State
p926
(dp927
g3
I2
sg4
I3
sg5
I2
sg6
F2.0
sg7
F4.0
sg8
F-2.0
sg9
F1.0
sb(dp928
I00
F82.25154203374211
sI01
F-10.384273846279921
ss(i__main__
State
p929
(dp930
g3
I2
sg4
I3
sg5
I2
sg6
F-4.0
sg7
F10.0
sg8
F4.0
sg9
F10.0
sb(dp931
I00
F104.36696069858361
sI01
F160.37420198984617
ss(i__main__
State
p932
(dp933
g3
I2
sg4
I3
sg5
I2
sg6
F2.0
sg7
F6.0
sg8
F-2.0
sg9
F-8.0
sb(dp934
I00
F43.94332179111587
sI01
F-33.0678723579607
ss(i__main__
State
p935
(dp936
g3
I2
sg4
I3
sg5
I2
sg6
F-8.0
sg7
F7.0
sg8
F8.0
sg9
F7.0
sb(dp937
I00
F59.0300047863055
sI01
F194.59109375846393
ss(i__main__
State
p938
(dp939
g3
I2
sg4
I3
sg5
I2
sg6
F-6.0
sg7
F2.0
sg8
F6.0
sg9
F1.0
sb(dp940
I00
F66.09355041170193
sI01
F18.629392855368756
ss(i__main__
State
p941
(dp942
g3
I2
sg4
I3
sg5
I2
sg6
F2.0
sg7
F9.0
sg8
F-2.0
sg9
F-5.0
sb(dp943
I00
F306.7744190988933
sI01
F-768.1519024372641
ss(i__main__
State
p944
(dp945
g3
I2
sg4
I3
sg5
I2
sg6
F4.0
sg7
F5.0
sg8
F-4.0
sg9
F-8.0
sb(dp946
I00
F35.044234169569236
sI01
F-2.912372130011275
ss(i__main__
State
p947
(dp948
g3
I2
sg4
I3
sg5
I2
sg6
F4.0
sg7
F4.0
sg8
F-4.0
sg9
F10.0
sb(dp949
I00
F33.5240961716377
sI01
F8.65494202718378
ss(i__main__
State
p950
(dp951
g3
I2
sg4
I3
sg5
I2
sg6
F0.0
sg7
F6.0
sg8
F0.0
sg9
F1.0
sb(dp952
I00
F77.25782767137851
sI01
F77.60726637235322
ss(i__main__
State
p953
(dp954
g3
I2
sg4
I3
sg5
I2
sg6
F-8.0
sg7
F8.0
sg8
F8.0
sg9
F4.0
sb(dp955
I00
F182.69310733902984
sI01
F79.32477052322685
ss(i__main__
State
p956
(dp957
g3
I2
sg4
I3
sg5
I2
sg6
F-6.0
sg7
F3.0
sg8
F6.0
sg9
F-8.0
sb(dp958
I00
F57.04667840232323
sI01
F31.09459927004
ss(i__main__
State
p959
(dp960
g3
I2
sg4
I3
sg5
I2
sg6
F-8.0
sg7
F2.0
sg8
F8.0
sg9
F-5.0
sb(dp961
I00
F2.8177406426977054
sI01
F59.011261720339434
ss(i__main__
State
p962
(dp963
g3
I2
sg4
I3
sg5
I2
sg6
F-6.0
sg7
F8.0
sg8
F6.0
sg9
F-2.0
sb(dp964
I00
F485.592714590166
sI01
F-1205.8134300755742
ss(i__main__
State
p965
(dp966
g3
I2
sg4
I3
sg5
I2
sg6
F-2.0
sg7
F7.0
sg8
F2.0
sg9
F10.0
sb(dp967
I00
F248.40304025118502
sI01
F822.0281024607071
ss(i__main__
State
p968
(dp969
g3
I2
sg4
I3
sg5
I2
sg6
F0.0
sg7
F0.0
sg8
F0.0
sg9
F-8.0
sb(dp970
I00
F28.177988196745083
sI01
F46.86864534822608
ss(i__main__
State
p971
(dp972
g3
I2
sg4
I3
sg5
I2
sg6
F-2.0
sg7
F4.0
sg8
F2.0
sg9
F-5.0
sb(dp973
I00
F-29.666000000000004
sI01
F-9.453719260129663
ss(i__main__
State
p974
(dp975
g3
I2
sg4
I3
sg5
I2
sg6
F0.0
sg7
F9.0
sg8
F0.0
sg9
F1.0
sb(dp976
I00
F-6455.650944047447
sI01
F-6455.201433462429
ss(i__main__
State
p977
(dp978
g3
I2
sg4
I3
sg5
I2
sg6
F8.0
sg7
F0.0
sg8
F-8.0
sg9
F-5.0
sb(dp979
I00
F-53.4
sI01
F9.342170739726717
ss(i__main__
State
p980
(dp981
g3
I2
sg4
I3
sg5
I2
sg6
F8.0
sg7
F8.0
sg8
F-8.0
sg9
F-8.0
sb(dp982
I00
F535.2074013231082
sI01
F101.47720718534534
ss(i__main__
State
p983
(dp984
g3
I2
sg4
I3
sg5
I2
sg6
F0.0
sg7
F1.0
sg8
F0.0
sg9
F-5.0
sb(dp985
I00
F-6.9385772716351335
sI01
F41.05934387279
ss(i__main__
State
p986
(dp987
g3
I2
sg4
I3
sg5
I2
sg6
F-2.0
sg7
F4.0
sg8
F2.0
sg9
F10.0
sb(dp988
I00
F63.00008562100784
sI01
F-0.188970175919831
ss(i__main__
State
p989
(dp990
g3
I2
sg4
I3
sg5
I2
sg6
F-2.0
sg7
F9.0
sg8
F2.0
sg9
F4.0
sb(dp991
I00
F170.61961307398158
sI01
F75.41048306323172
ss(i__main__
State
p992
(dp993
g3
I2
sg4
I3
sg5
I2
sg6
F-8.0
sg7
F5.0
sg8
F8.0
sg9
F10.0
sb(dp994
I00
F-0.7765161654467718
sI01
F-48.48079502620608
ss(i__main__
State
p995
(dp996
g3
I2
sg4
I3
sg5
I2
sg6
F-2.0
sg7
F9.0
sg8
F2.0
sg9
F-8.0
sb(dp997
I00
F447.44838989921385
sI01
F88.93778362546985
ss(i__main__
State
p998
(dp999
g3
I2
sg4
I3
sg5
I2
sg6
F-4.0
sg7
F2.0
sg8
F4.0
sg9
F-8.0
sb(dp1000
I00
F-28.47410470392047
sI01
F80.38241911934362
ss(i__main__
State
p1001
(dp1002
g3
I2
sg4
I3
sg5
I2
sg6
F0.0
sg7
F2.0
sg8
F0.0
sg9
F1.0
sb(dp1003
I00
F-36.35288219167254
sI01
F17.444851144482367
ss(i__main__
State
p1004
(dp1005
g3
I2
sg4
I3
sg5
I2
sg6
F6.0
sg7
F3.0
sg8
F-6.0
sg9
F1.0
sb(dp1006
I00
F20.660922117225205
sI01
F69.49664346199197
ss(i__main__
State
p1007
(dp1008
g3
I2
sg4
I3
sg5
I2
sg6
F-4.0
sg7
F10.0
sg8
F4.0
sg9
F-2.0
sb(dp1009
I00
F404.14563113965653
sI01
F22.570300222181007
ss(i__main__
State
p1010
(dp1011
g3
I2
sg4
I3
sg5
I2
sg6
F-6.0
sg7
F4.0
sg8
F6.0
sg9
F4.0
sb(dp1012
I00
F-12.807995872509423
sI01
F55.37059111622277
ss(i__main__
State
p1013
(dp1014
g3
I2
sg4
I3
sg5
I2
sg6
F-2.0
sg7
F10.0
sg8
F2.0
sg9
F-8.0
sb(dp1015
I00
F20.0
sI01
F90.78890141717453
ss(i__main__
State
p1016
(dp1017
g3
I2
sg4
I3
sg5
I2
sg6
F-6.0
sg7
F3.0
sg8
F6.0
sg9
F-5.0
sb(dp1018
I00
I60
sI01
F59.22061123828098
ss(i__main__
State
p1019
(dp1020
g3
I2
sg4
I3
sg5
I2
sg6
F-8.0
sg7
F5.0
sg8
F8.0
sg9
F-5.0
sb(dp1021
I00
F44.94573
sI01
F78.3269305808866
ss(i__main__
State
p1022
(dp1023
g3
I2
sg4
I3
sg5
I2
sg6
F4.0
sg7
F6.0
sg8
F-4.0
sg9
F-5.0
sb(dp1024
I00
F-47.8942572315649
sI01
F51.18970316862617
ss(i__main__
State
p1025
(dp1026
g3
I2
sg4
I3
sg5
I2
sg6
F-4.0
sg7
F7.0
sg8
F4.0
sg9
F10.0
sb(dp1027
I00
F38.9633860589142
sI01
F295.52968094278555
ss(i__main__
State
p1028
(dp1029
g3
I2
sg4
I3
sg5
I2
sg6
F4.0
sg7
F5.0
sg8
F-4.0
sg9
F4.0
sb(dp1030
I00
F38.06976504329416
sI01
F-50.07619450627095
ss(i__main__
State
p1031
(dp1032
g3
I2
sg4
I3
sg5
I2
sg6
F-2.0
sg7
F4.0
sg8
F2.0
sg9
F-8.0
sb(dp1033
I00
F47.07662403949547
sI01
F290.34270212744156
ss(i__main__
State
p1034
(dp1035
g3
I2
sg4
I3
sg5
I2
sg6
F-4.0
sg7
F4.0
sg8
F4.0
sg9
F-2.0
sb(dp1036
I00
F61.237289918987734
sI01
I43
ss(i__main__
State
p1037
(dp1038
g3
I2
sg4
I3
sg5
I2
sg6
F2.0
sg7
F1.0
sg8
F-2.0
sg9
F1.0
sb(dp1039
I00
F60.05262783906107
sI01
F46.65126236149876
ss(i__main__
State
p1040
(dp1041
g3
I2
sg4
I3
sg5
I2
sg6
F0.0
sg7
F0.0
sg8
F0.0
sg9
F-2.0
sb(dp1042
I00
F48.95199793168813
sI01
F7.965706645048523
ss(i__main__
State
p1043
(dp1044
g3
I2
sg4
I3
sg5
I2
sg6
F6.0
sg7
F5.0
sg8
F-6.0
sg9
F-8.0
sb(dp1045
I00
F-39.23786374866409
sI01
F24.579642428225426
ss(i__main__
State
p1046
(dp1047
g3
I2
sg4
I3
sg5
I2
sg6
F-8.0
sg7
F3.0
sg8
F8.0
sg9
F-2.0
sb(dp1048
I00
F-26.8481506091
sI01
F-20.27214152534313
ss(i__main__
State
p1049
(dp1050
g3
I2
sg4
I3
sg5
I2
sg6
F-4.0
sg7
F3.0
sg8
F4.0
sg9
F7.0
sb(dp1051
I00
F51.67457074386754
sI01
F0.23794387882948298
ss(i__main__
State
p1052
(dp1053
g3
I2
sg4
I3
sg5
I2
sg6
F-4.0
sg7
F3.0
sg8
F4.0
sg9
F-8.0
sb(dp1054
I00
F52.61121610322435
sI01
F77.07385030482982
ss(i__main__
State
p1055
(dp1056
g3
I2
sg4
I3
sg5
I2
sg6
F-7.0
sg7
F0.0
sg8
F7.0
sg9
F6.0
sb(dp1057
I00
I0
sI01
F93.4
ss(i__main__
State
p1058
(dp1059
g3
I2
sg4
I3
sg5
I2
sg6
F-2.0
sg7
F3.0
sg8
F2.0
sg9
F-8.0
sb(dp1060
I00
F25.4076559073297
sI01
F32.444017470321384
ss(i__main__
State
p1061
(dp1062
g3
I2
sg4
I3
sg5
I2
sg6
F-6.0
sg7
F2.0
sg8
F6.0
sg9
F-5.0
sb(dp1063
I00
F21.341411725017224
sI01
F17.471146968282966
ss(i__main__
State
p1064
(dp1065
g3
I2
sg4
I3
sg5
I2
sg6
F8.0
sg7
F0.0
sg8
F-8.0
sg9
F7.0
sb(dp1066
I00
F-25.99190751641839
sI01
F52.2134983170766
ss(i__main__
State
p1067
(dp1068
g3
I2
sg4
I3
sg5
I2
sg6
F0.0
sg7
F5.0
sg8
F0.0
sg9
F4.0
sb(dp1069
I00
F34.43332733826667
sI01
F-16.353697085106006
ss(i__main__
State
p1070
(dp1071
g3
I2
sg4
I3
sg5
I2
sg6
F-2.0
sg7
F4.0
sg8
F2.0
sg9
F7.0
sb(dp1072
I00
F47.51093987877658
sI01
F-53.86921889012398
ss(i__main__
State
p1073
(dp1074
g3
I2
sg4
I3
sg5
I2
sg6
F0.0
sg7
F6.0
sg8
F0.0
sg9
F-5.0
sb(dp1075
I00
F50.83450002045626
sI01
F-1.0728087304467948
ss(i__main__
State
p1076
(dp1077
g3
I2
sg4
I3
sg5
I2
sg6
F-6.0
sg7
F3.0
sg8
F6.0
sg9
F4.0
sb(dp1078
I00
F-19.00444510240933
sI01
F57.44622320956629
ss(i__main__
State
p1079
(dp1080
g3
I2
sg4
I3
sg5
I2
sg6
F-4.0
sg7
F9.0
sg8
F4.0
sg9
F-8.0
sb(dp1081
I00
F392.8287398033775
sI01
F93.04144234152548
ss(i__main__
State
p1082
(dp1083
g3
I2
sg4
I3
sg5
I2
sg6
F-4.0
sg7
F10.0
sg8
F4.0
sg9
F1.0
sb(dp1084
I00
F643.0769968131445
sI01
F132.99034064922645
ss(i__main__
State
p1085
(dp1086
g3
I2
sg4
I3
sg5
I2
sg6
F-4.0
sg7
F5.0
sg8
F4.0
sg9
F7.0
sb(dp1087
I00
F48.812558914498815
sI01
F-22.310026119810946
ss(i__main__
State
p1088
(dp1089
g3
I2
sg4
I3
sg5
I2
sg6
F0.0
sg7
F2.0
sg8
F0.0
sg9
F-2.0
sb(dp1090
I00
F38.86297232807805
sI01
F14.116924930208889
ss(i__main__
State
p1091
(dp1092
g3
I2
sg4
I3
sg5
I2
sg6
F-8.0
sg7
F7.0
sg8
F8.0
sg9
F-5.0
sb(dp1093
I00
F138.72925850683927
sI01
F109.2378273928712
ss(i__main__
State
p1094
(dp1095
g3
I2
sg4
I3
sg5
I2
sg6
F-8.0
sg7
F10.0
sg8
F8.0
sg9
F-5.0
sb(dp1096
I00
F328.85933502382824
sI01
F26.30541659018968
ss(i__main__
State
p1097
(dp1098
g3
I2
sg4
I3
sg5
I2
sg6
F2.0
sg7
F1.0
sg8
F-2.0
sg9
F7.0
sb(dp1099
I00
F-15.085652029804077
sI01
F8.82554694021948
ss(i__main__
State
p1100
(dp1101
g3
I2
sg4
I3
sg5
I2
sg6
F-2.0
sg7
F3.0
sg8
F2.0
sg9
F-2.0
sb(dp1102
I00
F75.03447877844805
sI01
I-32
ss(i__main__
State
p1103
(dp1104
g3
I2
sg4
I3
sg5
I2
sg6
F-2.0
sg7
F3.0
sg8
F2.0
sg9
F7.0
sb(dp1105
I00
I-44
sI01
F61.37054686590592
ss(i__main__
State
p1106
(dp1107
g3
I2
sg4
I3
sg5
I2
sg6
F6.0
sg7
F2.0
sg8
F-6.0
sg9
F-2.0
sb(dp1108
I00
F65.90469631443165
sI01
F-12.304014759562252
ss(i__main__
State
p1109
(dp1110
g3
I2
sg4
I3
sg5
I2
sg6
F0.0
sg7
F9.0
sg8
F0.0
sg9
F-2.0
sb(dp1111
I00
F-885.8437057619929
sI01
F331.33515496683367
ss(i__main__
State
p1112
(dp1113
g3
I2
sg4
I3
sg5
I2
sg6
F4.0
sg7
F2.0
sg8
F-4.0
sg9
F-8.0
sb(dp1114
I00
F47.84401083020216
sI01
F-30.71394532639172
ss(i__main__
State
p1115
(dp1116
g3
I2
sg4
I3
sg5
I2
sg6
F-2.0
sg7
F4.0
sg8
F2.0
sg9
F4.0
sb(dp1117
I00
F71.96297227440475
sI01
F75.00436
ss(i__main__
State
p1118
(dp1119
g3
I2
sg4
I3
sg5
I2
sg6
F0.0
sg7
F0.0
sg8
F0.0
sg9
F7.0
sb(dp1120
I00
F-32.690438198408
sI01
F53.178645054665516
ss(i__main__
State
p1121
(dp1122
g3
I2
sg4
I3
sg5
I2
sg6
F-6.0
sg7
F0.0
sg8
F6.0
sg9
F-8.0
sb(dp1123
I00
F64.14313414808463
sI01
F36.257979802769015
ss(i__main__
State
p1124
(dp1125
g3
I2
sg4
I3
sg5
I2
sg6
F-2.0
sg7
F8.0
sg8
F2.0
sg9
F-2.0
sb(dp1126
I00
F60.7678544729846
sI01
F0.0
ss(i__main__
State
p1127
(dp1128
g3
I2
sg4
I3
sg5
I2
sg6
F-6.0
sg7
F3.0
sg8
F6.0
sg9
F7.0
sb(dp1129
I00
F29.41738693630053
sI01
F0.8614788535780589
ss(i__main__
State
p1130
(dp1131
g3
I2
sg4
I3
sg5
I2
sg6
F-8.0
sg7
F7.0
sg8
F8.0
sg9
F1.0
sb(dp1132
I00
F159.3272214996671
sI01
F44.85646179776476
ss(i__main__
State
p1133
(dp1134
g3
I2
sg4
I3
sg5
I2
sg6
F-8.0
sg7
F1.0
sg8
F8.0
sg9
F10.0
sb(dp1135
I00
F51.21768230405531
sI01
F-54.37870265549575
ss(i__main__
State
p1136
(dp1137
g3
I2
sg4
I3
sg5
I2
sg6
F-8.0
sg7
F1.0
sg8
F8.0
sg9
F-8.0
sb(dp1138
I00
F64.37836273695076
sI01
F49.86655762712366
ss(i__main__
State
p1139
(dp1140
g3
I2
sg4
I3
sg5
I2
sg6
F-6.0
sg7
F2.0
sg8
F6.0
sg9
F-2.0
sb(dp1141
I00
F4.96353641223568
sI01
F49.71049964682119
ss(i__main__
State
p1142
(dp1143
g3
I2
sg4
I3
sg5
I2
sg6
F4.0
sg7
F7.0
sg8
F-4.0
sg9
F10.0
sb(dp1144
I00
F24.82059665175725
sI01
F286.90485799205993
ss(i__main__
State
p1145
(dp1146
g3
I2
sg4
I3
sg5
I2
sg6
F2.0
sg7
F2.0
sg8
F-2.0
sg9
F-5.0
sb(dp1147
I00
F42.78663172357115
sI01
F43.97087013766033
ss(i__main__
State
p1148
(dp1149
g3
I2
sg4
I3
sg5
I2
sg6
F4.0
sg7
F0.0
sg8
F-4.0
sg9
F7.0
sb(dp1150
I00
F-15.041865658991155
sI01
I-94
ss(i__main__
State
p1151
(dp1152
g3
I2
sg4
I3
sg5
I2
sg6
F-2.0
sg7
F6.0
sg8
F2.0
sg9
F1.0
sb(dp1153
I00
F48.77803894949571
sI01
F-52.45538900615609
ss(i__main__
State
p1154
(dp1155
g3
I2
sg4
I3
sg5
I2
sg6
F8.0
sg7
F1.0
sg8
F-8.0
sg9
F-8.0
sb(dp1156
I00
F30.05155684711925
sI01
F39.46929883581924
ss(i__main__
State
p1157
(dp1158
g3
I2
sg4
I3
sg5
I2
sg6
F-2.0
sg7
F5.0
sg8
F2.0
sg9
F-2.0
sb(dp1159
I00
F-53.30176062328301
sI01
F59.662241287499455
ss(i__main__
State
p1160
(dp1161
g3
I2
sg4
I3
sg5
I2
sg6
F4.0
sg7
F10.0
sg8
F-4.0
sg9
F-5.0
sb(dp1162
I00
F210.9722273407698
sI01
F52.6420464297359
ss(i__main__
State
p1163
(dp1164
g3
I2
sg4
I3
sg5
I2
sg6
F8.0
sg7
F3.0
sg8
F-8.0
sg9
F10.0
sb(dp1165
I00
F13.443382624832564
sI01
F72.7479206599721
ss(i__main__
State
p1166
(dp1167
g3
I2
sg4
I3
sg5
I2
sg6
F4.0
sg7
F8.0
sg8
F-4.0
sg9
F-8.0
sb(dp1168
I00
F155.47102318903023
sI01
F263.4758358824723
ss(i__main__
State
p1169
(dp1170
g3
I2
sg4
I3
sg5
I2
sg6
F-8.0
sg7
F4.0
sg8
F8.0
sg9
F-2.0
sb(dp1171
I00
F6.085668845751666
sI01
I-53
ss(i__main__
State
p1172
(dp1173
g3
I2
sg4
I3
sg5
I2
sg6
F-2.0
sg7
F8.0
sg8
F2.0
sg9
F1.0
sb(dp1174
I00
F141.71256223723952
sI01
F13.596940570836
ss(i__main__
State
p1175
(dp1176
g3
I2
sg4
I3
sg5
I2
sg6
F4.0
sg7
F6.0
sg8
F-4.0
sg9
F-2.0
sb(dp1177
I00
F115.86396736253475
sI01
F-9.066358706485051
ss(i__main__
State
p1178
(dp1179
g3
I2
sg4
I3
sg5
I2
sg6
F8.0
sg7
F1.0
sg8
F-8.0
sg9
F-2.0
sb(dp1180
I00
F-24.71083929162015
sI01
F65.32164456594062
ss(i__main__
State
p1181
(dp1182
g3
I2
sg4
I3
sg5
I2
sg6
F4.0
sg7
F5.0
sg8
F-4.0
sg9
F1.0
sb(dp1183
I00
F32.325735088264906
sI01
F-42.34750971914668
ss(i__main__
State
p1184
(dp1185
g3
I2
sg4
I3
sg5
I2
sg6
F-8.0
sg7
F0.0
sg8
F8.0
sg9
F7.0
sb(dp1186
I00
F43.63883323547488
sI01
F-36.8354016463
ss(i__main__
State
p1187
(dp1188
g3
I2
sg4
I3
sg5
I2
sg6
F4.0
sg7
F9.0
sg8
F-4.0
sg9
F-2.0
sb(dp1189
I00
F-90.0
sI01
F152.06170396559716
ss(i__main__
State
p1190
(dp1191
g3
I2
sg4
I3
sg5
I2
sg6
F4.0
sg7
F9.0
sg8
F-4.0
sg9
F7.0
sb(dp1192
I00
F662.2169237846208
sI01
F131.57967186207537
ss(i__main__
State
p1193
(dp1194
g3
I2
sg4
I3
sg5
I2
sg6
F-4.0
sg7
F0.0
sg8
F4.0
sg9
F1.0
sb(dp1195
I00
F4.392478107957138
sI01
F49.0263819783552
ss(i__main__
State
p1196
(dp1197
g3
I2
sg4
I3
sg5
I2
sg6
F-6.0
sg7
F10.0
sg8
F6.0
sg9
F10.0
sb(dp1198
I00
F10.0
sI01
F86.73430322176115
ss(i__main__
State
p1199
(dp1200
g3
I2
sg4
I3
sg5
I2
sg6
F6.0
sg7
F7.0
sg8
F-6.0
sg9
F10.0
sb(dp1201
I00
I-55
sI01
F35.74768053638704
ss(i__main__
State
p1202
(dp1203
g3
I2
sg4
I3
sg5
I2
sg6
F-4.0
sg7
F5.0
sg8
F4.0
sg9
F-8.0
sb(dp1204
I00
F-4.339267301547668
sI01
F30.743291375372305
ss(i__main__
State
p1205
(dp1206
g3
I2
sg4
I3
sg5
I2
sg6
F6.0
sg7
F4.0
sg8
F-6.0
sg9
F-5.0
sb(dp1207
I00
F-14.439923106813353
sI01
F54.32756558409364
ss(i__main__
State
p1208
(dp1209
g3
I2
sg4
I3
sg5
I2
sg6
F6.0
sg7
F3.0
sg8
F-6.0
sg9
F-8.0
sb(dp1210
I00
F2.4429264349999995
sI01
F45.28186106934834
ss(i__main__
State
p1211
(dp1212
g3
I2
sg4
I3
sg5
I2
sg6
F-4.0
sg7
F9.0
sg8
F4.0
sg9
F7.0
sb(dp1213
I00
F243.9986724486656
sI01
F32.623778399
ss(i__main__
State
p1214
(dp1215
g3
I2
sg4
I3
sg5
I2
sg6
F6.0
sg7
F6.0
sg8
F-6.0
sg9
F7.0
sb(dp1216
I00
F-58.34468397906813
sI01
F56.046166413232264
ss(i__main__
State
p1217
(dp1218
g3
I2
sg4
I3
sg5
I2
sg6
F-4.0
sg7
F7.0
sg8
F4.0
sg9
F4.0
sb(dp1219
I00
F203.30487816757963
sI01
F-37.59559819632634
ss(i__main__
State
p1220
(dp1221
g3
I2
sg4
I3
sg5
I2
sg6
F8.0
sg7
F8.0
sg8
F-8.0
sg9
F-2.0
sb(dp1222
I00
F478.7323957131302
sI01
F-2037.894948055398
ss(i__main__
State
p1223
(dp1224
g3
I2
sg4
I3
sg5
I2
sg6
F4.0
sg7
F4.0
sg8
F-4.0
sg9
F1.0
sb(dp1225
I00
F5.34300041375306
sI01
F354.54926452833115
ss(i__main__
State
p1226
(dp1227
g3
I2
sg4
I3
sg5
I2
sg6
F0.0
sg7
F6.0
sg8
F0.0
sg9
F4.0
sb(dp1228
I00
F-31.121232385083225
sI01
F151.23679818060413
ss(i__main__
State
p1229
(dp1230
g3
I2
sg4
I3
sg5
I2
sg6
F8.0
sg7
F10.0
sg8
F-8.0
sg9
F7.0
sb(dp1231
I00
F320.68406513128525
sI01
F52.57049966224213
ss(i__main__
State
p1232
(dp1233
g3
I2
sg4
I3
sg5
I2
sg6
F6.0
sg7
F1.0
sg8
F-6.0
sg9
F-2.0
sb(dp1234
I00
F15.389660000000001
sI01
F65.3789386598617
ss(i__main__
State
p1235
(dp1236
g3
I2
sg4
I3
sg5
I2
sg6
F0.0
sg7
F5.0
sg8
F0.0
sg9
F-5.0
sb(dp1237
I00
F7.060884332797425
sI01
F-80.14502178252454
ss(i__main__
State
p1238
(dp1239
g3
I2
sg4
I3
sg5
I2
sg6
F-6.0
sg7
F2.0
sg8
F6.0
sg9
F4.0
sb(dp1240
I00
F57.96516260959174
sI01
I-28
ss(i__main__
State
p1241
(dp1242
g3
I2
sg4
I3
sg5
I2
sg6
F6.0
sg7
F9.0
sg8
F-6.0
sg9
F-8.0
sb(dp1243
I00
F229.17565947557236
sI01
F30.693385309757204
ss(i__main__
State
p1244
(dp1245
g3
I2
sg4
I3
sg5
I2
sg6
F6.0
sg7
F5.0
sg8
F-6.0
sg9
F-5.0
sb(dp1246
I00
F42.26201227476975
sI01
F19.160343498096978
ss(i__main__
State
p1247
(dp1248
g3
I2
sg4
I3
sg5
I2
sg6
F4.0
sg7
F0.0
sg8
F-4.0
sg9
F-8.0
sb(dp1249
I00
F23.310459564802997
sI01
F-35.408935280926954
ss(i__main__
State
p1250
(dp1251
g3
I2
sg4
I3
sg5
I2
sg6
F4.0
sg7
F10.0
sg8
F-4.0
sg9
F-2.0
sb(dp1252
I00
F37.14153026073062
sI01
F15.240825424691744
ss(i__main__
State
p1253
(dp1254
g3
I2
sg4
I3
sg5
I2
sg6
F0.0
sg7
F0.0
sg8
F0.0
sg9
F1.0
sb(dp1255
I00
F-10.729908927170868
sI01
F16.937987083967656
ss(i__main__
State
p1256
(dp1257
g3
I2
sg4
I3
sg5
I2
sg6
F6.0
sg7
F3.0
sg8
F-6.0
sg9
F7.0
sb(dp1258
I00
F-59.64025695801
sI01
F38.69823160376518
ss(i__main__
State
p1259
(dp1260
g3
I2
sg4
I3
sg5
I2
sg6
F0.0
sg7
F10.0
sg8
F0.0
sg9
F7.0
sb(dp1261
I00
F-6065.451663715855
sI01
F-5654.772001224151
ss(i__main__
State
p1262
(dp1263
g3
I2
sg4
I3
sg5
I2
sg6
F4.0
sg7
F1.0
sg8
F-4.0
sg9
F4.0
sb(dp1264
I00
F-58.274507539715124
sI01
F24.672948087959295
ss(i__main__
State
p1265
(dp1266
g3
I2
sg4
I3
sg5
I2
sg6
F6.0
sg7
F2.0
sg8
F-6.0
sg9
F-8.0
sb(dp1267
I00
F-44.71086899215645
sI01
F23.455590896026326
ss(i__main__
State
p1268
(dp1269
g3
I2
sg4
I3
sg5
I2
sg6
F2.0
sg7
F5.0
sg8
F-2.0
sg9
F4.0
sb(dp1270
I00
F-32.558293690855535
sI01
F480.3098725345178
ss(i__main__
State
p1271
(dp1272
g3
I2
sg4
I3
sg5
I2
sg6
F0.0
sg7
F4.0
sg8
F0.0
sg9
F4.0
sb(dp1273
I00
F60.91815885133551
sI01
F63.3448460955917
ss(i__main__
State
p1274
(dp1275
g3
I2
sg4
I3
sg5
I2
sg6
F-2.0
sg7
F10.0
sg8
F2.0
sg9
F7.0
sb(dp1276
I00
F206.6836599276914
sI01
F26.156143425752155
ss(i__main__
State
p1277
(dp1278
g3
I2
sg4
I3
sg5
I2
sg6
F-4.0
sg7
F0.0
sg8
F4.0
sg9
F4.0
sb(dp1279
I00
F66.65785694449632
sI01
F-35.94694093269653
ss(i__main__
State
p1280
(dp1281
g3
I2
sg4
I3
sg5
I2
sg6
F8.0
sg7
F10.0
sg8
F-8.0
sg9
F1.0
sb(dp1282
I00
F404.524315637188
sI01
F75.71706201910212
ss(i__main__
State
p1283
(dp1284
g3
I2
sg4
I3
sg5
I2
sg6
F-2.0
sg7
F0.0
sg8
F2.0
sg9
F10.0
sb(dp1285
I00
F-58.2
sI01
F68.81508233481462
ss(i__main__
State
p1286
(dp1287
g3
I2
sg4
I3
sg5
I2
sg6
F0.0
sg7
F7.0
sg8
F0.0
sg9
F-5.0
sb(dp1288
I00
F49.64378187153017
sI01
F-3.5
ss(i__main__
State
p1289
(dp1290
g3
I2
sg4
I3
sg5
I2
sg6
F-6.0
sg7
F5.0
sg8
F6.0
sg9
F-8.0
sb(dp1291
I00
I-86
sI01
F-20.275122226107857
ss(i__main__
State
p1292
(dp1293
g3
I2
sg4
I3
sg5
I2
sg6
F4.0
sg7
F7.0
sg8
F-4.0
sg9
F7.0
sb(dp1294
I00
F5.718136999999999
sI01
F468.73317464874975
ss(i__main__
State
p1295
(dp1296
g3
I2
sg4
I3
sg5
I2
sg6
F-8.0
sg7
F4.0
sg8
F8.0
sg9
F-8.0
sb(dp1297
I00
F42.739842374209964
sI01
F102.44082564002693
ss(i__main__
State
p1298
(dp1299
g3
I2
sg4
I3
sg5
I2
sg6
F4.0
sg7
F10.0
sg8
F-4.0
sg9
F-8.0
sb(dp1300
I00
F208.0815166880382
sI01
F21.044744353542832
ss(i__main__
State
p1301
(dp1302
g3
I2
sg4
I3
sg5
I2
sg6
F4.0
sg7
F3.0
sg8
F-4.0
sg9
F-8.0
sb(dp1303
I00
F-47.16052662229684
sI01
F39.72093005769996
ss(i__main__
State
p1304
(dp1305
g3
I2
sg4
I3
sg5
I2
sg6
F-2.0
sg7
F9.0
sg8
F2.0
sg9
F7.0
sb(dp1306
I00
F164.19773617590474
sI01
F251.92139432130537
ss(i__main__
State
p1307
(dp1308
g3
I2
sg4
I3
sg5
I2
sg6
F0.0
sg7
F8.0
sg8
F0.0
sg9
F-5.0
sb(dp1309
I00
F-2704.355191019
sI01
F-3358.268333925995
ss(i__main__
State
p1310
(dp1311
g3
I2
sg4
I3
sg5
I2
sg6
F-2.0
sg7
F9.0
sg8
F2.0
sg9
F-5.0
sb(dp1312
I00
F529.077495286598
sI01
F293.8387548112694
ss(i__main__
State
p1313
(dp1314
g3
I2
sg4
I3
sg5
I2
sg6
F6.0
sg7
F0.0
sg8
F-6.0
sg9
F7.0
sb(dp1315
I00
F-68.04858839265668
sI01
F37.397105035592276
ss(i__main__
State
p1316
(dp1317
g3
I2
sg4
I3
sg5
I2
sg6
F-8.0
sg7
F9.0
sg8
F8.0
sg9
F1.0
sb(dp1318
I00
F-4070.789584375843
sI01
F-4629.256966245026
ss(i__main__
State
p1319
(dp1320
g3
I2
sg4
I3
sg5
I2
sg6
F-6.0
sg7
F5.0
sg8
F6.0
sg9
F-2.0
sb(dp1321
I00
F488.8987510662914
sI01
F110.72511103974266
ss(i__main__
State
p1322
(dp1323
g3
I2
sg4
I3
sg5
I2
sg6
F-8.0
sg7
F7.0
sg8
F8.0
sg9
F-2.0
sb(dp1324
I00
F73.0718811279151
sI01
F658.0145787898231
ss(i__main__
State
p1325
(dp1326
g3
I2
sg4
I3
sg5
I2
sg6
F4.0
sg7
F2.0
sg8
F-4.0
sg9
F1.0
sb(dp1327
I00
F-39.21536296321681
sI01
F68.17686616412783
ss(i__main__
State
p1328
(dp1329
g3
I2
sg4
I3
sg5
I2
sg6
F-4.0
sg7
F4.0
sg8
F4.0
sg9
F4.0
sb(dp1330
I00
F24.55265611227691
sI01
F-19.15691039171581
ss(i__main__
State
p1331
(dp1332
g3
I2
sg4
I3
sg5
I2
sg6
F2.0
sg7
F7.0
sg8
F-2.0
sg9
F4.0
sb(dp1333
I00
F22.1240125451458
sI01
F-754.6863516708038
ss(i__main__
State
p1334
(dp1335
g3
I2
sg4
I3
sg5
I2
sg6
F6.0
sg7
F0.0
sg8
F-6.0
sg9
F-2.0
sb(dp1336
I00
I-48
sI01
F73.81766
ss(i__main__
State
p1337
(dp1338
g3
I2
sg4
I3
sg5
I2
sg6
F-6.0
sg7
F3.0
sg8
F6.0
sg9
F1.0
sb(dp1339
I00
F40.18807688167605
sI01
F-41.06024173906405
ss(i__main__
State
p1340
(dp1341
g3
I2
sg4
I3
sg5
I2
sg6
F-8.0
sg7
F0.0
sg8
F8.0
sg9
F1.0
sb(dp1342
I00
F28.98407173980373
sI01
F-38.663278907584285
ss(i__main__
State
p1343
(dp1344
g3
I2
sg4
I3
sg5
I2
sg6
F8.0
sg7
F4.0
sg8
F-8.0
sg9
F-5.0
sb(dp1345
I00
F-52.57594722958613
sI01
F44.01628179176764
ss(i__main__
State
p1346
(dp1347
g3
I2
sg4
I3
sg5
I2
sg6
F2.0
sg7
F7.0
sg8
F-2.0
sg9
F10.0
sb(dp1348
I00
F-16.6036
sI01
F-128.4134288483147
ss(i__main__
State
p1349
(dp1350
g3
I2
sg4
I3
sg5
I2
sg6
F-8.0
sg7
F6.0
sg8
F8.0
sg9
F4.0
sb(dp1351
I00
F5.774441553138726
sI01
I-81
ss(i__main__
State
p1352
(dp1353
g3
I2
sg4
I3
sg5
I2
sg6
F8.0
sg7
F7.0
sg8
F-8.0
sg9
F4.0
sb(dp1354
I00
F351.0490035580994
sI01
F155.89717891101407
ss(i__main__
State
p1355
(dp1356
g3
I2
sg4
I3
sg5
I2
sg6
F-4.0
sg7
F10.0
sg8
F4.0
sg9
F4.0
sb(dp1357
I00
F244.07045193889238
sI01
F75.11746932988673
ss(i__main__
State
p1358
(dp1359
g3
I2
sg4
I3
sg5
I2
sg6
F0.0
sg7
F1.0
sg8
F0.0
sg9
F-8.0
sb(dp1360
I00
F39.05427168014076
sI01
I-10
ss(i__main__
State
p1361
(dp1362
g3
I2
sg4
I3
sg5
I2
sg6
F-2.0
sg7
F9.0
sg8
F2.0
sg9
F10.0
sb(dp1363
I00
F379.5252962383168
sI01
F127.0314809540153
ss(i__main__
State
p1364
(dp1365
g3
I2
sg4
I3
sg5
I2
sg6
F-6.0
sg7
F3.0
sg8
F6.0
sg9
F-2.0
sb(dp1366
I00
F-25.817196003800106
sI01
F-1.4354053709921653
ss(i__main__
State
p1367
(dp1368
g3
I2
sg4
I3
sg5
I2
sg6
F4.0
sg7
F8.0
sg8
F-4.0
sg9
F-2.0
sb(dp1369
I00
F487.8333753863842
sI01
F-4040.112814524763
ss(i__main__
State
p1370
(dp1371
g3
I2
sg4
I3
sg5
I2
sg6
F2.0
sg7
F0.0
sg8
F-2.0
sg9
F4.0
sb(dp1372
I00
F-20.543313816134216
sI01
F-69.8
ss(i__main__
State
p1373
(dp1374
g3
I2
sg4
I3
sg5
I2
sg6
F-2.0
sg7
F0.0
sg8
F2.0
sg9
F-5.0
sb(dp1375
I00
F-18.210906399464122
sI01
F51.156224923638376
ss(i__main__
State
p1376
(dp1377
g3
I2
sg4
I3
sg5
I2
sg6
F4.0
sg7
F4.0
sg8
F-4.0
sg9
F4.0
sb(dp1378
I00
F97.63351121749147
sI01
F42.49431731955748
ss(i__main__
State
p1379
(dp1380
g3
I2
sg4
I3
sg5
I2
sg6
F6.0
sg7
F10.0
sg8
F-6.0
sg9
F-5.0
sb(dp1381
I00
F20.86852279158654
sI01
F0.0
ss(i__main__
State
p1382
(dp1383
g3
I2
sg4
I3
sg5
I2
sg6
F2.0
sg7
F0.0
sg8
F-2.0
sg9
F7.0
sb(dp1384
I00
F-29.006172721080986
sI01
F46.3782320934185
ss(i__main__
State
p1385
(dp1386
g3
I2
sg4
I3
sg5
I2
sg6
F6.0
sg7
F8.0
sg8
F-6.0
sg9
F4.0
sb(dp1387
I00
F763.7281803521005
sI01
F335.94941397032767
ss(i__main__
State
p1388
(dp1389
g3
I2
sg4
I3
sg5
I2
sg6
F4.0
sg7
F5.0
sg8
F-4.0
sg9
F10.0
sb(dp1390
I00
F-43.793795173999996
sI01
F38.103378908656516
ss(i__main__
State
p1391
(dp1392
g3
I2
sg4
I3
sg5
I2
sg6
F-8.0
sg7
F8.0
sg8
F8.0
sg9
F7.0
sb(dp1393
I00
F334.11806652339953
sI01
F94.60672187657512
ss(i__main__
State
p1394
(dp1395
g3
I2
sg4
I3
sg5
I2
sg6
F2.0
sg7
F10.0
sg8
F-2.0
sg9
F-2.0
sb(dp1396
I00
F-5666.682797931002
sI01
F110.4620271309192
ss(i__main__
State
p1397
(dp1398
g3
I2
sg4
I3
sg5
I2
sg6
F0.0
sg7
F9.0
sg8
F0.0
sg9
F10.0
sb(dp1399
I00
F484.12868909705026
sI01
F65.4772655184231
ss(i__main__
State
p1400
(dp1401
g3
I2
sg4
I3
sg5
I2
sg6
F6.0
sg7
F4.0
sg8
F-6.0
sg9
F-8.0
sb(dp1402
I00
F46.96178490010799
sI01
F0.6950570359828434
ss(i__main__
State
p1403
(dp1404
g3
I2
sg4
I3
sg5
I2
sg6
F8.0
sg7
F9.0
sg8
F-8.0
sg9
F-5.0
sb(dp1405
I00
F324.39831500705213
sI01
F110.50073256642753
ss(i__main__
State
p1406
(dp1407
g3
I2
sg4
I3
sg5
I2
sg6
F6.0
sg7
F10.0
sg8
F-6.0
sg9
F7.0
sb(dp1408
I00
F63.377531062978285
sI01
F119.87069817600803
ss(i__main__
State
p1409
(dp1410
g3
I2
sg4
I3
sg5
I2
sg6
F-8.0
sg7
F1.0
sg8
F8.0
sg9
F1.0
sb(dp1411
I00
F65.47457796581429
sI01
F37.110140007292514
ss(i__main__
State
p1412
(dp1413
g3
I2
sg4
I3
sg5
I2
sg6
F6.0
sg7
F8.0
sg8
F-6.0
sg9
F-5.0
sb(dp1414
I00
F533.8716787409298
sI01
F92.94466307141307
ss(i__main__
State
p1415
(dp1416
g3
I2
sg4
I3
sg5
I2
sg6
F-6.0
sg7
F0.0
sg8
F6.0
sg9
F10.0
sb(dp1417
I00
F23.74177675477585
sI01
F54.574068010809626
ss(i__main__
State
p1418
(dp1419
g3
I2
sg4
I3
sg5
I2
sg6
F-2.0
sg7
F0.0
sg8
F2.0
sg9
F-8.0
sb(dp1420
I00
F42.11217727083805
sI01
F-38.519999999999996
ss(i__main__
State
p1421
(dp1422
g3
I2
sg4
I3
sg5
I2
sg6
F-8.0
sg7
F9.0
sg8
F8.0
sg9
F10.0
sb(dp1423
I00
F50.188869909
sI01
F16.179715649660192
ss(i__main__
State
p1424
(dp1425
g3
I2
sg4
I3
sg5
I2
sg6
F-2.0
sg7
F10.0
sg8
F2.0
sg9
F-2.0
sb(dp1426
I00
F473.1634516803641
sI01
F46.18444729430058
ss(i__main__
State
p1427
(dp1428
g3
I2
sg4
I3
sg5
I2
sg6
F6.0
sg7
F6.0
sg8
F-6.0
sg9
F4.0
sb(dp1429
I00
F-36.6
sI01
F143.96412744313565
ss(i__main__
State
p1430
(dp1431
g3
I2
sg4
I3
sg5
I2
sg6
F4.0
sg7
F4.0
sg8
F-4.0
sg9
F-5.0
sb(dp1432
I00
F45.31727360436122
sI01
F37.9091365233252
ss(i__main__
State
p1433
(dp1434
g3
I2
sg4
I3
sg5
I2
sg6
F0.0
sg7
F10.0
sg8
F0.0
sg9
F10.0
sb(dp1435
I00
F-4671.364818885227
sI01
F-4089.5488205072315
ss(i__main__
State
p1436
(dp1437
g3
I2
sg4
I3
sg5
I2
sg6
F0.0
sg7
F1.0
sg8
F0.0
sg9
F4.0
sb(dp1438
I00
F58.05866136824391
sI01
F32.89026153259205
ss(i__main__
State
p1439
(dp1440
g3
I2
sg4
I3
sg5
I2
sg6
F-8.0
sg7
F3.0
sg8
F8.0
sg9
F10.0
sb(dp1441
I00
F33.30842409706938
sI01
F10.453890824290571
ss(i__main__
State
p1442
(dp1443
g3
I2
sg4
I3
sg5
I2
sg6
F-4.0
sg7
F1.0
sg8
F4.0
sg9
F-2.0
sb(dp1444
I00
F62.208269298265044
sI01
F14.060455063004756
ss(i__main__
State
p1445
(dp1446
g3
I2
sg4
I3
sg5
I2
sg6
F6.0
sg7
F9.0
sg8
F-6.0
sg9
F-5.0
sb(dp1447
I00
F143.61405249923413
sI01
F13.714153026073063
ss(i__main__
State
p1448
(dp1449
g3
I2
sg4
I3
sg5
I2
sg6
F8.0
sg7
F7.0
sg8
F-8.0
sg9
F-5.0
sb(dp1450
I00
F60.394323781271694
sI01
F307.9119394782845
ss(i__main__
State
p1451
(dp1452
g3
I2
sg4
I3
sg5
I2
sg6
F8.0
sg7
F5.0
sg8
F-8.0
sg9
F4.0
sb(dp1453
I00
F15.934607517551209
sI01
F-8.658338915347269
ss(i__main__
State
p1454
(dp1455
g3
I2
sg4
I3
sg5
I2
sg6
F8.0
sg7
F4.0
sg8
F-8.0
sg9
F4.0
sb(dp1456
I00
F-4.332023305372514
sI01
F13.574217109173123
ss(i__main__
State
p1457
(dp1458
g3
I2
sg4
I3
sg5
I2
sg6
F0.0
sg7
F6.0
sg8
F0.0
sg9
F10.0
sb(dp1459
I00
F148.79109549119593
sI01
F-11.977948859043538
ss(i__main__
State
p1460
(dp1461
g3
I2
sg4
I3
sg5
I2
sg6
F2.0
sg7
F0.0
sg8
F-2.0
sg9
F-2.0
sb(dp1462
I00
F-75.13052051990195
sI01
F17.383808321404395
ss(i__main__
State
p1463
(dp1464
g3
I2
sg4
I3
sg5
I2
sg6
F2.0
sg7
F5.0
sg8
F-2.0
sg9
F7.0
sb(dp1465
I00
F13.499009884540472
sI01
F90.0239649579192
ss(i__main__
State
p1466
(dp1467
g3
I2
sg4
I3
sg5
I2
sg6
F-2.0
sg7
F7.0
sg8
F2.0
sg9
F-2.0
sb(dp1468
I00
F-4.315832463289299
sI01
F113.87084129798652
ss(i__main__
State
p1469
(dp1470
g3
I2
sg4
I3
sg5
I2
sg6
F-4.0
sg7
F7.0
sg8
F4.0
sg9
F1.0
sb(dp1471
I00
F139.0338100157589
sI01
F10.075045592911192
ss(i__main__
State
p1472
(dp1473
g3
I2
sg4
I3
sg5
I2
sg6
F-6.0
sg7
F9.0
sg8
F6.0
sg9
F-8.0
sb(dp1474
I00
F120.77426503829011
sI01
F381.5311350426021
ss(i__main__
State
p1475
(dp1476
g3
I2
sg4
I3
sg5
I2
sg6
F-2.0
sg7
F6.0
sg8
F2.0
sg9
F-5.0
sb(dp1477
I00
F46.275433111448194
sI01
F-34.209
ss(i__main__
State
p1478
(dp1479
g3
I2
sg4
I3
sg5
I2
sg6
F-6.0
sg7
F9.0
sg8
F6.0
sg9
F10.0
sb(dp1480
I00
F383.85472975221717
sI01
F86.12144823447116
ss(i__main__
State
p1481
(dp1482
g3
I2
sg4
I3
sg5
I2
sg6
F8.0
sg7
F2.0
sg8
F-8.0
sg9
F-5.0
sb(dp1483
I00
F3.420139629963173
sI01
F77.58241880130822
ss(i__main__
State
p1484
(dp1485
g3
I2
sg4
I3
sg5
I2
sg6
F6.0
sg7
F10.0
sg8
F-6.0
sg9
F10.0
sb(dp1486
I00
F272.08824126626195
sI01
F99.1981840880015
ss(i__main__
State
p1487
(dp1488
g3
I2
sg4
I3
sg5
I2
sg6
F-2.0
sg7
F1.0
sg8
F2.0
sg9
F1.0
sb(dp1489
I00
F-55.8668335008
sI01
F56.84138969313473
ss(i__main__
State
p1490
(dp1491
g3
I2
sg4
I3
sg5
I2
sg6
F-6.0
sg7
F10.0
sg8
F6.0
sg9
F-8.0
sb(dp1492
I00
F48.57170991406604
sI01
F99.32796701880243
ss(i__main__
State
p1493
(dp1494
g3
I2
sg4
I3
sg5
I2
sg6
F8.0
sg7
F2.0
sg8
F-8.0
sg9
F4.0
sb(dp1495
I00
F-50.41241370867224
sI01
F52.433824232768465
ss(i__main__
State
p1496
(dp1497
g3
I2
sg4
I3
sg5
I2
sg6
F4.0
sg7
F2.0
sg8
F-4.0
sg9
F-2.0
sb(dp1498
I00
F52.90971204482826
sI01
F-58.7724078751
ss(i__main__
State
p1499
(dp1500
g3
I2
sg4
I3
sg5
I2
sg6
F0.0
sg7
F10.0
sg8
F0.0
sg9
F-8.0
sb(dp1501
I00
F-7285.658639640079
sI01
F-7434.002811148997
ss(i__main__
State
p1502
(dp1503
g3
I2
sg4
I3
sg5
I2
sg6
F0.0
sg7
F3.0
sg8
F0.0
sg9
F-2.0
sb(dp1504
I00
F36.64355219746572
sI01
F35.8756342963287
ss(i__main__
State
p1505
(dp1506
g3
I2
sg4
I3
sg5
I2
sg6
F4.0
sg7
F3.0
sg8
F-4.0
sg9
F7.0
sb(dp1507
I00
F44.214777158332645
sI01
F-8.87096298
ss(i__main__
State
p1508
(dp1509
g3
I2
sg4
I3
sg5
I2
sg6
F-6.0
sg7
F9.0
sg8
F6.0
sg9
F-2.0
sb(dp1510
I00
F-72.9
sI01
F170.75014815361368
ss(i__main__
State
p1511
(dp1512
g3
I2
sg4
I3
sg5
I2
sg6
F4.0
sg7
F7.0
sg8
F-4.0
sg9
F-8.0
sb(dp1513
I00
F18.972248131171202
sI01
F168.98501940247797
ss(i__main__
State
p1514
(dp1515
g3
I2
sg4
I3
sg5
I2
sg6
F-8.0
sg7
F7.0
sg8
F8.0
sg9
F10.0
sb(dp1516
I00
F48.40340508868973
sI01
F424.66829388625166
ss(i__main__
State
p1517
(dp1518
g3
I2
sg4
I3
sg5
I2
sg6
F-6.0
sg7
F4.0
sg8
F6.0
sg9
F1.0
sb(dp1519
I00
F-1.947783784428489
sI01
F-6.403282413461453
ss(i__main__
State
p1520
(dp1521
g3
I2
sg4
I3
sg5
I2
sg6
F8.0
sg7
F10.0
sg8
F-8.0
sg9
F-2.0
sb(dp1522
I00
F252.75981180528927
sI01
F73.10267191151262
ss(i__main__
State
p1523
(dp1524
g3
I2
sg4
I3
sg5
I2
sg6
F2.0
sg7
F0.0
sg8
F-2.0
sg9
F1.0
sb(dp1525
I00
I18
sI01
F52.99507762016573
ss(i__main__
State
p1526
(dp1527
g3
I2
sg4
I3
sg5
I2
sg6
F-4.0
sg7
F2.0
sg8
F4.0
sg9
F4.0
sb(dp1528
I00
F-12.7
sI01
F35.9428448893988
ss(i__main__
State
p1529
(dp1530
g3
I2
sg4
I3
sg5
I2
sg6
F-8.0
sg7
F10.0
sg8
F8.0
sg9
F-8.0
sb(dp1531
I00
F99.55206553863606
sI01
F10.30890084294068
ss(i__main__
State
p1532
(dp1533
g3
I2
sg4
I3
sg5
I2
sg6
F0.0
sg7
F10.0
sg8
F0.0
sg9
F-5.0
sb(dp1534
I00
F-5574.200417642667
sI01
F-5678.491695163246
ss(i__main__
State
p1535
(dp1536
g3
I2
sg4
I3
sg5
I2
sg6
F-4.0
sg7
F6.0
sg8
F4.0
sg9
F-8.0
sb(dp1537
I00
F20.041279558468005
sI01
F374.1092776188155
ss(i__main__
State
p1538
(dp1539
g3
I2
sg4
I3
sg5
I2
sg6
F-6.0
sg7
F4.0
sg8
F6.0
sg9
F7.0
sb(dp1540
I00
F42.0689453036288
sI01
F-4.842457008477177
ss(i__main__
State
p1541
(dp1542
g3
I2
sg4
I3
sg5
I2
sg6
F8.0
sg7
F5.0
sg8
F-8.0
sg9
F-5.0
sb(dp1543
I00
F70.30323399628311
sI01
F135.6785044367759
ss(i__main__
State
p1544
(dp1545
g3
I2
sg4
I3
sg5
I2
sg6
F6.0
sg7
F9.0
sg8
F-6.0
sg9
F4.0
sb(dp1546
I00
F594.303468081587
sI01
F150.23889189089482
ss(i__main__
State
p1547
(dp1548
g3
I2
sg4
I3
sg5
I2
sg6
F8.0
sg7
F6.0
sg8
F-8.0
sg9
F4.0
sb(dp1549
I00
F-2.2478664527066377
sI01
F709.3904501043044
ss(i__main__
State
p1550
(dp1551
g3
I2
sg4
I3
sg5
I2
sg6
F-2.0
sg7
F3.0
sg8
F2.0
sg9
F4.0
sb(dp1552
I00
F36.757182473805734
sI01
F6.750269709820611
ss(i__main__
State
p1553
(dp1554
g3
I2
sg4
I3
sg5
I2
sg6
F6.0
sg7
F6.0
sg8
F-6.0
sg9
F-8.0
sb(dp1555
I00
F-3.8844775197130765
sI01
F43.89367419831817
ss(i__main__
State
p1556
(dp1557
g3
I2
sg4
I3
sg5
I2
sg6
F-8.0
sg7
F2.0
sg8
F8.0
sg9
F-2.0
sb(dp1558
I00
F71.29615559847625
sI01
F-48.92202511071154
ss(i__main__
State
p1559
(dp1560
g3
I2
sg4
I3
sg5
I2
sg6
F-2.0
sg7
F10.0
sg8
F2.0
sg9
F4.0
sb(dp1561
I00
F187.4012931562166
sI01
F33.36410315573261
ss(i__main__
State
p1562
(dp1563
g3
I2
sg4
I3
sg5
I2
sg6
F-6.0
sg7
F5.0
sg8
F6.0
sg9
F-5.0
sb(dp1564
I00
I28
sI01
F46.67201567360924
ss(i__main__
State
p1565
(dp1566
g3
I2
sg4
I3
sg5
I2
sg6
F-6.0
sg7
F1.0
sg8
F6.0
sg9
F4.0
sb(dp1567
I00
F63.431437345007524
sI01
F-26.440553264910058
ss(i__main__
State
p1568
(dp1569
g3
I2
sg4
I3
sg5
I2
sg6
F-4.0
sg7
F8.0
sg8
F4.0
sg9
F7.0
sb(dp1570
I00
F36.5755300605162
sI01
F407.4756126899844
ss(i__main__
State
p1571
(dp1572
g3
I2
sg4
I3
sg5
I2
sg6
F-4.0
sg7
F5.0
sg8
F4.0
sg9
F4.0
sb(dp1573
I00
F43.71085585966662
sI01
F-6.734010631670708
ss(i__main__
State
p1574
(dp1575
g3
I2
sg4
I3
sg5
I2
sg6
F-6.0
sg7
F2.0
sg8
F6.0
sg9
F-8.0
sb(dp1576
I00
F4.284910574412072
sI01
F52.87019503092156
ss(i__main__
State
p1577
(dp1578
g3
I2
sg4
I3
sg5
I2
sg6
F6.0
sg7
F10.0
sg8
F-6.0
sg9
F-8.0
sb(dp1579
I00
F310.7444579639357
sI01
F84.57559524241262
ss(i__main__
State
p1580
(dp1581
g3
I2
sg4
I3
sg5
I2
sg6
F8.0
sg7
F9.0
sg8
F-8.0
sg9
F4.0
sb(dp1582
I00
F148.48901527115066
sI01
F41.23169354541765
ss(i__main__
State
p1583
(dp1584
g3
I2
sg4
I3
sg5
I2
sg6
F6.0
sg7
F4.0
sg8
F-6.0
sg9
F4.0
sb(dp1585
I00
F11.418465319130053
sI01
F-36.79911293130995
ss(i__main__
State
p1586
(dp1587
g3
I2
sg4
I3
sg5
I2
sg6
F0.0
sg7
F5.0
sg8
F0.0
sg9
F-2.0
sb(dp1588
I00
F1.9234523473700378
sI01
F7.593519585672801
ss(i__main__
State
p1589
(dp1590
g3
I2
sg4
I3
sg5
I2
sg6
F8.0
sg7
F6.0
sg8
F-8.0
sg9
F1.0
sb(dp1591
I00
F-17.802862601366463
sI01
F120.36569741158226
ss(i__main__
State
p1592
(dp1593
g3
I2
sg4
I3
sg5
I2
sg6
F2.0
sg7
F9.0
sg8
F-2.0
sg9
F10.0
sb(dp1594
I00
F661.0529795144109
sI01
F-4603.796778182674
ss(i__main__
State
p1595
(dp1596
g3
I2
sg4
I3
sg5
I2
sg6
F4.0
sg7
F9.0
sg8
F-4.0
sg9
F1.0
sb(dp1597
I00
F-5601.402588863167
sI01
F-5172.589396257223
ss(i__main__
State
p1598
(dp1599
g3
I2
sg4
I3
sg5
I2
sg6
F-4.0
sg7
F4.0
sg8
F4.0
sg9
F-8.0
sb(dp1600
I00
F58.56259440757214
sI01
F-34.52458994859816
ss(i__main__
State
p1601
(dp1602
g3
I2
sg4
I3
sg5
I2
sg6
F4.0
sg7
F5.0
sg8
F-4.0
sg9
F-2.0
sb(dp1603
I00
F73.67330137366497
sI01
F-3.9691480516700643
ss(i__main__
State
p1604
(dp1605
g3
I2
sg4
I3
sg5
I2
sg6
F6.0
sg7
F10.0
sg8
F-6.0
sg9
F4.0
sb(dp1606
I00
F326.69427377539546
sI01
F29.857498018656006
ss(i__main__
State
p1607
(dp1608
g3
I2
sg4
I3
sg5
I2
sg6
F8.0
sg7
F1.0
sg8
F-8.0
sg9
F1.0
sb(dp1609
I00
F29.70646306581901
sI01
F-11.814817042249
ss(i__main__
State
p1610
(dp1611
g3
I2
sg4
I3
sg5
I2
sg6
F2.0
sg7
F3.0
sg8
F-2.0
sg9
F10.0
sb(dp1612
I00
F28.384374127290815
sI01
F41.876380326663416
ss(i__main__
State
p1613
(dp1614
g3
I2
sg4
I3
sg5
I2
sg6
F4.0
sg7
F6.0
sg8
F-4.0
sg9
F1.0
sb(dp1615
I00
F360.33959481052443
sI01
F-17.972038062225895
ss(i__main__
State
p1616
(dp1617
g3
I2
sg4
I3
sg5
I2
sg6
F0.0
sg7
F3.0
sg8
F0.0
sg9
F10.0
sb(dp1618
I00
F0.09425556505943167
sI01
F102.0695601957824
ss(i__main__
State
p1619
(dp1620
g3
I2
sg4
I3
sg5
I2
sg6
F4.0
sg7
F8.0
sg8
F-4.0
sg9
F1.0
sb(dp1621
I00
F199.22248837398948
sI01
F412.06003229258346
ss(i__main__
State
p1622
(dp1623
g3
I2
sg4
I3
sg5
I2
sg6
F-6.0
sg7
F1.0
sg8
F6.0
sg9
F1.0
sb(dp1624
I00
F58.93993099157258
sI01
F39.277028455903334
ss(i__main__
State
p1625
(dp1626
g3
I2
sg4
I3
sg5
I2
sg6
F-4.0
sg7
F5.0
sg8
F4.0
sg9
F1.0
sb(dp1627
I00
F23.917665521967006
sI01
F-1.7543342334484802
ss(i__main__
State
p1628
(dp1629
g3
I2
sg4
I3
sg5
I2
sg6
F-2.0
sg7
F9.0
sg8
F2.0
sg9
F-2.0
sb(dp1630
I00
F-2818.6575540308722
sI01
F712.9780879585765
ss(i__main__
State
p1631
(dp1632
g3
I2
sg4
I3
sg5
I2
sg6
F2.0
sg7
F2.0
sg8
F-2.0
sg9
F7.0
sb(dp1633
I00
F-49.81413906682065
sI01
F54.855278174748065
ss(i__main__
State
p1634
(dp1635
g3
I2
sg4
I3
sg5
I2
sg6
F0.0
sg7
F7.0
sg8
F0.0
sg9
F7.0
sb(dp1636
I00
F639.9698470518371
sI01
F146.79330909309988
ss(i__main__
State
p1637
(dp1638
g3
I2
sg4
I3
sg5
I2
sg6
F-4.0
sg7
F0.0
sg8
F4.0
sg9
F10.0
sb(dp1639
I00
F-83.51443846039365
sI01
F-24.808872374439066
ss(i__main__
State
p1640
(dp1641
g3
I2
sg4
I3
sg5
I2
sg6
F-4.0
sg7
F0.0
sg8
F4.0
sg9
F-8.0
sb(dp1642
I00
I-86
sI01
F20.63039633509279
ss(i__main__
State
p1643
(dp1644
g3
I2
sg4
I3
sg5
I2
sg6
F-2.0
sg7
F4.0
sg8
F2.0
sg9
F1.0
sb(dp1645
I00
F23.22029603677957
sI01
F29.059043582155876
ss(i__main__
State
p1646
(dp1647
g3
I2
sg4
I3
sg5
I2
sg6
F0.0
sg7
F4.0
sg8
F0.0
sg9
F-8.0
sb(dp1648
I00
F27.77308488979963
sI01
F41.856288786359755
ss(i__main__
State
p1649
(dp1650
g3
I2
sg4
I3
sg5
I2
sg6
F-8.0
sg7
F1.0
sg8
F8.0
sg9
F4.0
sb(dp1651
I00
F25.40723648766322
sI01
F49.43807643336179
ss(i__main__
State
p1652
(dp1653
g3
I2
sg4
I3
sg5
I2
sg6
F-2.0
sg7
F10.0
sg8
F2.0
sg9
F10.0
sb(dp1654
I00
F175.22016497756033
sI01
F11.47
ss(i__main__
State
p1655
(dp1656
g3
I2
sg4
I3
sg5
I2
sg6
F4.0
sg7
F8.0
sg8
F-4.0
sg9
F10.0
sb(dp1657
I00
F233.25989712511446
sI01
F886.991656044099
ss(i__main__
State
p1658
(dp1659
g3
I2
sg4
I3
sg5
I2
sg6
F-8.0
sg7
F9.0
sg8
F8.0
sg9
F-5.0
sb(dp1660
I00
F15.201064133672496
sI01
F221.7427681998714
ss(i__main__
State
p1661
(dp1662
g3
I2
sg4
I3
sg5
I2
sg6
F0.0
sg7
F10.0
sg8
F0.0
sg9
F1.0
sb(dp1663
I00
F-8034.853409213374
sI01
F-8116.107060108023
ss(i__main__
State
p1664
(dp1665
g3
I2
sg4
I3
sg5
I2
sg6
F2.0
sg7
F4.0
sg8
F-2.0
sg9
F-5.0
sb(dp1666
I00
F50.43311547507321
sI01
F-64.11869157747941
ss(i__main__
State
p1667
(dp1668
g3
I2
sg4
I3
sg5
I2
sg6
F6.0
sg7
F2.0
sg8
F-6.0
sg9
F1.0
sb(dp1669
I00
F15.300556354371661
sI01
F65.53467307778777
ss(i__main__
State
p1670
(dp1671
g3
I2
sg4
I3
sg5
I2
sg6
F-6.0
sg7
F5.0
sg8
F6.0
sg9
F10.0
sb(dp1672
I00
F66.46081105931337
sI01
F-27.087248335621624
ss(i__main__
State
p1673
(dp1674
g3
I2
sg4
I3
sg5
I2
sg6
F-8.0
sg7
F10.0
sg8
F8.0
sg9
F7.0
sb(dp1675
I00
F490.57594804591025
sI01
F117.9002779058982
ss(i__main__
State
p1676
(dp1677
g3
I2
sg4
I3
sg5
I2
sg6
F0.0
sg7
F0.0
sg8
F0.0
sg9
F10.0
sb(dp1678
I00
F24.813257551347334
sI01
F-12.165319698931082
ss(i__main__
State
p1679
(dp1680
g3
I2
sg4
I3
sg5
I2
sg6
F-4.0
sg7
F4.0
sg8
F4.0
sg9
F10.0
sb(dp1681
I00
F51.61811031185028
sI01
F5.240000000000001
ss(i__main__
State
p1682
(dp1683
g3
I2
sg4
I3
sg5
I2
sg6
F-4.0
sg7
F9.0
sg8
F4.0
sg9
F4.0
sb(dp1684
I00
F28.253355126410316
sI01
F69.91716771112321
ss(i__main__
State
p1685
(dp1686
g3
I2
sg4
I3
sg5
I2
sg6
F-4.0
sg7
F1.0
sg8
F4.0
sg9
F-5.0
sb(dp1687
I00
F46.837887683879224
sI01
F-28.2527291655457
ss(i__main__
State
p1688
(dp1689
g3
I2
sg4
I3
sg5
I2
sg6
F0.0
sg7
F6.0
sg8
F0.0
sg9
F7.0
sb(dp1690
I00
F-28.817172885661872
sI01
F661.6074555238406
ss(i__main__
State
p1691
(dp1692
g3
I2
sg4
I3
sg5
I2
sg6
F-4.0
sg7
F2.0
sg8
F4.0
sg9
F10.0
sb(dp1693
I00
F18.74683701470706
sI01
F56.92241198926203
ss(i__main__
State
p1694
(dp1695
g3
I2
sg4
I3
sg5
I2
sg6
F2.0
sg7
F5.0
sg8
F-2.0
sg9
F-5.0
sb(dp1696
I00
F10.296227824995224
sI01
F69.20109464161479
ss(i__main__
State
p1697
(dp1698
g3
I2
sg4
I3
sg5
I2
sg6
F-6.0
sg7
F8.0
sg8
F6.0
sg9
F7.0
sb(dp1699
I00
F65.80523389038062
sI01
F31.000999999999998
ss(i__main__
State
p1700
(dp1701
g3
I2
sg4
I3
sg5
I2
sg6
F6.0
sg7
F9.0
sg8
F-6.0
sg9
F10.0
sb(dp1702
I00
F24.598290255386082
sI01
F72.59559023470818
ss(i__main__
State
p1703
(dp1704
g3
I2
sg4
I3
sg5
I2
sg6
F-8.0
sg7
F2.0
sg8
F8.0
sg9
F-8.0
sb(dp1705
I00
F21.54859870397011
sI01
F126.90386404794455
ss(i__main__
State
p1706
(dp1707
g3
I2
sg4
I3
sg5
I2
sg6
F0.0
sg7
F5.0
sg8
F0.0
sg9
F-8.0
sb(dp1708
I00
F53.883880457655124
sI01
F-54.05287711632053
ss(i__main__
State
p1709
(dp1710
g3
I2
sg4
I3
sg5
I2
sg6
F4.0
sg7
F1.0
sg8
F-4.0
sg9
F-5.0
sb(dp1711
I00
F1.7690412279000312
sI01
F32.04561756254445
ss(i__main__
State
p1712
(dp1713
g3
I2
sg4
I3
sg5
I2
sg6
F-8.0
sg7
F9.0
sg8
F8.0
sg9
F-2.0
sb(dp1714
I00
F-1519.4790137335349
sI01
F437.3143069943703
ss(i__main__
State
p1715
(dp1716
g3
I2
sg4
I3
sg5
I2
sg6
F8.0
sg7
F10.0
sg8
F-8.0
sg9
F-8.0
sb(dp1717
I00
F20.0
sI01
F137.04486696204168
ss(i__main__
State
p1718
(dp1719
g3
I2
sg4
I3
sg5
I2
sg6
F8.0
sg7
F0.0
sg8
F-8.0
sg9
F-8.0
sb(dp1720
I00
F61.64887309874369
sI01
F75.09086088377951
ss(i__main__
State
p1721
(dp1722
g3
I2
sg4
I3
sg5
I2
sg6
F6.0
sg7
F0.0
sg8
F-6.0
sg9
F4.0
sb(dp1723
I00
F-83.94773407550161
sI01
F76.11303971008653
ss(i__main__
State
p1724
(dp1725
g3
I2
sg4
I3
sg5
I2
sg6
F4.0
sg7
F6.0
sg8
F-4.0
sg9
F7.0
sb(dp1726
I00
F27.154
sI01
I-81
ss(i__main__
State
p1727
(dp1728
g3
I2
sg4
I3
sg5
I2
sg6
F-8.0
sg7
F4.0
sg8
F8.0
sg9
F10.0
sb(dp1729
I00
F1.250598301978011
sI01
F61.11855449498916
ss(i__main__
State
p1730
(dp1731
g3
I2
sg4
I3
sg5
I2
sg6
F6.0
sg7
F9.0
sg8
F-6.0
sg9
F7.0
sb(dp1732
I00
F420.6022648753676
sI01
F22.734029730770004
ss(i__main__
State
p1733
(dp1734
g3
I2
sg4
I3
sg5
I2
sg6
F6.0
sg7
F3.0
sg8
F-6.0
sg9
F10.0
sb(dp1735
I00
F30.337069575972254
sI01
F39.965128618103485
ss(i__main__
State
p1736
(dp1737
g3
I2
sg4
I3
sg5
I2
sg6
F2.0
sg7
F2.0
sg8
F-2.0
sg9
F-8.0
sb(dp1738
I00
F37.88680345828656
sI01
F-88.51238555901
ss(i__main__
State
p1739
(dp1740
g3
I2
sg4
I3
sg5
I2
sg6
F-2.0
sg7
F5.0
sg8
F2.0
sg9
F-8.0
sb(dp1741
I00
F173.3503854016012
sI01
F-21.08746379249912
ss(i__main__
State
p1742
(dp1743
g3
I2
sg4
I3
sg5
I2
sg6
F2.0
sg7
F4.0
sg8
F-2.0
sg9
F7.0
sb(dp1744
I00
F149.15416271708835
sI01
F-20.544158257815756
ss(i__main__
State
p1745
(dp1746
g3
I2
sg4
I3
sg5
I2
sg6
F-6.0
sg7
F9.0
sg8
F6.0
sg9
F-5.0
sb(dp1747
I00
F430.40306083881035
sI01
F176.15318386093904
ss(i__main__
State
p1748
(dp1749
g3
I2
sg4
I3
sg5
I2
sg6
F8.0
sg7
F8.0
sg8
F-8.0
sg9
F1.0
sb(dp1750
I00
F816.167733495789
sI01
F457.0674866243669
ss(i__main__
State
p1751
(dp1752
g3
I2
sg4
I3
sg5
I2
sg6
F-2.0
sg7
F6.0
sg8
F2.0
sg9
F-8.0
sb(dp1753
I00
F35.36428996587978
sI01
F226.16759693877444
ss(i__main__
State
p1754
(dp1755
g3
I2
sg4
I3
sg5
I2
sg6
F-4.0
sg7
F6.0
sg8
F4.0
sg9
F10.0
sb(dp1756
I00
F18.108406485882384
sI01
F42.78396181972659
ss(i__main__
State
p1757
(dp1758
g3
I2
sg4
I3
sg5
I2
sg6
F-4.0
sg7
F9.0
sg8
F4.0
sg9
F1.0
sb(dp1759
I00
F-5635.0938978055
sI01
F-5503.355574598569
ss(i__main__
State
p1760
(dp1761
g3
I2
sg4
I3
sg5
I2
sg6
F4.0
sg7
F9.0
sg8
F-4.0
sg9
F-8.0
sb(dp1762
I00
F87.0144803351723
sI01
F28.813104387949597
ss(i__main__
State
p1763
(dp1764
g3
I2
sg4
I3
sg5
I2
sg6
F-6.0
sg7
F7.0
sg8
F6.0
sg9
F-2.0
sb(dp1765
I00
F-21.085013862035886
sI01
F324.50427304425517
ss(i__main__
State
p1766
(dp1767
g3
I2
sg4
I3
sg5
I2
sg6
F8.0
sg7
F8.0
sg8
F-8.0
sg9
F7.0
sb(dp1768
I00
F214.90826423938856
sI01
F45.91035510534344
ss(i__main__
State
p1769
(dp1770
g3
I2
sg4
I3
sg5
I2
sg6
F8.0
sg7
F0.0
sg8
F-8.0
sg9
F4.0
sb(dp1771
I00
F-12.397704296472039
sI01
F24.691128954958437
ss(i__main__
State
p1772
(dp1773
g3
I2
sg4
I3
sg5
I2
sg6
F-4.0
sg7
F3.0
sg8
F4.0
sg9
F-2.0
sb(dp1774
I00
F-24.6287982807263
sI01
F17.494053845339117
ss(i__main__
State
p1775
(dp1776
g3
I2
sg4
I3
sg5
I2
sg6
F-8.0
sg7
F2.0
sg8
F8.0
sg9
F7.0
sb(dp1777
I00
F-27.400550455656237
sI01
F50.50216857919968
ss(i__main__
State
p1778
(dp1779
g3
I2
sg4
I3
sg5
I2
sg6
F8.0
sg7
F8.0
sg8
F-8.0
sg9
F10.0
sb(dp1780
I00
F332.7420755077031
sI01
F134.49503765082147
ss(i__main__
State
p1781
(dp1782
g3
I2
sg4
I3
sg5
I2
sg6
F-2.0
sg7
F8.0
sg8
F2.0
sg9
F7.0
sb(dp1783
I00
F365.5722785868196
sI01
F103.48256043937937
ss(i__main__
State
p1784
(dp1785
g3
I2
sg4
I3
sg5
I2
sg6
F0.0
sg7
F4.0
sg8
F0.0
sg9
F1.0
sb(dp1786
I00
F-35.554739999999995
sI01
F28.31102714046497
ss(i__main__
State
p1787
(dp1788
g3
I2
sg4
I3
sg5
I2
sg6
F-6.0
sg7
F7.0
sg8
F6.0
sg9
F-8.0
sb(dp1789
I00
F80.24533059153549
sI01
F26.30228047052507
ss(i__main__
State
p1790
(dp1791
g3
I2
sg4
I3
sg5
I2
sg6
F4.0
sg7
F10.0
sg8
F-4.0
sg9
F4.0
sb(dp1792
I00
F119.80954400384564
sI01
F55.569610296462464
ss(i__main__
State
p1793
(dp1794
g3
I2
sg4
I3
sg5
I2
sg6
F0.0
sg7
F7.0
sg8
F0.0
sg9
F-2.0
sb(dp1795
I00
F17.49637525921301
sI01
F68.35866493594847
ss(i__main__
State
p1796
(dp1797
g3
I2
sg4
I3
sg5
I2
sg6
F8.0
sg7
F1.0
sg8
F-8.0
sg9
F7.0
sb(dp1798
I00
F31.960838361846985
sI01
F-15.66178342384577
ss(i__main__
State
p1799
(dp1800
g3
I2
sg4
I3
sg5
I2
sg6
F-2.0
sg7
F5.0
sg8
F2.0
sg9
F10.0
sb(dp1801
I00
F40.08268907306756
sI01
F239.9873484992839
ss(i__main__
State
p1802
(dp1803
g3
I2
sg4
I3
sg5
I2
sg6
F-8.0
sg7
F0.0
sg8
F8.0
sg9
F-8.0
sb(dp1804
I00
F30.923180761572663
sI01
F65.24757139195188
ss(i__main__
State
p1805
(dp1806
g3
I2
sg4
I3
sg5
I2
sg6
F-4.0
sg7
F10.0
sg8
F4.0
sg9
F7.0
sb(dp1807
I00
F62.85896992019301
sI01
F131.50656936954664
ss(i__main__
State
p1808
(dp1809
g3
I2
sg4
I3
sg5
I2
sg6
F-8.0
sg7
F6.0
sg8
F8.0
sg9
F-5.0
sb(dp1810
I00
F-25.049999999999997
sI01
F81.00702518502055
ss(i__main__
State
p1811
(dp1812
g3
I2
sg4
I3
sg5
I2
sg6
F-6.0
sg7
F0.0
sg8
F6.0
sg9
F-5.0
sb(dp1813
I00
F-32.700783896285955
sI01
F67.02714062789474
ss(i__main__
State
p1814
(dp1815
g3
I2
sg4
I3
sg5
I2
sg6
F0.0
sg7
F6.0
sg8
F0.0
sg9
F-2.0
sb(dp1816
I00
F11.032860617284088
sI01
F95.63787700271826
ss(i__main__
State
p1817
(dp1818
g3
I2
sg4
I3
sg5
I2
sg6
F2.0
sg7
F2.0
sg8
F-2.0
sg9
F4.0
sb(dp1819
I00
F5.420252655376572
sI01
F-57.7326443
ss(i__main__
State
p1820
(dp1821
g3
I2
sg4
I3
sg5
I2
sg6
F-8.0
sg7
F9.0
sg8
F8.0
sg9
F4.0
sb(dp1822
I00
F70.68953711857807
sI01
F37.54655643445143
ss(i__main__
State
p1823
(dp1824
g3
I2
sg4
I3
sg5
I2
sg6
F-6.0
sg7
F1.0
sg8
F6.0
sg9
F7.0
sb(dp1825
I00
F-70.34769417550295
sI01
F-2.1299559914161086
ss(i__main__
State
p1826
(dp1827
g3
I2
sg4
I3
sg5
I2
sg6
F-2.0
sg7
F8.0
sg8
F2.0
sg9
F4.0
sb(dp1828
I00
F237.14802867414596
sI01
F88.52632082280404
ss(i__main__
State
p1829
(dp1830
g3
I2
sg4
I3
sg5
I2
sg6
F-2.0
sg7
F2.0
sg8
F2.0
sg9
F-5.0
sb(dp1831
I00
F-55.95064789098989
sI01
F46.99879846238969
ss(i__main__
State
p1832
(dp1833
g3
I2
sg4
I3
sg5
I2
sg6
F-2.0
sg7
F2.0
sg8
F2.0
sg9
F1.0
sb(dp1834
I00
F17.24659051606053
sI01
F36.317427033075816
ss(i__main__
State
p1835
(dp1836
g3
I2
sg4
I3
sg5
I2
sg6
F-6.0
sg7
F7.0
sg8
F6.0
sg9
F-5.0
sb(dp1837
I00
F507.84110495808153
sI01
F103.42740417279566
ss(i__main__
State
p1838
(dp1839
g3
I2
sg4
I3
sg5
I2
sg6
F-4.0
sg7
F8.0
sg8
F4.0
sg9
F-5.0
sb(dp1840
I00
F58.0962721262533
sI01
F10.0
ss(i__main__
State
p1841
(dp1842
g3
I2
sg4
I3
sg5
I2
sg6
F-4.0
sg7
F3.0
sg8
F4.0
sg9
F-5.0
sb(dp1843
I00
F4.1164267101947685
sI01
F-16.425677917437362
ss(i__main__
State
p1844
(dp1845
g3
I2
sg4
I3
sg5
I2
sg6
F2.0
sg7
F6.0
sg8
F-2.0
sg9
F1.0
sb(dp1846
I00
F18.352197164067128
sI01
F177.0338432908215
ss(i__main__
State
p1847
(dp1848
g3
I2
sg4
I3
sg5
I2
sg6
F4.0
sg7
F2.0
sg8
F-4.0
sg9
F7.0
sb(dp1849
I00
F-7.776609965953878
sI01
F49.34813379669639
ss(i__main__
State
p1850
(dp1851
g3
I2
sg4
I3
sg5
I2
sg6
F4.0
sg7
F0.0
sg8
F-4.0
sg9
F4.0
sb(dp1852
I00
F55.17793766495177
sI01
F7.663829335013707
ss(i__main__
State
p1853
(dp1854
g3
I2
sg4
I3
sg5
I2
sg6
F-6.0
sg7
F6.0
sg8
F6.0
sg9
F7.0
sb(dp1855
I00
F119.5997370186407
sI01
F86.22511566681905
ss(i__main__
State
p1856
(dp1857
g3
I2
sg4
I3
sg5
I2
sg6
F6.0
sg7
F0.0
sg8
F-6.0
sg9
F-8.0
sb(dp1858
I00
F18.194361560665026
sI01
F34.33742169138435
ss(i__main__
State
p1859
(dp1860
g3
I2
sg4
I3
sg5
I2
sg6
F0.0
sg7
F2.0
sg8
F0.0
sg9
F4.0
sb(dp1861
I00
F57.334232483668174
sI01
F17.876959108823456
ss(i__main__
State
p1862
(dp1863
g3
I2
sg4
I3
sg5
I2
sg6
F4.0
sg7
F2.0
sg8
F-4.0
sg9
F-5.0
sb(dp1864
I00
F63.01850895096629
sI01
I-62
ss(i__main__
State
p1865
(dp1866
g3
I2
sg4
I3
sg5
I2
sg6
F2.0
sg7
F1.0
sg8
F-2.0
sg9
F-8.0
sb(dp1867
I00
F33.181635625254486
sI01
F2.7885441951263017
ss(i__main__
State
p1868
(dp1869
g3
I2
sg4
I3
sg5
I2
sg6
F-4.0
sg7
F9.0
sg8
F4.0
sg9
F10.0
sb(dp1870
I00
F292.87512476776635
sI01
F16.60018373701692
ss(i__main__
State
p1871
(dp1872
g3
I2
sg4
I3
sg5
I2
sg6
F0.0
sg7
F7.0
sg8
F0.0
sg9
F10.0
sb(dp1873
I00
F33.83512506485321
sI01
I-74
ss(i__main__
State
p1874
(dp1875
g3
I2
sg4
I3
sg5
I2
sg6
F2.0
sg7
F8.0
sg8
F-2.0
sg9
F10.0
sb(dp1876
I00
F-619.9162253049702
sI01
F593.5788345241644
ss(i__main__
State
p1877
(dp1878
g3
I2
sg4
I3
sg5
I2
sg6
F-6.0
sg7
F6.0
sg8
F6.0
sg9
F1.0
sb(dp1879
I00
F-15.159609080000001
sI01
F27.071093060155995
ss(i__main__
State
p1880
(dp1881
g3
I2
sg4
I3
sg5
I2
sg6
F-6.0
sg7
F1.0
sg8
F6.0
sg9
F10.0
sb(dp1882
I00
F62.74835904497309
sI01
F-24.816405844601434
ss(i__main__
State
p1883
(dp1884
g3
I2
sg4
I3
sg5
I2
sg6
F2.0
sg7
F8.0
sg8
F-2.0
sg9
F-8.0
sb(dp1885
I00
F-486.0396044434
sI01
F598.3260797752401
ss(i__main__
State
p1886
(dp1887
g3
I2
sg4
I3
sg5
I2
sg6
F-4.0
sg7
F3.0
sg8
F4.0
sg9
F10.0
sb(dp1888
I00
F45.489546851588784
sI01
F-19.47
ss(i__main__
State
p1889
(dp1890
g3
I2
sg4
I3
sg5
I2
sg6
F-8.0
sg7
F1.0
sg8
F8.0
sg9
F-2.0
sb(dp1891
I00
F19.71033055
sI01
F64.30630407583445
ss(i__main__
State
p1892
(dp1893
g3
I2
sg4
I3
sg5
I2
sg6
F6.0
sg7
F5.0
sg8
F-6.0
sg9
F10.0
sb(dp1894
I00
F-38.092225950544105
sI01
F27.525937643605566
ss(i__main__
State
p1895
(dp1896
g3
I2
sg4
I3
sg5
I2
sg6
F0.0
sg7
F0.0
sg8
F0.0
sg9
F4.0
sb(dp1897
I00
F40.474645456814436
sI01
F-28.50776122898317
ss(i__main__
State
p1898
(dp1899
g3
I2
sg4
I3
sg5
I2
sg6
F-6.0
sg7
F5.0
sg8
F6.0
sg9
F7.0
sb(dp1900
I00
F-62.86604283326643
sI01
F87.32060063322433
ss(i__main__
State
p1901
(dp1902
g3
I2
sg4
I3
sg5
I2
sg6
F6.0
sg7
F5.0
sg8
F-6.0
sg9
F7.0
sb(dp1903
I00
F29.19991046619781
sI01
F0.2379811504197299
ss(i__main__
State
p1904
(dp1905
g3
I2
sg4
I3
sg5
I2
sg6
F-8.0
sg7
F8.0
sg8
F8.0
sg9
F-8.0
sb(dp1906
I00
F219.69770468882476
sI01
F76.47464293295721
ss(i__main__
State
p1907
(dp1908
g3
I2
sg4
I3
sg5
I2
sg6
F4.0
sg7
F8.0
sg8
F-4.0
sg9
F-5.0
sb(dp1909
I00
F-713.8968200051665
sI01
F-851.8000164522516
ss(i__main__
State
p1910
(dp1911
g3
I2
sg4
I3
sg5
I2
sg6
F4.0
sg7
F5.0
sg8
F-4.0
sg9
F-5.0
sb(dp1912
I00
F19.720510236353007
sI01
F-62.00785864589878
ss(i__main__
State
p1913
(dp1914
g3
I2
sg4
I3
sg5
I2
sg6
F-6.0
sg7
F2.0
sg8
F6.0
sg9
F10.0
sb(dp1915
I00
F87.79045987541929
sI01
F-28.58424367224081
ss(i__main__
State
p1916
(dp1917
g3
I2
sg4
I3
sg5
I2
sg6
F8.0
sg7
F0.0
sg8
F-8.0
sg9
F-2.0
sb(dp1918
I00
F-44.31338296784639
sI01
F10.631089971870537
ss(i__main__
State
p1919
(dp1920
g3
I2
sg4
I3
sg5
I2
sg6
F4.0
sg7
F6.0
sg8
F-4.0
sg9
F4.0
sb(dp1921
I00
F-8.415292798536889
sI01
F-16.301144666911856
ss(i__main__
State
p1922
(dp1923
g3
I2
sg4
I3
sg5
I2
sg6
F4.0
sg7
F7.0
sg8
F-4.0
sg9
F-2.0
sb(dp1924
I00
F88.88050008555665
sI01
F63.18523838195268
ss(i__main__
State
p1925
(dp1926
g3
I2
sg4
I3
sg5
I2
sg6
F-2.0
sg7
F7.0
sg8
F2.0
sg9
F7.0
sb(dp1927
I00
F211.07215222845628
sI01
F97.93872572954682
ss(i__main__
State
p1928
(dp1929
g3
I2
sg4
I3
sg5
I2
sg6
F6.0
sg7
F3.0
sg8
F-6.0
sg9
F-2.0
sb(dp1930
I00
F48.868710842304964
sI01
F250.7729703555511
ss(i__main__
State
p1931
(dp1932
g3
I2
sg4
I3
sg5
I2
sg6
F-6.0
sg7
F6.0
sg8
F6.0
sg9
F10.0
sb(dp1933
I00
F-60.65
sI01
F108.07734058546431
ss(i__main__
State
p1934
(dp1935
g3
I2
sg4
I3
sg5
I2
sg6
F-8.0
sg7
F8.0
sg8
F8.0
sg9
F10.0
sb(dp1936
I00
F211.69527657317693
sI01
F30.76157380850101
ss(i__main__
State
p1937
(dp1938
g3
I2
sg4
I3
sg5
I2
sg6
F6.0
sg7
F5.0
sg8
F-6.0
sg9
F4.0
sb(dp1939
I00
F32.70012923720123
sI01
I3
ss(i__main__
State
p1940
(dp1941
g3
I2
sg4
I3
sg5
I2
sg6
F2.0
sg7
F10.0
sg8
F-2.0
sg9
F10.0
sb(dp1942
I00
F-2194.3143595715387
sI01
F147.07567796060647
ss(i__main__
State
p1943
(dp1944
g3
I2
sg4
I3
sg5
I2
sg6
F0.0
sg7
F9.0
sg8
F0.0
sg9
F-5.0
sb(dp1945
I00
F782.5622323555415
sI01
F290.36643622175444
ss(i__main__
State
p1946
(dp1947
g3
I2
sg4
I3
sg5
I2
sg6
F0.0
sg7
F9.0
sg8
F0.0
sg9
F7.0
sb(dp1948
I00
F392.31359728199624
sI01
F111.43934566482167
ss(i__main__
State
p1949
(dp1950
g3
I2
sg4
I3
sg5
I2
sg6
F-6.0
sg7
F3.0
sg8
F6.0
sg9
F10.0
sb(dp1951
I00
F32.44693720272538
sI01
F74.44521827302326
ss(i__main__
State
p1952
(dp1953
g3
I2
sg4
I3
sg5
I2
sg6
F-6.0
sg7
F8.0
sg8
F6.0
sg9
F4.0
sb(dp1954
I00
F253.52426436688026
sI01
F24.739099751352178
ss(i__main__
State
p1955
(dp1956
g3
I2
sg4
I3
sg5
I2
sg6
F-8.0
sg7
F8.0
sg8
F8.0
sg9
F-2.0
sb(dp1957
I00
F851.5535437309878
sI01
F-4294.927455736521
ss(i__main__
State
p1958
(dp1959
g3
I2
sg4
I3
sg5
I2
sg6
F6.0
sg7
F7.0
sg8
F-6.0
sg9
F4.0
sb(dp1960
I00
F331.86311724967294
sI01
F100.16716687938042
ss(i__main__
State
p1961
(dp1962
g3
I2
sg4
I3
sg5
I2
sg6
F4.0
sg7
F6.0
sg8
F-4.0
sg9
F-8.0
sb(dp1963
I00
F38.56063907115473
sI01
F11.675845602395597
ss(i__main__
State
p1964
(dp1965
g3
I2
sg4
I3
sg5
I2
sg6
F4.0
sg7
F5.0
sg8
F-4.0
sg9
F7.0
sb(dp1966
I00
F49.03913009777262
sI01
F-50.342513
ss(i__main__
State
p1967
(dp1968
g3
I2
sg4
I3
sg5
I2
sg6
F2.0
sg7
F9.0
sg8
F-2.0
sg9
F4.0
sb(dp1969
I00
F400.4854425273762
sI01
F-1947.427046285955
ss(i__main__
State
p1970
(dp1971
g3
I2
sg4
I3
sg5
I2
sg6
F2.0
sg7
F6.0
sg8
F-2.0
sg9
F7.0
sb(dp1972
I00
F26.7745645243791
sI01
F-66.72846270253932
ss(i__main__
State
p1973
(dp1974
g3
I2
sg4
I3
sg5
I2
sg6
F0.0
sg7
F3.0
sg8
F0.0
sg9
F7.0
sb(dp1975
I00
F1.1242843353312129
sI01
F64.49314078225609
ss(i__main__
State
p1976
(dp1977
g3
I2
sg4
I3
sg5
I2
sg6
F-4.0
sg7
F6.0
sg8
F4.0
sg9
F-5.0
sb(dp1978
I00
I49
sI01
F104.72268086655812
ss(i__main__
State
p1979
(dp1980
g3
I2
sg4
I3
sg5
I2
sg6
F4.0
sg7
F3.0
sg8
F-4.0
sg9
F-5.0
sb(dp1981
I00
F32.86895574199687
sI01
F21.92263482446252
ss(i__main__
State
p1982
(dp1983
g3
I2
sg4
I3
sg5
I2
sg6
F2.0
sg7
F4.0
sg8
F-2.0
sg9
F-2.0
sb(dp1984
I00
F33.218683391466904
sI01
F50.41759299425577
ss(i__main__
State
p1985
(dp1986
g3
I2
sg4
I3
sg5
I2
sg6
F6.0
sg7
F8.0
sg8
F-6.0
sg9
F7.0
sb(dp1987
I00
F764.8735307705766
sI01
F316.5623070758521
ss(i__main__
State
p1988
(dp1989
g3
I2
sg4
I3
sg5
I2
sg6
F-2.0
sg7
F5.0
sg8
F2.0
sg9
F-5.0
sb(dp1990
I00
F13.153257719250858
sI01
F47.81487231888716
ss(i__main__
State
p1991
(dp1992
g3
I2
sg4
I3
sg5
I2
sg6
F2.0
sg7
F1.0
sg8
F-2.0
sg9
F-2.0
sb(dp1993
I00
F-39.32785183173274
sI01
F7.212272436455056
ss(i__main__
State
p1994
(dp1995
g3
I2
sg4
I3
sg5
I2
sg6
F-4.0
sg7
F7.0
sg8
F4.0
sg9
F7.0
sb(dp1996
I00
F90.24460054265596
sI01
F16.119098561273283
ss(i__main__
State
p1997
(dp1998
g3
I2
sg4
I3
sg5
I2
sg6
F6.0
sg7
F8.0
sg8
F-6.0
sg9
F10.0
sb(dp1999
I00
F251.66710155085565
sI01
F44.32203538247466
ss(i__main__
State
p2000
(dp2001
g3
I2
sg4
I3
sg5
I2
sg6
F8.0
sg7
F0.0
sg8
F-8.0
sg9
F1.0
sb(dp2002
I00
F76.71252898793121
sI01
I38
ss(i__main__
State
p2003
(dp2004
g3
I2
sg4
I3
sg5
I2
sg6
F-8.0
sg7
F4.0
sg8
F8.0
sg9
F1.0
sb(dp2005
I00
F2.65781368695728
sI01
F-5.977919515565349
ss(i__main__
State
p2006
(dp2007
g3
I2
sg4
I3
sg5
I2
sg6
F2.0
sg7
F3.0
sg8
F-2.0
sg9
F7.0
sb(dp2008
I00
I-55
sI01
F59.4606154397575
ss(i__main__
State
p2009
(dp2010
g3
I2
sg4
I3
sg5
I2
sg6
F-8.0
sg7
F8.0
sg8
F8.0
sg9
F-5.0
sb(dp2011
I00
F417.6839402691449
sI01
F106.67606031967429
ss(i__main__
State
p2012
(dp2013
g3
I2
sg4
I3
sg5
I2
sg6
F6.0
sg7
F7.0
sg8
F-6.0
sg9
F-8.0
sb(dp2014
I00
F-21.049959407342993
sI01
F-134.09324983436255
ss(i__main__
State
p2015
(dp2016
g3
I2
sg4
I3
sg5
I2
sg6
F2.0
sg7
F0.0
sg8
F-2.0
sg9
F-5.0
sb(dp2017
I00
F18.325804619972587
sI01
F-52.9
ss(i__main__
State
p2018
(dp2019
g3
I2
sg4
I3
sg5
I2
sg6
F8.0
sg7
F3.0
sg8
F-8.0
sg9
F-2.0
sb(dp2020
I00
F12.216398151116582
sI01
F60.3706517406553
ss(i__main__
State
p2021
(dp2022
g3
I2
sg4
I3
sg5
I2
sg6
F2.0
sg7
F5.0
sg8
F-2.0
sg9
F10.0
sb(dp2023
I00
F52.41542743588379
sI01
F-45.287487
ss(i__main__
State
p2024
(dp2025
g3
I2
sg4
I3
sg5
I2
sg6
F-4.0
sg7
F5.0
sg8
F4.0
sg9
F10.0
sb(dp2026
I00
F-45.99149149785194
sI01
F-10.43484058203913
ss(i__main__
State
p2027
(dp2028
g3
I2
sg4
I3
sg5
I2
sg6
F-8.0
sg7
F0.0
sg8
F8.0
sg9
F10.0
sb(dp2029
I00
F75.51640570195164
sI01
F26.13237936523606
ss(i__main__
State
p2030
(dp2031
g3
I2
sg4
I3
sg5
I2
sg6
F-4.0
sg7
F2.0
sg8
F4.0
sg9
F-5.0
sb(dp2032
I00
F28.3083186588106
sI01
F9.268754294511847
ss(i__main__
State
p2033
(dp2034
g3
I2
sg4
I3
sg5
I2
sg6
F0.0
sg7
F3.0
sg8
F0.0
sg9
F1.0
sb(dp2035
I00
F31.30225244807108
sI01
I2
ss(i__main__
State
p2036
(dp2037
g3
I2
sg4
I3
sg5
I2
sg6
F-6.0
sg7
F10.0
sg8
F6.0
sg9
F7.0
sb(dp2038
I00
F66.74887110575932
sI01
F166.97816985224526
ss(i__main__
State
p2039
(dp2040
g3
I2
sg4
I3
sg5
I2
sg6
F8.0
sg7
F4.0
sg8
F-8.0
sg9
F-8.0
sb(dp2041
I00
F-46.78862136199451
sI01
F17.521403061429673
ss(i__main__
State
p2042
(dp2043
g3
I2
sg4
I3
sg5
I2
sg6
F2.0
sg7
F4.0
sg8
F-2.0
sg9
F-8.0
sb(dp2044
I00
F36.1321178060969
sI01
I-43
ss(i__main__
State
p2045
(dp2046
g3
I2
sg4
I3
sg5
I2
sg6
F0.0
sg7
F2.0
sg8
F0.0
sg9
F-8.0
sb(dp2047
I00
F36.80097159585348
sI01
F-33.76378939238977
ss(i__main__
State
p2048
(dp2049
g3
I2
sg4
I3
sg5
I2
sg6
F4.0
sg7
F0.0
sg8
F-4.0
sg9
F-2.0
sb(dp2050
I00
F68.90009822709999
sI01
I25
ss(i__main__
State
p2051
(dp2052
g3
I2
sg4
I3
sg5
I2
sg6
F8.0
sg7
F7.0
sg8
F-8.0
sg9
F7.0
sb(dp2053
I00
I15
sI01
F82.25808862473222
ss(i__main__
State
p2054
(dp2055
g3
I2
sg4
I3
sg5
I2
sg6
F-4.0
sg7
F6.0
sg8
F4.0
sg9
F-2.0
sb(dp2056
I00
F-26.693732832992033
sI01
F68.79592421114194
ss(i__main__
State
p2057
(dp2058
g3
I2
sg4
I3
sg5
I2
sg6
F8.0
sg7
F3.0
sg8
F-8.0
sg9
F-8.0
sb(dp2059
I00
F0.30057180400000316
sI01
F43.63467170037784
ss(i__main__
State
p2060
(dp2061
g3
I2
sg4
I3
sg5
I2
sg6
F-6.0
sg7
F10.0
sg8
F6.0
sg9
F1.0
sb(dp2062
I00
F434.40581562292243
sI01
F101.76278050484072
ss(i__main__
State
p2063
(dp2064
g3
I2
sg4
I3
sg5
I2
sg6
F2.0
sg7
F1.0
sg8
F-2.0
sg9
F-5.0
sb(dp2065
I00
F-9.328967434888803
sI01
F39.98913261527852
ss(i__main__
State
p2066
(dp2067
g3
I2
sg4
I3
sg5
I2
sg6
F-6.0
sg7
F10.0
sg8
F6.0
sg9
F-5.0
sb(dp2068
I00
F171.1802063061171
sI01
F19.5
ss(i__main__
State
p2069
(dp2070
g3
I2
sg4
I3
sg5
I2
sg6
F2.0
sg7
F10.0
sg8
F-2.0
sg9
F1.0
sb(dp2071
I00
F-693.8467017065791
sI01
F106.82915563699014
ss(i__main__
State
p2072
(dp2073
g3
I2
sg4
I3
sg5
I2
sg6
F-6.0
sg7
F0.0
sg8
F6.0
sg9
F-2.0
sb(dp2074
I00
F-3.657599006997086
sI01
F65.52526960756306
ss(i__main__
State
p2075
(dp2076
g3
I2
sg4
I3
sg5
I2
sg6
F2.0
sg7
F3.0
sg8
F-2.0
sg9
F-2.0
sb(dp2077
I00
I-95
sI01
F12.501762930703535
ss(i__main__
State
p2078
(dp2079
g3
I2
sg4
I3
sg5
I2
sg6
F0.0
sg7
F8.0
sg8
F0.0
sg9
F-8.0
sb(dp2080
I00
F-2700.6685098862054
sI01
F-3351.1125101186426
ss(i__main__
State
p2081
(dp2082
g3
I2
sg4
I3
sg5
I2
sg6
F-2.0
sg7
F10.0
sg8
F2.0
sg9
F1.0
sb(dp2083
I00
F298.99001245073435
sI01
F72.62252258010082
ss(i__main__
State
p2084
(dp2085
g3
I2
sg4
I3
sg5
I2
sg6
F0.0
sg7
F1.0
sg8
F0.0
sg9
F1.0
sb(dp2086
I00
F-42.754665754487824
sI01
F28.492306662501374
ss(i__main__
State
p2087
(dp2088
g3
I2
sg4
I3
sg5
I2
sg6
F-4.0
sg7
F2.0
sg8
F4.0
sg9
F1.0
sb(dp2089
I00
F-47.95682764219454
sI01
F43.999229219750525
ss(i__main__
State
p2090
(dp2091
g3
I2
sg4
I3
sg5
I2
sg6
F-8.0
sg7
F3.0
sg8
F8.0
sg9
F7.0
sb(dp2092
I00
F32.01404550104483
sI01
F-7.203999420483975
ss(i__main__
State
p2093
(dp2094
g3
I2
sg4
I3
sg5
I2
sg6
F4.0
sg7
F4.0
sg8
F-4.0
sg9
F-2.0
sb(dp2095
I00
F-17.093930196625784
sI01
F34.79998375052249
ss.