(dp0
(i__main__
State
p1
(dp2
S'y1'
p3
F8.0
sS'x'
p4
F3.0
sS'y3'
p5
F-3.0
sS'y2'
p6
F-6.0
sb(dp7
I00
F30.39597938824684
sI01
F-29.861909244288412
ss(i__main__
State
p8
(dp9
g3
F4.0
sg4
F7.0
sg5
F-7.0
sg6
F7.0
sb(dp10
I00
F73.25590821375582
sI01
I19
ss(i__main__
State
p11
(dp12
g3
F-7.0
sg4
F5.0
sg5
F-1.0
sg6
F-4.0
sb(dp13
I00
F45.69293365026588
sI01
F-28.533612
ss(i__main__
State
p14
(dp15
g3
F-5.0
sg4
F2.0
sg5
F1.0
sg6
F-2.0
sb(dp16
I00
I-6
sI01
F58.46250570633279
ss(i__main__
State
p17
(dp18
g3
F7.0
sg4
F6.0
sg5
F-4.0
sg6
F-7.0
sb(dp19
I00
F19.690820449378926
sI01
F-53.62576999999999
ss(i__main__
State
p20
(dp21
g3
F0.0
sg4
F7.0
sg5
F6.0
sg6
F3.0
sb(dp22
I00
F67.46075932065722
sI01
F122.42859424413814
ss(i__main__
State
p23
(dp24
g3
F-1.0
sg4
F3.0
sg5
F5.0
sg6
F2.0
sb(dp25
I00
F-50.72845301019976
sI01
F65.81905434658847
ss(i__main__
State
p26
(dp27
g3
F1.0
sg4
F4.0
sg5
F7.0
sg6
F4.0
sb(dp28
I00
F61.22442128067068
sI01
F30.146057144249884
ss(i__main__
State
p29
(dp30
g3
F-1.0
sg4
F7.0
sg5
F5.0
sg6
F2.0
sb(dp31
I00
F54.84224771546994
sI01
F-1022.5887187360521
ss(i__main__
State
p32
(dp33
g3
F2.0
sg4
F7.0
sg5
F8.0
sg6
F5.0
sb(dp34
I00
F81.4338979904
sI01
F-0.3957599999999992
ss(i__main__
State
p35
(dp36
g3
F-6.0
sg4
F5.0
sg5
F0.0
sg6
F-3.0
sb(dp37
I00
F58.35586959200849
sI01
F28.700821804313488
ss(i__main__
State
p38
(dp39
g3
F-2.0
sg4
F8.0
sg5
F4.0
sg6
F1.0
sb(dp40
I00
F78.4065481793074
sI01
F0.0
ss(i__main__
State
p41
(dp42
g3
F6.0
sg4
F0.0
sg5
F-5.0
sg6
F-8.0
sb(dp43
I00
F69.38865858144847
sI01
F20.27589999968134
ss(i__main__
State
p44
(dp45
g3
F0.0
sg4
F1.0
sg5
F6.0
sg6
F3.0
sb(dp46
I00
F6.440932949535189
sI01
F-50.54666246300499
ss(i__main__
State
p47
(dp48
g3
F-4.0
sg4
F7.0
sg5
F2.0
sg6
F-1.0
sb(dp49
I00
F48.426602684660736
sI01
F-21.430000000000007
ss(i__main__
State
p50
(dp51
g3
F-3.0
sg4
F2.0
sg5
F3.0
sg6
F0.0
sb(dp52
I00
F-23.31388050898664
sI01
F51.33605075290673
ss(i__main__
State
p53
(dp54
g3
F5.0
sg4
F0.0
sg5
F-6.0
sg6
F8.0
sb(dp55
I00
F-80.5
sI01
F-19.363742055584563
ss(i__main__
State
p56
(dp57
g3
F3.0
sg4
F2.0
sg5
F-8.0
sg6
F6.0
sb(dp58
I00
F30.779016022086854
sI01
F-12.40282638415301
ss(i__main__
State
p59
(dp60
g3
F3.0
sg4
F3.0
sg5
F-8.0
sg6
F6.0
sb(dp61
I00
F24.596238593075764
sI01
F-41.6735028423081
ss(i__main__
State
p62
(dp63
g3
F-5.0
sg4
F8.0
sg5
F1.0
sg6
F-2.0
sb(dp64
I00
F126.54122158366529
sI01
F24.174
ss(i__main__
State
p65
(dp66
g3
F2.0
sg4
F0.0
sg5
F8.0
sg6
F5.0
sb(dp67
I00
F-13.453606284866327
sI01
F33.71960075077733
ss(i__main__
State
p68
(dp69
g3
F4.0
sg4
F4.0
sg5
F-7.0
sg6
F7.0
sb(dp70
I00
F15.827927200580254
sI01
F1.1185095375065397
ss(i__main__
State
p71
(dp72
g3
F-2.0
sg4
F2.0
sg5
F4.0
sg6
F1.0
sb(dp73
I00
F-68.19969454464267
sI01
F-11.882127579339732
ss(i__main__
State
p74
(dp75
g3
F-4.0
sg4
F2.0
sg5
F2.0
sg6
F-1.0
sb(dp76
I00
F-5.318952134294837
sI01
F-31.16148636370235
ss(i__main__
State
p77
(dp78
g3
F-6.0
sg4
F3.0
sg5
F0.0
sg6
F-3.0
sb(dp79
I00
F60.19991730958237
sI01
F-43.824993575521965
ss(i__main__
State
p80
(dp81
g3
F2.0
sg4
F8.0
sg5
F8.0
sg6
F5.0
sb(dp82
I00
F230.16506095861763
sI01
F43.59008379286329
ss(i__main__
State
p83
(dp84
g3
F-7.0
sg4
F3.0
sg5
F-1.0
sg6
F-4.0
sb(dp85
I00
F1.6557282417682675
sI01
F42.607683539157904
ss(i__main__
State
p86
(dp87
g3
F5.0
sg4
F6.0
sg5
F-6.0
sg6
F8.0
sb(dp88
I00
F-9.165237030277606
sI01
F156.35805693706368
ss(i__main__
State
p89
(dp90
g3
F8.0
sg4
F1.0
sg5
F-3.0
sg6
F-6.0
sb(dp91
I00
F-81.79567259968391
sI01
F8.475202703779464
ss(i__main__
State
p92
(dp93
g3
F-2.0
sg4
F5.0
sg5
F4.0
sg6
F1.0
sb(dp94
I00
F-33.98621212308182
sI01
F88.95399964979534
ss(i__main__
State
p95
(dp96
g3
F-5.0
sg4
F5.0
sg5
F1.0
sg6
F-2.0
sb(dp97
I00
F12.5437769419616
sI01
F80.982674146949
ss(i__main__
State
p98
(dp99
g3
F-2.0
sg4
F1.0
sg5
F4.0
sg6
F1.0
sb(dp100
I00
F-58.23
sI01
F9.212873367560015
ss(i__main__
State
p101
(dp102
g3
F7.0
sg4
F5.0
sg5
F-4.0
sg6
F-7.0
sb(dp103
I00
F42.13578713936206
sI01
F-76.20646499196873
ss(i__main__
State
p104
(dp105
g3
F-6.0
sg4
F0.0
sg5
F0.0
sg6
F-3.0
sb(dp106
I00
F9.044622351506295
sI01
F31.949406858336992
ss(i__main__
State
p107
(dp108
g3
F3.0
sg4
F6.0
sg5
F-8.0
sg6
F6.0
sb(dp109
I00
F21.160110011752
sI01
F62.344011692819244
ss(i__main__
State
p110
(dp111
g3
F8.0
sg4
F7.0
sg5
F-3.0
sg6
F-6.0
sb(dp112
I00
F18.014139999999998
sI01
F2.7805292147920007
ss(i__main__
State
p113
(dp114
g3
F8.0
sg4
F4.0
sg5
F-3.0
sg6
F-6.0
sb(dp115
I00
F27.55175578330394
sI01
F-14.952463694886944
ss(i__main__
State
p116
(dp117
g3
F6.0
sg4
F3.0
sg5
F-5.0
sg6
F-8.0
sb(dp118
I00
F21.906215481364182
sI01
F18.388988165728364
ss(i__main__
State
p119
(dp120
g3
F8.0
sg4
F8.0
sg5
F-3.0
sg6
F-6.0
sb(dp121
I00
F210.5540466912376
sI01
F70.21629004683702
ss(i__main__
State
p122
(dp123
g3
F7.0
sg4
F8.0
sg5
F-4.0
sg6
F-7.0
sb(dp124
I00
F262.5123635644362
sI01
F81.83062373214695
ss(i__main__
State
p125
(dp126
g3
F-7.0
sg4
F8.0
sg5
F-1.0
sg6
F-4.0
sb(dp127
I00
F-405.51735643300003
sI01
F41.774866700206914
ss(i__main__
State
p128
(dp129
g3
F-6.0
sg4
F8.0
sg5
F0.0
sg6
F-3.0
sb(dp130
I00
F-2692.547444068562
sI01
F-2688.538464
ss(i__main__
State
p131
(dp132
g3
F8.0
sg4
F2.0
sg5
F-3.0
sg6
F-6.0
sb(dp133
I00
F25.90875981087667
sI01
I-59
ss(i__main__
State
p134
(dp135
g3
F-5.0
sg4
F3.0
sg5
F1.0
sg6
F-2.0
sb(dp136
I00
F47.987712585059285
sI01
F-18.09304052250645
ss(i__main__
State
p137
(dp138
g3
F6.0
sg4
F6.0
sg5
F-5.0
sg6
F-8.0
sb(dp139
I00
F48.66194070397641
sI01
F71.97460210950481
ss(i__main__
State
p140
(dp141
g3
F-8.0
sg4
F6.0
sg5
F-2.0
sg6
F-5.0
sb(dp142
I00
F4.3946178412885235
sI01
F-74.4
ss(i__main__
State
p143
(dp144
g3
F8.0
sg4
F5.0
sg5
F-3.0
sg6
F-6.0
sb(dp145
I00
F47.68955874289432
sI01
F-60.00575014233
ss(i__main__
State
p146
(dp147
g3
F1.0
sg4
F3.0
sg5
F7.0
sg6
F4.0
sb(dp148
I00
F-3.9104792575399987
sI01
F64.74007679781474
ss(i__main__
State
p149
(dp150
g3
F1.0
sg4
F1.0
sg5
F7.0
sg6
F4.0
sb(dp151
I00
F23.059391381460046
sI01
F33.56676567565126
ss(i__main__
State
p152
(dp153
g3
F2.0
sg4
F5.0
sg5
F8.0
sg6
F5.0
sb(dp154
I00
F36.47005821460137
sI01
F-59.0
ss(i__main__
State
p155
(dp156
g3
F0.0
sg4
F2.0
sg5
F6.0
sg6
F3.0
sb(dp157
I00
F46.823112014795946
sI01
F37.52328906867619
ss(i__main__
State
p158
(dp159
g3
F-1.0
sg4
F4.0
sg5
F5.0
sg6
F2.0
sb(dp160
I00
F57.68431949152929
sI01
F39.783500000000004
ss(i__main__
State
p161
(dp162
g3
F2.0
sg4
F6.0
sg5
F8.0
sg6
F5.0
sb(dp163
I00
F-47.959696189001235
sI01
F99.68754805538133
ss(i__main__
State
p164
(dp165
g3
F-1.0
sg4
F1.0
sg5
F5.0
sg6
F2.0
sb(dp166
I00
F-4.015404825123435
sI01
F-65.03383547736063
ss(i__main__
State
p167
(dp168
g3
F-1.0
sg4
F5.0
sg5
F5.0
sg6
F2.0
sb(dp169
I00
F-27.019
sI01
F18.67223311791345
ss(i__main__
State
p170
(dp171
g3
F-7.0
sg4
F1.0
sg5
F-1.0
sg6
F-4.0
sb(dp172
I00
F-36.094170489319495
sI01
F35.671462192101394
ss(i__main__
State
p173
(dp174
g3
F-5.0
sg4
F6.0
sg5
F1.0
sg6
F-2.0
sb(dp175
I00
F-47.300181737580196
sI01
F23.167318149757353
ss(i__main__
State
p176
(dp177
g3
F-6.0
sg4
F7.0
sg5
F0.0
sg6
F-3.0
sb(dp178
I00
F-26.596266634798923
sI01
F57.1267426028411
ss(i__main__
State
p179
(dp180
g3
F3.0
sg4
F4.0
sg5
F-8.0
sg6
F6.0
sb(dp181
I00
F43.95666089732435
sI01
F61.89514401699289
ss(i__main__
State
p182
(dp183
g3
F4.0
sg4
F1.0
sg5
F-7.0
sg6
F7.0
sb(dp184
I00
F42.16613792823549
sI01
I2
ss(i__main__
State
p185
(dp186
g3
F1.0
sg4
F7.0
sg5
F7.0
sg6
F4.0
sb(dp187
I00
I-73
sI01
F147.04014068901523
ss(i__main__
State
p188
(dp189
g3
F1.0
sg4
F5.0
sg5
F7.0
sg6
F4.0
sb(dp190
I00
F52.56533568297217
sI01
F80.33492718851609
ss(i__main__
State
p191
(dp192
g3
F-3.0
sg4
F0.0
sg5
F3.0
sg6
F0.0
sb(dp193
I00
F12.458182973730807
sI01
F-2.2505937062458874
ss(i__main__
State
p194
(dp195
g3
F-8.0
sg4
F4.0
sg5
F-2.0
sg6
F-5.0
sb(dp196
I00
F37.30297644870679
sI01
F15.166161975658863
ss(i__main__
State
p197
(dp198
g3
F1.0
sg4
F2.0
sg5
F7.0
sg6
F4.0
sb(dp199
I00
F32.569080764371954
sI01
I23
ss(i__main__
State
p200
(dp201
g3
F5.0
sg4
F4.0
sg5
F-6.0
sg6
F8.0
sb(dp202
I00
F-6.352125022550517
sI01
F1.6916420791180513
ss(i__main__
State
p203
(dp204
g3
F7.0
sg4
F2.0
sg5
F-4.0
sg6
F-7.0
sb(dp205
I00
F26.106554606341547
sI01
F0.4500955400321107
ss(i__main__
State
p206
(dp207
g3
F-8.0
sg4
F2.0
sg5
F-2.0
sg6
F-5.0
sb(dp208
I00
F-36.60351682019123
sI01
F25.13137653922491
ss(i__main__
State
p209
(dp210
g3
F-8.0
sg4
F7.0
sg5
F-2.0
sg6
F-5.0
sb(dp211
I00
F55.667784203
sI01
F54.2886075134303
ss(i__main__
State
p212
(dp213
g3
F1.0
sg4
F8.0
sg5
F7.0
sg6
F4.0
sb(dp214
I00
F121.69551811415826
sI01
F130.77787122505117
ss(i__main__
State
p215
(dp216
g3
F0.0
sg4
F5.0
sg5
F6.0
sg6
F3.0
sb(dp217
I00
F-39.64873083135605
sI01
F-2.7365000000000013
ss(i__main__
State
p218
(dp219
g3
F-4.0
sg4
F3.0
sg5
F2.0
sg6
F-1.0
sb(dp220
I00
F45.84790984979216
sI01
F-55.18153137212414
ss(i__main__
State
p221
(dp222
g3
F-8.0
sg4
F5.0
sg5
F-2.0
sg6
F-5.0
sb(dp223
I00
F45.46406238559236
sI01
F-15.559359829327308
ss(i__main__
State
p224
(dp225
g3
F-3.0
sg4
F6.0
sg5
F3.0
sg6
F0.0
sb(dp226
I00
F-2.2090526992839687
sI01
F120.32470604383639
ss(i__main__
State
p227
(dp228
g3
F7.0
sg4
F3.0
sg5
F-4.0
sg6
F-7.0
sb(dp229
I00
F40.34150875107245
sI01
F31.752357429878113
ss(i__main__
State
p230
(dp231
g3
F5.0
sg4
F5.0
sg5
F-6.0
sg6
F8.0
sb(dp232
I00
F-29.945294217477105
sI01
F37.48077348049041
ss(i__main__
State
p233
(dp234
g3
F-5.0
sg4
F7.0
sg5
F1.0
sg6
F-2.0
sb(dp235
I00
F66.93902817587373
sI01
I33
ss(i__main__
State
p236
(dp237
g3
F-4.0
sg4
F4.0
sg5
F2.0
sg6
F-1.0
sb(dp238
I00
F65.57486613266002
sI01
F-52.97561901501402
ss(i__main__
State
p239
(dp240
g3
F3.0
sg4
F7.0
sg5
F-8.0
sg6
F6.0
sb(dp241
I00
F-26.509781894558238
sI01
F133.44259987904402
ss(i__main__
State
p242
(dp243
g3
F7.0
sg4
F0.0
sg5
F-4.0
sg6
F-7.0
sb(dp244
I00
F52.22378908844606
sI01
F49.56205255297384
ss(i__main__
State
p245
(dp246
g3
F-6.0
sg4
F6.0
sg5
F0.0
sg6
F-3.0
sb(dp247
I00
F-24.830013
sI01
I-65
ss(i__main__
State
p248
(dp249
g3
F5.0
sg4
F8.0
sg5
F-6.0
sg6
F8.0
sb(dp250
I00
F194.29189475803267
sI01
F69.56808916824484
ss(i__main__
State
p251
(dp252
g3
F-8.0
sg4
F0.0
sg5
F-2.0
sg6
F-5.0
sb(dp253
I00
F21.977523133555827
sI01
F-49.63992047426616
ss(i__main__
State
p254
(dp255
g3
F-3.0
sg4
F3.0
sg5
F3.0
sg6
F0.0
sb(dp256
I00
F53.85681071483907
sI01
F-70.59624937098467
ss(i__main__
State
p257
(dp258
g3
F0.0
sg4
F0.0
sg5
F6.0
sg6
F3.0
sb(dp259
I00
F27.54823866184864
sI01
F32.106557428758265
ss(i__main__
State
p260
(dp261
g3
F5.0
sg4
F2.0
sg5
F-6.0
sg6
F8.0
sb(dp262
I00
F-0.03336428553887627
sI01
F6.086361049734387
ss(i__main__
State
p263
(dp264
g3
F-8.0
sg4
F3.0
sg5
F-2.0
sg6
F-5.0
sb(dp265
I00
F36.390958135752406
sI01
F41.52582926333134
ss(i__main__
State
p266
(dp267
g3
F-2.0
sg4
F7.0
sg5
F4.0
sg6
F1.0
sb(dp268
I00
F-31.15965567274138
sI01
F128.31685786541962
ss(i__main__
State
p269
(dp270
g3
F0.0
sg4
F6.0
sg5
F6.0
sg6
F3.0
sb(dp271
I00
F-49.7
sI01
F46.67360199990421
ss(i__main__
State
p272
(dp273
g3
F-4.0
sg4
F8.0
sg5
F2.0
sg6
F-1.0
sb(dp274
I00
F-628.2554796000001
sI01
F86.88874919098667
ss(i__main__
State
p275
(dp276
g3
F-8.0
sg4
F1.0
sg5
F-2.0
sg6
F-5.0
sb(dp277
I00
F34.45258204005666
sI01
F20.5
ss(i__main__
State
p278
(dp279
g3
F-3.0
sg4
F1.0
sg5
F3.0
sg6
F0.0
sb(dp280
I00
F-21.166706304079284
sI01
F-68.04534277136624
ss(i__main__
State
p281
(dp282
g3
F7.0
sg4
F7.0
sg5
F-4.0
sg6
F-7.0
sb(dp283
I00
F31.3
sI01
F134.80067670968256
ss(i__main__
State
p284
(dp285
g3
F-3.0
sg4
F7.0
sg5
F3.0
sg6
F0.0
sb(dp286
I00
F93.18015065799942
sI01
F27.670366109079268
ss(i__main__
State
p287
(dp288
g3
F4.0
sg4
F5.0
sg5
F-7.0
sg6
F7.0
sb(dp289
I00
F28.04200865326242
sI01
F103.16810644939781
ss(i__main__
State
p290
(dp291
g3
F7.0
sg4
F4.0
sg5
F-4.0
sg6
F-7.0
sb(dp292
I00
F20.031053368208948
sI01
F-7.1642584432835825
ss(i__main__
State
p293
(dp294
g3
F-5.0
sg4
F4.0
sg5
F1.0
sg6
F-2.0
sb(dp295
I00
F59.65005953504287
sI01
F32.070712229186
ss(i__main__
State
p296
(dp297
g3
F-3.0
sg4
F8.0
sg5
F3.0
sg6
F0.0
sb(dp298
I00
F-3430.066189092
sI01
F-2718.0116176852034
ss(i__main__
State
p299
(dp300
g3
F0.0
sg4
F8.0
sg5
F6.0
sg6
F3.0
sb(dp301
I00
F-6067.0313139816135
sI01
F-5201.717843403433
ss(i__main__
State
p302
(dp303
g3
F-5.0
sg4
F0.0
sg5
F1.0
sg6
F-2.0
sb(dp304
I00
F51.44480955204259
sI01
F54.55111874396521
ss(i__main__
State
p305
(dp306
g3
F8.0
sg4
F0.0
sg5
F-3.0
sg6
F-6.0
sb(dp307
I00
F-6.532314920540447
sI01
F38.11368476359095
ss(i__main__
State
p308
(dp309
g3
F5.0
sg4
F3.0
sg5
F-6.0
sg6
F8.0
sb(dp310
I00
F21.216833455969446
sI01
F16.078503280965347
ss(i__main__
State
p311
(dp312
g3
F-1.0
sg4
F6.0
sg5
F5.0
sg6
F2.0
sb(dp313
I00
F-40.17526983621954
sI01
F108.57220679182613
ss(i__main__
State
p314
(dp315
g3
F-7.0
sg4
F7.0
sg5
F-1.0
sg6
F-4.0
sb(dp316
I00
F-17.301205718118787
sI01
F-96.70000000000002
ss(i__main__
State
p317
(dp318
g3
F-7.0
sg4
F4.0
sg5
F-1.0
sg6
F-4.0
sb(dp319
I00
F48.68830878986556
sI01
F-49.21548354802782
ss(i__main__
State
p320
(dp321
g3
F-4.0
sg4
F1.0
sg5
F2.0
sg6
F-1.0
sb(dp322
I00
F-64.4182831476337
sI01
F38.47143075035603
ss(i__main__
State
p323
(dp324
g3
F1.0
sg4
F0.0
sg5
F7.0
sg6
F4.0
sb(dp325
I00
F-21.680272360467917
sI01
F25.550223322021004
ss(i__main__
State
p326
(dp327
g3
F6.0
sg4
F7.0
sg5
F-5.0
sg6
F-8.0
sb(dp328
I00
F47.74868703510661
sI01
F209.63198269995013
ss(i__main__
State
p329
(dp330
g3
F3.0
sg4
F0.0
sg5
F-8.0
sg6
F6.0
sb(dp331
I00
F3.592964274847559
sI01
F-27.44291186089
ss(i__main__
State
p332
(dp333
g3
F7.0
sg4
F1.0
sg5
F-4.0
sg6
F-7.0
sb(dp334
I00
F49.41650996053451
sI01
I36
ss(i__main__
State
p335
(dp336
g3
F4.0
sg4
F2.0
sg5
F-7.0
sg6
F7.0
sb(dp337
I00
F-56.70336389502656
sI01
F26.361984636648188
ss(i__main__
State
p338
(dp339
g3
F-6.0
sg4
F4.0
sg5
F0.0
sg6
F-3.0
sb(dp340
I00
F55.53774709791682
sI01
F-3.51405376912113
ss(i__main__
State
p341
(dp342
g3
F-4.0
sg4
F5.0
sg5
F2.0
sg6
F-1.0
sb(dp343
I00
F-14.61645879040768
sI01
F54.17436924122978
ss(i__main__
State
p344
(dp345
g3
F-3.0
sg4
F4.0
sg5
F3.0
sg6
F0.0
sb(dp346
I00
F-16.910053197454573
sI01
F74.28829737133836
ss(i__main__
State
p347
(dp348
g3
F0.0
sg4
F3.0
sg5
F6.0
sg6
F3.0
sb(dp349
I00
F19.885357538483213
sI01
F-48.71409221238767
ss(i__main__
State
p350
(dp351
g3
F4.0
sg4
F3.0
sg5
F-7.0
sg6
F7.0
sb(dp352
I00
F26.15804430793019
sI01
F-16.25694593631457
ss(i__main__
State
p353
(dp354
g3
F-4.0
sg4
F6.0
sg5
F2.0
sg6
F-1.0
sb(dp355
I00
F104.76390260216321
sI01
F-6.42674213774062
ss(i__main__
State
p356
(dp357
g3
F-6.0
sg4
F2.0
sg5
F0.0
sg6
F-3.0
sb(dp358
I00
F-0.2730735655982972
sI01
F41.17648588321039
ss(i__main__
State
p359
(dp360
g3
F-7.0
sg4
F6.0
sg5
F-1.0
sg6
F-4.0
sb(dp361
I00
I-54
sI01
F26.647441841877665
ss(i__main__
State
p362
(dp363
g3
F6.0
sg4
F2.0
sg5
F-5.0
sg6
F-8.0
sb(dp364
I00
F-18.149795121700254
sI01
I-64
ss(i__main__
State
p365
(dp366
g3
F3.0
sg4
F5.0
sg5
F-8.0
sg6
F6.0
sb(dp367
I00
F56.64643289614698
sI01
F-20.258993706397632
ss(i__main__
State
p368
(dp369
g3
F-8.0
sg4
F8.0
sg5
F-2.0
sg6
F-5.0
sb(dp370
I00
F31.627884053046408
sI01
F127.0754834802762
ss(i__main__
State
p371
(dp372
g3
F4.0
sg4
F0.0
sg5
F-7.0
sg6
F7.0
sb(dp373
I00
F-7.5620506674995545
sI01
F-32.91340822172076
ss(i__main__
State
p374
(dp375
g3
F-2.0
sg4
F0.0
sg5
F4.0
sg6
F1.0
sb(dp376
I00
F-53.39327794476217
sI01
F-18.93745352402489
ss(i__main__
State
p377
(dp378
g3
F6.0
sg4
F8.0
sg5
F-5.0
sg6
F-8.0
sb(dp379
I00
F36.66835373375477
sI01
F144.45987747287478
ss(i__main__
State
p380
(dp381
g3
F5.0
sg4
F1.0
sg5
F-6.0
sg6
F8.0
sb(dp382
I00
F28.970432901402745
sI01
F24.085968958544385
ss(i__main__
State
p383
(dp384
g3
F-2.0
sg4
F4.0
sg5
F4.0
sg6
F1.0
sb(dp385
I00
F25.385458344977827
sI01
F-17.825640928479736
ss(i__main__
State
p386
(dp387
g3
F-7.0
sg4
F2.0
sg5
F-1.0
sg6
F-4.0
sb(dp388
I00
F-47.82
sI01
F-4.1102084129003265
ss(i__main__
State
p389
(dp390
g3
F2.0
sg4
F4.0
sg5
F8.0
sg6
F5.0
sb(dp391
I00
F58.22332614024623
sI01
F27.84626008117829
ss(i__main__
State
p392
(dp393
g3
F-2.0
sg4
F3.0
sg5
F4.0
sg6
F1.0
sb(dp394
I00
F62.98479477056099
sI01
F-20.068173478210568
ss(i__main__
State
p395
(dp396
g3
F6.0
sg4
F4.0
sg5
F-5.0
sg6
F-8.0
sb(dp397
I00
F-63.7317246251
sI01
F30.360057779384615
ss(i__main__
State
p398
(dp399
g3
F-4.0
sg4
F0.0
sg5
F2.0
sg6
F-1.0
sb(dp400
I00
F-70.86459563179552
sI01
F4.085494080539245
ss(i__main__
State
p401
(dp402
g3
F3.0
sg4
F1.0
sg5
F-8.0
sg6
F6.0
sb(dp403
I00
F26.2179657758
sI01
F32.479263613826106
ss(i__main__
State
p404
(dp405
g3
F-2.0
sg4
F6.0
sg5
F4.0
sg6
F1.0
sb(dp406
I00
F21.19723891500226
sI01
F19.029387301845073
ss(i__main__
State
p407
(dp408
g3
F-6.0
sg4
F1.0
sg5
F0.0
sg6
F-3.0
sb(dp409
I00
F67.95362224081052
sI01
F-59.81
ss(i__main__
State
p410
(dp411
g3
F2.0
sg4
F1.0
sg5
F8.0
sg6
F5.0
sb(dp412
I00
F3.6196425443318048
sI01
F27.99834923959529
ss(i__main__
State
p413
(dp414
g3
F4.0
sg4
F8.0
sg5
F-7.0
sg6
F7.0
sb(dp415
I00
F231.37835553616918
sI01
F17.573082107740166
ss(i__main__
State
p416
(dp417
g3
F6.0
sg4
F5.0
sg5
F-5.0
sg6
F-8.0
sb(dp418
I00
F-47.432461051894606
sI01
F5.016783213487359
ss(i__main__
State
p419
(dp420
g3
F2.0
sg4
F3.0
sg5
F8.0
sg6
F5.0
sb(dp421
I00
I-9
sI01
F67.93825053650282
ss(i__main__
State
p422
(dp423
g3
F0.0
sg4
F4.0
sg5
F6.0
sg6
F3.0
sb(dp424
I00
F64.84722555162449
sI01
F59.06211330277225
ss(i__main__
State
p425
(dp426
g3
F-1.0
sg4
F8.0
sg5
F5.0
sg6
F2.0
sb(dp427
I00
F-2321.890545907974
sI01
F130.22264731944406
ss(i__main__
State
p428
(dp429
g3
F8.0
sg4
F6.0
sg5
F-3.0
sg6
F-6.0
sb(dp430
I00
F27.16300044058722
sI01
F5.072675448075283
ss(i__main__
State
p431
(dp432
g3
F5.0
sg4
F7.0
sg5
F-6.0
sg6
F8.0
sb(dp433
I00
F75.90529388526664
sI01
F-50.722134972322976
ss(i__main__
State
p434
(dp435
g3
F2.0
sg4
F2.0
sg5
F8.0
sg6
F5.0
sb(dp436
I00
F23.222406892993654
sI01
F24.132835199841495
ss(i__main__
State
p437
(dp438
g3
F6.0
sg4
F1.0
sg5
F-5.0
sg6
F-8.0
sb(dp439
I00
F-11.280693547407896
sI01
F3.8645099454252696
ss(i__main__
State
p440
(dp441
g3
F-5.0
sg4
F1.0
sg5
F1.0
sg6
F-2.0
sb(dp442
I00
F32.05631302545376
sI01
F-12.73083667406361
ss(i__main__
State
p443
(dp444
g3
F-1.0
sg4
F0.0
sg5
F5.0
sg6
F2.0
sb(dp445
I00
F-18.34904055247197
sI01
I-86
ss(i__main__
State
p446
(dp447
g3
F4.0
sg4
F6.0
sg5
F-7.0
sg6
F7.0
sb(dp448
I00
F60.67887027079126
sI01
I-31
ss(i__main__
State
p449
(dp450
g3
F-3.0
sg4
F5.0
sg5
F3.0
sg6
F0.0
sb(dp451
I00
F-56.835595689001565
sI01
F-19.24417776720834
ss(i__main__
State
p452
(dp453
g3
F1.0
sg4
F6.0
sg5
F7.0
sg6
F4.0
sb(dp454
I00
I-73
sI01
F-14.9945
ss(i__main__
State
p455
(dp456
g3
F-1.0
sg4
F2.0
sg5
F5.0
sg6
F2.0
sb(dp457
I00
F46.76013000541536
sI01
F32.3
ss(i__main__
State
p458
(dp459
g3
F3.0
sg4
F8.0
sg5
F-8.0
sg6
F6.0
sb(dp460
I00
F222.12762747126072
sI01
F21.389803402448464
ss(i__main__
State
p461
(dp462
g3
F-7.0
sg4
F0.0
sg5
F-1.0
sg6
F-4.0
sb(dp463
I00
F32.442406269638326
sI01
F16.042074219360956
ss.