(dp0
(i__main__
State
p1
(dp2
S'y1'
p3
F-7.0
sS'x'
p4
F5.0
sS'y3'
p5
F7.0
sS'y2'
p6
F0.0
sb(dp7
I00
F-64.1
sI01
F18.990000000000002
ss(i__main__
State
p8
(dp9
g3
F-7.0
sg4
F6.0
sg5
F7.0
sg6
F8.0
sb(dp10
I00
F-50.3
sI01
F30.3
ss(i__main__
State
p11
(dp12
g3
F-3.0
sg4
F5.0
sg5
F3.0
sg6
F-4.0
sb(dp13
I00
I-41
sI01
F22.2
ss(i__main__
State
p14
(dp15
g3
F-7.0
sg4
F0.0
sg5
F7.0
sg6
F0.0
sb(dp16
I00
F63.517
sI01
I-11
ss(i__main__
State
p17
(dp18
g3
F7.0
sg4
F0.0
sg5
F-7.0
sg6
F-8.0
sb(dp19
I00
I-45
sI01
F-28.8
ss(i__main__
State
p20
(dp21
g3
F6.0
sg4
F5.0
sg5
F-6.0
sg6
F-2.0
sb(dp22
I00
F-74.33
sI01
F44.4
ss(i__main__
State
p23
(dp24
g3
F6.0
sg4
F10.0
sg5
F-6.0
sg6
F2.0
sb(dp25
I00
F20.0
sI01
F15.100000000000001
ss(i__main__
State
p26
(dp27
g3
F-2.0
sg4
F2.0
sg5
F2.0
sg6
F-4.0
sb(dp28
I00
F10.280120000000002
sI01
F-64.0
ss(i__main__
State
p29
(dp30
g3
F-6.0
sg4
F10.0
sg5
F6.0
sg6
F-2.0
sb(dp31
I00
F116.569338726984
sI01
F0.0
ss(i__main__
State
p32
(dp33
g3
F8.0
sg4
F3.0
sg5
F-8.0
sg6
F-2.0
sb(dp34
I00
F62.132000000000005
sI01
I-99
ss(i__main__
State
p35
(dp36
g3
F3.0
sg4
F10.0
sg5
F-3.0
sg6
F6.0
sb(dp37
I00
F10.0
sI01
F63.66897831
ss(i__main__
State
p38
(dp39
g3
F-3.0
sg4
F1.0
sg5
F3.0
sg6
F-4.0
sb(dp40
I00
I25
sI01
F36.10342
ss(i__main__
State
p41
(dp42
g3
F7.0
sg4
F6.0
sg5
F-7.0
sg6
F8.0
sb(dp43
I00
F78.08783329999997
sI01
F20.69
ss(i__main__
State
p44
(dp45
g3
F4.0
sg4
F3.0
sg5
F-4.0
sg6
F-8.0
sb(dp46
I00
F87.5
sI01
I-28
ss(i__main__
State
p47
(dp48
g3
F3.0
sg4
F1.0
sg5
F-3.0
sg6
F8.0
sb(dp49
I00
I-59
sI01
F24.5
ss(i__main__
State
p50
(dp51
g3
F-1.0
sg4
F5.0
sg5
F1.0
sg6
F0.0
sb(dp52
I00
F51.3298
sI01
I16
ss(i__main__
State
p53
(dp54
g3
F5.0
sg4
F2.0
sg5
F-5.0
sg6
F8.0
sb(dp55
I00
I41
sI01
F-26.9
ss(i__main__
State
p56
(dp57
g3
F2.0
sg4
F10.0
sg5
F-2.0
sg6
F8.0
sb(dp58
I00
F10.0
sI01
F0.0
ss(i__main__
State
p59
(dp60
g3
F7.0
sg4
F7.0
sg5
F-7.0
sg6
F-6.0
sb(dp61
I00
F64.763834
sI01
I16
ss(i__main__
State
p62
(dp63
g3
F4.0
sg4
F8.0
sg5
F-4.0
sg6
F4.0
sb(dp64
I00
F10.0
sI01
F23.261100000000006
ss(i__main__
State
p65
(dp66
g3
F-7.0
sg4
F7.0
sg5
F7.0
sg6
F4.0
sb(dp67
I00
I-38
sI01
F38.0
ss(i__main__
State
p68
(dp69
g3
F-5.0
sg4
F10.0
sg5
F5.0
sg6
F-6.0
sb(dp70
I00
F72.268209
sI01
F0.0
ss(i__main__
State
p71
(dp72
g3
F1.0
sg4
F9.0
sg5
F-1.0
sg6
F-8.0
sb(dp73
I00
F56.262220000000006
sI01
F0.0
ss(i__main__
State
p74
(dp75
g3
F3.0
sg4
F7.0
sg5
F-3.0
sg6
F8.0
sb(dp76
I00
I-10
sI01
F45.87421
ss(i__main__
State
p77
(dp78
g3
F4.0
sg4
F5.0
sg5
F-4.0
sg6
F2.0
sb(dp79
I00
F-3.6887099999999995
sI01
I-54
ss(i__main__
State
p80
(dp81
g3
F2.0
sg4
F0.0
sg5
F-2.0
sg6
F-2.0
sb(dp82
I00
I-43
sI01
F36.58775745507318
ss(i__main__
State
p83
(dp84
g3
F5.0
sg4
F6.0
sg5
F-5.0
sg6
F-2.0
sb(dp85
I00
I-17
sI01
F51.42643700000001
ss(i__main__
State
p86
(dp87
g3
F5.0
sg4
F4.0
sg5
F-5.0
sg6
F4.0
sb(dp88
I00
I13
sI01
F16.17
ss(i__main__
State
p89
(dp90
g3
F-8.0
sg4
F9.0
sg5
F8.0
sg6
F4.0
sb(dp91
I00
F22.9
sI01
F0.0
ss(i__main__
State
p92
(dp93
g3
F-7.0
sg4
F5.0
sg5
F7.0
sg6
F8.0
sb(dp94
I00
F-57.6
sI01
F-3.703536798859997
ss(i__main__
State
p95
(dp96
g3
F7.0
sg4
F6.0
sg5
F-7.0
sg6
F0.0
sb(dp97
I00
F-27.159999999999997
sI01
F10.883399999999998
ss(i__main__
State
p98
(dp99
g3
F8.0
sg4
F2.0
sg5
F-8.0
sg6
F-8.0
sb(dp100
I00
F54.308170000000004
sI01
I-100
ss(i__main__
State
p101
(dp102
g3
F3.0
sg4
F8.0
sg5
F-3.0
sg6
F-8.0
sb(dp103
I00
F76.16940340000001
sI01
F20.0
ss(i__main__
State
p104
(dp105
g3
F7.0
sg4
F7.0
sg5
F-7.0
sg6
F8.0
sb(dp106
I00
F-51.7
sI01
I36
ss(i__main__
State
p107
(dp108
g3
F-8.0
sg4
F1.0
sg5
F8.0
sg6
F4.0
sb(dp109
I00
F-40.893539999999994
sI01
F-66.4
ss(i__main__
State
p110
(dp111
g3
F6.0
sg4
F0.0
sg5
F-6.0
sg6
F4.0
sb(dp112
I00
F30.27
sI01
I-18
ss(i__main__
State
p113
(dp114
g3
F1.0
sg4
F8.0
sg5
F-1.0
sg6
F-6.0
sb(dp115
I00
F-72.9
sI01
F58.03929557000001
ss(i__main__
State
p116
(dp117
g3
F2.0
sg4
F0.0
sg5
F-2.0
sg6
F4.0
sb(dp118
I00
F70.6
sI01
I-77
ss(i__main__
State
p119
(dp120
g3
F8.0
sg4
F9.0
sg5
F-8.0
sg6
F4.0
sb(dp121
I00
F42.83432302
sI01
F0.0
ss(i__main__
State
p122
(dp123
g3
F-6.0
sg4
F1.0
sg5
F6.0
sg6
F-2.0
sb(dp124
I00
I-72
sI01
F86.2
ss(i__main__
State
p125
(dp126
g3
F5.0
sg4
F7.0
sg5
F-5.0
sg6
F6.0
sb(dp127
I00
F22.020033
sI01
I15
ss(i__main__
State
p128
(dp129
g3
F-7.0
sg4
F0.0
sg5
F7.0
sg6
F-8.0
sb(dp130
I00
F10.5
sI01
F16.147599999999997
ss(i__main__
State
p131
(dp132
g3
F7.0
sg4
F8.0
sg5
F-7.0
sg6
F8.0
sb(dp133
I00
F10.0
sI01
F0.0
ss(i__main__
State
p134
(dp135
g3
F-4.0
sg4
F2.0
sg5
F4.0
sg6
F-4.0
sb(dp136
I00
F1.8
sI01
F65.00319810348999
ss(i__main__
State
p137
(dp138
g3
F4.0
sg4
F10.0
sg5
F-4.0
sg6
F-2.0
sb(dp139
I00
F70.5794365654652
sI01
F8.48
ss(i__main__
State
p140
(dp141
g3
F-1.0
sg4
F0.0
sg5
F1.0
sg6
F-2.0
sb(dp142
I00
F10.872
sI01
I-50
ss(i__main__
State
p143
(dp144
g3
F3.0
sg4
F1.0
sg5
F-3.0
sg6
F0.0
sb(dp145
I00
F64.98
sI01
I-64
ss(i__main__
State
p146
(dp147
g3
F-1.0
sg4
F5.0
sg5
F1.0
sg6
F8.0
sb(dp148
I00
I-17
sI01
F61.71
ss(i__main__
State
p149
(dp150
g3
F-1.0
sg4
F10.0
sg5
F1.0
sg6
F-8.0
sb(dp151
I00
F83.44998600000001
sI01
F0.0
ss(i__main__
State
p152
(dp153
g3
F3.0
sg4
F4.0
sg5
F-3.0
sg6
F6.0
sb(dp154
I00
I-88
sI01
F38.34
ss(i__main__
State
p155
(dp156
g3
F6.0
sg4
F9.0
sg5
F-6.0
sg6
F4.0
sb(dp157
I00
F10.0
sI01
F0.0
ss(i__main__
State
p158
(dp159
g3
F6.0
sg4
F4.0
sg5
F-6.0
sg6
F2.0
sb(dp160
I00
F73.35
sI01
F2.787
ss(i__main__
State
p161
(dp162
g3
F3.0
sg4
F7.0
sg5
F-3.0
sg6
F0.0
sb(dp163
I00
I-36
sI01
F-16.897399999999998
ss(i__main__
State
p164
(dp165
g3
F-4.0
sg4
F3.0
sg5
F4.0
sg6
F-4.0
sb(dp166
I00
I-6
sI01
F7.970000000000001
ss(i__main__
State
p167
(dp168
g3
F4.0
sg4
F6.0
sg5
F-4.0
sg6
F2.0
sb(dp169
I00
F53.269999999999996
sI01
F-93.7
ss(i__main__
State
p170
(dp171
g3
F0.0
sg4
F2.0
sg5
F0.0
sg6
F-8.0
sb(dp172
I00
F76.79598539999999
sI01
F-11.2
ss(i__main__
State
p173
(dp174
g3
F-7.0
sg4
F9.0
sg5
F7.0
sg6
F-4.0
sb(dp175
I00
F20.0
sI01
F0.0
ss(i__main__
State
p176
(dp177
g3
F-6.0
sg4
F8.0
sg5
F6.0
sg6
F-8.0
sb(dp178
I00
F50.039216
sI01
F0.0
ss(i__main__
State
p179
(dp180
g3
F5.0
sg4
F1.0
sg5
F-5.0
sg6
F6.0
sb(dp181
I00
F-64.5
sI01
I-77
ss(i__main__
State
p182
(dp183
g3
F3.0
sg4
F0.0
sg5
F-3.0
sg6
F2.0
sb(dp184
I00
F-2.799999999999999
sI01
F41.773239147800005
ss(i__main__
State
p185
(dp186
g3
F-3.0
sg4
F0.0
sg5
F3.0
sg6
F-2.0
sb(dp187
I00
I12
sI01
F65.9
ss(i__main__
State
p188
(dp189
g3
F6.0
sg4
F1.0
sg5
F-6.0
sg6
F-2.0
sb(dp190
I00
F33.133854400000004
sI01
F-66.962
ss(i__main__
State
p191
(dp192
g3
F3.0
sg4
F8.0
sg5
F-3.0
sg6
F4.0
sb(dp193
I00
F10.0
sI01
F0.0
ss(i__main__
State
p194
(dp195
g3
F-3.0
sg4
F6.0
sg5
F3.0
sg6
F2.0
sb(dp196
I00
F-77.0
sI01
F1.8837007000000003
ss(i__main__
State
p197
(dp198
g3
F-7.0
sg4
F8.0
sg5
F7.0
sg6
F-2.0
sb(dp199
I00
F10.0
sI01
F0.0
ss(i__main__
State
p200
(dp201
g3
F-6.0
sg4
F1.0
sg5
F6.0
sg6
F-6.0
sb(dp202
I00
F41.8895965475
sI01
F30.709
ss(i__main__
State
p203
(dp204
g3
F-8.0
sg4
F3.0
sg5
F8.0
sg6
F8.0
sb(dp205
I00
I49
sI01
F61.2
ss(i__main__
State
p206
(dp207
g3
F-8.0
sg4
F6.0
sg5
F8.0
sg6
F6.0
sb(dp208
I00
F-51.855196813
sI01
F-4.82790729722215
ss(i__main__
State
p209
(dp210
g3
F0.0
sg4
F5.0
sg5
F0.0
sg6
F8.0
sb(dp211
I00
F74.19
sI01
I-17
ss(i__main__
State
p212
(dp213
g3
F0.0
sg4
F8.0
sg5
F0.0
sg6
F2.0
sb(dp214
I00
F-1899.0
sI01
F-1895.271
ss(i__main__
State
p215
(dp216
g3
F8.0
sg4
F1.0
sg5
F-8.0
sg6
F-2.0
sb(dp217
I00
I3
sI01
F31.5400243097
ss(i__main__
State
p218
(dp219
g3
F2.0
sg4
F8.0
sg5
F-2.0
sg6
F2.0
sb(dp220
I00
F36.3
sI01
F0.0
ss(i__main__
State
p221
(dp222
g3
F7.0
sg4
F10.0
sg5
F-7.0
sg6
F-6.0
sb(dp223
I00
F40.375469
sI01
F17.421000000000003
ss(i__main__
State
p224
(dp225
g3
F4.0
sg4
F2.0
sg5
F-4.0
sg6
F2.0
sb(dp226
I00
F58.59085999999999
sI01
I-36
ss(i__main__
State
p227
(dp228
g3
F4.0
sg4
F7.0
sg5
F-4.0
sg6
F-2.0
sb(dp229
I00
I-72
sI01
F83.7
ss(i__main__
State
p230
(dp231
g3
F1.0
sg4
F4.0
sg5
F-1.0
sg6
F-2.0
sb(dp232
I00
I-47
sI01
F-66.8
ss(i__main__
State
p233
(dp234
g3
F-1.0
sg4
F3.0
sg5
F1.0
sg6
F6.0
sb(dp235
I00
F-8.299999999999999
sI01
I-22
ss(i__main__
State
p236
(dp237
g3
F3.0
sg4
F7.0
sg5
F-3.0
sg6
F-8.0
sb(dp238
I00
F89.1
sI01
F5.4314841000000005
ss(i__main__
State
p239
(dp240
g3
F-1.0
sg4
F3.0
sg5
F1.0
sg6
F-8.0
sb(dp241
I00
F62.422
sI01
F32.1
ss(i__main__
State
p242
(dp243
g3
F-4.0
sg4
F0.0
sg5
F4.0
sg6
F8.0
sb(dp244
I00
I-21
sI01
F51.48231939
ss(i__main__
State
p245
(dp246
g3
F-1.0
sg4
F10.0
sg5
F1.0
sg6
F4.0
sb(dp247
I00
F10.0
sI01
F0.0
ss(i__main__
State
p248
(dp249
g3
F-6.0
sg4
F2.0
sg5
F6.0
sg6
F0.0
sb(dp250
I00
F27.844060000000002
sI01
I-28
ss(i__main__
State
p251
(dp252
g3
F7.0
sg4
F6.0
sg5
F-7.0
sg6
F-6.0
sb(dp253
I00
F64.45584
sI01
F-59.48617
ss(i__main__
State
p254
(dp255
g3
F7.0
sg4
F2.0
sg5
F-7.0
sg6
F-4.0
sb(dp256
I00
F-19.35416
sI01
F43.62
ss(i__main__
State
p257
(dp258
g3
F4.0
sg4
F8.0
sg5
F-4.0
sg6
F-8.0
sb(dp259
I00
F79.33038664
sI01
F20.0
ss(i__main__
State
p260
(dp261
g3
F4.0
sg4
F9.0
sg5
F-4.0
sg6
F0.0
sb(dp262
I00
F-1899.0
sI01
F-2705.1956
ss(i__main__
State
p263
(dp264
g3
F-8.0
sg4
F4.0
sg5
F8.0
sg6
F6.0
sb(dp265
I00
I-97
sI01
F35.3935
ss(i__main__
State
p266
(dp267
g3
F-2.0
sg4
F1.0
sg5
F2.0
sg6
F-6.0
sb(dp268
I00
F64.39885
sI01
F55.936
ss(i__main__
State
p269
(dp270
g3
F-1.0
sg4
F7.0
sg5
F1.0
sg6
F6.0
sb(dp271
I00
I-77
sI01
F25.402104134000002
ss(i__main__
State
p272
(dp273
g3
F-3.0
sg4
F3.0
sg5
F3.0
sg6
F0.0
sb(dp274
I00
F58.47481067922401
sI01
F47.910000000000004
ss(i__main__
State
p275
(dp276
g3
F4.0
sg4
F1.0
sg5
F-4.0
sg6
F-6.0
sb(dp277
I00
F-28.26741883
sI01
I-75
ss(i__main__
State
p278
(dp279
g3
F2.0
sg4
F1.0
sg5
F-2.0
sg6
F6.0
sb(dp280
I00
F28.472657
sI01
F-55.519999999999996
ss(i__main__
State
p281
(dp282
g3
F1.0
sg4
F5.0
sg5
F-1.0
sg6
F4.0
sb(dp283
I00
F75.29829
sI01
I2
ss(i__main__
State
p284
(dp285
g3
F7.0
sg4
F9.0
sg5
F-7.0
sg6
F-2.0
sb(dp286
I00
F-80.69989000000001
sI01
F0.0
ss(i__main__
State
p287
(dp288
g3
F8.0
sg4
F0.0
sg5
F-8.0
sg6
F2.0
sb(dp289
I00
F49.45071
sI01
I-30
ss(i__main__
State
p290
(dp291
g3
F-7.0
sg4
F1.0
sg5
F7.0
sg6
F2.0
sb(dp292
I00
I-31
sI01
F12.83
ss(i__main__
State
p293
(dp294
g3
F1.0
sg4
F7.0
sg5
F-1.0
sg6
F-4.0
sb(dp295
I00
F-14.248014000000001
sI01
F-414.48046
ss(i__main__
State
p296
(dp297
g3
F1.0
sg4
F9.0
sg5
F-1.0
sg6
F8.0
sb(dp298
I00
F117.6391755
sI01
F10.0
ss(i__main__
State
p299
(dp300
g3
F-8.0
sg4
F5.0
sg5
F8.0
sg6
F-8.0
sb(dp301
I00
F-8.3
sI01
I-59
ss(i__main__
State
p302
(dp303
g3
F6.0
sg4
F7.0
sg5
F-6.0
sg6
F-2.0
sb(dp304
I00
F-66.6
sI01
I46
ss(i__main__
State
p305
(dp306
g3
F6.0
sg4
F1.0
sg5
F-6.0
sg6
F-4.0
sb(dp307
I00
F91.37
sI01
I-22
ss(i__main__
State
p308
(dp309
g3
F4.0
sg4
F8.0
sg5
F-4.0
sg6
F0.0
sb(dp310
I00
F40.5231
sI01
F0.0
ss(i__main__
State
p311
(dp312
g3
F2.0
sg4
F10.0
sg5
F-2.0
sg6
F-4.0
sb(dp313
I00
F20.0
sI01
F0.0
ss(i__main__
State
p314
(dp315
g3
F-2.0
sg4
F9.0
sg5
F2.0
sg6
F6.0
sb(dp316
I00
F20.0
sI01
F41.999790000000004
ss(i__main__
State
p317
(dp318
g3
F5.0
sg4
F4.0
sg5
F-5.0
sg6
F-6.0
sb(dp319
I00
F-77.7
sI01
F38.368049551742
ss(i__main__
State
p320
(dp321
g3
F-6.0
sg4
F1.0
sg5
F6.0
sg6
F0.0
sb(dp322
I00
F89.5
sI01
I-43
ss(i__main__
State
p323
(dp324
g3
F2.0
sg4
F0.0
sg5
F-2.0
sg6
F6.0
sb(dp325
I00
I9
sI01
F14.8051283
ss(i__main__
State
p326
(dp327
g3
F-7.0
sg4
F0.0
sg5
F7.0
sg6
F2.0
sb(dp328
I00
F-35.3
sI01
F30.425223000000003
ss(i__main__
State
p329
(dp330
g3
F-5.0
sg4
F9.0
sg5
F5.0
sg6
F2.0
sb(dp331
I00
F20.0
sI01
F0.0
ss(i__main__
State
p332
(dp333
g3
F-1.0
sg4
F7.0
sg5
F1.0
sg6
F-2.0
sb(dp334
I00
F-33.24414
sI01
I-99
ss(i__main__
State
p335
(dp336
g3
F7.0
sg4
F9.0
sg5
F-7.0
sg6
F0.0
sb(dp337
I00
F-1896.8200000000002
sI01
F-1897.1
ss(i__main__
State
p338
(dp339
g3
F-7.0
sg4
F10.0
sg5
F7.0
sg6
F2.0
sb(dp340
I00
F20.509999999999998
sI01
F0.0
ss(i__main__
State
p341
(dp342
g3
F-2.0
sg4
F7.0
sg5
F2.0
sg6
F-8.0
sb(dp343
I00
F77.509
sI01
I83
ss(i__main__
State
p344
(dp345
g3
F-8.0
sg4
F2.0
sg5
F8.0
sg6
F6.0
sb(dp346
I00
F86.34385
sI01
F-10.5
ss(i__main__
State
p347
(dp348
g3
F4.0
sg4
F9.0
sg5
F-4.0
sg6
F8.0
sb(dp349
I00
F0.0
sI01
F32.285000000000004
ss(i__main__
State
p350
(dp351
g3
F0.0
sg4
F9.0
sg5
F0.0
sg6
F2.0
sb(dp352
I00
F53.572100000000006
sI01
F0.0
ss(i__main__
State
p353
(dp354
g3
F0.0
sg4
F9.0
sg5
F0.0
sg6
F4.0
sb(dp355
I00
F23.188906170000003
sI01
F58.35110400139034
ss(i__main__
State
p356
(dp357
g3
F7.0
sg4
F9.0
sg5
F-7.0
sg6
F2.0
sb(dp358
I00
F10.0
sI01
F0.0
ss(i__main__
State
p359
(dp360
g3
F-3.0
sg4
F3.0
sg5
F3.0
sg6
F8.0
sb(dp361
I00
F-5.340000000000001
sI01
F28.77786012654
ss(i__main__
State
p362
(dp363
g3
F-2.0
sg4
F4.0
sg5
F2.0
sg6
F6.0
sb(dp364
I00
F73.62674132337
sI01
F-75.5
ss(i__main__
State
p365
(dp366
g3
F-5.0
sg4
F3.0
sg5
F5.0
sg6
F4.0
sb(dp367
I00
I-61
sI01
F24.313783290600004
ss(i__main__
State
p368
(dp369
g3
F1.0
sg4
F1.0
sg5
F-1.0
sg6
F-2.0
sb(dp370
I00
I-11
sI01
F17.42
ss(i__main__
State
p371
(dp372
g3
F-8.0
sg4
F7.0
sg5
F8.0
sg6
F-8.0
sb(dp373
I00
I-62
sI01
F-28.410130000000002
ss(i__main__
State
p374
(dp375
g3
F-2.0
sg4
F5.0
sg5
F2.0
sg6
F8.0
sb(dp376
I00
I-12
sI01
F47.91
ss(i__main__
State
p377
(dp378
g3
F4.0
sg4
F3.0
sg5
F-4.0
sg6
F8.0
sb(dp379
I00
F-75.9
sI01
F-43.3681
ss(i__main__
State
p380
(dp381
g3
F-2.0
sg4
F5.0
sg5
F2.0
sg6
F2.0
sb(dp382
I00
F35.549935
sI01
F3.070366
ss(i__main__
State
p383
(dp384
g3
F5.0
sg4
F10.0
sg5
F-5.0
sg6
F-2.0
sb(dp385
I00
F13.686000000000002
sI01
F0.0
ss(i__main__
State
p386
(dp387
g3
F0.0
sg4
F7.0
sg5
F0.0
sg6
F-6.0
sb(dp388
I00
F-55.44
sI01
F29.111438
ss(i__main__
State
p389
(dp390
g3
F-4.0
sg4
F8.0
sg5
F4.0
sg6
F2.0
sb(dp391
I00
F31.003118980000004
sI01
F0.0
ss(i__main__
State
p392
(dp393
g3
F5.0
sg4
F3.0
sg5
F-5.0
sg6
F-2.0
sb(dp394
I00
I-28
sI01
F27.55449
ss(i__main__
State
p395
(dp396
g3
F6.0
sg4
F6.0
sg5
F-6.0
sg6
F2.0
sb(dp397
I00
I-20
sI01
F79.63000000000001
ss(i__main__
State
p398
(dp399
g3
F-4.0
sg4
F8.0
sg5
F4.0
sg6
F-2.0
sb(dp400
I00
F38.461000000000006
sI01
F0.0
ss(i__main__
State
p401
(dp402
g3
F8.0
sg4
F2.0
sg5
F-8.0
sg6
F8.0
sb(dp403
I00
F70.51
sI01
F77.054
ss(i__main__
State
p404
(dp405
g3
F-1.0
sg4
F6.0
sg5
F1.0
sg6
F0.0
sb(dp406
I00
F27.41726
sI01
F-76.066
ss(i__main__
State
p407
(dp408
g3
F3.0
sg4
F10.0
sg5
F-3.0
sg6
F0.0
sb(dp409
I00
F149.36438190558601
sI01
F0.0
ss(i__main__
State
p410
(dp411
g3
F-1.0
sg4
F0.0
sg5
F1.0
sg6
F6.0
sb(dp412
I00
I75
sI01
F-9.5
ss(i__main__
State
p413
(dp414
g3
F5.0
sg4
F5.0
sg5
F-5.0
sg6
F6.0
sb(dp415
I00
F58.0395462847
sI01
F-87.65
ss(i__main__
State
p416
(dp417
g3
F6.0
sg4
F7.0
sg5
F-6.0
sg6
F-8.0
sb(dp418
I00
F60.6186
sI01
F56.18
ss(i__main__
State
p419
(dp420
g3
F8.0
sg4
F8.0
sg5
F-8.0
sg6
F4.0
sb(dp421
I00
F84.71531780000001
sI01
F11.0
ss(i__main__
State
p422
(dp423
g3
F-3.0
sg4
F0.0
sg5
F3.0
sg6
F0.0
sb(dp424
I00
F43.7221
sI01
I-66
ss(i__main__
State
p425
(dp426
g3
F3.0
sg4
F0.0
sg5
F-3.0
sg6
F6.0
sb(dp427
I00
F-32.3719008606
sI01
I-55
ss(i__main__
State
p428
(dp429
g3
F-1.0
sg4
F3.0
sg5
F1.0
sg6
F4.0
sb(dp430
I00
F-2.7192650267599996
sI01
F-38.830000000000005
ss(i__main__
State
p431
(dp432
g3
F3.0
sg4
F7.0
sg5
F-3.0
sg6
F6.0
sb(dp433
I00
F-4.23842462
sI01
F-55.30558
ss(i__main__
State
p434
(dp435
g3
F-6.0
sg4
F2.0
sg5
F6.0
sg6
F6.0
sb(dp436
I00
I-54
sI01
F14.9
ss(i__main__
State
p437
(dp438
g3
F5.0
sg4
F10.0
sg5
F-5.0
sg6
F-4.0
sb(dp439
I00
F30.0
sI01
F0.0
ss(i__main__
State
p440
(dp441
g3
F1.0
sg4
F0.0
sg5
F-1.0
sg6
F-2.0
sb(dp442
I00
F43.8
sI01
I22
ss(i__main__
State
p443
(dp444
g3
F6.0
sg4
F9.0
sg5
F-6.0
sg6
F6.0
sb(dp445
I00
F10.0
sI01
F0.0
ss(i__main__
State
p446
(dp447
g3
F-4.0
sg4
F4.0
sg5
F4.0
sg6
F6.0
sb(dp448
I00
I86
sI01
F60.1
ss(i__main__
State
p449
(dp450
g3
F7.0
sg4
F6.0
sg5
F-7.0
sg6
F4.0
sb(dp451
I00
F-26.346781306592
sI01
F-22.522469100000002
ss(i__main__
State
p452
(dp453
g3
F8.0
sg4
F2.0
sg5
F-8.0
sg6
F-4.0
sb(dp454
I00
F59.660000000000004
sI01
F-85.72
ss(i__main__
State
p455
(dp456
g3
F-5.0
sg4
F9.0
sg5
F5.0
sg6
F-8.0
sb(dp457
I00
F21.422311
sI01
F14.385883000000002
ss(i__main__
State
p458
(dp459
g3
F7.0
sg4
F8.0
sg5
F-7.0
sg6
F-4.0
sb(dp460
I00
F52.62417000000001
sI01
F11.0
ss(i__main__
State
p461
(dp462
g3
F2.0
sg4
F7.0
sg5
F-2.0
sg6
F-2.0
sb(dp463
I00
I-51
sI01
F-0.4819999999999993
ss(i__main__
State
p464
(dp465
g3
F-8.0
sg4
F2.0
sg5
F8.0
sg6
F-4.0
sb(dp466
I00
I64
sI01
F11.0
ss(i__main__
State
p467
(dp468
g3
F5.0
sg4
F9.0
sg5
F-5.0
sg6
F4.0
sb(dp469
I00
F40.01
sI01
F0.0
ss(i__main__
State
p470
(dp471
g3
F-7.0
sg4
F2.0
sg5
F7.0
sg6
F-4.0
sb(dp472
I00
F59.97
sI01
F65.89
ss(i__main__
State
p473
(dp474
g3
F-4.0
sg4
F3.0
sg5
F4.0
sg6
F-6.0
sb(dp475
I00
I-35
sI01
F-19.4701
ss(i__main__
State
p476
(dp477
g3
F2.0
sg4
F5.0
sg5
F-2.0
sg6
F-6.0
sb(dp478
I00
F94.2
sI01
I-68
ss(i__main__
State
p479
(dp480
g3
F3.0
sg4
F10.0
sg5
F-3.0
sg6
F8.0
sb(dp481
I00
F20.21
sI01
F0.0
ss(i__main__
State
p482
(dp483
g3
F1.0
sg4
F10.0
sg5
F-1.0
sg6
F-2.0
sb(dp484
I00
F19.0
sI01
F0.0
ss(i__main__
State
p485
(dp486
g3
F-8.0
sg4
F10.0
sg5
F8.0
sg6
F-4.0
sb(dp487
I00
F10.0
sI01
F0.0
ss(i__main__
State
p488
(dp489
g3
F3.0
sg4
F4.0
sg5
F-3.0
sg6
F4.0
sb(dp490
I00
I36
sI01
F81.19
ss(i__main__
State
p491
(dp492
g3
F4.0
sg4
F0.0
sg5
F-4.0
sg6
F4.0
sb(dp493
I00
F14.8
sI01
I-17
ss(i__main__
State
p494
(dp495
g3
F7.0
sg4
F10.0
sg5
F-7.0
sg6
F2.0
sb(dp496
I00
F0.0
sI01
F25.259999999999998
ss(i__main__
State
p497
(dp498
g3
F2.0
sg4
F7.0
sg5
F-2.0
sg6
F8.0
sb(dp499
I00
F-24.27037658
sI01
F-71.1
ss(i__main__
State
p500
(dp501
g3
F-5.0
sg4
F4.0
sg5
F5.0
sg6
F8.0
sb(dp502
I00
F81.121
sI01
I-86
ss(i__main__
State
p503
(dp504
g3
F-5.0
sg4
F5.0
sg5
F5.0
sg6
F2.0
sb(dp505
I00
F76.18900000000001
sI01
I-32
ss(i__main__
State
p506
(dp507
g3
F-4.0
sg4
F1.0
sg5
F4.0
sg6
F-4.0
sb(dp508
I00
I-49
sI01
F6.626258000000001
ss(i__main__
State
p509
(dp510
g3
F6.0
sg4
F6.0
sg5
F-6.0
sg6
F-6.0
sb(dp511
I00
I100
sI01
F36.3
ss(i__main__
State
p512
(dp513
g3
F0.0
sg4
F0.0
sg5
F0.0
sg6
F0.0
sb(dp514
I00
F20.2
sI01
I-50
ss(i__main__
State
p515
(dp516
g3
F4.0
sg4
F9.0
sg5
F-4.0
sg6
F-8.0
sb(dp517
I00
F0.0
sI01
F10.0
ss(i__main__
State
p518
(dp519
g3
F3.0
sg4
F7.0
sg5
F-3.0
sg6
F-2.0
sb(dp520
I00
F27.9
sI01
F57.468235099999994
ss(i__main__
State
p521
(dp522
g3
F-8.0
sg4
F0.0
sg5
F8.0
sg6
F4.0
sb(dp523
I00
I7
sI01
F-88.383228
ss(i__main__
State
p524
(dp525
g3
F-8.0
sg4
F6.0
sg5
F8.0
sg6
F0.0
sb(dp526
I00
F-8.5
sI01
F30.113289418799997
ss(i__main__
State
p527
(dp528
g3
F-6.0
sg4
F2.0
sg5
F6.0
sg6
F-8.0
sb(dp529
I00
F31.220000000000002
sI01
F41.406000000000006
ss(i__main__
State
p530
(dp531
g3
F5.0
sg4
F4.0
sg5
F-5.0
sg6
F6.0
sb(dp532
I00
I-78
sI01
F-0.6999999999999997
ss(i__main__
State
p533
(dp534
g3
F3.0
sg4
F1.0
sg5
F-3.0
sg6
F-2.0
sb(dp535
I00
F66.7
sI01
F77.08999999999999
ss(i__main__
State
p536
(dp537
g3
F4.0
sg4
F9.0
sg5
F-4.0
sg6
F6.0
sb(dp538
I00
F30.1
sI01
F11.0
ss(i__main__
State
p539
(dp540
g3
F-8.0
sg4
F4.0
sg5
F8.0
sg6
F-4.0
sb(dp541
I00
F79.01
sI01
F-9.1
ss(i__main__
State
p542
(dp543
g3
F4.0
sg4
F7.0
sg5
F-4.0
sg6
F6.0
sb(dp544
I00
F62.1919
sI01
I15
ss(i__main__
State
p545
(dp546
g3
F-5.0
sg4
F0.0
sg5
F5.0
sg6
F6.0
sb(dp547
I00
F43.0787
sI01
I100
ss(i__main__
State
p548
(dp549
g3
F2.0
sg4
F9.0
sg5
F-2.0
sg6
F-2.0
sb(dp550
I00
F19.0
sI01
F10.0
ss(i__main__
State
p551
(dp552
g3
F-3.0
sg4
F6.0
sg5
F3.0
sg6
F4.0
sb(dp553
I00
F67.75559200000001
sI01
I50
ss(i__main__
State
p554
(dp555
g3
F5.0
sg4
F7.0
sg5
F-5.0
sg6
F-8.0
sb(dp556
I00
F85.78
sI01
I18
ss(i__main__
State
p557
(dp558
g3
F-8.0
sg4
F0.0
sg5
F8.0
sg6
F-6.0
sb(dp559
I00
F2.4000000000000004
sI01
I-73
ss(i__main__
State
p560
(dp561
g3
F7.0
sg4
F5.0
sg5
F-7.0
sg6
F0.0
sb(dp562
I00
F-40.0
sI01
F61.9
ss(i__main__
State
p563
(dp564
g3
F-6.0
sg4
F0.0
sg5
F6.0
sg6
F-8.0
sb(dp565
I00
F48.33346
sI01
I-16
ss(i__main__
State
p566
(dp567
g3
F-8.0
sg4
F10.0
sg5
F8.0
sg6
F0.0
sb(dp568
I00
F32.632
sI01
F0.0
ss(i__main__
State
p569
(dp570
g3
F6.0
sg4
F0.0
sg5
F-6.0
sg6
F-8.0
sb(dp571
I00
F68.3
sI01
I-30
ss(i__main__
State
p572
(dp573
g3
F8.0
sg4
F4.0
sg5
F-8.0
sg6
F-8.0
sb(dp574
I00
F39.0
sI01
I-13
ss(i__main__
State
p575
(dp576
g3
F2.0
sg4
F5.0
sg5
F-2.0
sg6
F4.0
sb(dp577
I00
F-34.68
sI01
F-45.8064
ss(i__main__
State
p578
(dp579
g3
F-3.0
sg4
F2.0
sg5
F3.0
sg6
F-2.0
sb(dp580
I00
F54.213260000000005
sI01
F-50.3
ss(i__main__
State
p581
(dp582
g3
F-4.0
sg4
F3.0
sg5
F4.0
sg6
F4.0
sb(dp583
I00
F38.55
sI01
I-64
ss(i__main__
State
p584
(dp585
g3
F-5.0
sg4
F8.0
sg5
F5.0
sg6
F-6.0
sb(dp586
I00
F10.0
sI01
F32.7
ss(i__main__
State
p587
(dp588
g3
F-8.0
sg4
F2.0
sg5
F8.0
sg6
F0.0
sb(dp589
I00
I-95
sI01
F24.619999999999997
ss(i__main__
State
p590
(dp591
g3
F2.0
sg4
F7.0
sg5
F-2.0
sg6
F0.0
sb(dp592
I00
F55.73214212
sI01
I20
ss(i__main__
State
p593
(dp594
g3
F0.0
sg4
F10.0
sg5
F0.0
sg6
F2.0
sb(dp595
I00
F-1000.0
sI01
F-1001.5
ss(i__main__
State
p596
(dp597
g3
F2.0
sg4
F9.0
sg5
F-2.0
sg6
F8.0
sb(dp598
I00
F40.037
sI01
F11.22
ss(i__main__
State
p599
(dp600
g3
F5.0
sg4
F6.0
sg5
F-5.0
sg6
F2.0
sb(dp601
I00
F-79.4
sI01
F41.2298157538
ss(i__main__
State
p602
(dp603
g3
F0.0
sg4
F0.0
sg5
F0.0
sg6
F8.0
sb(dp604
I00
F47.933817499999996
sI01
I-97
ss(i__main__
State
p605
(dp606
g3
F-6.0
sg4
F5.0
sg5
F6.0
sg6
F6.0
sb(dp607
I00
F27.992458418260004
sI01
F22.650000000000002
ss(i__main__
State
p608
(dp609
g3
F5.0
sg4
F10.0
sg5
F-5.0
sg6
F0.0
sb(dp610
I00
F20.0
sI01
F0.0
ss(i__main__
State
p611
(dp612
g3
F6.0
sg4
F9.0
sg5
F-6.0
sg6
F-8.0
sb(dp613
I00
F0.0
sI01
F31.8392
ss(i__main__
State
p614
(dp615
g3
F8.0
sg4
F10.0
sg5
F-8.0
sg6
F-2.0
sb(dp616
I00
F10.0
sI01
F0.0
ss(i__main__
State
p617
(dp618
g3
F7.0
sg4
F7.0
sg5
F-7.0
sg6
F4.0
sb(dp619
I00
F6.250422189000001
sI01
F-35.4
ss(i__main__
State
p620
(dp621
g3
F2.0
sg4
F2.0
sg5
F-2.0
sg6
F-2.0
sb(dp622
I00
F49.918245006789
sI01
I-57
ss(i__main__
State
p623
(dp624
g3
F-7.0
sg4
F7.0
sg5
F7.0
sg6
F8.0
sb(dp625
I00
F3.6899999999999995
sI01
F55.37
ss(i__main__
State
p626
(dp627
g3
F2.0
sg4
F5.0
sg5
F-2.0
sg6
F-8.0
sb(dp628
I00
F72.433
sI01
F60.37
ss(i__main__
State
p629
(dp630
g3
F-7.0
sg4
F10.0
sg5
F7.0
sg6
F0.0
sb(dp631
I00
F139.08737976829
sI01
F37.75
ss(i__main__
State
p632
(dp633
g3
F-1.0
sg4
F8.0
sg5
F1.0
sg6
F0.0
sb(dp634
I00
F10.0
sI01
F45.339
ss(i__main__
State
p635
(dp636
g3
F-6.0
sg4
F9.0
sg5
F6.0
sg6
F-6.0
sb(dp637
I00
F0.0
sI01
F41.084024889614
ss(i__main__
State
p638
(dp639
g3
F8.0
sg4
F8.0
sg5
F-8.0
sg6
F-4.0
sb(dp640
I00
F47.290000000000006
sI01
F11.0
ss(i__main__
State
p641
(dp642
g3
F6.0
sg4
F7.0
sg5
F-6.0
sg6
F6.0
sb(dp643
I00
F-30.829893809999998
sI01
F-66.456540252
ss(i__main__
State
p644
(dp645
g3
F1.0
sg4
F0.0
sg5
F-1.0
sg6
F2.0
sb(dp646
I00
F-40.4
sI01
I-35
ss(i__main__
State
p647
(dp648
g3
F8.0
sg4
F6.0
sg5
F-8.0
sg6
F2.0
sb(dp649
I00
I-48
sI01
F57.1
ss(i__main__
State
p650
(dp651
g3
F-8.0
sg4
F9.0
sg5
F8.0
sg6
F-8.0
sb(dp652
I00
F10.0
sI01
F0.0
ss(i__main__
State
p653
(dp654
g3
F-6.0
sg4
F0.0
sg5
F6.0
sg6
F8.0
sb(dp655
I00
F-1.3072699999999995
sI01
F13.045570000000001
ss(i__main__
State
p656
(dp657
g3
F-3.0
sg4
F2.0
sg5
F3.0
sg6
F6.0
sb(dp658
I00
F69.2
sI01
I-21
ss(i__main__
State
p659
(dp660
g3
F-3.0
sg4
F9.0
sg5
F3.0
sg6
F6.0
sb(dp661
I00
F20.0
sI01
F0.0
ss(i__main__
State
p662
(dp663
g3
F7.0
sg4
F5.0
sg5
F-7.0
sg6
F-2.0
sb(dp664
I00
I0
sI01
F-0.5642400000000001
ss(i__main__
State
p665
(dp666
g3
F0.0
sg4
F1.0
sg5
F0.0
sg6
F6.0
sb(dp667
I00
I-84
sI01
F-15.899000000000001
ss(i__main__
State
p668
(dp669
g3
F2.0
sg4
F8.0
sg5
F-2.0
sg6
F4.0
sb(dp670
I00
F90.49880488000001
sI01
F0.0
ss(i__main__
State
p671
(dp672
g3
F4.0
sg4
F2.0
sg5
F-4.0
sg6
F-6.0
sb(dp673
I00
F-20.2
sI01
F1.4000000000000004
ss(i__main__
State
p674
(dp675
g3
F0.0
sg4
F7.0
sg5
F0.0
sg6
F4.0
sb(dp676
I00
I-82
sI01
F38.799657968
ss(i__main__
State
p677
(dp678
g3
F5.0
sg4
F0.0
sg5
F-5.0
sg6
F-4.0
sb(dp679
I00
F-40.6
sI01
F45.7
ss(i__main__
State
p680
(dp681
g3
F-2.0
sg4
F5.0
sg5
F2.0
sg6
F-4.0
sb(dp682
I00
F61.8898
sI01
I60
ss(i__main__
State
p683
(dp684
g3
F8.0
sg4
F1.0
sg5
F-8.0
sg6
F-8.0
sb(dp685
I00
I-78
sI01
F58.934529999999995
ss(i__main__
State
p686
(dp687
g3
F-6.0
sg4
F10.0
sg5
F6.0
sg6
F-6.0
sb(dp688
I00
F91.33484410442301
sI01
F0.0
ss(i__main__
State
p689
(dp690
g3
F6.0
sg4
F3.0
sg5
F-6.0
sg6
F4.0
sb(dp691
I00
F-29.5059571
sI01
I-2
ss(i__main__
State
p692
(dp693
g3
F2.0
sg4
F4.0
sg5
F-2.0
sg6
F-6.0
sb(dp694
I00
F-40.6
sI01
F19.097666900000004
ss(i__main__
State
p695
(dp696
g3
F4.0
sg4
F4.0
sg5
F-4.0
sg6
F-2.0
sb(dp697
I00
F-12.7
sI01
F-41.3
ss(i__main__
State
p698
(dp699
g3
F-6.0
sg4
F2.0
sg5
F6.0
sg6
F4.0
sb(dp700
I00
F15.600000000000001
sI01
I18
ss(i__main__
State
p701
(dp702
g3
F0.0
sg4
F9.0
sg5
F0.0
sg6
F-6.0
sb(dp703
I00
F44.74420155
sI01
F20.0
ss(i__main__
State
p704
(dp705
g3
F-1.0
sg4
F5.0
sg5
F1.0
sg6
F-8.0
sb(dp706
I00
I4
sI01
F93.27000000000001
ss(i__main__
State
p707
(dp708
g3
F-7.0
sg4
F7.0
sg5
F7.0
sg6
F0.0
sb(dp709
I00
F59.6
sI01
I-25
ss(i__main__
State
p710
(dp711
g3
F-2.0
sg4
F6.0
sg5
F2.0
sg6
F-4.0
sb(dp712
I00
F17.3
sI01
F-40.666
ss(i__main__
State
p713
(dp714
g3
F7.0
sg4
F10.0
sg5
F-7.0
sg6
F4.0
sb(dp715
I00
F30.9276
sI01
F12.200000000000001
ss(i__main__
State
p716
(dp717
g3
F-1.0
sg4
F8.0
sg5
F1.0
sg6
F8.0
sb(dp718
I00
F10.0
sI01
F0.0
ss(i__main__
State
p719
(dp720
g3
F2.0
sg4
F2.0
sg5
F-2.0
sg6
F4.0
sb(dp721
I00
F33.111710570410004
sI01
I3
ss(i__main__
State
p722
(dp723
g3
F1.0
sg4
F6.0
sg5
F-1.0
sg6
F4.0
sb(dp724
I00
F43.370000000000005
sI01
I-5
ss(i__main__
State
p725
(dp726
g3
F2.0
sg4
F6.0
sg5
F-2.0
sg6
F4.0
sb(dp727
I00
F12.888
sI01
I-94
ss(i__main__
State
p728
(dp729
g3
F-3.0
sg4
F5.0
sg5
F3.0
sg6
F2.0
sb(dp730
I00
I86
sI01
F39.429
ss(i__main__
State
p731
(dp732
g3
F5.0
sg4
F8.0
sg5
F-5.0
sg6
F-4.0
sb(dp733
I00
F10.0
sI01
F0.0
ss(i__main__
State
p734
(dp735
g3
F2.0
sg4
F4.0
sg5
F-2.0
sg6
F0.0
sb(dp736
I00
F21.153
sI01
I-91
ss(i__main__
State
p737
(dp738
g3
F-7.0
sg4
F7.0
sg5
F7.0
sg6
F-2.0
sb(dp739
I00
I50
sI01
F25.3
ss(i__main__
State
p740
(dp741
g3
F-2.0
sg4
F9.0
sg5
F2.0
sg6
F-8.0
sb(dp742
I00
F0.0
sI01
F62.921244
ss(i__main__
State
p743
(dp744
g3
F-8.0
sg4
F8.0
sg5
F8.0
sg6
F2.0
sb(dp745
I00
F73.1237642
sI01
F21.1006
ss(i__main__
State
p746
(dp747
g3
F4.0
sg4
F7.0
sg5
F-4.0
sg6
F8.0
sb(dp748
I00
I9
sI01
F59.1702295
ss(i__main__
State
p749
(dp750
g3
F1.0
sg4
F3.0
sg5
F-1.0
sg6
F8.0
sb(dp751
I00
I-37
sI01
F64.79910000000001
ss(i__main__
State
p752
(dp753
g3
F-8.0
sg4
F5.0
sg5
F8.0
sg6
F6.0
sb(dp754
I00
I10
sI01
F72.6993024
ss(i__main__
State
p755
(dp756
g3
F-5.0
sg4
F0.0
sg5
F5.0
sg6
F-8.0
sb(dp757
I00
F95.2
sI01
I67
ss(i__main__
State
p758
(dp759
g3
F0.0
sg4
F8.0
sg5
F0.0
sg6
F-8.0
sb(dp760
I00
F-1898.9
sI01
F-998.0
ss(i__main__
State
p761
(dp762
g3
F2.0
sg4
F8.0
sg5
F-2.0
sg6
F-2.0
sb(dp763
I00
F52.11409999999999
sI01
F10.0
ss(i__main__
State
p764
(dp765
g3
F5.0
sg4
F10.0
sg5
F-5.0
sg6
F-6.0
sb(dp766
I00
F38.3394
sI01
F9.8
ss(i__main__
State
p767
(dp768
g3
F0.0
sg4
F5.0
sg5
F0.0
sg6
F-2.0
sb(dp769
I00
F37.727199999999996
sI01
F40.498247
ss(i__main__
State
p770
(dp771
g3
F-1.0
sg4
F9.0
sg5
F1.0
sg6
F-4.0
sb(dp772
I00
F46.5540155
sI01
F11.370000000000001
ss(i__main__
State
p773
(dp774
g3
F-2.0
sg4
F7.0
sg5
F2.0
sg6
F6.0
sb(dp775
I00
F67.85000000000001
sI01
I-72
ss(i__main__
State
p776
(dp777
g3
F-2.0
sg4
F1.0
sg5
F2.0
sg6
F4.0
sb(dp778
I00
F34.6478692
sI01
F-22.9
ss(i__main__
State
p779
(dp780
g3
F-8.0
sg4
F4.0
sg5
F8.0
sg6
F-6.0
sb(dp781
I00
I48
sI01
F74.99458999999999
ss(i__main__
State
p782
(dp783
g3
F-3.0
sg4
F9.0
sg5
F3.0
sg6
F-8.0
sb(dp784
I00
F84.59040620609
sI01
F14.4245791007
ss(i__main__
State
p785
(dp786
g3
F-3.0
sg4
F0.0
sg5
F3.0
sg6
F6.0
sb(dp787
I00
F28.47883
sI01
F21.326806840000003
ss(i__main__
State
p788
(dp789
g3
F6.0
sg4
F1.0
sg5
F-6.0
sg6
F8.0
sb(dp790
I00
F-32.52
sI01
I-78
ss(i__main__
State
p791
(dp792
g3
F4.0
sg4
F9.0
sg5
F-4.0
sg6
F-2.0
sb(dp793
I00
F-72.80000000000001
sI01
F129.72057133142044
ss(i__main__
State
p794
(dp795
g3
F-8.0
sg4
F2.0
sg5
F8.0
sg6
F-2.0
sb(dp796
I00
I40
sI01
F64.93610000000001
ss(i__main__
State
p797
(dp798
g3
F-3.0
sg4
F3.0
sg5
F3.0
sg6
F-8.0
sb(dp799
I00
I-76
sI01
F-41.0
ss(i__main__
State
p800
(dp801
g3
F-8.0
sg4
F8.0
sg5
F8.0
sg6
F-6.0
sb(dp802
I00
F57.01
sI01
F15.4439045
ss(i__main__
State
p803
(dp804
g3
F0.0
sg4
F2.0
sg5
F0.0
sg6
F0.0
sb(dp805
I00
F31.557753
sI01
I-35
ss(i__main__
State
p806
(dp807
g3
F5.0
sg4
F6.0
sg5
F-5.0
sg6
F-6.0
sb(dp808
I00
I-2
sI01
F81.2378
ss(i__main__
State
p809
(dp810
g3
F-1.0
sg4
F8.0
sg5
F1.0
sg6
F-2.0
sb(dp811
I00
F10.0
sI01
F10.0
ss(i__main__
State
p812
(dp813
g3
F-6.0
sg4
F8.0
sg5
F6.0
sg6
F-4.0
sb(dp814
I00
F10.0
sI01
F0.0
ss(i__main__
State
p815
(dp816
g3
F3.0
sg4
F1.0
sg5
F-3.0
sg6
F-8.0
sb(dp817
I00
I-95
sI01
F-44.2
ss(i__main__
State
p818
(dp819
g3
F6.0
sg4
F9.0
sg5
F-6.0
sg6
F8.0
sb(dp820
I00
F10.0
sI01
F48.8431458
ss(i__main__
State
p821
(dp822
g3
F4.0
sg4
F7.0
sg5
F-4.0
sg6
F0.0
sb(dp823
I00
F-2.4234780000000002
sI01
F-70.270445
ss(i__main__
State
p824
(dp825
g3
F-7.0
sg4
F10.0
sg5
F7.0
sg6
F-2.0
sb(dp826
I00
F10.0
sI01
F0.0
ss(i__main__
State
p827
(dp828
g3
F3.0
sg4
F3.0
sg5
F-3.0
sg6
F0.0
sb(dp829
I00
F-21.259999999999998
sI01
F42.0361
ss(i__main__
State
p830
(dp831
g3
F-8.0
sg4
F1.0
sg5
F8.0
sg6
F-2.0
sb(dp832
I00
I-83
sI01
F-60.746318836
ss(i__main__
State
p833
(dp834
g3
F3.0
sg4
F4.0
sg5
F-3.0
sg6
F0.0
sb(dp835
I00
I-1
sI01
F71.66
ss(i__main__
State
p836
(dp837
g3
F-7.0
sg4
F2.0
sg5
F7.0
sg6
F-6.0
sb(dp838
I00
F-69.2
sI01
F57.032000000000004
ss(i__main__
State
p839
(dp840
g3
F5.0
sg4
F9.0
sg5
F-5.0
sg6
F-2.0
sb(dp841
I00
F-81.0
sI01
F54.122420000000005
ss(i__main__
State
p842
(dp843
g3
F2.0
sg4
F3.0
sg5
F-2.0
sg6
F-8.0
sb(dp844
I00
I-52
sI01
F87.3775
ss(i__main__
State
p845
(dp846
g3
F7.0
sg4
F1.0
sg5
F-7.0
sg6
F2.0
sb(dp847
I00
I-92
sI01
F7.0970304816946
ss(i__main__
State
p848
(dp849
g3
F0.0
sg4
F8.0
sg5
F0.0
sg6
F-2.0
sb(dp850
I00
F-4088.1380000000004
sI01
F-3070.2838899999997
ss(i__main__
State
p851
(dp852
g3
F3.0
sg4
F6.0
sg5
F-3.0
sg6
F-6.0
sb(dp853
I00
I-46
sI01
F24.301803899999996
ss(i__main__
State
p854
(dp855
g3
F-8.0
sg4
F6.0
sg5
F8.0
sg6
F-2.0
sb(dp856
I00
F32.256
sI01
I-63
ss(i__main__
State
p857
(dp858
g3
F-2.0
sg4
F10.0
sg5
F2.0
sg6
F-8.0
sb(dp859
I00
F12.0
sI01
F45.150438
ss(i__main__
State
p860
(dp861
g3
F4.0
sg4
F0.0
sg5
F-4.0
sg6
F-4.0
sb(dp862
I00
I-24
sI01
F5.81
ss(i__main__
State
p863
(dp864
g3
F3.0
sg4
F2.0
sg5
F-3.0
sg6
F2.0
sb(dp865
I00
F1.8604714659560004
sI01
F29.6
ss(i__main__
State
p866
(dp867
g3
F8.0
sg4
F4.0
sg5
F-8.0
sg6
F0.0
sb(dp868
I00
I-93
sI01
F2.8498420000000024
ss(i__main__
State
p869
(dp870
g3
F7.0
sg4
F4.0
sg5
F-7.0
sg6
F-6.0
sb(dp871
I00
I-96
sI01
F-89.7
ss(i__main__
State
p872
(dp873
g3
F6.0
sg4
F1.0
sg5
F-6.0
sg6
F0.0
sb(dp874
I00
F8.436044
sI01
I-71
ss(i__main__
State
p875
(dp876
g3
F1.0
sg4
F10.0
sg5
F-1.0
sg6
F6.0
sb(dp877
I00
F0.0
sI01
F49.994876500000004
ss(i__main__
State
p878
(dp879
g3
F5.0
sg4
F8.0
sg5
F-5.0
sg6
F2.0
sb(dp880
I00
F29.11
sI01
F0.0
ss(i__main__
State
p881
(dp882
g3
F5.0
sg4
F9.0
sg5
F-5.0
sg6
F2.0
sb(dp883
I00
F20.0
sI01
F0.0
ss(i__main__
State
p884
(dp885
g3
F1.0
sg4
F8.0
sg5
F-1.0
sg6
F-2.0
sb(dp886
I00
F-873.6823140100001
sI01
F-975.1925833100001
ss(i__main__
State
p887
(dp888
g3
F-8.0
sg4
F10.0
sg5
F8.0
sg6
F2.0
sb(dp889
I00
F120.96056931145424
sI01
F28.33648
ss(i__main__
State
p890
(dp891
g3
F-6.0
sg4
F0.0
sg5
F6.0
sg6
F-2.0
sb(dp892
I00
F88.8
sI01
I27
ss(i__main__
State
p893
(dp894
g3
F-2.0
sg4
F1.0
sg5
F2.0
sg6
F6.0
sb(dp895
I00
I-30
sI01
F56.684
ss(i__main__
State
p896
(dp897
g3
F-4.0
sg4
F3.0
sg5
F4.0
sg6
F2.0
sb(dp898
I00
F-29.73021657
sI01
F39.00437999300001
ss(i__main__
State
p899
(dp900
g3
F-5.0
sg4
F8.0
sg5
F5.0
sg6
F-4.0
sb(dp901
I00
F89.842419
sI01
F10.0
ss(i__main__
State
p902
(dp903
g3
F8.0
sg4
F8.0
sg5
F-8.0
sg6
F0.0
sb(dp904
I00
F20.1
sI01
F0.0
ss(i__main__
State
p905
(dp906
g3
F-3.0
sg4
F2.0
sg5
F3.0
sg6
F2.0
sb(dp907
I00
I-57
sI01
F23.25
ss(i__main__
State
p908
(dp909
g3
F6.0
sg4
F10.0
sg5
F-6.0
sg6
F-8.0
sb(dp910
I00
F22.8266
sI01
F0.0
ss(i__main__
State
p911
(dp912
g3
F6.0
sg4
F1.0
sg5
F-6.0
sg6
F-6.0
sb(dp913
I00
F-30.9
sI01
I-59
ss(i__main__
State
p914
(dp915
g3
F-6.0
sg4
F4.0
sg5
F6.0
sg6
F-8.0
sb(dp916
I00
I-76
sI01
F70.444
ss(i__main__
State
p917
(dp918
g3
F3.0
sg4
F3.0
sg5
F-3.0
sg6
F8.0
sb(dp919
I00
F7.609900000000001
sI01
I-88
ss(i__main__
State
p920
(dp921
g3
F5.0
sg4
F0.0
sg5
F-5.0
sg6
F6.0
sb(dp922
I00
I-22
sI01
F15.5
ss(i__main__
State
p923
(dp924
g3
F5.0
sg4
F3.0
sg5
F-5.0
sg6
F4.0
sb(dp925
I00
I-93
sI01
F-46.19369999999999
ss(i__main__
State
p926
(dp927
g3
F-4.0
sg4
F6.0
sg5
F4.0
sg6
F-2.0
sb(dp928
I00
I24
sI01
F-77.2
ss(i__main__
State
p929
(dp930
g3
F-4.0
sg4
F2.0
sg5
F4.0
sg6
F0.0
sb(dp931
I00
I15
sI01
F46.0803528
ss(i__main__
State
p932
(dp933
g3
F-3.0
sg4
F9.0
sg5
F3.0
sg6
F0.0
sb(dp934
I00
F-2707.1
sI01
F-3429.5626060385002
ss(i__main__
State
p935
(dp936
g3
F-3.0
sg4
F2.0
sg5
F3.0
sg6
F-8.0
sb(dp937
I00
F70.8
sI01
F42.9
ss(i__main__
State
p938
(dp939
g3
F-7.0
sg4
F1.0
sg5
F7.0
sg6
F6.0
sb(dp940
I00
F-7.800000000000001
sI01
I-65
ss(i__main__
State
p941
(dp942
g3
F7.0
sg4
F10.0
sg5
F-7.0
sg6
F-2.0
sb(dp943
I00
F106.78685003051001
sI01
F0.0
ss(i__main__
State
p944
(dp945
g3
F7.0
sg4
F3.0
sg5
F-7.0
sg6
F-2.0
sb(dp946
I00
I-76
sI01
F9.299900000000001
ss(i__main__
State
p947
(dp948
g3
F6.0
sg4
F8.0
sg5
F-6.0
sg6
F4.0
sb(dp949
I00
F39.03819
sI01
F11.0
ss(i__main__
State
p950
(dp951
g3
F1.0
sg4
F8.0
sg5
F-1.0
sg6
F4.0
sb(dp952
I00
F-80.9
sI01
F23.281
ss(i__main__
State
p953
(dp954
g3
F2.0
sg4
F2.0
sg5
F-2.0
sg6
F-6.0
sb(dp955
I00
I-71
sI01
F-42.878
ss(i__main__
State
p956
(dp957
g3
F-8.0
sg4
F1.0
sg5
F8.0
sg6
F-6.0
sb(dp958
I00
F-39.04730000000001
sI01
F-46.324
ss(i__main__
State
p959
(dp960
g3
F-7.0
sg4
F8.0
sg5
F7.0
sg6
F6.0
sb(dp961
I00
F0.0
sI01
F96.29928744000001
ss(i__main__
State
p962
(dp963
g3
F8.0
sg4
F2.0
sg5
F-8.0
sg6
F4.0
sb(dp964
I00
I67
sI01
F49.1
ss(i__main__
State
p965
(dp966
g3
F-7.0
sg4
F9.0
sg5
F7.0
sg6
F-6.0
sb(dp967
I00
F10.0
sI01
F0.0
ss(i__main__
State
p968
(dp969
g3
F-2.0
sg4
F10.0
sg5
F2.0
sg6
F4.0
sb(dp970
I00
F79.47910825000001
sI01
F12.590000000000002
ss(i__main__
State
p971
(dp972
g3
F-8.0
sg4
F9.0
sg5
F8.0
sg6
F-6.0
sb(dp973
I00
F68.87783439350001
sI01
F30.580001100000004
ss(i__main__
State
p974
(dp975
g3
F-4.0
sg4
F0.0
sg5
F4.0
sg6
F-4.0
sb(dp976
I00
F16.9
sI01
I-39
ss(i__main__
State
p977
(dp978
g3
F-5.0
sg4
F9.0
sg5
F5.0
sg6
F6.0
sb(dp979
I00
F29.422600000000003
sI01
F0.0
ss(i__main__
State
p980
(dp981
g3
F8.0
sg4
F8.0
sg5
F-8.0
sg6
F8.0
sb(dp982
I00
F0.0
sI01
F43.53885853018
ss(i__main__
State
p983
(dp984
g3
F4.0
sg4
F5.0
sg5
F-4.0
sg6
F-4.0
sb(dp985
I00
F-11.960034899999998
sI01
F24.6728181881
ss(i__main__
State
p986
(dp987
g3
F-2.0
sg4
F6.0
sg5
F2.0
sg6
F-6.0
sb(dp988
I00
I4
sI01
F60.400000000000006
ss(i__main__
State
p989
(dp990
g3
F1.0
sg4
F10.0
sg5
F-1.0
sg6
F0.0
sb(dp991
I00
F10.0
sI01
F0.0
ss(i__main__
State
p992
(dp993
g3
F8.0
sg4
F7.0
sg5
F-8.0
sg6
F6.0
sb(dp994
I00
F80.1
sI01
F41.4
ss(i__main__
State
p995
(dp996
g3
F-1.0
sg4
F2.0
sg5
F1.0
sg6
F8.0
sb(dp997
I00
F-30.054404
sI01
I-95
ss(i__main__
State
p998
(dp999
g3
F6.0
sg4
F0.0
sg5
F-6.0
sg6
F8.0
sb(dp1000
I00
F35.36050577463723
sI01
F-25.5
ss(i__main__
State
p1001
(dp1002
g3
F7.0
sg4
F1.0
sg5
F-7.0
sg6
F-6.0
sb(dp1003
I00
F-64.2
sI01
I-82
ss(i__main__
State
p1004
(dp1005
g3
F-5.0
sg4
F5.0
sg5
F5.0
sg6
F0.0
sb(dp1006
I00
F81.7104258
sI01
I10
ss(i__main__
State
p1007
(dp1008
g3
F-3.0
sg4
F5.0
sg5
F3.0
sg6
F4.0
sb(dp1009
I00
I-22
sI01
F53.35242042
ss(i__main__
State
p1010
(dp1011
g3
F4.0
sg4
F1.0
sg5
F-4.0
sg6
F4.0
sb(dp1012
I00
F80.648306201
sI01
I47
ss(i__main__
State
p1013
(dp1014
g3
F-8.0
sg4
F3.0
sg5
F8.0
sg6
F-2.0
sb(dp1015
I00
F13.889
sI01
F-71.96003099999999
ss(i__main__
State
p1016
(dp1017
g3
F5.0
sg4
F6.0
sg5
F-5.0
sg6
F8.0
sb(dp1018
I00
F-79.7007501385568
sI01
F83.004600304864
ss(i__main__
State
p1019
(dp1020
g3
F-3.0
sg4
F0.0
sg5
F3.0
sg6
F-4.0
sb(dp1021
I00
F-14.1
sI01
F45.796582
ss(i__main__
State
p1022
(dp1023
g3
F8.0
sg4
F3.0
sg5
F-8.0
sg6
F0.0
sb(dp1024
I00
I-49
sI01
F49.5179
ss(i__main__
State
p1025
(dp1026
g3
F-2.0
sg4
F6.0
sg5
F2.0
sg6
F0.0
sb(dp1027
I00
F-16.992574339999997
sI01
I-46
ss(i__main__
State
p1028
(dp1029
g3
F8.0
sg4
F6.0
sg5
F-8.0
sg6
F6.0
sb(dp1030
I00
F24.938499999999998
sI01
I-52
ss(i__main__
State
p1031
(dp1032
g3
F7.0
sg4
F9.0
sg5
F-7.0
sg6
F4.0
sb(dp1033
I00
F10.0
sI01
F11.0
ss(i__main__
State
p1034
(dp1035
g3
F-1.0
sg4
F0.0
sg5
F1.0
sg6
F-8.0
sb(dp1036
I00
I28
sI01
F58.25193049999999
ss(i__main__
State
p1037
(dp1038
g3
F-1.0
sg4
F9.0
sg5
F1.0
sg6
F6.0
sb(dp1039
I00
F44.378981190000005
sI01
F0.0
ss(i__main__
State
p1040
(dp1041
g3
F-1.0
sg4
F6.0
sg5
F1.0
sg6
F-2.0
sb(dp1042
I00
F-82.694
sI01
F65.98
ss(i__main__
State
p1043
(dp1044
g3
F7.0
sg4
F2.0
sg5
F-7.0
sg6
F-8.0
sb(dp1045
I00
F-8.954
sI01
I-75
ss(i__main__
State
p1046
(dp1047
g3
F5.0
sg4
F4.0
sg5
F-5.0
sg6
F-2.0
sb(dp1048
I00
F-11.3589
sI01
I-54
ss(i__main__
State
p1049
(dp1050
g3
F1.0
sg4
F5.0
sg5
F-1.0
sg6
F-2.0
sb(dp1051
I00
I-75
sI01
F-11.1
ss(i__main__
State
p1052
(dp1053
g3
F-2.0
sg4
F7.0
sg5
F2.0
sg6
F8.0
sb(dp1054
I00
I-81
sI01
F73.59880000000001
ss(i__main__
State
p1055
(dp1056
g3
F4.0
sg4
F4.0
sg5
F-4.0
sg6
F8.0
sb(dp1057
I00
F-4.959999999999999
sI01
F37.64502373
ss(i__main__
State
p1058
(dp1059
g3
F5.0
sg4
F5.0
sg5
F-5.0
sg6
F2.0
sb(dp1060
I00
F74.27455958000002
sI01
I18
ss(i__main__
State
p1061
(dp1062
g3
F-2.0
sg4
F1.0
sg5
F2.0
sg6
F2.0
sb(dp1063
I00
I-84
sI01
F16.14
ss(i__main__
State
p1064
(dp1065
g3
F-8.0
sg4
F8.0
sg5
F8.0
sg6
F0.0
sb(dp1066
I00
F20.1
sI01
F0.0
ss(i__main__
State
p1067
(dp1068
g3
F-5.0
sg4
F3.0
sg5
F5.0
sg6
F-6.0
sb(dp1069
I00
F5.4
sI01
F7.080690000000001
ss(i__main__
State
p1070
(dp1071
g3
F-5.0
sg4
F2.0
sg5
F5.0
sg6
F-8.0
sb(dp1072
I00
F-8.61
sI01
I-71
ss(i__main__
State
p1073
(dp1074
g3
F-8.0
sg4
F5.0
sg5
F8.0
sg6
F8.0
sb(dp1075
I00
F-12.312999999999999
sI01
F27.460740700000002
ss(i__main__
State
p1076
(dp1077
g3
F6.0
sg4
F10.0
sg5
F-6.0
sg6
F0.0
sb(dp1078
I00
F101.93858314829004
sI01
F11.3
ss(i__main__
State
p1079
(dp1080
g3
F-6.0
sg4
F2.0
sg5
F6.0
sg6
F2.0
sb(dp1081
I00
F66.1
sI01
I-41
ss(i__main__
State
p1082
(dp1083
g3
F-5.0
sg4
F7.0
sg5
F5.0
sg6
F-2.0
sb(dp1084
I00
I-46
sI01
F45.705000000000005
ss(i__main__
State
p1085
(dp1086
g3
F-3.0
sg4
F10.0
sg5
F3.0
sg6
F2.0
sb(dp1087
I00
F73.153282712
sI01
F0.0
ss(i__main__
State
p1088
(dp1089
g3
F8.0
sg4
F10.0
sg5
F-8.0
sg6
F2.0
sb(dp1090
I00
F38.3347
sI01
F0.0
ss(i__main__
State
p1091
(dp1092
g3
F1.0
sg4
F4.0
sg5
F-1.0
sg6
F-4.0
sb(dp1093
I00
F-48.8
sI01
I-79
ss(i__main__
State
p1094
(dp1095
g3
F1.0
sg4
F4.0
sg5
F-1.0
sg6
F8.0
sb(dp1096
I00
F-37.692
sI01
I-99
ss(i__main__
State
p1097
(dp1098
g3
F-2.0
sg4
F9.0
sg5
F2.0
sg6
F-2.0
sb(dp1099
I00
F-681.57796153
sI01
F30.560155
ss(i__main__
State
p1100
(dp1101
g3
F-3.0
sg4
F8.0
sg5
F3.0
sg6
F8.0
sb(dp1102
I00
F20.0
sI01
F12.0
ss(i__main__
State
p1103
(dp1104
g3
F7.0
sg4
F8.0
sg5
F-7.0
sg6
F-8.0
sb(dp1105
I00
F72.88098190638908
sI01
F15.082654453800002
ss(i__main__
State
p1106
(dp1107
g3
F-5.0
sg4
F9.0
sg5
F5.0
sg6
F-4.0
sb(dp1108
I00
F78.927933689951
sI01
F13.2342
ss(i__main__
State
p1109
(dp1110
g3
F-4.0
sg4
F0.0
sg5
F4.0
sg6
F-8.0
sb(dp1111
I00
I-63
sI01
F43.4
ss(i__main__
State
p1112
(dp1113
g3
F-8.0
sg4
F5.0
sg5
F8.0
sg6
F-4.0
sb(dp1114
I00
I-1
sI01
F10.392
ss(i__main__
State
p1115
(dp1116
g3
F6.0
sg4
F6.0
sg5
F-6.0
sg6
F0.0
sb(dp1117
I00
F-6.427559999999998
sI01
I-52
ss(i__main__
State
p1118
(dp1119
g3
F8.0
sg4
F0.0
sg5
F-8.0
sg6
F-2.0
sb(dp1120
I00
F84.1
sI01
I17
ss(i__main__
State
p1121
(dp1122
g3
F5.0
sg4
F3.0
sg5
F-5.0
sg6
F-8.0
sb(dp1123
I00
I22
sI01
F81.2
ss(i__main__
State
p1124
(dp1125
g3
F-7.0
sg4
F8.0
sg5
F7.0
sg6
F-6.0
sb(dp1126
I00
F39.944680000000005
sI01
F11.0
ss(i__main__
State
p1127
(dp1128
g3
F2.0
sg4
F8.0
sg5
F-2.0
sg6
F6.0
sb(dp1129
I00
F20.0
sI01
F17.972
ss(i__main__
State
p1130
(dp1131
g3
F-2.0
sg4
F7.0
sg5
F2.0
sg6
F0.0
sb(dp1132
I00
I36
sI01
F67.396681
ss(i__main__
State
p1133
(dp1134
g3
F-4.0
sg4
F2.0
sg5
F4.0
sg6
F-8.0
sb(dp1135
I00
F-24.02
sI01
F61.208769
ss(i__main__
State
p1136
(dp1137
g3
F-7.0
sg4
F1.0
sg5
F7.0
sg6
F-4.0
sb(dp1138
I00
F-4.590341116000004
sI01
F5.768000000000001
ss(i__main__
State
p1139
(dp1140
g3
F3.0
sg4
F2.0
sg5
F-3.0
sg6
F4.0
sb(dp1141
I00
F-84.1
sI01
F36.39645
ss(i__main__
State
p1142
(dp1143
g3
F0.0
sg4
F3.0
sg5
F0.0
sg6
F-6.0
sb(dp1144
I00
I-86
sI01
F-72.6
ss(i__main__
State
p1145
(dp1146
g3
F1.0
sg4
F10.0
sg5
F-1.0
sg6
F-8.0
sb(dp1147
I00
F0.0
sI01
F22.460952000000002
ss(i__main__
State
p1148
(dp1149
g3
F1.0
sg4
F8.0
sg5
F-1.0
sg6
F-8.0
sb(dp1150
I00
F-90.0
sI01
F0.0
ss(i__main__
State
p1151
(dp1152
g3
F4.0
sg4
F8.0
sg5
F-4.0
sg6
F2.0
sb(dp1153
I00
F0.0
sI01
F119.69573851
ss(i__main__
State
p1154
(dp1155
g3
F2.0
sg4
F0.0
sg5
F-2.0
sg6
F-8.0
sb(dp1156
I00
F-27.92
sI01
F17.3
ss(i__main__
State
p1157
(dp1158
g3
F5.0
sg4
F7.0
sg5
F-5.0
sg6
F4.0
sb(dp1159
I00
F77.4308
sI01
I58
ss(i__main__
State
p1160
(dp1161
g3
F-4.0
sg4
F5.0
sg5
F4.0
sg6
F-2.0
sb(dp1162
I00
F28.93
sI01
I-60
ss(i__main__
State
p1163
(dp1164
g3
F2.0
sg4
F6.0
sg5
F-2.0
sg6
F2.0
sb(dp1165
I00
I4
sI01
F57.9
ss(i__main__
State
p1166
(dp1167
g3
F-5.0
sg4
F7.0
sg5
F5.0
sg6
F8.0
sb(dp1168
I00
F-56.65273
sI01
I75
ss(i__main__
State
p1169
(dp1170
g3
F6.0
sg4
F9.0
sg5
F-6.0
sg6
F2.0
sb(dp1171
I00
F21.9
sI01
F12.0
ss(i__main__
State
p1172
(dp1173
g3
F-7.0
sg4
F5.0
sg5
F7.0
sg6
F6.0
sb(dp1174
I00
F13.828100000000001
sI01
I-81
ss(i__main__
State
p1175
(dp1176
g3
F7.0
sg4
F6.0
sg5
F-7.0
sg6
F6.0
sb(dp1177
I00
I-81
sI01
F-59.8
ss(i__main__
State
p1178
(dp1179
g3
F-8.0
sg4
F7.0
sg5
F8.0
sg6
F-4.0
sb(dp1180
I00
F-18.7
sI01
F45.376857699999995
ss(i__main__
State
p1181
(dp1182
g3
F6.0
sg4
F4.0
sg5
F-6.0
sg6
F4.0
sb(dp1183
I00
F40.2
sI01
F51.065
ss(i__main__
State
p1184
(dp1185
g3
F-1.0
sg4
F10.0
sg5
F1.0
sg6
F-6.0
sb(dp1186
I00
F14.990000000000002
sI01
F0.0
ss(i__main__
State
p1187
(dp1188
g3
F3.0
sg4
F10.0
sg5
F-3.0
sg6
F-4.0
sb(dp1189
I00
F10.0
sI01
F0.0
ss(i__main__
State
p1190
(dp1191
g3
F-6.0
sg4
F9.0
sg5
F6.0
sg6
F-4.0
sb(dp1192
I00
F44.32899999999999
sI01
F0.0
ss(i__main__
State
p1193
(dp1194
g3
F-5.0
sg4
F0.0
sg5
F5.0
sg6
F-2.0
sb(dp1195
I00
F-60.0
sI01
F-8.1
ss(i__main__
State
p1196
(dp1197
g3
F-6.0
sg4
F5.0
sg5
F6.0
sg6
F4.0
sb(dp1198
I00
F63.925900000000006
sI01
F66.0
ss(i__main__
State
p1199
(dp1200
g3
F6.0
sg4
F2.0
sg5
F-6.0
sg6
F-8.0
sb(dp1201
I00
F66.1
sI01
I-96
ss(i__main__
State
p1202
(dp1203
g3
F-7.0
sg4
F4.0
sg5
F7.0
sg6
F6.0
sb(dp1204
I00
F-34.18
sI01
F70.09531506999998
ss(i__main__
State
p1205
(dp1206
g3
F3.0
sg4
F5.0
sg5
F-3.0
sg6
F-2.0
sb(dp1207
I00
F-66.31
sI01
F-36.29057999999999
ss(i__main__
State
p1208
(dp1209
g3
F6.0
sg4
F8.0
sg5
F-6.0
sg6
F-6.0
sb(dp1210
I00
F10.0
sI01
F121.04352398757523
ss(i__main__
State
p1211
(dp1212
g3
F-8.0
sg4
F9.0
sg5
F8.0
sg6
F2.0
sb(dp1213
I00
F23.091775000000002
sI01
F0.0
ss(i__main__
State
p1214
(dp1215
g3
F-5.0
sg4
F2.0
sg5
F5.0
sg6
F0.0
sb(dp1216
I00
F13.7
sI01
F8.167669999999998
ss(i__main__
State
p1217
(dp1218
g3
F-7.0
sg4
F10.0
sg5
F7.0
sg6
F6.0
sb(dp1219
I00
F60.298809999999996
sI01
F5.5
ss(i__main__
State
p1220
(dp1221
g3
F1.0
sg4
F1.0
sg5
F-1.0
sg6
F8.0
sb(dp1222
I00
I-44
sI01
F16.5963757
ss(i__main__
State
p1223
(dp1224
g3
F7.0
sg4
F7.0
sg5
F-7.0
sg6
F-4.0
sb(dp1225
I00
F-8.0
sI01
F72.175925945
ss(i__main__
State
p1226
(dp1227
g3
F-5.0
sg4
F7.0
sg5
F5.0
sg6
F2.0
sb(dp1228
I00
F63.3181
sI01
F61.7271
ss(i__main__
State
p1229
(dp1230
g3
F-4.0
sg4
F9.0
sg5
F4.0
sg6
F-6.0
sb(dp1231
I00
F86.548874904339
sI01
F23.8119
ss(i__main__
State
p1232
(dp1233
g3
F-4.0
sg4
F10.0
sg5
F4.0
sg6
F2.0
sb(dp1234
I00
F60.449937492980006
sI01
F0.0
ss(i__main__
State
p1235
(dp1236
g3
F-4.0
sg4
F4.0
sg5
F4.0
sg6
F-2.0
sb(dp1237
I00
F-23.153726548799998
sI01
F-35.04422
ss(i__main__
State
p1238
(dp1239
g3
F-7.0
sg4
F8.0
sg5
F7.0
sg6
F-8.0
sb(dp1240
I00
F38.741
sI01
F15.78859
ss(i__main__
State
p1241
(dp1242
g3
F3.0
sg4
F6.0
sg5
F-3.0
sg6
F-2.0
sb(dp1243
I00
F46.744684190950004
sI01
I-16
ss(i__main__
State
p1244
(dp1245
g3
F0.0
sg4
F8.0
sg5
F0.0
sg6
F4.0
sb(dp1246
I00
F-1895.75861
sI01
F-1897.8575429000002
ss(i__main__
State
p1247
(dp1248
g3
F-5.0
sg4
F7.0
sg5
F5.0
sg6
F0.0
sb(dp1249
I00
F86.08
sI01
F-54.0
ss(i__main__
State
p1250
(dp1251
g3
F2.0
sg4
F3.0
sg5
F-2.0
sg6
F6.0
sb(dp1252
I00
F-43.81
sI01
F-14.690700000000001
ss(i__main__
State
p1253
(dp1254
g3
F2.0
sg4
F3.0
sg5
F-2.0
sg6
F0.0
sb(dp1255
I00
I-92
sI01
F53.28
ss(i__main__
State
p1256
(dp1257
g3
F1.0
sg4
F9.0
sg5
F-1.0
sg6
F2.0
sb(dp1258
I00
F24.6886
sI01
F0.0
ss(i__main__
State
p1259
(dp1260
g3
F-4.0
sg4
F7.0
sg5
F4.0
sg6
F4.0
sb(dp1261
I00
F-68.71000000000001
sI01
F3.424291000000001
ss(i__main__
State
p1262
(dp1263
g3
F-7.0
sg4
F10.0
sg5
F7.0
sg6
F-6.0
sb(dp1264
I00
F10.0
sI01
F87.4373422413
ss(i__main__
State
p1265
(dp1266
g3
F3.0
sg4
F5.0
sg5
F-3.0
sg6
F2.0
sb(dp1267
I00
F47.8
sI01
F61.95700000000001
ss(i__main__
State
p1268
(dp1269
g3
F8.0
sg4
F9.0
sg5
F-8.0
sg6
F0.0
sb(dp1270
I00
F-1000.0
sI01
F-998.6600000000001
ss(i__main__
State
p1271
(dp1272
g3
F6.0
sg4
F4.0
sg5
F-6.0
sg6
F-8.0
sb(dp1273
I00
F67.089254228076
sI01
I-32
ss(i__main__
State
p1274
(dp1275
g3
F3.0
sg4
F9.0
sg5
F-3.0
sg6
F-6.0
sb(dp1276
I00
F20.1
sI01
F0.0
ss(i__main__
State
p1277
(dp1278
g3
F1.0
sg4
F0.0
sg5
F-1.0
sg6
F-4.0
sb(dp1279
I00
F32.88
sI01
F-84.1
ss(i__main__
State
p1280
(dp1281
g3
F4.0
sg4
F10.0
sg5
F-4.0
sg6
F4.0
sb(dp1282
I00
F82.796181657
sI01
F11.07775
ss(i__main__
State
p1283
(dp1284
g3
F-3.0
sg4
F0.0
sg5
F3.0
sg6
F-6.0
sb(dp1285
I00
F-17.7
sI01
F56.805974000000006
ss(i__main__
State
p1286
(dp1287
g3
F-1.0
sg4
F10.0
sg5
F1.0
sg6
F6.0
sb(dp1288
I00
F71.21418912531334
sI01
F0.0
ss(i__main__
State
p1289
(dp1290
g3
F6.0
sg4
F3.0
sg5
F-6.0
sg6
F-4.0
sb(dp1291
I00
F9.1919
sI01
F8.615
ss(i__main__
State
p1292
(dp1293
g3
F5.0
sg4
F5.0
sg5
F-5.0
sg6
F-6.0
sb(dp1294
I00
I-65
sI01
F63.84
ss(i__main__
State
p1295
(dp1296
g3
F-4.0
sg4
F8.0
sg5
F4.0
sg6
F-6.0
sb(dp1297
I00
F88.209269
sI01
F0.0
ss(i__main__
State
p1298
(dp1299
g3
F5.0
sg4
F0.0
sg5
F-5.0
sg6
F2.0
sb(dp1300
I00
I-10
sI01
F19.44
ss(i__main__
State
p1301
(dp1302
g3
F-3.0
sg4
F10.0
sg5
F3.0
sg6
F0.0
sb(dp1303
I00
F23.80155
sI01
F15.8
ss(i__main__
State
p1304
(dp1305
g3
F8.0
sg4
F3.0
sg5
F-8.0
sg6
F8.0
sb(dp1306
I00
F13.5334
sI01
I-39
ss(i__main__
State
p1307
(dp1308
g3
F2.0
sg4
F0.0
sg5
F-2.0
sg6
F8.0
sb(dp1309
I00
F33.27702135519183
sI01
F-1.1696330000000001
ss(i__main__
State
p1310
(dp1311
g3
F-7.0
sg4
F2.0
sg5
F7.0
sg6
F0.0
sb(dp1312
I00
F-7.4
sI01
I-16
ss(i__main__
State
p1313
(dp1314
g3
F4.0
sg4
F4.0
sg5
F-4.0
sg6
F-4.0
sb(dp1315
I00
F21.009999999999998
sI01
I33
ss(i__main__
State
p1316
(dp1317
g3
F-2.0
sg4
F10.0
sg5
F2.0
sg6
F2.0
sb(dp1318
I00
F12.0
sI01
F67.635306
ss(i__main__
State
p1319
(dp1320
g3
F2.0
sg4
F1.0
sg5
F-2.0
sg6
F4.0
sb(dp1321
I00
I-79
sI01
F-40.260959692994
ss(i__main__
State
p1322
(dp1323
g3
F1.0
sg4
F5.0
sg5
F-1.0
sg6
F6.0
sb(dp1324
I00
F-18.2
sI01
I-68
ss(i__main__
State
p1325
(dp1326
g3
F-2.0
sg4
F3.0
sg5
F2.0
sg6
F-6.0
sb(dp1327
I00
F73.12338496006001
sI01
F-8.29
ss(i__main__
State
p1328
(dp1329
g3
F6.0
sg4
F0.0
sg5
F-6.0
sg6
F2.0
sb(dp1330
I00
I12
sI01
F69.4
ss(i__main__
State
p1331
(dp1332
g3
F-4.0
sg4
F10.0
sg5
F4.0
sg6
F-6.0
sb(dp1333
I00
F88.97571672591842
sI01
F0.0
ss(i__main__
State
p1334
(dp1335
g3
F5.0
sg4
F8.0
sg5
F-5.0
sg6
F6.0
sb(dp1336
I00
F30.5636
sI01
F12.087000000000002
ss(i__main__
State
p1337
(dp1338
g3
F6.0
sg4
F8.0
sg5
F-6.0
sg6
F0.0
sb(dp1339
I00
F30.0
sI01
F11.0
ss(i__main__
State
p1340
(dp1341
g3
F-5.0
sg4
F4.0
sg5
F5.0
sg6
F-8.0
sb(dp1342
I00
F-16.992
sI01
I-65
ss(i__main__
State
p1343
(dp1344
g3
F4.0
sg4
F1.0
sg5
F-4.0
sg6
F2.0
sb(dp1345
I00
F59.8005905
sI01
I47
ss(i__main__
State
p1346
(dp1347
g3
F-1.0
sg4
F3.0
sg5
F1.0
sg6
F-2.0
sb(dp1348
I00
F41.6
sI01
F-45.4
ss(i__main__
State
p1349
(dp1350
g3
F-7.0
sg4
F7.0
sg5
F7.0
sg6
F-6.0
sb(dp1351
I00
F-7.416884369999995
sI01
I-73
ss(i__main__
State
p1352
(dp1353
g3
F-6.0
sg4
F0.0
sg5
F6.0
sg6
F4.0
sb(dp1354
I00
I-97
sI01
F20.59
ss(i__main__
State
p1355
(dp1356
g3
F4.0
sg4
F4.0
sg5
F-4.0
sg6
F0.0
sb(dp1357
I00
F12.516
sI01
F80.07390000000001
ss(i__main__
State
p1358
(dp1359
g3
F-4.0
sg4
F6.0
sg5
F4.0
sg6
F6.0
sb(dp1360
I00
F74.27534638
sI01
F21.0
ss(i__main__
State
p1361
(dp1362
g3
F-7.0
sg4
F9.0
sg5
F7.0
sg6
F6.0
sb(dp1363
I00
F24.9
sI01
F0.0
ss(i__main__
State
p1364
(dp1365
g3
F-6.0
sg4
F9.0
sg5
F6.0
sg6
F4.0
sb(dp1366
I00
F20.1
sI01
F0.0
ss(i__main__
State
p1367
(dp1368
g3
F4.0
sg4
F3.0
sg5
F-4.0
sg6
F-4.0
sb(dp1369
I00
I-73
sI01
F56.8
ss(i__main__
State
p1370
(dp1371
g3
F-3.0
sg4
F1.0
sg5
F3.0
sg6
F2.0
sb(dp1372
I00
F-3.4063039999999996
sI01
I-15
ss(i__main__
State
p1373
(dp1374
g3
F-3.0
sg4
F10.0
sg5
F3.0
sg6
F-6.0
sb(dp1375
I00
F66.673837
sI01
F0.0
ss(i__main__
State
p1376
(dp1377
g3
F-8.0
sg4
F4.0
sg5
F8.0
sg6
F8.0
sb(dp1378
I00
I-23
sI01
F68.33
ss(i__main__
State
p1379
(dp1380
g3
F8.0
sg4
F0.0
sg5
F-8.0
sg6
F-6.0
sb(dp1381
I00
F-10.5
sI01
F33.461243900999996
ss(i__main__
State
p1382
(dp1383
g3
F4.0
sg4
F2.0
sg5
F-4.0
sg6
F4.0
sb(dp1384
I00
F-78.0
sI01
I-99
ss(i__main__
State
p1385
(dp1386
g3
F-3.0
sg4
F10.0
sg5
F3.0
sg6
F8.0
sb(dp1387
I00
F60.104382
sI01
F0.0
ss(i__main__
State
p1388
(dp1389
g3
F7.0
sg4
F0.0
sg5
F-7.0
sg6
F4.0
sb(dp1390
I00
I-75
sI01
F39.86679
ss(i__main__
State
p1391
(dp1392
g3
F0.0
sg4
F5.0
sg5
F0.0
sg6
F6.0
sb(dp1393
I00
F-26.0
sI01
F52.222109999999994
ss(i__main__
State
p1394
(dp1395
g3
F1.0
sg4
F1.0
sg5
F-1.0
sg6
F-8.0
sb(dp1396
I00
F-71.335105
sI01
F-17.124012429999997
ss(i__main__
State
p1397
(dp1398
g3
F3.0
sg4
F0.0
sg5
F-3.0
sg6
F8.0
sb(dp1399
I00
F72.29
sI01
I-69
ss(i__main__
State
p1400
(dp1401
g3
F7.0
sg4
F8.0
sg5
F-7.0
sg6
F6.0
sb(dp1402
I00
F71.398528
sI01
F24.774723200000004
ss(i__main__
State
p1403
(dp1404
g3
F-7.0
sg4
F5.0
sg5
F7.0
sg6
F-2.0
sb(dp1405
I00
F16.54636304
sI01
F0.27000000000000135
ss(i__main__
State
p1406
(dp1407
g3
F-2.0
sg4
F7.0
sg5
F2.0
sg6
F-4.0
sb(dp1408
I00
F30.680923160000003
sI01
I-23
ss(i__main__
State
p1409
(dp1410
g3
F-8.0
sg4
F5.0
sg5
F8.0
sg6
F-2.0
sb(dp1411
I00
F60.34085
sI01
F37.06
ss(i__main__
State
p1412
(dp1413
g3
F7.0
sg4
F6.0
sg5
F-7.0
sg6
F-2.0
sb(dp1414
I00
F65.3514
sI01
I-60
ss(i__main__
State
p1415
(dp1416
g3
F5.0
sg4
F3.0
sg5
F-5.0
sg6
F-4.0
sb(dp1417
I00
F23.4311
sI01
F-44.06
ss(i__main__
State
p1418
(dp1419
g3
F0.0
sg4
F1.0
sg5
F0.0
sg6
F-2.0
sb(dp1420
I00
F-34.4
sI01
I-22
ss(i__main__
State
p1421
(dp1422
g3
F-1.0
sg4
F6.0
sg5
F1.0
sg6
F2.0
sb(dp1423
I00
I26
sI01
F89.57
ss(i__main__
State
p1424
(dp1425
g3
F0.0
sg4
F4.0
sg5
F0.0
sg6
F-2.0
sb(dp1426
I00
I-6
sI01
F20.807000000000002
ss(i__main__
State
p1427
(dp1428
g3
F-1.0
sg4
F0.0
sg5
F1.0
sg6
F4.0
sb(dp1429
I00
F-12.8
sI01
I-29
ss(i__main__
State
p1430
(dp1431
g3
F-2.0
sg4
F4.0
sg5
F2.0
sg6
F-6.0
sb(dp1432
I00
F-76.8
sI01
F15.7
ss(i__main__
State
p1433
(dp1434
g3
F1.0
sg4
F0.0
sg5
F-1.0
sg6
F-6.0
sb(dp1435
I00
F35.958000000000006
sI01
I19
ss(i__main__
State
p1436
(dp1437
g3
F-2.0
sg4
F6.0
sg5
F2.0
sg6
F2.0
sb(dp1438
I00
F58.43604
sI01
I53
ss(i__main__
State
p1439
(dp1440
g3
F1.0
sg4
F6.0
sg5
F-1.0
sg6
F-4.0
sb(dp1441
I00
F77.3
sI01
I61
ss(i__main__
State
p1442
(dp1443
g3
F-7.0
sg4
F4.0
sg5
F7.0
sg6
F8.0
sb(dp1444
I00
F30.5
sI01
I63
ss(i__main__
State
p1445
(dp1446
g3
F5.0
sg4
F4.0
sg5
F-5.0
sg6
F2.0
sb(dp1447
I00
I43
sI01
F32.9918
ss(i__main__
State
p1448
(dp1449
g3
F4.0
sg4
F2.0
sg5
F-4.0
sg6
F-2.0
sb(dp1450
I00
F-24.6
sI01
I-89
ss(i__main__
State
p1451
(dp1452
g3
F0.0
sg4
F6.0
sg5
F0.0
sg6
F4.0
sb(dp1453
I00
F-70.58
sI01
F38.460464540000004
ss(i__main__
State
p1454
(dp1455
g3
F3.0
sg4
F9.0
sg5
F-3.0
sg6
F0.0
sb(dp1456
I00
F-1000.0
sI01
F-1897.1
ss(i__main__
State
p1457
(dp1458
g3
F7.0
sg4
F1.0
sg5
F-7.0
sg6
F6.0
sb(dp1459
I00
F51.5
sI01
I60
ss(i__main__
State
p1460
(dp1461
g3
F-5.0
sg4
F10.0
sg5
F5.0
sg6
F-2.0
sb(dp1462
I00
F67.264284
sI01
F0.0
ss(i__main__
State
p1463
(dp1464
g3
F-1.0
sg4
F2.0
sg5
F1.0
sg6
F-8.0
sb(dp1465
I00
F44.15370558622
sI01
F11.500000000000002
ss(i__main__
State
p1466
(dp1467
g3
F1.0
sg4
F9.0
sg5
F-1.0
sg6
F-6.0
sb(dp1468
I00
F57.4298216
sI01
F0.0
ss(i__main__
State
p1469
(dp1470
g3
F-5.0
sg4
F5.0
sg5
F5.0
sg6
F8.0
sb(dp1471
I00
F63.1
sI01
I-13
ss(i__main__
State
p1472
(dp1473
g3
F-7.0
sg4
F8.0
sg5
F7.0
sg6
F2.0
sb(dp1474
I00
F30.0
sI01
F0.0
ss(i__main__
State
p1475
(dp1476
g3
F-5.0
sg4
F9.0
sg5
F5.0
sg6
F-6.0
sb(dp1477
I00
F22.691000000000003
sI01
F0.0
ss(i__main__
State
p1478
(dp1479
g3
F0.0
sg4
F10.0
sg5
F0.0
sg6
F-8.0
sb(dp1480
I00
F-1000.0
sI01
F-1001.6
ss(i__main__
State
p1481
(dp1482
g3
F0.0
sg4
F7.0
sg5
F0.0
sg6
F-4.0
sb(dp1483
I00
F28.28
sI01
I30
ss(i__main__
State
p1484
(dp1485
g3
F7.0
sg4
F2.0
sg5
F-7.0
sg6
F8.0
sb(dp1486
I00
F-53.9
sI01
F84.73682954136001
ss(i__main__
State
p1487
(dp1488
g3
F5.0
sg4
F9.0
sg5
F-5.0
sg6
F6.0
sb(dp1489
I00
F20.0
sI01
F0.0
ss(i__main__
State
p1490
(dp1491
g3
F-2.0
sg4
F8.0
sg5
F2.0
sg6
F-2.0
sb(dp1492
I00
F30.0
sI01
F0.0
ss(i__main__
State
p1493
(dp1494
g3
F3.0
sg4
F6.0
sg5
F-3.0
sg6
F-8.0
sb(dp1495
I00
I98
sI01
F95.4
ss(i__main__
State
p1496
(dp1497
g3
F-2.0
sg4
F3.0
sg5
F2.0
sg6
F6.0
sb(dp1498
I00
F-10.240170569999998
sI01
F23.164898351247
ss(i__main__
State
p1499
(dp1500
g3
F4.0
sg4
F6.0
sg5
F-4.0
sg6
F-2.0
sb(dp1501
I00
F-70.9
sI01
F-48.9004
ss(i__main__
State
p1502
(dp1503
g3
F6.0
sg4
F3.0
sg5
F-6.0
sg6
F-2.0
sb(dp1504
I00
F59.1
sI01
F-42.035
ss(i__main__
State
p1505
(dp1506
g3
F-4.0
sg4
F8.0
sg5
F4.0
sg6
F-8.0
sb(dp1507
I00
F20.1
sI01
F0.0
ss(i__main__
State
p1508
(dp1509
g3
F5.0
sg4
F1.0
sg5
F-5.0
sg6
F-6.0
sb(dp1510
I00
F-76.3
sI01
F53.9
ss(i__main__
State
p1511
(dp1512
g3
F0.0
sg4
F10.0
sg5
F0.0
sg6
F8.0
sb(dp1513
I00
F-1000.0
sI01
F-1890.3315000000002
ss(i__main__
State
p1514
(dp1515
g3
F3.0
sg4
F5.0
sg5
F-3.0
sg6
F4.0
sb(dp1516
I00
F6.222900000000001
sI01
F-62.2
ss(i__main__
State
p1517
(dp1518
g3
F1.0
sg4
F2.0
sg5
F-1.0
sg6
F2.0
sb(dp1519
I00
I-49
sI01
F30.4
ss(i__main__
State
p1520
(dp1521
g3
F-7.0
sg4
F0.0
sg5
F7.0
sg6
F6.0
sb(dp1522
I00
F15.622
sI01
F22.86611
ss(i__main__
State
p1523
(dp1524
g3
F7.0
sg4
F2.0
sg5
F-7.0
sg6
F-6.0
sb(dp1525
I00
F-84.7
sI01
F20.486269999999998
ss(i__main__
State
p1526
(dp1527
g3
F3.0
sg4
F9.0
sg5
F-3.0
sg6
F8.0
sb(dp1528
I00
F32.032427
sI01
F12.409200000000002
ss(i__main__
State
p1529
(dp1530
g3
F4.0
sg4
F10.0
sg5
F-4.0
sg6
F2.0
sb(dp1531
I00
F20.18
sI01
F0.0
ss(i__main__
State
p1532
(dp1533
g3
F8.0
sg4
F1.0
sg5
F-8.0
sg6
F4.0
sb(dp1534
I00
F-49.7
sI01
F73.5
ss(i__main__
State
p1535
(dp1536
g3
F3.0
sg4
F5.0
sg5
F-3.0
sg6
F-8.0
sb(dp1537
I00
I-90
sI01
F40.13315546769999
ss(i__main__
State
p1538
(dp1539
g3
F2.0
sg4
F6.0
sg5
F-2.0
sg6
F-8.0
sb(dp1540
I00
I4
sI01
F-59.8
ss(i__main__
State
p1541
(dp1542
g3
F3.0
sg4
F4.0
sg5
F-3.0
sg6
F-4.0
sb(dp1543
I00
F70.198
sI01
I42
ss(i__main__
State
p1544
(dp1545
g3
F5.0
sg4
F9.0
sg5
F-5.0
sg6
F-8.0
sb(dp1546
I00
F10.0
sI01
F10.0
ss(i__main__
State
p1547
(dp1548
g3
F-2.0
sg4
F4.0
sg5
F2.0
sg6
F0.0
sb(dp1549
I00
I-43
sI01
F-19.299999999999997
ss(i__main__
State
p1550
(dp1551
g3
F7.0
sg4
F4.0
sg5
F-7.0
sg6
F-2.0
sb(dp1552
I00
F-25.5142944
sI01
I-58
ss(i__main__
State
p1553
(dp1554
g3
F2.0
sg4
F9.0
sg5
F-2.0
sg6
F-4.0
sb(dp1555
I00
F4.349331999999998
sI01
F0.0
ss(i__main__
State
p1556
(dp1557
g3
F-8.0
sg4
F9.0
sg5
F8.0
sg6
F-2.0
sb(dp1558
I00
F19.0
sI01
F0.0
ss(i__main__
State
p1559
(dp1560
g3
F2.0
sg4
F7.0
sg5
F-2.0
sg6
F-8.0
sb(dp1561
I00
F-25.273000000000003
sI01
I-72
ss(i__main__
State
p1562
(dp1563
g3
F7.0
sg4
F2.0
sg5
F-7.0
sg6
F0.0
sb(dp1564
I00
F-0.8071174100000009
sI01
F-45.593
ss(i__main__
State
p1565
(dp1566
g3
F-7.0
sg4
F9.0
sg5
F7.0
sg6
F-2.0
sb(dp1567
I00
F-72.9
sI01
F22.180000000000003
ss(i__main__
State
p1568
(dp1569
g3
F4.0
sg4
F0.0
sg5
F-4.0
sg6
F-8.0
sb(dp1570
I00
F-54.5
sI01
F72.38
ss(i__main__
State
p1571
(dp1572
g3
F1.0
sg4
F10.0
sg5
F-1.0
sg6
F2.0
sb(dp1573
I00
F19.0
sI01
F0.0
ss(i__main__
State
p1574
(dp1575
g3
F8.0
sg4
F9.0
sg5
F-8.0
sg6
F2.0
sb(dp1576
I00
F20.0
sI01
F0.0
ss(i__main__
State
p1577
(dp1578
g3
F-4.0
sg4
F0.0
sg5
F4.0
sg6
F4.0
sb(dp1579
I00
F88.3
sI01
I75
ss(i__main__
State
p1580
(dp1581
g3
F-4.0
sg4
F3.0
sg5
F4.0
sg6
F6.0
sb(dp1582
I00
I-64
sI01
F83.72
ss(i__main__
State
p1583
(dp1584
g3
F5.0
sg4
F8.0
sg5
F-5.0
sg6
F-8.0
sb(dp1585
I00
F60.81124
sI01
F11.0
ss(i__main__
State
p1586
(dp1587
g3
F-1.0
sg4
F10.0
sg5
F1.0
sg6
F-4.0
sb(dp1588
I00
F10.0
sI01
F10.700000000000001
ss(i__main__
State
p1589
(dp1590
g3
F0.0
sg4
F10.0
sg5
F0.0
sg6
F0.0
sb(dp1591
I00
F-2707.15518
sI01
F-3420.1422078
ss(i__main__
State
p1592
(dp1593
g3
F2.0
sg4
F9.0
sg5
F-2.0
sg6
F6.0
sb(dp1594
I00
F119.65386790000001
sI01
F10.0
ss(i__main__
State
p1595
(dp1596
g3
F7.0
sg4
F1.0
sg5
F-7.0
sg6
F-2.0
sb(dp1597
I00
F-1.65198
sI01
I-46
ss(i__main__
State
p1598
(dp1599
g3
F3.0
sg4
F9.0
sg5
F-3.0
sg6
F-4.0
sb(dp1600
I00
F20.9
sI01
F0.0
ss(i__main__
State
p1601
(dp1602
g3
F-5.0
sg4
F0.0
sg5
F5.0
sg6
F2.0
sb(dp1603
I00
F48.8
sI01
I13
ss(i__main__
State
p1604
(dp1605
g3
F-7.0
sg4
F9.0
sg5
F7.0
sg6
F2.0
sb(dp1606
I00
F20.1
sI01
F0.0
ss(i__main__
State
p1607
(dp1608
g3
F2.0
sg4
F5.0
sg5
F-2.0
sg6
F2.0
sb(dp1609
I00
I-67
sI01
F1.0100000000000007
ss(i__main__
State
p1610
(dp1611
g3
F-6.0
sg4
F8.0
sg5
F6.0
sg6
F0.0
sb(dp1612
I00
F30.0
sI01
F11.0
ss(i__main__
State
p1613
(dp1614
g3
F3.0
sg4
F3.0
sg5
F-3.0
sg6
F-4.0
sb(dp1615
I00
I20
sI01
F38.4
ss(i__main__
State
p1616
(dp1617
g3
F5.0
sg4
F3.0
sg5
F-5.0
sg6
F0.0
sb(dp1618
I00
F-64.5
sI01
F-19.9
ss(i__main__
State
p1619
(dp1620
g3
F5.0
sg4
F5.0
sg5
F-5.0
sg6
F4.0
sb(dp1621
I00
F-7.346999999999999
sI01
I-49
ss(i__main__
State
p1622
(dp1623
g3
F-6.0
sg4
F5.0
sg5
F6.0
sg6
F-8.0
sb(dp1624
I00
F-66.0
sI01
I-85
ss(i__main__
State
p1625
(dp1626
g3
F2.0
sg4
F2.0
sg5
F-2.0
sg6
F-4.0
sb(dp1627
I00
F23.74761
sI01
I-91
ss(i__main__
State
p1628
(dp1629
g3
F4.0
sg4
F4.0
sg5
F-4.0
sg6
F6.0
sb(dp1630
I00
F-33.7408222
sI01
F-43.42
ss(i__main__
State
p1631
(dp1632
g3
F-6.0
sg4
F9.0
sg5
F6.0
sg6
F0.0
sb(dp1633
I00
F-1000.0
sI01
F-1899.0
ss(i__main__
State
p1634
(dp1635
g3
F0.0
sg4
F0.0
sg5
F0.0
sg6
F-6.0
sb(dp1636
I00
I-81
sI01
F12.295503704520003
ss(i__main__
State
p1637
(dp1638
g3
F-3.0
sg4
F10.0
sg5
F3.0
sg6
F-4.0
sb(dp1639
I00
F30.0
sI01
F0.0
ss(i__main__
State
p1640
(dp1641
g3
F6.0
sg4
F4.0
sg5
F-6.0
sg6
F-2.0
sb(dp1642
I00
F75.11
sI01
F71.803
ss(i__main__
State
p1643
(dp1644
g3
F8.0
sg4
F5.0
sg5
F-8.0
sg6
F6.0
sb(dp1645
I00
F-35.2
sI01
F57.15305607999999
ss(i__main__
State
p1646
(dp1647
g3
F2.0
sg4
F2.0
sg5
F-2.0
sg6
F-8.0
sb(dp1648
I00
F67.24
sI01
I-69
ss(i__main__
State
p1649
(dp1650
g3
F1.0
sg4
F0.0
sg5
F-1.0
sg6
F0.0
sb(dp1651
I00
I54
sI01
F10.897896924
ss(i__main__
State
p1652
(dp1653
g3
F-3.0
sg4
F4.0
sg5
F3.0
sg6
F-4.0
sb(dp1654
I00
I-23
sI01
F8.71
ss(i__main__
State
p1655
(dp1656
g3
F-4.0
sg4
F1.0
sg5
F4.0
sg6
F6.0
sb(dp1657
I00
F81.3
sI01
F84.8744
ss(i__main__
State
p1658
(dp1659
g3
F8.0
sg4
F6.0
sg5
F-8.0
sg6
F-6.0
sb(dp1660
I00
I37
sI01
F68.45286075499999
ss(i__main__
State
p1661
(dp1662
g3
F-2.0
sg4
F3.0
sg5
F2.0
sg6
F-4.0
sb(dp1663
I00
I-49
sI01
F-14.04
ss(i__main__
State
p1664
(dp1665
g3
F-1.0
sg4
F7.0
sg5
F1.0
sg6
F-8.0
sb(dp1666
I00
I-24
sI01
F-6.199799999999998
ss(i__main__
State
p1667
(dp1668
g3
F0.0
sg4
F1.0
sg5
F0.0
sg6
F4.0
sb(dp1669
I00
I-9
sI01
F28.570000000000004
ss(i__main__
State
p1670
(dp1671
g3
F-2.0
sg4
F2.0
sg5
F2.0
sg6
F8.0
sb(dp1672
I00
F89.79
sI01
I66
ss(i__main__
State
p1673
(dp1674
g3
F-5.0
sg4
F3.0
sg5
F5.0
sg6
F-2.0
sb(dp1675
I00
F60.952222742800004
sI01
F18.91536
ss(i__main__
State
p1676
(dp1677
g3
F8.0
sg4
F10.0
sg5
F-8.0
sg6
F0.0
sb(dp1678
I00
F10.0
sI01
F0.0
ss(i__main__
State
p1679
(dp1680
g3
F5.0
sg4
F7.0
sg5
F-5.0
sg6
F8.0
sb(dp1681
I00
F-41.30754438307552
sI01
F-36.30039
ss(i__main__
State
p1682
(dp1683
g3
F-8.0
sg4
F7.0
sg5
F8.0
sg6
F0.0
sb(dp1684
I00
F-5.672745599999999
sI01
I-68
ss(i__main__
State
p1685
(dp1686
g3
F-1.0
sg4
F10.0
sg5
F1.0
sg6
F0.0
sb(dp1687
I00
F35.8622
sI01
F17.25778
ss(i__main__
State
p1688
(dp1689
g3
F6.0
sg4
F8.0
sg5
F-6.0
sg6
F8.0
sb(dp1690
I00
F70.158155
sI01
F11.0
ss(i__main__
State
p1691
(dp1692
g3
F8.0
sg4
F2.0
sg5
F-8.0
sg6
F0.0
sb(dp1693
I00
F-44.80869517
sI01
F-78.1
ss(i__main__
State
p1694
(dp1695
g3
F-4.0
sg4
F10.0
sg5
F4.0
sg6
F8.0
sb(dp1696
I00
F68.429691463
sI01
F19.900000000000002
ss(i__main__
State
p1697
(dp1698
g3
F0.0
sg4
F9.0
sg5
F0.0
sg6
F-8.0
sb(dp1699
I00
F110.38569019999998
sI01
F0.0
ss(i__main__
State
p1700
(dp1701
g3
F-1.0
sg4
F5.0
sg5
F1.0
sg6
F-6.0
sb(dp1702
I00
F-55.7
sI01
F-39.842999999999996
ss(i__main__
State
p1703
(dp1704
g3
F-2.0
sg4
F0.0
sg5
F2.0
sg6
F-8.0
sb(dp1705
I00
I-11
sI01
F41.60522
ss(i__main__
State
p1706
(dp1707
g3
F-6.0
sg4
F9.0
sg5
F6.0
sg6
F8.0
sb(dp1708
I00
F88.343197
sI01
F0.0
ss(i__main__
State
p1709
(dp1710
g3
F-3.0
sg4
F8.0
sg5
F3.0
sg6
F-8.0
sb(dp1711
I00
F89.02550600000001
sI01
F35.744965
ss(i__main__
State
p1712
(dp1713
g3
F-1.0
sg4
F8.0
sg5
F1.0
sg6
F6.0
sb(dp1714
I00
F67.9620573
sI01
F21.209100000000003
ss(i__main__
State
p1715
(dp1716
g3
F-3.0
sg4
F10.0
sg5
F3.0
sg6
F-8.0
sb(dp1717
I00
F74.8162790135062
sI01
F0.0
ss(i__main__
State
p1718
(dp1719
g3
F1.0
sg4
F6.0
sg5
F-1.0
sg6
F6.0
sb(dp1720
I00
F32.2318
sI01
I-84
ss(i__main__
State
p1721
(dp1722
g3
F-1.0
sg4
F7.0
sg5
F1.0
sg6
F8.0
sb(dp1723
I00
I-71
sI01
F74.99
ss(i__main__
State
p1724
(dp1725
g3
F-3.0
sg4
F6.0
sg5
F3.0
sg6
F-2.0
sb(dp1726
I00
I92
sI01
F86.92342
ss(i__main__
State
p1727
(dp1728
g3
F-2.0
sg4
F8.0
sg5
F2.0
sg6
F2.0
sb(dp1729
I00
F10.0
sI01
F0.0
ss(i__main__
State
p1730
(dp1731
g3
F3.0
sg4
F8.0
sg5
F-3.0
sg6
F0.0
sb(dp1732
I00
F0.0
sI01
F21.9
ss(i__main__
State
p1733
(dp1734
g3
F5.0
sg4
F2.0
sg5
F-5.0
sg6
F4.0
sb(dp1735
I00
I-74
sI01
F-7.686129010000004
ss(i__main__
State
p1736
(dp1737
g3
F8.0
sg4
F10.0
sg5
F-8.0
sg6
F-8.0
sb(dp1738
I00
F42.792816900000005
sI01
F0.0
ss(i__main__
State
p1739
(dp1740
g3
F-6.0
sg4
F10.0
sg5
F6.0
sg6
F6.0
sb(dp1741
I00
F66.9191889699
sI01
F0.0
ss(i__main__
State
p1742
(dp1743
g3
F-7.0
sg4
F6.0
sg5
F7.0
sg6
F6.0
sb(dp1744
I00
F74.7
sI01
I4
ss(i__main__
State
p1745
(dp1746
g3
F-2.0
sg4
F2.0
sg5
F2.0
sg6
F0.0
sb(dp1747
I00
F-24.8
sI01
F61.1
ss(i__main__
State
p1748
(dp1749
g3
F-6.0
sg4
F0.0
sg5
F6.0
sg6
F0.0
sb(dp1750
I00
I93
sI01
F3.55
ss(i__main__
State
p1751
(dp1752
g3
F5.0
sg4
F0.0
sg5
F-5.0
sg6
F4.0
sb(dp1753
I00
I-5
sI01
F46.3
ss(i__main__
State
p1754
(dp1755
g3
F2.0
sg4
F8.0
sg5
F-2.0
sg6
F-8.0
sb(dp1756
I00
F68.80659
sI01
F12.223300000000002
ss(i__main__
State
p1757
(dp1758
g3
F5.0
sg4
F7.0
sg5
F-5.0
sg6
F0.0
sb(dp1759
I00
F-25.38
sI01
I-68
ss(i__main__
State
p1760
(dp1761
g3
F-6.0
sg4
F6.0
sg5
F6.0
sg6
F-4.0
sb(dp1762
I00
F-55.87013608
sI01
F46.4
ss(i__main__
State
p1763
(dp1764
g3
F-2.0
sg4
F3.0
sg5
F2.0
sg6
F0.0
sb(dp1765
I00
I16
sI01
F52.8
ss(i__main__
State
p1766
(dp1767
g3
F0.0
sg4
F5.0
sg5
F0.0
sg6
F-4.0
sb(dp1768
I00
F18.574564799999997
sI01
F-58.31
ss(i__main__
State
p1769
(dp1770
g3
F-3.0
sg4
F9.0
sg5
F3.0
sg6
F8.0
sb(dp1771
I00
F20.0
sI01
F0.0
ss(i__main__
State
p1772
(dp1773
g3
F-5.0
sg4
F1.0
sg5
F5.0
sg6
F-8.0
sb(dp1774
I00
F49.3311552375
sI01
F40.432
ss(i__main__
State
p1775
(dp1776
g3
F8.0
sg4
F5.0
sg5
F-8.0
sg6
F-6.0
sb(dp1777
I00
F15.590000000000002
sI01
I-92
ss(i__main__
State
p1778
(dp1779
g3
F6.0
sg4
F4.0
sg5
F-6.0
sg6
F0.0
sb(dp1780
I00
I-85
sI01
F3.6282816000000047
ss(i__main__
State
p1781
(dp1782
g3
F-3.0
sg4
F7.0
sg5
F3.0
sg6
F-2.0
sb(dp1783
I00
F54.9950114
sI01
F-4.3
ss(i__main__
State
p1784
(dp1785
g3
F3.0
sg4
F4.0
sg5
F-3.0
sg6
F-8.0
sb(dp1786
I00
F57.56501000000001
sI01
F-31.6
ss(i__main__
State
p1787
(dp1788
g3
F1.0
sg4
F2.0
sg5
F-1.0
sg6
F-2.0
sb(dp1789
I00
F-1.0685919999999993
sI01
I-35
ss(i__main__
State
p1790
(dp1791
g3
F-3.0
sg4
F4.0
sg5
F3.0
sg6
F4.0
sb(dp1792
I00
F49.1
sI01
I-51
ss(i__main__
State
p1793
(dp1794
g3
F-4.0
sg4
F6.0
sg5
F4.0
sg6
F-6.0
sb(dp1795
I00
F-27.259999999999998
sI01
I21
ss(i__main__
State
p1796
(dp1797
g3
F-6.0
sg4
F10.0
sg5
F6.0
sg6
F-4.0
sb(dp1798
I00
F10.0
sI01
F68.48864
ss(i__main__
State
p1799
(dp1800
g3
F8.0
sg4
F6.0
sg5
F-8.0
sg6
F-2.0
sb(dp1801
I00
F-32.893
sI01
I-98
ss(i__main__
State
p1802
(dp1803
g3
F-1.0
sg4
F8.0
sg5
F1.0
sg6
F-4.0
sb(dp1804
I00
F12.0
sI01
F46.153605500000005
ss(i__main__
State
p1805
(dp1806
g3
F6.0
sg4
F8.0
sg5
F-6.0
sg6
F-2.0
sb(dp1807
I00
F114.48852167
sI01
F10.0
ss(i__main__
State
p1808
(dp1809
g3
F2.0
sg4
F4.0
sg5
F-2.0
sg6
F-4.0
sb(dp1810
I00
I3
sI01
F65.3
ss(i__main__
State
p1811
(dp1812
g3
F4.0
sg4
F1.0
sg5
F-4.0
sg6
F-8.0
sb(dp1813
I00
F68.05828799999999
sI01
I-19
ss(i__main__
State
p1814
(dp1815
g3
F-6.0
sg4
F4.0
sg5
F6.0
sg6
F-2.0
sb(dp1816
I00
I-40
sI01
F63.330999999999996
ss(i__main__
State
p1817
(dp1818
g3
F7.0
sg4
F7.0
sg5
F-7.0
sg6
F-8.0
sb(dp1819
I00
I-63
sI01
F15.400213270150001
ss(i__main__
State
p1820
(dp1821
g3
F-4.0
sg4
F10.0
sg5
F4.0
sg6
F6.0
sb(dp1822
I00
F10.0
sI01
F33.729
ss(i__main__
State
p1823
(dp1824
g3
F-1.0
sg4
F6.0
sg5
F1.0
sg6
F8.0
sb(dp1825
I00
F-10.942799999999998
sI01
F-52.6
ss(i__main__
State
p1826
(dp1827
g3
F6.0
sg4
F0.0
sg5
F-6.0
sg6
F-4.0
sb(dp1828
I00
F69.551
sI01
F72.5471
ss(i__main__
State
p1829
(dp1830
g3
F-8.0
sg4
F3.0
sg5
F8.0
sg6
F6.0
sb(dp1831
I00
F-63.566
sI01
I-54
ss(i__main__
State
p1832
(dp1833
g3
F4.0
sg4
F6.0
sg5
F-4.0
sg6
F8.0
sb(dp1834
I00
F-51.4
sI01
F-16.919999999999998
ss(i__main__
State
p1835
(dp1836
g3
F-2.0
sg4
F3.0
sg5
F2.0
sg6
F8.0
sb(dp1837
I00
F74.6
sI01
I-23
ss(i__main__
State
p1838
(dp1839
g3
F-5.0
sg4
F4.0
sg5
F5.0
sg6
F-6.0
sb(dp1840
I00
F-79.35411472
sI01
F23.655517320500003
ss(i__main__
State
p1841
(dp1842
g3
F-4.0
sg4
F6.0
sg5
F4.0
sg6
F4.0
sb(dp1843
I00
F-25.749000000000002
sI01
I-49
ss(i__main__
State
p1844
(dp1845
g3
F2.0
sg4
F1.0
sg5
F-2.0
sg6
F-2.0
sb(dp1846
I00
F31.8419171605062
sI01
F-43.30329518731
ss(i__main__
State
p1847
(dp1848
g3
F-7.0
sg4
F6.0
sg5
F7.0
sg6
F2.0
sb(dp1849
I00
F67.89999999999999
sI01
I64
ss(i__main__
State
p1850
(dp1851
g3
F-4.0
sg4
F7.0
sg5
F4.0
sg6
F8.0
sb(dp1852
I00
I-66
sI01
F75.08
ss(i__main__
State
p1853
(dp1854
g3
F-6.0
sg4
F4.0
sg5
F6.0
sg6
F8.0
sb(dp1855
I00
F78.4
sI01
I79
ss(i__main__
State
p1856
(dp1857
g3
F-7.0
sg4
F2.0
sg5
F7.0
sg6
F-8.0
sb(dp1858
I00
I-5
sI01
F51.4
ss(i__main__
State
p1859
(dp1860
g3
F4.0
sg4
F9.0
sg5
F-4.0
sg6
F-6.0
sb(dp1861
I00
F20.0
sI01
F0.0
ss(i__main__
State
p1862
(dp1863
g3
F-6.0
sg4
F9.0
sg5
F6.0
sg6
F-8.0
sb(dp1864
I00
F10.0
sI01
F51.76175080000001
ss(i__main__
State
p1865
(dp1866
g3
F5.0
sg4
F0.0
sg5
F-5.0
sg6
F-6.0
sb(dp1867
I00
I-62
sI01
F61.59
ss(i__main__
State
p1868
(dp1869
g3
F-4.0
sg4
F1.0
sg5
F4.0
sg6
F8.0
sb(dp1870
I00
F19.394364401999997
sI01
I-67
ss(i__main__
State
p1871
(dp1872
g3
F3.0
sg4
F3.0
sg5
F-3.0
sg6
F-6.0
sb(dp1873
I00
F49.1
sI01
I-83
ss(i__main__
State
p1874
(dp1875
g3
F0.0
sg4
F2.0
sg5
F0.0
sg6
F2.0
sb(dp1876
I00
F16.90379197292578
sI01
F15.742759366529997
ss(i__main__
State
p1877
(dp1878
g3
F4.0
sg4
F10.0
sg5
F-4.0
sg6
F-4.0
sb(dp1879
I00
F30.0
sI01
F11.4
ss(i__main__
State
p1880
(dp1881
g3
F7.0
sg4
F0.0
sg5
F-7.0
sg6
F2.0
sb(dp1882
I00
I-89
sI01
F28.2
ss(i__main__
State
p1883
(dp1884
g3
F3.0
sg4
F1.0
sg5
F-3.0
sg6
F2.0
sb(dp1885
I00
F-73.420145
sI01
F-10.655518961079999
ss(i__main__
State
p1886
(dp1887
g3
F-7.0
sg4
F5.0
sg5
F7.0
sg6
F-4.0
sb(dp1888
I00
F52.263575
sI01
F20.4
ss(i__main__
State
p1889
(dp1890
g3
F1.0
sg4
F5.0
sg5
F-1.0
sg6
F-4.0
sb(dp1891
I00
F54.1769168
sI01
F-53.07
ss(i__main__
State
p1892
(dp1893
g3
F6.0
sg4
F1.0
sg5
F-6.0
sg6
F-8.0
sb(dp1894
I00
F-50.3
sI01
I10
ss(i__main__
State
p1895
(dp1896
g3
F-4.0
sg4
F9.0
sg5
F4.0
sg6
F-2.0
sb(dp1897
I00
F10.0
sI01
F0.0
ss(i__main__
State
p1898
(dp1899
g3
F-7.0
sg4
F0.0
sg5
F7.0
sg6
F-2.0
sb(dp1900
I00
F55.85518999999999
sI01
I-79
ss(i__main__
State
p1901
(dp1902
g3
F-5.0
sg4
F0.0
sg5
F5.0
sg6
F4.0
sb(dp1903
I00
F17.6
sI01
F50.94799999999999
ss(i__main__
State
p1904
(dp1905
g3
F4.0
sg4
F5.0
sg5
F-4.0
sg6
F8.0
sb(dp1906
I00
F24.375488036100002
sI01
I-40
ss(i__main__
State
p1907
(dp1908
g3
F4.0
sg4
F3.0
sg5
F-4.0
sg6
F6.0
sb(dp1909
I00
F9.7024
sI01
F22.64389088
ss(i__main__
State
p1910
(dp1911
g3
F-2.0
sg4
F0.0
sg5
F2.0
sg6
F-2.0
sb(dp1912
I00
F10.237
sI01
I-49
ss(i__main__
State
p1913
(dp1914
g3
F1.0
sg4
F1.0
sg5
F-1.0
sg6
F4.0
sb(dp1915
I00
F63.364
sI01
I-66
ss(i__main__
State
p1916
(dp1917
g3
F-6.0
sg4
F8.0
sg5
F6.0
sg6
F-6.0
sb(dp1918
I00
F20.0
sI01
F20.0
ss(i__main__
State
p1919
(dp1920
g3
F6.0
sg4
F6.0
sg5
F-6.0
sg6
F4.0
sb(dp1921
I00
F28.210970999999997
sI01
F-8.1
ss(i__main__
State
p1922
(dp1923
g3
F-3.0
sg4
F2.0
sg5
F3.0
sg6
F8.0
sb(dp1924
I00
F-8.143206999999999
sI01
I-97
ss(i__main__
State
p1925
(dp1926
g3
F6.0
sg4
F0.0
sg5
F-6.0
sg6
F6.0
sb(dp1927
I00
F22.9
sI01
I-28
ss(i__main__
State
p1928
(dp1929
g3
F1.0
sg4
F8.0
sg5
F-1.0
sg6
F2.0
sb(dp1930
I00
F-155.52000000000004
sI01
F50.6124115587408
ss(i__main__
State
p1931
(dp1932
g3
F-4.0
sg4
F10.0
sg5
F4.0
sg6
F-2.0
sb(dp1933
I00
F30.0
sI01
F0.0
ss(i__main__
State
p1934
(dp1935
g3
F-2.0
sg4
F0.0
sg5
F2.0
sg6
F0.0
sb(dp1936
I00
I1
sI01
F32.720924
ss(i__main__
State
p1937
(dp1938
g3
F3.0
sg4
F2.0
sg5
F-3.0
sg6
F-4.0
sb(dp1939
I00
F-47.309802187
sI01
I-74
ss(i__main__
State
p1940
(dp1941
g3
F0.0
sg4
F3.0
sg5
F0.0
sg6
F8.0
sb(dp1942
I00
F-50.48
sI01
I-95
ss(i__main__
State
p1943
(dp1944
g3
F1.0
sg4
F6.0
sg5
F-1.0
sg6
F-6.0
sb(dp1945
I00
F-8.136880000000001
sI01
F-69.85
ss(i__main__
State
p1946
(dp1947
g3
F8.0
sg4
F7.0
sg5
F-8.0
sg6
F8.0
sb(dp1948
I00
F-64.31236
sI01
F3.5282900214802524
ss(i__main__
State
p1949
(dp1950
g3
F4.0
sg4
F2.0
sg5
F-4.0
sg6
F-4.0
sb(dp1951
I00
F31.2
sI01
I44
ss(i__main__
State
p1952
(dp1953
g3
F-8.0
sg4
F10.0
sg5
F8.0
sg6
F8.0
sb(dp1954
I00
F21.1017
sI01
F58.3421
ss(i__main__
State
p1955
(dp1956
g3
F-2.0
sg4
F8.0
sg5
F2.0
sg6
F6.0
sb(dp1957
I00
F30.0
sI01
F0.0
ss(i__main__
State
p1958
(dp1959
g3
F8.0
sg4
F1.0
sg5
F-8.0
sg6
F-4.0
sb(dp1960
I00
F-38.5358
sI01
F-77.1
ss(i__main__
State
p1961
(dp1962
g3
F-7.0
sg4
F9.0
sg5
F7.0
sg6
F4.0
sb(dp1963
I00
F30.0201
sI01
F0.0
ss(i__main__
State
p1964
(dp1965
g3
F6.0
sg4
F3.0
sg5
F-6.0
sg6
F-8.0
sb(dp1966
I00
I-37
sI01
F59.37174107382
ss(i__main__
State
p1967
(dp1968
g3
F-6.0
sg4
F2.0
sg5
F6.0
sg6
F-6.0
sb(dp1969
I00
F-56.9
sI01
F3.976
ss(i__main__
State
p1970
(dp1971
g3
F4.0
sg4
F2.0
sg5
F-4.0
sg6
F0.0
sb(dp1972
I00
F-22.419999999999998
sI01
I-48
ss(i__main__
State
p1973
(dp1974
g3
F-5.0
sg4
F4.0
sg5
F5.0
sg6
F-2.0
sb(dp1975
I00
F1.8000000000000007
sI01
F27.61
ss(i__main__
State
p1976
(dp1977
g3
F6.0
sg4
F7.0
sg5
F-6.0
sg6
F-4.0
sb(dp1978
I00
F37.2326837
sI01
F59.92817000000001
ss(i__main__
State
p1979
(dp1980
g3
F-6.0
sg4
F1.0
sg5
F6.0
sg6
F6.0
sb(dp1981
I00
I-64
sI01
F-9.802
ss(i__main__
State
p1982
(dp1983
g3
F3.0
sg4
F4.0
sg5
F-3.0
sg6
F-6.0
sb(dp1984
I00
F84.8
sI01
I24
ss(i__main__
State
p1985
(dp1986
g3
F6.0
sg4
F5.0
sg5
F-6.0
sg6
F-8.0
sb(dp1987
I00
F88.94999999999999
sI01
I-16
ss(i__main__
State
p1988
(dp1989
g3
F6.0
sg4
F8.0
sg5
F-6.0
sg6
F-4.0
sb(dp1990
I00
F23.801000000000002
sI01
F0.0
ss(i__main__
State
p1991
(dp1992
g3
F2.0
sg4
F10.0
sg5
F-2.0
sg6
F4.0
sb(dp1993
I00
F41.9434155
sI01
F0.0
ss(i__main__
State
p1994
(dp1995
g3
F-5.0
sg4
F2.0
sg5
F5.0
sg6
F-6.0
sb(dp1996
I00
F61.518
sI01
I-22
ss(i__main__
State
p1997
(dp1998
g3
F-2.0
sg4
F2.0
sg5
F2.0
sg6
F6.0
sb(dp1999
I00
F-61.623376
sI01
F32.0304779869
ss(i__main__
State
p2000
(dp2001
g3
F-7.0
sg4
F5.0
sg5
F7.0
sg6
F-6.0
sb(dp2002
I00
F49.866
sI01
I-20
ss(i__main__
State
p2003
(dp2004
g3
F4.0
sg4
F8.0
sg5
F-4.0
sg6
F-6.0
sb(dp2005
I00
F63.03387000000001
sI01
F0.0
ss(i__main__
State
p2006
(dp2007
g3
F-1.0
sg4
F9.0
sg5
F1.0
sg6
F0.0
sb(dp2008
I00
F-4668.6459034
sI01
F-1896.231
ss(i__main__
State
p2009
(dp2010
g3
F1.0
sg4
F7.0
sg5
F-1.0
sg6
F4.0
sb(dp2011
I00
I72
sI01
F75.6
ss(i__main__
State
p2012
(dp2013
g3
F-3.0
sg4
F8.0
sg5
F3.0
sg6
F0.0
sb(dp2014
I00
F30.03488943
sI01
F13.0
ss(i__main__
State
p2015
(dp2016
g3
F-2.0
sg4
F1.0
sg5
F2.0
sg6
F-8.0
sb(dp2017
I00
F-73.762
sI01
F62.1495335241391
ss(i__main__
State
p2018
(dp2019
g3
F-5.0
sg4
F4.0
sg5
F5.0
sg6
F-4.0
sb(dp2020
I00
F75.299
sI01
F-70.3
ss(i__main__
State
p2021
(dp2022
g3
F-3.0
sg4
F0.0
sg5
F3.0
sg6
F8.0
sb(dp2023
I00
F85.8
sI01
I87
ss(i__main__
State
p2024
(dp2025
g3
F5.0
sg4
F10.0
sg5
F-5.0
sg6
F8.0
sb(dp2026
I00
F10.0
sI01
F0.0
ss(i__main__
State
p2027
(dp2028
g3
F5.0
sg4
F2.0
sg5
F-5.0
sg6
F2.0
sb(dp2029
I00
I-62
sI01
F60.260000000000005
ss(i__main__
State
p2030
(dp2031
g3
F7.0
sg4
F9.0
sg5
F-7.0
sg6
F-8.0
sb(dp2032
I00
F67.94905768122301
sI01
F11.440000000000001
ss(i__main__
State
p2033
(dp2034
g3
F8.0
sg4
F0.0
sg5
F-8.0
sg6
F4.0
sb(dp2035
I00
F53.969402825466
sI01
I-93
ss(i__main__
State
p2036
(dp2037
g3
F1.0
sg4
F5.0
sg5
F-1.0
sg6
F-6.0
sb(dp2038
I00
F21.9009466
sI01
F-43.3
ss(i__main__
State
p2039
(dp2040
g3
F3.0
sg4
F10.0
sg5
F-3.0
sg6
F-8.0
sb(dp2041
I00
F0.0
sI01
F49.231
ss(i__main__
State
p2042
(dp2043
g3
F-5.0
sg4
F2.0
sg5
F5.0
sg6
F4.0
sb(dp2044
I00
F75.7
sI01
I74
ss(i__main__
State
p2045
(dp2046
g3
F7.0
sg4
F3.0
sg5
F-7.0
sg6
F-8.0
sb(dp2047
I00
F27.2966
sI01
F8.2
ss(i__main__
State
p2048
(dp2049
g3
F5.0
sg4
F2.0
sg5
F-5.0
sg6
F-6.0
sb(dp2050
I00
I-86
sI01
F-63.9
ss(i__main__
State
p2051
(dp2052
g3
F-5.0
sg4
F1.0
sg5
F5.0
sg6
F8.0
sb(dp2053
I00
F55.2
sI01
F-73.2
ss(i__main__
State
p2054
(dp2055
g3
F-3.0
sg4
F8.0
sg5
F3.0
sg6
F-2.0
sb(dp2056
I00
F20.0
sI01
F0.0
ss(i__main__
State
p2057
(dp2058
g3
F-1.0
sg4
F2.0
sg5
F1.0
sg6
F2.0
sb(dp2059
I00
I48
sI01
F63.573702999999995
ss(i__main__
State
p2060
(dp2061
g3
F-2.0
sg4
F9.0
sg5
F2.0
sg6
F4.0
sb(dp2062
I00
F20.0
sI01
F0.0
ss(i__main__
State
p2063
(dp2064
g3
F-3.0
sg4
F1.0
sg5
F3.0
sg6
F-8.0
sb(dp2065
I00
I-44
sI01
F21.51
ss(i__main__
State
p2066
(dp2067
g3
F3.0
sg4
F8.0
sg5
F-3.0
sg6
F6.0
sb(dp2068
I00
F0.0
sI01
F10.0
ss(i__main__
State
p2069
(dp2070
g3
F7.0
sg4
F0.0
sg5
F-7.0
sg6
F0.0
sb(dp2071
I00
F-5.9
sI01
I-37
ss(i__main__
State
p2072
(dp2073
g3
F5.0
sg4
F5.0
sg5
F-5.0
sg6
F0.0
sb(dp2074
I00
I-33
sI01
F64.367
ss(i__main__
State
p2075
(dp2076
g3
F3.0
sg4
F10.0
sg5
F-3.0
sg6
F4.0
sb(dp2077
I00
F0.0
sI01
F22.160553
ss(i__main__
State
p2078
(dp2079
g3
F4.0
sg4
F3.0
sg5
F-4.0
sg6
F0.0
sb(dp2080
I00
I-54
sI01
F9.0
ss(i__main__
State
p2081
(dp2082
g3
F-5.0
sg4
F9.0
sg5
F5.0
sg6
F-2.0
sb(dp2083
I00
F-72.9
sI01
F17.6287024
ss(i__main__
State
p2084
(dp2085
g3
F0.0
sg4
F5.0
sg5
F0.0
sg6
F0.0
sb(dp2086
I00
I32
sI01
F96.31
ss(i__main__
State
p2087
(dp2088
g3
F-8.0
sg4
F5.0
sg5
F8.0
sg6
F-6.0
sb(dp2089
I00
I-25
sI01
F-9.4
ss(i__main__
State
p2090
(dp2091
g3
F-1.0
sg4
F9.0
sg5
F1.0
sg6
F8.0
sb(dp2092
I00
F60.4861
sI01
F0.0
ss(i__main__
State
p2093
(dp2094
g3
F-4.0
sg4
F9.0
sg5
F4.0
sg6
F0.0
sb(dp2095
I00
F-1899.0
sI01
F-998.0
ss(i__main__
State
p2096
(dp2097
g3
F-8.0
sg4
F8.0
sg5
F8.0
sg6
F-4.0
sb(dp2098
I00
F24.972
sI01
F21.8
ss(i__main__
State
p2099
(dp2100
g3
F-7.0
sg4
F6.0
sg5
F7.0
sg6
F0.0
sb(dp2101
I00
I-48
sI01
F75.281
ss(i__main__
State
p2102
(dp2103
g3
F1.0
sg4
F5.0
sg5
F-1.0
sg6
F-8.0
sb(dp2104
I00
I43
sI01
F82.6
ss(i__main__
State
p2105
(dp2106
g3
F7.0
sg4
F3.0
sg5
F-7.0
sg6
F2.0
sb(dp2107
I00
I-75
sI01
F-58.15
ss(i__main__
State
p2108
(dp2109
g3
F-4.0
sg4
F3.0
sg5
F4.0
sg6
F0.0
sb(dp2110
I00
F74.98711944
sI01
I-54
ss(i__main__
State
p2111
(dp2112
g3
F5.0
sg4
F1.0
sg5
F-5.0
sg6
F-2.0
sb(dp2113
I00
F49.6426778
sI01
F41.910000000000004
ss(i__main__
State
p2114
(dp2115
g3
F0.0
sg4
F3.0
sg5
F0.0
sg6
F-4.0
sb(dp2116
I00
F74.17999999999999
sI01
I-71
ss(i__main__
State
p2117
(dp2118
g3
F5.0
sg4
F9.0
sg5
F-5.0
sg6
F0.0
sb(dp2119
I00
F-998.8000000000001
sI01
F0.0
ss(i__main__
State
p2120
(dp2121
g3
F-8.0
sg4
F1.0
sg5
F8.0
sg6
F8.0
sb(dp2122
I00
I-31
sI01
F41.48695000000001
ss(i__main__
State
p2123
(dp2124
g3
F-5.0
sg4
F1.0
sg5
F5.0
sg6
F0.0
sb(dp2125
I00
F2.53378
sI01
I-63
ss(i__main__
State
p2126
(dp2127
g3
F-3.0
sg4
F4.0
sg5
F3.0
sg6
F2.0
sb(dp2128
I00
I-37
sI01
F17.5
ss(i__main__
State
p2129
(dp2130
g3
F-2.0
sg4
F2.0
sg5
F2.0
sg6
F-8.0
sb(dp2131
I00
F69.26596
sI01
F-85.5
ss(i__main__
State
p2132
(dp2133
g3
F-8.0
sg4
F3.0
sg5
F8.0
sg6
F4.0
sb(dp2134
I00
F-19.22177
sI01
F-64.7
ss(i__main__
State
p2135
(dp2136
g3
F1.0
sg4
F3.0
sg5
F-1.0
sg6
F6.0
sb(dp2137
I00
I-79
sI01
F-12.6
ss(i__main__
State
p2138
(dp2139
g3
F2.0
sg4
F6.0
sg5
F-2.0
sg6
F0.0
sb(dp2140
I00
F75.536060577
sI01
F-36.820425964
ss(i__main__
State
p2141
(dp2142
g3
F1.0
sg4
F4.0
sg5
F-1.0
sg6
F-6.0
sb(dp2143
I00
F-7.7
sI01
F79.38837164
ss(i__main__
State
p2144
(dp2145
g3
F4.0
sg4
F10.0
sg5
F-4.0
sg6
F-6.0
sb(dp2146
I00
F10.0
sI01
F0.0
ss(i__main__
State
p2147
(dp2148
g3
F6.0
sg4
F9.0
sg5
F-6.0
sg6
F0.0
sb(dp2149
I00
F-1000.0
sI01
F-1890.32959793
ss(i__main__
State
p2150
(dp2151
g3
F-5.0
sg4
F3.0
sg5
F5.0
sg6
F0.0
sb(dp2152
I00
F40.425229
sI01
I-78
ss(i__main__
State
p2153
(dp2154
g3
F6.0
sg4
F4.0
sg5
F-6.0
sg6
F6.0
sb(dp2155
I00
I-36
sI01
F5.238057026879552
ss(i__main__
State
p2156
(dp2157
g3
F7.0
sg4
F5.0
sg5
F-7.0
sg6
F8.0
sb(dp2158
I00
F97.22999999999999
sI01
I-4
ss(i__main__
State
p2159
(dp2160
g3
F-3.0
sg4
F8.0
sg5
F3.0
sg6
F-4.0
sb(dp2161
I00
F39.928
sI01
F0.0
ss(i__main__
State
p2162
(dp2163
g3
F1.0
sg4
F9.0
sg5
F-1.0
sg6
F-4.0
sb(dp2164
I00
F32.3689
sI01
F0.0
ss(i__main__
State
p2165
(dp2166
g3
F3.0
sg4
F7.0
sg5
F-3.0
sg6
F4.0
sb(dp2167
I00
I-90
sI01
F-27.069999999999997
ss(i__main__
State
p2168
(dp2169
g3
F8.0
sg4
F5.0
sg5
F-8.0
sg6
F0.0
sb(dp2170
I00
F32.3986485
sI01
I3
ss(i__main__
State
p2171
(dp2172
g3
F4.0
sg4
F5.0
sg5
F-4.0
sg6
F6.0
sb(dp2173
I00
F7.609
sI01
F-57.84
ss(i__main__
State
p2174
(dp2175
g3
F8.0
sg4
F6.0
sg5
F-8.0
sg6
F4.0
sb(dp2176
I00
I65
sI01
F74.819
ss(i__main__
State
p2177
(dp2178
g3
F-7.0
sg4
F3.0
sg5
F7.0
sg6
F-2.0
sb(dp2179
I00
F89.49212
sI01
I34
ss(i__main__
State
p2180
(dp2181
g3
F-2.0
sg4
F8.0
sg5
F2.0
sg6
F-8.0
sb(dp2182
I00
F30.0
sI01
F0.0
ss(i__main__
State
p2183
(dp2184
g3
F-1.0
sg4
F5.0
sg5
F1.0
sg6
F-2.0
sb(dp2185
I00
I-61
sI01
F-18.393111499999996
ss(i__main__
State
p2186
(dp2187
g3
F-5.0
sg4
F8.0
sg5
F5.0
sg6
F6.0
sb(dp2188
I00
F30.020000000000003
sI01
F73.601
ss(i__main__
State
p2189
(dp2190
g3
F3.0
sg4
F2.0
sg5
F-3.0
sg6
F6.0
sb(dp2191
I00
F31.5
sI01
I-84
ss(i__main__
State
p2192
(dp2193
g3
F-5.0
sg4
F3.0
sg5
F5.0
sg6
F-4.0
sb(dp2194
I00
I-87
sI01
F73.49000000000001
ss(i__main__
State
p2195
(dp2196
g3
F-4.0
sg4
F9.0
sg5
F4.0
sg6
F-8.0
sb(dp2197
I00
F20.0
sI01
F14.015
ss(i__main__
State
p2198
(dp2199
g3
F-4.0
sg4
F10.0
sg5
F4.0
sg6
F0.0
sb(dp2200
I00
F99.5967135
sI01
F15.100000000000001
ss(i__main__
State
p2201
(dp2202
g3
F-4.0
sg4
F7.0
sg5
F4.0
sg6
F-4.0
sb(dp2203
I00
F55.297999999999995
sI01
I-34
ss(i__main__
State
p2204
(dp2205
g3
F7.0
sg4
F8.0
sg5
F-7.0
sg6
F0.0
sb(dp2206
I00
F84.31251
sI01
F10.0
ss(i__main__
State
p2207
(dp2208
g3
F7.0
sg4
F2.0
sg5
F-7.0
sg6
F-2.0
sb(dp2209
I00
F-5.079999999999999
sI01
F-76.3
ss(i__main__
State
p2210
(dp2211
g3
F-6.0
sg4
F8.0
sg5
F6.0
sg6
F4.0
sb(dp2212
I00
F71.62442926
sI01
F0.0
ss(i__main__
State
p2213
(dp2214
g3
F0.0
sg4
F8.0
sg5
F0.0
sg6
F6.0
sb(dp2215
I00
F-1000.0
sI01
F-1897.1
ss(i__main__
State
p2216
(dp2217
g3
F2.0
sg4
F2.0
sg5
F-2.0
sg6
F8.0
sb(dp2218
I00
F46.4
sI01
I-31
ss(i__main__
State
p2219
(dp2220
g3
F2.0
sg4
F3.0
sg5
F-2.0
sg6
F2.0
sb(dp2221
I00
I38
sI01
F88.83000000000001
ss(i__main__
State
p2222
(dp2223
g3
F3.0
sg4
F1.0
sg5
F-3.0
sg6
F4.0
sb(dp2224
I00
F24.9079847
sI01
F-1.3
ss(i__main__
State
p2225
(dp2226
g3
F8.0
sg4
F5.0
sg5
F-8.0
sg6
F-2.0
sb(dp2227
I00
F-67.8
sI01
I-94
ss(i__main__
State
p2228
(dp2229
g3
F-4.0
sg4
F9.0
sg5
F4.0
sg6
F2.0
sb(dp2230
I00
F40.01909
sI01
F0.0
ss(i__main__
State
p2231
(dp2232
g3
F4.0
sg4
F7.0
sg5
F-4.0
sg6
F-6.0
sb(dp2233
I00
F11.7
sI01
F56.8
ss(i__main__
State
p2234
(dp2235
g3
F6.0
sg4
F4.0
sg5
F-6.0
sg6
F-6.0
sb(dp2236
I00
I-27
sI01
F-0.6000000000000001
ss(i__main__
State
p2237
(dp2238
g3
F7.0
sg4
F2.0
sg5
F-7.0
sg6
F4.0
sb(dp2239
I00
I10
sI01
F25.7
ss(i__main__
State
p2240
(dp2241
g3
F3.0
sg4
F7.0
sg5
F-3.0
sg6
F-4.0
sb(dp2242
I00
I-84
sI01
F42.5
ss(i__main__
State
p2243
(dp2244
g3
F-1.0
sg4
F9.0
sg5
F1.0
sg6
F-2.0
sb(dp2245
I00
F-542.88883578
sI01
F52.906560000000006
ss(i__main__
State
p2246
(dp2247
g3
F-8.0
sg4
F8.0
sg5
F8.0
sg6
F-8.0
sb(dp2248
I00
F22.0473
sI01
F0.0
ss(i__main__
State
p2249
(dp2250
g3
F8.0
sg4
F9.0
sg5
F-8.0
sg6
F6.0
sb(dp2251
I00
F30.0
sI01
F20.0
ss(i__main__
State
p2252
(dp2253
g3
F-8.0
sg4
F10.0
sg5
F8.0
sg6
F-2.0
sb(dp2254
I00
F10.0
sI01
F96.604002031887
ss(i__main__
State
p2255
(dp2256
g3
F-8.0
sg4
F9.0
sg5
F8.0
sg6
F8.0
sb(dp2257
I00
F87.263152
sI01
F23.09503
ss(i__main__
State
p2258
(dp2259
g3
F4.0
sg4
F8.0
sg5
F-4.0
sg6
F-4.0
sb(dp2260
I00
F51.9820134
sI01
F0.0
ss(i__main__
State
p2261
(dp2262
g3
F1.0
sg4
F2.0
sg5
F-1.0
sg6
F6.0
sb(dp2263
I00
F2.0812572133719995
sI01
F-90.07
ss(i__main__
State
p2264
(dp2265
g3
F-3.0
sg4
F5.0
sg5
F3.0
sg6
F-2.0
sb(dp2266
I00
F52.8833
sI01
I3
ss(i__main__
State
p2267
(dp2268
g3
F3.0
sg4
F6.0
sg5
F-3.0
sg6
F6.0
sb(dp2269
I00
I-92
sI01
F36.13831173999999
ss(i__main__
State
p2270
(dp2271
g3
F7.0
sg4
F5.0
sg5
F-7.0
sg6
F2.0
sb(dp2272
I00
I-84
sI01
F45.624382499999996
ss(i__main__
State
p2273
(dp2274
g3
F2.0
sg4
F1.0
sg5
F-2.0
sg6
F2.0
sb(dp2275
I00
F81.526
sI01
I66
ss(i__main__
State
p2276
(dp2277
g3
F-8.0
sg4
F6.0
sg5
F8.0
sg6
F2.0
sb(dp2278
I00
F77.85
sI01
I-48
ss(i__main__
State
p2279
(dp2280
g3
F7.0
sg4
F4.0
sg5
F-7.0
sg6
F8.0
sb(dp2281
I00
F77.10059105443199
sI01
I-82
ss(i__main__
State
p2282
(dp2283
g3
F-6.0
sg4
F5.0
sg5
F6.0
sg6
F-4.0
sb(dp2284
I00
F-46.826229999999995
sI01
F45.958760421600005
ss(i__main__
State
p2285
(dp2286
g3
F1.0
sg4
F9.0
sg5
F-1.0
sg6
F4.0
sb(dp2287
I00
F21.200000000000003
sI01
F-89.61000000000001
ss(i__main__
State
p2288
(dp2289
g3
F-4.0
sg4
F10.0
sg5
F4.0
sg6
F-8.0
sb(dp2290
I00
F62.114153
sI01
F0.0
ss(i__main__
State
p2291
(dp2292
g3
F-5.0
sg4
F10.0
sg5
F5.0
sg6
F0.0
sb(dp2293
I00
F30.0
sI01
F0.0
ss(i__main__
State
p2294
(dp2295
g3
F-7.0
sg4
F4.0
sg5
F7.0
sg6
F4.0
sb(dp2296
I00
I68
sI01
F84.771
ss(i__main__
State
p2297
(dp2298
g3
F-2.0
sg4
F9.0
sg5
F2.0
sg6
F2.0
sb(dp2299
I00
F79.9898742
sI01
F20.0
ss(i__main__
State
p2300
(dp2301
g3
F-6.0
sg4
F4.0
sg5
F6.0
sg6
F0.0
sb(dp2302
I00
F73.808786
sI01
I-16
ss(i__main__
State
p2303
(dp2304
g3
F-5.0
sg4
F8.0
sg5
F5.0
sg6
F0.0
sb(dp2305
I00
F31.71
sI01
F10.0
ss(i__main__
State
p2306
(dp2307
g3
F8.0
sg4
F6.0
sg5
F-8.0
sg6
F8.0
sb(dp2308
I00
I-80
sI01
F-13.063007482
ss(i__main__
State
p2309
(dp2310
g3
F8.0
sg4
F10.0
sg5
F-8.0
sg6
F-4.0
sb(dp2311
I00
F53.369245330000005
sI01
F0.0
ss(i__main__
State
p2312
(dp2313
g3
F-7.0
sg4
F7.0
sg5
F7.0
sg6
F6.0
sb(dp2314
I00
I-94
sI01
F-63.0
ss(i__main__
State
p2315
(dp2316
g3
F-6.0
sg4
F10.0
sg5
F6.0
sg6
F2.0
sb(dp2317
I00
F30.0
sI01
F0.0
ss(i__main__
State
p2318
(dp2319
g3
F-8.0
sg4
F9.0
sg5
F8.0
sg6
F6.0
sb(dp2320
I00
F31.701030000000003
sI01
F0.0
ss(i__main__
State
p2321
(dp2322
g3
F-8.0
sg4
F2.0
sg5
F8.0
sg6
F2.0
sb(dp2323
I00
F29.2
sI01
I-9
ss(i__main__
State
p2324
(dp2325
g3
F-1.0
sg4
F4.0
sg5
F1.0
sg6
F-8.0
sb(dp2326
I00
F60.0
sI01
I-23
ss(i__main__
State
p2327
(dp2328
g3
F1.0
sg4
F5.0
sg5
F-1.0
sg6
F8.0
sb(dp2329
I00
I-79
sI01
F37.740700000000004
ss(i__main__
State
p2330
(dp2331
g3
F0.0
sg4
F9.0
sg5
F0.0
sg6
F8.0
sb(dp2332
I00
F10.0
sI01
F84.2051839
ss(i__main__
State
p2333
(dp2334
g3
F8.0
sg4
F8.0
sg5
F-8.0
sg6
F-2.0
sb(dp2335
I00
F88.85725000000001
sI01
F0.0
ss(i__main__
State
p2336
(dp2337
g3
F-2.0
sg4
F1.0
sg5
F2.0
sg6
F-2.0
sb(dp2338
I00
I32
sI01
F27.16
ss(i__main__
State
p2339
(dp2340
g3
F-2.0
sg4
F0.0
sg5
F2.0
sg6
F6.0
sb(dp2341
I00
F15.4
sI01
I-53
ss(i__main__
State
p2342
(dp2343
g3
F8.0
sg4
F6.0
sg5
F-8.0
sg6
F0.0
sb(dp2344
I00
I-60
sI01
F28.145000000000003
ss(i__main__
State
p2345
(dp2346
g3
F-5.0
sg4
F1.0
sg5
F5.0
sg6
F-4.0
sb(dp2347
I00
F36.7
sI01
I74
ss(i__main__
State
p2348
(dp2349
g3
F1.0
sg4
F5.0
sg5
F-1.0
sg6
F0.0
sb(dp2350
I00
I-50
sI01
F-36.29
ss(i__main__
State
p2351
(dp2352
g3
F0.0
sg4
F5.0
sg5
F0.0
sg6
F4.0
sb(dp2353
I00
I29
sI01
F-23.958
ss(i__main__
State
p2354
(dp2355
g3
F1.0
sg4
F1.0
sg5
F-1.0
sg6
F-6.0
sb(dp2356
I00
F77.9
sI01
I10
ss(i__main__
State
p2357
(dp2358
g3
F1.0
sg4
F7.0
sg5
F-1.0
sg6
F-8.0
sb(dp2359
I00
F-11.955364999999999
sI01
F-63.55000000000001
ss(i__main__
State
p2360
(dp2361
g3
F-6.0
sg4
F4.0
sg5
F6.0
sg6
F-6.0
sb(dp2362
I00
I-97
sI01
F45.224999999999994
ss(i__main__
State
p2363
(dp2364
g3
F-7.0
sg4
F0.0
sg5
F7.0
sg6
F-6.0
sb(dp2365
I00
F85.96473581
sI01
I-77
ss(i__main__
State
p2366
(dp2367
g3
F-2.0
sg4
F9.0
sg5
F2.0
sg6
F8.0
sb(dp2368
I00
F59.39452997000001
sI01
F11.0
ss(i__main__
State
p2369
(dp2370
g3
F-2.0
sg4
F2.0
sg5
F2.0
sg6
F-2.0
sb(dp2371
I00
F-45.56
sI01
F33.96997262862905
ss(i__main__
State
p2372
(dp2373
g3
F7.0
sg4
F0.0
sg5
F-7.0
sg6
F8.0
sb(dp2374
I00
F44.7
sI01
I-23
ss(i__main__
State
p2375
(dp2376
g3
F2.0
sg4
F10.0
sg5
F-2.0
sg6
F-8.0
sb(dp2377
I00
F10.0
sI01
F24.092000000000006
ss(i__main__
State
p2378
(dp2379
g3
F8.0
sg4
F3.0
sg5
F-8.0
sg6
F-4.0
sb(dp2380
I00
F78.5835
sI01
F-74.066
ss(i__main__
State
p2381
(dp2382
g3
F-3.0
sg4
F10.0
sg5
F3.0
sg6
F4.0
sb(dp2383
I00
F29.8
sI01
F0.0
ss(i__main__
State
p2384
(dp2385
g3
F-1.0
sg4
F0.0
sg5
F1.0
sg6
F2.0
sb(dp2386
I00
I-1
sI01
F48.2275192
ss(i__main__
State
p2387
(dp2388
g3
F-4.0
sg4
F8.0
sg5
F4.0
sg6
F8.0
sb(dp2389
I00
F31.8
sI01
F11.438588300000001
ss(i__main__
State
p2390
(dp2391
g3
F1.0
sg4
F0.0
sg5
F-1.0
sg6
F-8.0
sb(dp2392
I00
F-17.9833
sI01
F68.32590315642632
ss(i__main__
State
p2393
(dp2394
g3
F-1.0
sg4
F10.0
sg5
F1.0
sg6
F8.0
sb(dp2395
I00
F40.4909
sI01
F0.0
ss(i__main__
State
p2396
(dp2397
g3
F-2.0
sg4
F8.0
sg5
F2.0
sg6
F-4.0
sb(dp2398
I00
F20.0
sI01
F10.0
ss(i__main__
State
p2399
(dp2400
g3
F-6.0
sg4
F10.0
sg5
F6.0
sg6
F8.0
sb(dp2401
I00
F10.0
sI01
F0.0
ss(i__main__
State
p2402
(dp2403
g3
F0.0
sg4
F6.0
sg5
F0.0
sg6
F-2.0
sb(dp2404
I00
F-70.59
sI01
I-100
ss(i__main__
State
p2405
(dp2406
g3
F3.0
sg4
F0.0
sg5
F-3.0
sg6
F0.0
sb(dp2407
I00
I-48
sI01
F-5.419999999999998
ss(i__main__
State
p2408
(dp2409
g3
F1.0
sg4
F10.0
sg5
F-1.0
sg6
F8.0
sb(dp2410
I00
F10.0
sI01
F0.0
ss(i__main__
State
p2411
(dp2412
g3
F7.0
sg4
F8.0
sg5
F-7.0
sg6
F2.0
sb(dp2413
I00
F22.902010000000004
sI01
F0.0
ss(i__main__
State
p2414
(dp2415
g3
F-2.0
sg4
F10.0
sg5
F2.0
sg6
F-2.0
sb(dp2416
I00
F0.0
sI01
F26.4942
ss(i__main__
State
p2417
(dp2418
g3
F0.0
sg4
F9.0
sg5
F0.0
sg6
F0.0
sb(dp2419
I00
F-4081.8804654000005
sI01
F-4086.1058436000003
ss(i__main__
State
p2420
(dp2421
g3
F-1.0
sg4
F7.0
sg5
F1.0
sg6
F0.0
sb(dp2422
I00
F35.348008
sI01
I-72
ss(i__main__
State
p2423
(dp2424
g3
F-1.0
sg4
F2.0
sg5
F1.0
sg6
F-6.0
sb(dp2425
I00
F50.32717699999999
sI01
F-10.1
ss(i__main__
State
p2426
(dp2427
g3
F-2.0
sg4
F4.0
sg5
F2.0
sg6
F2.0
sb(dp2428
I00
F48.6
sI01
I-91
ss(i__main__
State
p2429
(dp2430
g3
F3.0
sg4
F6.0
sg5
F-3.0
sg6
F8.0
sb(dp2431
I00
I11
sI01
F64.223
ss(i__main__
State
p2432
(dp2433
g3
F-6.0
sg4
F1.0
sg5
F6.0
sg6
F-4.0
sb(dp2434
I00
I-58
sI01
F-74.2462
ss(i__main__
State
p2435
(dp2436
g3
F7.0
sg4
F0.0
sg5
F-7.0
sg6
F-6.0
sb(dp2437
I00
F43.266
sI01
I-86
ss(i__main__
State
p2438
(dp2439
g3
F8.0
sg4
F2.0
sg5
F-8.0
sg6
F-6.0
sb(dp2440
I00
F16.223
sI01
F5.000000000000002
ss(i__main__
State
p2441
(dp2442
g3
F3.0
sg4
F5.0
sg5
F-3.0
sg6
F0.0
sb(dp2443
I00
F16.3
sI01
I-28
ss(i__main__
State
p2444
(dp2445
g3
F-5.0
sg4
F10.0
sg5
F5.0
sg6
F-8.0
sb(dp2446
I00
F75.150574468
sI01
F15.66473
ss(i__main__
State
p2447
(dp2448
g3
F0.0
sg4
F7.0
sg5
F0.0
sg6
F-2.0
sb(dp2449
I00
F50.267452
sI01
I11
ss(i__main__
State
p2450
(dp2451
g3
F5.0
sg4
F1.0
sg5
F-5.0
sg6
F-4.0
sb(dp2452
I00
I-1
sI01
F11.0
ss(i__main__
State
p2453
(dp2454
g3
F7.0
sg4
F5.0
sg5
F-7.0
sg6
F-4.0
sb(dp2455
I00
F84.0
sI01
I-33
ss(i__main__
State
p2456
(dp2457
g3
F-8.0
sg4
F2.0
sg5
F8.0
sg6
F-8.0
sb(dp2458
I00
F-69.349
sI01
F-40.99
ss(i__main__
State
p2459
(dp2460
g3
F-6.0
sg4
F7.0
sg5
F6.0
sg6
F2.0
sb(dp2461
I00
F59.8
sI01
F27.2
ss(i__main__
State
p2462
(dp2463
g3
F-3.0
sg4
F2.0
sg5
F3.0
sg6
F4.0
sb(dp2464
I00
I-62
sI01
F-9.969999999999997
ss(i__main__
State
p2465
(dp2466
g3
F-8.0
sg4
F10.0
sg5
F8.0
sg6
F-8.0
sb(dp2467
I00
F10.0
sI01
F0.0
ss(i__main__
State
p2468
(dp2469
g3
F3.0
sg4
F8.0
sg5
F-3.0
sg6
F8.0
sb(dp2470
I00
F55.290065000000006
sI01
F11.0
ss(i__main__
State
p2471
(dp2472
g3
F-7.0
sg4
F9.0
sg5
F7.0
sg6
F8.0
sb(dp2473
I00
F10.0
sI01
F0.0
ss(i__main__
State
p2474
(dp2475
g3
F-6.0
sg4
F3.0
sg5
F6.0
sg6
F-4.0
sb(dp2476
I00
F17.6
sI01
I-54
ss(i__main__
State
p2477
(dp2478
g3
F0.0
sg4
F6.0
sg5
F0.0
sg6
F6.0
sb(dp2479
I00
I-50
sI01
F68.77000000000001
ss(i__main__
State
p2480
(dp2481
g3
F-4.0
sg4
F5.0
sg5
F4.0
sg6
F2.0
sb(dp2482
I00
I-48
sI01
F-9.799999999999999
ss(i__main__
State
p2483
(dp2484
g3
F-3.0
sg4
F0.0
sg5
F3.0
sg6
F4.0
sb(dp2485
I00
F-26.299999999999997
sI01
F94.01606
ss(i__main__
State
p2486
(dp2487
g3
F0.0
sg4
F0.0
sg5
F0.0
sg6
F4.0
sb(dp2488
I00
F65.1
sI01
I-77
ss(i__main__
State
p2489
(dp2490
g3
F5.0
sg4
F0.0
sg5
F-5.0
sg6
F8.0
sb(dp2491
I00
F-37.4
sI01
F40.907000000000004
ss(i__main__
State
p2492
(dp2493
g3
F3.0
sg4
F7.0
sg5
F-3.0
sg6
F2.0
sb(dp2494
I00
I-31
sI01
F68.5761325
ss(i__main__
State
p2495
(dp2496
g3
F0.0
sg4
F6.0
sg5
F0.0
sg6
F2.0
sb(dp2497
I00
I-29
sI01
F-24.944999999999997
ss(i__main__
State
p2498
(dp2499
g3
F1.0
sg4
F7.0
sg5
F-1.0
sg6
F-6.0
sb(dp2500
I00
F-79.2
sI01
F-217.53000000000003
ss(i__main__
State
p2501
(dp2502
g3
F-5.0
sg4
F5.0
sg5
F5.0
sg6
F-6.0
sb(dp2503
I00
F-50.32924525
sI01
F-64.92999999999999
ss(i__main__
State
p2504
(dp2505
g3
F-6.0
sg4
F8.0
sg5
F6.0
sg6
F-2.0
sb(dp2506
I00
F88.89062410000001
sI01
F0.0
ss(i__main__
State
p2507
(dp2508
g3
F3.0
sg4
F1.0
sg5
F-3.0
sg6
F-6.0
sb(dp2509
I00
F-13.0
sI01
F37.384626
ss(i__main__
State
p2510
(dp2511
g3
F4.0
sg4
F4.0
sg5
F-4.0
sg6
F2.0
sb(dp2512
I00
F-1.0099999999999998
sI01
I-91
ss(i__main__
State
p2513
(dp2514
g3
F-8.0
sg4
F4.0
sg5
F8.0
sg6
F-8.0
sb(dp2515
I00
I-74
sI01
F80.85
ss(i__main__
State
p2516
(dp2517
g3
F4.0
sg4
F7.0
sg5
F-4.0
sg6
F2.0
sb(dp2518
I00
F-27.53
sI01
F-10.8
ss(i__main__
State
p2519
(dp2520
g3
F2.0
sg4
F9.0
sg5
F-2.0
sg6
F-6.0
sb(dp2521
I00
F21.261000000000003
sI01
F0.0
ss(i__main__
State
p2522
(dp2523
g3
F3.0
sg4
F6.0
sg5
F-3.0
sg6
F0.0
sb(dp2524
I00
F55.9
sI01
I-3
ss(i__main__
State
p2525
(dp2526
g3
F2.0
sg4
F7.0
sg5
F-2.0
sg6
F-6.0
sb(dp2527
I00
F70.65
sI01
F26.1
ss(i__main__
State
p2528
(dp2529
g3
F6.0
sg4
F10.0
sg5
F-6.0
sg6
F8.0
sb(dp2530
I00
F10.0
sI01
F41.109818942480985
ss(i__main__
State
p2531
(dp2532
g3
F-4.0
sg4
F0.0
sg5
F4.0
sg6
F-6.0
sb(dp2533
I00
I-35
sI01
F86.6
ss(i__main__
State
p2534
(dp2535
g3
F1.0
sg4
F10.0
sg5
F-1.0
sg6
F4.0
sb(dp2536
I00
F-619.6927249
sI01
F103.94588972425481
ss(i__main__
State
p2537
(dp2538
g3
F1.0
sg4
F2.0
sg5
F-1.0
sg6
F8.0
sb(dp2539
I00
F34.7442556
sI01
I-81
ss(i__main__
State
p2540
(dp2541
g3
F-3.0
sg4
F3.0
sg5
F3.0
sg6
F-2.0
sb(dp2542
I00
F15.014144000000002
sI01
I-19
ss(i__main__
State
p2543
(dp2544
g3
F-7.0
sg4
F1.0
sg5
F7.0
sg6
F8.0
sb(dp2545
I00
F40.66
sI01
I-70
ss(i__main__
State
p2546
(dp2547
g3
F7.0
sg4
F10.0
sg5
F-7.0
sg6
F-8.0
sb(dp2548
I00
F20.0
sI01
F0.0
ss(i__main__
State
p2549
(dp2550
g3
F2.0
sg4
F9.0
sg5
F-2.0
sg6
F4.0
sb(dp2551
I00
F29.9
sI01
F0.0
ss(i__main__
State
p2552
(dp2553
g3
F-7.0
sg4
F4.0
sg5
F7.0
sg6
F-8.0
sb(dp2554
I00
I-87
sI01
F-48.8
ss(i__main__
State
p2555
(dp2556
g3
F4.0
sg4
F7.0
sg5
F-4.0
sg6
F-4.0
sb(dp2557
I00
F81.17506
sI01
F-14.292957999999999
ss(i__main__
State
p2558
(dp2559
g3
F-5.0
sg4
F0.0
sg5
F5.0
sg6
F0.0
sb(dp2560
I00
I-93
sI01
F50.33
ss(i__main__
State
p2561
(dp2562
g3
F3.0
sg4
F7.0
sg5
F-3.0
sg6
F-6.0
sb(dp2563
I00
F22.469419410999997
sI01
F30.064068756899196
ss(i__main__
State
p2564
(dp2565
g3
F6.0
sg4
F8.0
sg5
F-6.0
sg6
F2.0
sb(dp2566
I00
F69.9654329
sI01
F22.0
ss(i__main__
State
p2567
(dp2568
g3
F-4.0
sg4
F2.0
sg5
F4.0
sg6
F-6.0
sb(dp2569
I00
I1
sI01
F55.11
ss(i__main__
State
p2570
(dp2571
g3
F-8.0
sg4
F6.0
sg5
F8.0
sg6
F-8.0
sb(dp2572
I00
F7.384099750000001
sI01
F27.595402288
ss(i__main__
State
p2573
(dp2574
g3
F6.0
sg4
F2.0
sg5
F-6.0
sg6
F-6.0
sb(dp2575
I00
I-12
sI01
F56.4998
ss(i__main__
State
p2576
(dp2577
g3
F4.0
sg4
F9.0
sg5
F-4.0
sg6
F2.0
sb(dp2578
I00
F27.8
sI01
F0.0
ss(i__main__
State
p2579
(dp2580
g3
F0.0
sg4
F0.0
sg5
F0.0
sg6
F-4.0
sb(dp2581
I00
F65.004
sI01
F47.3
ss(i__main__
State
p2582
(dp2583
g3
F1.0
sg4
F6.0
sg5
F-1.0
sg6
F8.0
sb(dp2584
I00
F-56.000182099999996
sI01
I-91
ss(i__main__
State
p2585
(dp2586
g3
F-5.0
sg4
F6.0
sg5
F5.0
sg6
F-4.0
sb(dp2587
I00
F15.76
sI01
I-26
ss(i__main__
State
p2588
(dp2589
g3
F-3.0
sg4
F3.0
sg5
F3.0
sg6
F2.0
sb(dp2590
I00
F50.7
sI01
I22
ss(i__main__
State
p2591
(dp2592
g3
F6.0
sg4
F3.0
sg5
F-6.0
sg6
F6.0
sb(dp2593
I00
I-66
sI01
F41.1
ss(i__main__
State
p2594
(dp2595
g3
F-4.0
sg4
F1.0
sg5
F4.0
sg6
F4.0
sb(dp2596
I00
I-34
sI01
F9.521548000000001
ss(i__main__
State
p2597
(dp2598
g3
F-8.0
sg4
F10.0
sg5
F8.0
sg6
F4.0
sb(dp2599
I00
F0.0
sI01
F28.690000000000005
ss(i__main__
State
p2600
(dp2601
g3
F7.0
sg4
F9.0
sg5
F-7.0
sg6
F-4.0
sb(dp2602
I00
F10.0
sI01
F0.0
ss(i__main__
State
p2603
(dp2604
g3
F8.0
sg4
F0.0
sg5
F-8.0
sg6
F0.0
sb(dp2605
I00
F5.9
sI01
F32.15789582264
ss(i__main__
State
p2606
(dp2607
g3
F-3.0
sg4
F9.0
sg5
F3.0
sg6
F2.0
sb(dp2608
I00
F10.0
sI01
F29.994
ss(i__main__
State
p2609
(dp2610
g3
F-3.0
sg4
F2.0
sg5
F3.0
sg6
F-6.0
sb(dp2611
I00
F59.844600493150004
sI01
F-62.61
ss(i__main__
State
p2612
(dp2613
g3
F5.0
sg4
F1.0
sg5
F-5.0
sg6
F0.0
sb(dp2614
I00
F54.92041900000001
sI01
F-52.2
ss(i__main__
State
p2615
(dp2616
g3
F-2.0
sg4
F8.0
sg5
F2.0
sg6
F0.0
sb(dp2617
I00
F10.0
sI01
F0.0
ss(i__main__
State
p2618
(dp2619
g3
F7.0
sg4
F3.0
sg5
F-7.0
sg6
F-4.0
sb(dp2620
I00
I9
sI01
F88.28
ss(i__main__
State
p2621
(dp2622
g3
F-8.0
sg4
F2.0
sg5
F8.0
sg6
F4.0
sb(dp2623
I00
I-36
sI01
F58.6460197
ss(i__main__
State
p2624
(dp2625
g3
F0.0
sg4
F7.0
sg5
F0.0
sg6
F0.0
sb(dp2626
I00
I5
sI01
F-9.6
ss(i__main__
State
p2627
(dp2628
g3
F0.0
sg4
F10.0
sg5
F0.0
sg6
F6.0
sb(dp2629
I00
F-3433.2968
sI01
F-2697.81311
ss(i__main__
State
p2630
(dp2631
g3
F3.0
sg4
F0.0
sg5
F-3.0
sg6
F-4.0
sb(dp2632
I00
F40.3156061552898
sI01
F64.59571093166713
ss(i__main__
State
p2633
(dp2634
g3
F7.0
sg4
F8.0
sg5
F-7.0
sg6
F4.0
sb(dp2635
I00
F30.0
sI01
F0.0
ss(i__main__
State
p2636
(dp2637
g3
F-7.0
sg4
F8.0
sg5
F7.0
sg6
F-4.0
sb(dp2638
I00
F20.0
sI01
F0.0
ss(i__main__
State
p2639
(dp2640
g3
F-6.0
sg4
F1.0
sg5
F6.0
sg6
F2.0
sb(dp2641
I00
F16.521500000000003
sI01
I-67
ss(i__main__
State
p2642
(dp2643
g3
F-5.0
sg4
F2.0
sg5
F5.0
sg6
F8.0
sb(dp2644
I00
F69.94824
sI01
I-94
ss(i__main__
State
p2645
(dp2646
g3
F7.0
sg4
F9.0
sg5
F-7.0
sg6
F8.0
sb(dp2647
I00
F30.1014
sI01
F0.0
ss(i__main__
State
p2648
(dp2649
g3
F8.0
sg4
F9.0
sg5
F-8.0
sg6
F-2.0
sb(dp2650
I00
F-155.41100000000003
sI01
F0.0
ss(i__main__
State
p2651
(dp2652
g3
F-2.0
sg4
F1.0
sg5
F2.0
sg6
F8.0
sb(dp2653
I00
F54.0
sI01
I22
ss(i__main__
State
p2654
(dp2655
g3
F0.0
sg4
F9.0
sg5
F0.0
sg6
F-2.0
sb(dp2656
I00
F-238.67210000000003
sI01
F39.68958000000001
ss(i__main__
State
p2657
(dp2658
g3
F-8.0
sg4
F0.0
sg5
F8.0
sg6
F-8.0
sb(dp2659
I00
F39.055012254
sI01
F14.5729
ss(i__main__
State
p2660
(dp2661
g3
F-2.0
sg4
F6.0
sg5
F2.0
sg6
F-8.0
sb(dp2662
I00
I27
sI01
F29.1907
ss(i__main__
State
p2663
(dp2664
g3
F-6.0
sg4
F3.0
sg5
F6.0
sg6
F4.0
sb(dp2665
I00
I6
sI01
F64.35270387999999
ss(i__main__
State
p2666
(dp2667
g3
F-5.0
sg4
F8.0
sg5
F5.0
sg6
F4.0
sb(dp2668
I00
F0.0
sI01
F41.266575942
ss(i__main__
State
p2669
(dp2670
g3
F-1.0
sg4
F8.0
sg5
F1.0
sg6
F4.0
sb(dp2671
I00
F20.0
sI01
F0.0
ss(i__main__
State
p2672
(dp2673
g3
F2.0
sg4
F8.0
sg5
F-2.0
sg6
F0.0
sb(dp2674
I00
F73.1222459
sI01
F11.238100000000001
ss(i__main__
State
p2675
(dp2676
g3
F8.0
sg4
F10.0
sg5
F-8.0
sg6
F8.0
sb(dp2677
I00
F20.0
sI01
F7.2
ss(i__main__
State
p2678
(dp2679
g3
F1.0
sg4
F0.0
sg5
F-1.0
sg6
F6.0
sb(dp2680
I00
F-84.6126
sI01
I-14
ss(i__main__
State
p2681
(dp2682
g3
F-5.0
sg4
F0.0
sg5
F5.0
sg6
F8.0
sb(dp2683
I00
F71.643
sI01
I-92
ss(i__main__
State
p2684
(dp2685
g3
F-5.0
sg4
F2.0
sg5
F5.0
sg6
F6.0
sb(dp2686
I00
F4.806900000000001
sI01
F-6.580799999999998
ss(i__main__
State
p2687
(dp2688
g3
F7.0
sg4
F3.0
sg5
F-7.0
sg6
F6.0
sb(dp2689
I00
I-94
sI01
F-69.2
ss(i__main__
State
p2690
(dp2691
g3
F-3.0
sg4
F2.0
sg5
F3.0
sg6
F0.0
sb(dp2692
I00
F89.57
sI01
F-13.83576287
ss(i__main__
State
p2693
(dp2694
g3
F2.0
sg4
F5.0
sg5
F-2.0
sg6
F8.0
sb(dp2695
I00
F-48.5
sI01
F24.9
ss(i__main__
State
p2696
(dp2697
g3
F-8.0
sg4
F8.0
sg5
F8.0
sg6
F6.0
sb(dp2698
I00
F40.0919
sI01
F12.372800000000002
ss(i__main__
State
p2699
(dp2700
g3
F0.0
sg4
F1.0
sg5
F0.0
sg6
F2.0
sb(dp2701
I00
F-51.2
sI01
F10.3621478050183
ss(i__main__
State
p2702
(dp2703
g3
F-2.0
sg4
F8.0
sg5
F2.0
sg6
F8.0
sb(dp2704
I00
F93.31063091
sI01
F47.502875673000005
ss(i__main__
State
p2705
(dp2706
g3
F3.0
sg4
F10.0
sg5
F-3.0
sg6
F-2.0
sb(dp2707
I00
F29.0
sI01
F0.0
ss(i__main__
State
p2708
(dp2709
g3
F-5.0
sg4
F2.0
sg5
F5.0
sg6
F-2.0
sb(dp2710
I00
F18.10417
sI01
F-32.1649
ss(i__main__
State
p2711
(dp2712
g3
F-8.0
sg4
F0.0
sg5
F8.0
sg6
F0.0
sb(dp2713
I00
F29.3391
sI01
F3.700000000000001
ss(i__main__
State
p2714
(dp2715
g3
F7.0
sg4
F4.0
sg5
F-7.0
sg6
F0.0
sb(dp2716
I00
F47.55
sI01
I-99
ss(i__main__
State
p2717
(dp2718
g3
F5.0
sg4
F4.0
sg5
F-5.0
sg6
F0.0
sb(dp2719
I00
I-13
sI01
F50.506
ss(i__main__
State
p2720
(dp2721
g3
F6.0
sg4
F5.0
sg5
F-6.0
sg6
F-4.0
sb(dp2722
I00
I-65
sI01
F-6.809999999999999
ss(i__main__
State
p2723
(dp2724
g3
F-6.0
sg4
F5.0
sg5
F6.0
sg6
F0.0
sb(dp2725
I00
I-10
sI01
F25.73
ss(i__main__
State
p2726
(dp2727
g3
F-1.0
sg4
F9.0
sg5
F1.0
sg6
F-8.0
sb(dp2728
I00
F10.0
sI01
F0.0
ss(i__main__
State
p2729
(dp2730
g3
F-5.0
sg4
F1.0
sg5
F5.0
sg6
F-6.0
sb(dp2731
I00
F9.5
sI01
I83
ss(i__main__
State
p2732
(dp2733
g3
F8.0
sg4
F6.0
sg5
F-8.0
sg6
F-4.0
sb(dp2734
I00
F13.3
sI01
I-54
ss(i__main__
State
p2735
(dp2736
g3
F5.0
sg4
F2.0
sg5
F-5.0
sg6
F0.0
sb(dp2737
I00
F25.84748
sI01
I-98
ss(i__main__
State
p2738
(dp2739
g3
F-8.0
sg4
F6.0
sg5
F8.0
sg6
F4.0
sb(dp2740
I00
I-19
sI01
F29.43
ss(i__main__
State
p2741
(dp2742
g3
F-1.0
sg4
F4.0
sg5
F1.0
sg6
F0.0
sb(dp2743
I00
F-29.299999999999997
sI01
I-79
ss(i__main__
State
p2744
(dp2745
g3
F8.0
sg4
F8.0
sg5
F-8.0
sg6
F2.0
sb(dp2746
I00
F21.9
sI01
F0.0
ss(i__main__
State
p2747
(dp2748
g3
F-3.0
sg4
F0.0
sg5
F3.0
sg6
F2.0
sb(dp2749
I00
F-19.2
sI01
F69.914
ss(i__main__
State
p2750
(dp2751
g3
F8.0
sg4
F5.0
sg5
F-8.0
sg6
F2.0
sb(dp2752
I00
F-31.06487
sI01
F41.63357108999999
ss(i__main__
State
p2753
(dp2754
g3
F-8.0
sg4
F2.0
sg5
F8.0
sg6
F-6.0
sb(dp2755
I00
F50.8
sI01
F16.5
ss(i__main__
State
p2756
(dp2757
g3
F-4.0
sg4
F7.0
sg5
F4.0
sg6
F-2.0
sb(dp2758
I00
F10.700000000000001
sI01
I-62
ss(i__main__
State
p2759
(dp2760
g3
F7.0
sg4
F4.0
sg5
F-7.0
sg6
F2.0
sb(dp2761
I00
F51.794
sI01
F-29.1
ss(i__main__
State
p2762
(dp2763
g3
F7.0
sg4
F8.0
sg5
F-7.0
sg6
F-2.0
sb(dp2764
I00
F39.0
sI01
F10.0
ss(i__main__
State
p2765
(dp2766
g3
F-1.0
sg4
F8.0
sg5
F1.0
sg6
F-6.0
sb(dp2767
I00
F20.9
sI01
F0.0
ss(i__main__
State
p2768
(dp2769
g3
F-6.0
sg4
F6.0
sg5
F6.0
sg6
F-2.0
sb(dp2770
I00
F98.12
sI01
F35.2
ss(i__main__
State
p2771
(dp2772
g3
F-1.0
sg4
F1.0
sg5
F1.0
sg6
F4.0
sb(dp2773
I00
F15.7
sI01
I3
ss(i__main__
State
p2774
(dp2775
g3
F6.0
sg4
F4.0
sg5
F-6.0
sg6
F8.0
sb(dp2776
I00
F70.4
sI01
I-87
ss(i__main__
State
p2777
(dp2778
g3
F-2.0
sg4
F9.0
sg5
F2.0
sg6
F-4.0
sb(dp2779
I00
F29.62
sI01
F0.0
ss(i__main__
State
p2780
(dp2781
g3
F3.0
sg4
F2.0
sg5
F-3.0
sg6
F-8.0
sb(dp2782
I00
F20.804
sI01
I27
ss(i__main__
State
p2783
(dp2784
g3
F-4.0
sg4
F10.0
sg5
F4.0
sg6
F4.0
sb(dp2785
I00
F83.974313587
sI01
F0.0
ss(i__main__
State
p2786
(dp2787
g3
F5.0
sg4
F0.0
sg5
F-5.0
sg6
F-2.0
sb(dp2788
I00
I-34
sI01
F2.636909000000001
ss(i__main__
State
p2789
(dp2790
g3
F5.0
sg4
F4.0
sg5
F-5.0
sg6
F8.0
sb(dp2791
I00
F46.2
sI01
I-8
ss(i__main__
State
p2792
(dp2793
g3
F-6.0
sg4
F5.0
sg5
F6.0
sg6
F2.0
sb(dp2794
I00
I32
sI01
F65.19958876569
ss(i__main__
State
p2795
(dp2796
g3
F-4.0
sg4
F5.0
sg5
F4.0
sg6
F-8.0
sb(dp2797
I00
F63.3
sI01
I67
ss(i__main__
State
p2798
(dp2799
g3
F8.0
sg4
F4.0
sg5
F-8.0
sg6
F6.0
sb(dp2800
I00
F30.06355
sI01
F-37.92
ss(i__main__
State
p2801
(dp2802
g3
F-7.0
sg4
F2.0
sg5
F7.0
sg6
F-2.0
sb(dp2803
I00
F31.538
sI01
F-17.8
ss(i__main__
State
p2804
(dp2805
g3
F6.0
sg4
F2.0
sg5
F-6.0
sg6
F2.0
sb(dp2806
I00
F1.307869177999997
sI01
F-83.5
ss(i__main__
State
p2807
(dp2808
g3
F2.0
sg4
F1.0
sg5
F-2.0
sg6
F-4.0
sb(dp2809
I00
F45.9
sI01
I77
ss(i__main__
State
p2810
(dp2811
g3
F-2.0
sg4
F10.0
sg5
F2.0
sg6
F-4.0
sb(dp2812
I00
F99.7281956
sI01
F16.3
ss(i__main__
State
p2813
(dp2814
g3
F-5.0
sg4
F3.0
sg5
F5.0
sg6
F2.0
sb(dp2815
I00
F48.25942111
sI01
I16
ss(i__main__
State
p2816
(dp2817
g3
F7.0
sg4
F10.0
sg5
F-7.0
sg6
F0.0
sb(dp2818
I00
F10.0
sI01
F0.0
ss(i__main__
State
p2819
(dp2820
g3
F3.0
sg4
F4.0
sg5
F-3.0
sg6
F2.0
sb(dp2821
I00
I-59
sI01
F44.376
ss(i__main__
State
p2822
(dp2823
g3
F-8.0
sg4
F4.0
sg5
F8.0
sg6
F-2.0
sb(dp2824
I00
F7.9376999999999995
sI01
I-81
ss(i__main__
State
p2825
(dp2826
g3
F-3.0
sg4
F9.0
sg5
F3.0
sg6
F-4.0
sb(dp2827
I00
F10.0
sI01
F0.0
ss(i__main__
State
p2828
(dp2829
g3
F3.0
sg4
F8.0
sg5
F-3.0
sg6
F-2.0
sb(dp2830
I00
F60.167954300000005
sI01
F10.0
ss(i__main__
State
p2831
(dp2832
g3
F-4.0
sg4
F8.0
sg5
F4.0
sg6
F4.0
sb(dp2833
I00
F63.812871
sI01
F11.497200000000001
ss(i__main__
State
p2834
(dp2835
g3
F-3.0
sg4
F3.0
sg5
F3.0
sg6
F-4.0
sb(dp2836
I00
F5.653849600600002
sI01
F-29.33
ss(i__main__
State
p2837
(dp2838
g3
F5.0
sg4
F0.0
sg5
F-5.0
sg6
F-8.0
sb(dp2839
I00
F22.7149859883898
sI01
F12.902161369999996
ss(i__main__
State
p2840
(dp2841
g3
F6.0
sg4
F3.0
sg5
F-6.0
sg6
F0.0
sb(dp2842
I00
I-64
sI01
F6.1000000000000005
ss(i__main__
State
p2843
(dp2844
g3
F2.0
sg4
F6.0
sg5
F-2.0
sg6
F6.0
sb(dp2845
I00
F52.287442999999996
sI01
F-19.4
ss(i__main__
State
p2846
(dp2847
g3
F8.0
sg4
F9.0
sg5
F-8.0
sg6
F-8.0
sb(dp2848
I00
F79.59786000000001
sI01
F11.0
ss(i__main__
State
p2849
(dp2850
g3
F5.0
sg4
F1.0
sg5
F-5.0
sg6
F-8.0
sb(dp2851
I00
I-91
sI01
F-17.14
ss(i__main__
State
p2852
(dp2853
g3
F3.0
sg4
F1.0
sg5
F-3.0
sg6
F-4.0
sb(dp2854
I00
F-64.2
sI01
F31.985149891099997
ss(i__main__
State
p2855
(dp2856
g3
F-5.0
sg4
F8.0
sg5
F5.0
sg6
F2.0
sb(dp2857
I00
F45.18514376
sI01
F0.0
ss(i__main__
State
p2858
(dp2859
g3
F-6.0
sg4
F4.0
sg5
F6.0
sg6
F6.0
sb(dp2860
I00
F-11.7
sI01
F44.8499710488
ss(i__main__
State
p2861
(dp2862
g3
F4.0
sg4
F7.0
sg5
F-4.0
sg6
F4.0
sb(dp2863
I00
F9.5221993222
sI01
I-38
ss(i__main__
State
p2864
(dp2865
g3
F4.0
sg4
F6.0
sg5
F-4.0
sg6
F-4.0
sb(dp2866
I00
F87.339273555
sI01
F-84.1264
ss(i__main__
State
p2867
(dp2868
g3
F-4.0
sg4
F9.0
sg5
F4.0
sg6
F-4.0
sb(dp2869
I00
F28.0
sI01
F0.0
ss(i__main__
State
p2870
(dp2871
g3
F-3.0
sg4
F9.0
sg5
F3.0
sg6
F-2.0
sb(dp2872
I00
F-72.7
sI01
F13.100000000000001
ss(i__main__
State
p2873
(dp2874
g3
F-4.0
sg4
F7.0
sg5
F4.0
sg6
F-8.0
sb(dp2875
I00
I-42
sI01
F9.66
ss(i__main__
State
p2876
(dp2877
g3
F4.0
sg4
F8.0
sg5
F-4.0
sg6
F8.0
sb(dp2878
I00
F39.06124034
sI01
F0.0
ss(i__main__
State
p2879
(dp2880
g3
F2.0
sg4
F2.0
sg5
F-2.0
sg6
F0.0
sb(dp2881
I00
F17.0
sI01
F69.7
ss(i__main__
State
p2882
(dp2883
g3
F2.0
sg4
F3.0
sg5
F-2.0
sg6
F-4.0
sb(dp2884
I00
I-19
sI01
F-16.4
ss(i__main__
State
p2885
(dp2886
g3
F-8.0
sg4
F3.0
sg5
F8.0
sg6
F0.0
sb(dp2887
I00
F41.5348
sI01
I-29
ss(i__main__
State
p2888
(dp2889
g3
F0.0
sg4
F8.0
sg5
F0.0
sg6
F-6.0
sb(dp2890
I00
F-1898.81
sI01
F-1897.2
ss(i__main__
State
p2891
(dp2892
g3
F-3.0
sg4
F2.0
sg5
F3.0
sg6
F-4.0
sb(dp2893
I00
F-7.8208273
sI01
F45.40938256134
ss(i__main__
State
p2894
(dp2895
g3
F4.0
sg4
F7.0
sg5
F-4.0
sg6
F-8.0
sb(dp2896
I00
F48.741350848284796
sI01
F-35.2779545716
ss(i__main__
State
p2897
(dp2898
g3
F-7.0
sg4
F10.0
sg5
F7.0
sg6
F8.0
sb(dp2899
I00
F10.0
sI01
F93.74804121070001
ss(i__main__
State
p2900
(dp2901
g3
F1.0
sg4
F8.0
sg5
F-1.0
sg6
F0.0
sb(dp2902
I00
F-155.61
sI01
F34.2779
ss(i__main__
State
p2903
(dp2904
g3
F-4.0
sg4
F10.0
sg5
F4.0
sg6
F-4.0
sb(dp2905
I00
F61.255354
sI01
F9.190000000000001
ss(i__main__
State
p2906
(dp2907
g3
F-4.0
sg4
F9.0
sg5
F4.0
sg6
F6.0
sb(dp2908
I00
F77.295093108
sI01
F22.70721
ss(i__main__
State
p2909
(dp2910
g3
F-4.0
sg4
F4.0
sg5
F4.0
sg6
F0.0
sb(dp2911
I00
I-39
sI01
F-23.799999999999997
ss(i__main__
State
p2912
(dp2913
g3
F6.0
sg4
F7.0
sg5
F-6.0
sg6
F8.0
sb(dp2914
I00
F35.81
sI01
I21
ss(i__main__
State
p2915
(dp2916
g3
F7.0
sg4
F10.0
sg5
F-7.0
sg6
F6.0
sb(dp2917
I00
F39.569882472859916
sI01
F78.839468648455
ss(i__main__
State
p2918
(dp2919
g3
F6.0
sg4
F3.0
sg5
F-6.0
sg6
F8.0
sb(dp2920
I00
F24.7
sI01
F66.8
ss(i__main__
State
p2921
(dp2922
g3
F-8.0
sg4
F10.0
sg5
F8.0
sg6
F6.0
sb(dp2923
I00
F29.0
sI01
F0.0
ss(i__main__
State
p2924
(dp2925
g3
F0.0
sg4
F2.0
sg5
F0.0
sg6
F8.0
sb(dp2926
I00
F9.334872759382002
sI01
F-31.299999999999997
ss(i__main__
State
p2927
(dp2928
g3
F7.0
sg4
F7.0
sg5
F-7.0
sg6
F6.0
sb(dp2929
I00
F83.99
sI01
F76.7
ss(i__main__
State
p2930
(dp2931
g3
F6.0
sg4
F3.0
sg5
F-6.0
sg6
F-6.0
sb(dp2932
I00
F51.39311
sI01
I-95
ss(i__main__
State
p2933
(dp2934
g3
F6.0
sg4
F10.0
sg5
F-6.0
sg6
F-6.0
sb(dp2935
I00
F10.0
sI01
F27.36
ss(i__main__
State
p2936
(dp2937
g3
F-3.0
sg4
F10.0
sg5
F3.0
sg6
F6.0
sb(dp2938
I00
F76.48709181000001
sI01
F0.0
ss(i__main__
State
p2939
(dp2940
g3
F-5.0
sg4
F5.0
sg5
F5.0
sg6
F4.0
sb(dp2941
I00
I-76
sI01
F35.5
ss(i__main__
State
p2942
(dp2943
g3
F-5.0
sg4
F6.0
sg5
F5.0
sg6
F4.0
sb(dp2944
I00
F92.664
sI01
I-56
ss(i__main__
State
p2945
(dp2946
g3
F2.0
sg4
F0.0
sg5
F-2.0
sg6
F-4.0
sb(dp2947
I00
F-7.8999999999999995
sI01
I-83
ss(i__main__
State
p2948
(dp2949
g3
F8.0
sg4
F8.0
sg5
F-8.0
sg6
F-6.0
sb(dp2950
I00
F42.51051
sI01
F0.0
ss(i__main__
State
p2951
(dp2952
g3
F4.0
sg4
F1.0
sg5
F-4.0
sg6
F8.0
sb(dp2953
I00
F-44.7
sI01
F23.288
ss(i__main__
State
p2954
(dp2955
g3
F-1.0
sg4
F4.0
sg5
F1.0
sg6
F-6.0
sb(dp2956
I00
I-69
sI01
F74.69
ss(i__main__
State
p2957
(dp2958
g3
F6.0
sg4
F9.0
sg5
F-6.0
sg6
F-2.0
sb(dp2959
I00
F0.0
sI01
F20.0
ss(i__main__
State
p2960
(dp2961
g3
F1.0
sg4
F4.0
sg5
F-1.0
sg6
F4.0
sb(dp2962
I00
I38
sI01
F50.74
ss(i__main__
State
p2963
(dp2964
g3
F-3.0
sg4
F0.0
sg5
F3.0
sg6
F-8.0
sb(dp2965
I00
F98.8
sI01
I-75
ss(i__main__
State
p2966
(dp2967
g3
F-3.0
sg4
F9.0
sg5
F3.0
sg6
F4.0
sb(dp2968
I00
F79.7181567
sI01
F0.0
ss(i__main__
State
p2969
(dp2970
g3
F-6.0
sg4
F6.0
sg5
F6.0
sg6
F6.0
sb(dp2971
I00
I16
sI01
F29.513
ss(i__main__
State
p2972
(dp2973
g3
F-8.0
sg4
F3.0
sg5
F8.0
sg6
F-6.0
sb(dp2974
I00
F56.09835
sI01
I-50
ss(i__main__
State
p2975
(dp2976
g3
F6.0
sg4
F1.0
sg5
F-6.0
sg6
F6.0
sb(dp2977
I00
F47.442620000000005
sI01
F47.3
ss(i__main__
State
p2978
(dp2979
g3
F-6.0
sg4
F3.0
sg5
F6.0
sg6
F2.0
sb(dp2980
I00
F-20.826674
sI01
I-100
ss(i__main__
State
p2981
(dp2982
g3
F-4.0
sg4
F4.0
sg5
F4.0
sg6
F8.0
sb(dp2983
I00
F13.408000000000001
sI01
F28.373004
ss(i__main__
State
p2984
(dp2985
g3
F1.0
sg4
F8.0
sg5
F-1.0
sg6
F8.0
sb(dp2986
I00
F19.0
sI01
F0.0
ss(i__main__
State
p2987
(dp2988
g3
F-1.0
sg4
F9.0
sg5
F1.0
sg6
F2.0
sb(dp2989
I00
F20.0
sI01
F79.226843822
ss(i__main__
State
p2990
(dp2991
g3
F8.0
sg4
F7.0
sg5
F-8.0
sg6
F-8.0
sb(dp2992
I00
I38
sI01
F46.9
ss(i__main__
State
p2993
(dp2994
g3
F5.0
sg4
F10.0
sg5
F-5.0
sg6
F4.0
sb(dp2995
I00
F29.86
sI01
F0.0
ss(i__main__
State
p2996
(dp2997
g3
F5.0
sg4
F7.0
sg5
F-5.0
sg6
F-2.0
sb(dp2998
I00
F63.501805499999996
sI01
I-20
ss(i__main__
State
p2999
(dp3000
g3
F1.0
sg4
F1.0
sg5
F-1.0
sg6
F0.0
sb(dp3001
I00
F-0.945275824610281
sI01
F-30.427583
ss(i__main__
State
p3002
(dp3003
g3
F-2.0
sg4
F10.0
sg5
F2.0
sg6
F0.0
sb(dp3004
I00
F25.16667009
sI01
F48.182
ss(i__main__
State
p3005
(dp3006
g3
F-8.0
sg4
F0.0
sg5
F8.0
sg6
F2.0
sb(dp3007
I00
I-3
sI01
F93.003
ss(i__main__
State
p3008
(dp3009
g3
F6.0
sg4
F8.0
sg5
F-6.0
sg6
F-8.0
sb(dp3010
I00
F12.191
sI01
F0.0
ss(i__main__
State
p3011
(dp3012
g3
F-5.0
sg4
F4.0
sg5
F5.0
sg6
F0.0
sb(dp3013
I00
F47.730000000000004
sI01
F81.03721191392
ss(i__main__
State
p3014
(dp3015
g3
F-8.0
sg4
F8.0
sg5
F8.0
sg6
F4.0
sb(dp3016
I00
F0.0
sI01
F30.0
ss(i__main__
State
p3017
(dp3018
g3
F1.0
sg4
F10.0
sg5
F-1.0
sg6
F-6.0
sb(dp3019
I00
F10.0
sI01
F0.0
ss(i__main__
State
p3020
(dp3021
g3
F-8.0
sg4
F5.0
sg5
F8.0
sg6
F4.0
sb(dp3022
I00
I-74
sI01
F-41.4
ss(i__main__
State
p3023
(dp3024
g3
F-1.0
sg4
F1.0
sg5
F1.0
sg6
F-2.0
sb(dp3025
I00
I-59
sI01
F-35.29
ss(i__main__
State
p3026
(dp3027
g3
F-1.0
sg4
F2.0
sg5
F1.0
sg6
F4.0
sb(dp3028
I00
F9.53717555502202
sI01
I-69
ss(i__main__
State
p3029
(dp3030
g3
F-4.0
sg4
F0.0
sg5
F4.0
sg6
F6.0
sb(dp3031
I00
I-33
sI01
F85.8
ss(i__main__
State
p3032
(dp3033
g3
F-4.0
sg4
F9.0
sg5
F4.0
sg6
F4.0
sb(dp3034
I00
F10.0
sI01
F0.0
ss(i__main__
State
p3035
(dp3036
g3
F-3.0
sg4
F5.0
sg5
F3.0
sg6
F0.0
sb(dp3037
I00
F47.3
sI01
I83
ss(i__main__
State
p3038
(dp3039
g3
F4.0
sg4
F1.0
sg5
F-4.0
sg6
F0.0
sb(dp3040
I00
F-21.255798799999997
sI01
I-58
ss(i__main__
State
p3041
(dp3042
g3
F5.0
sg4
F1.0
sg5
F-5.0
sg6
F8.0
sb(dp3043
I00
F33.726139999999994
sI01
I-81
ss(i__main__
State
p3044
(dp3045
g3
F-7.0
sg4
F7.0
sg5
F7.0
sg6
F-8.0
sb(dp3046
I00
I-82
sI01
F72.3639
ss(i__main__
State
p3047
(dp3048
g3
F-1.0
sg4
F5.0
sg5
F1.0
sg6
F6.0
sb(dp3049
I00
F41.952
sI01
I-37
ss(i__main__
State
p3050
(dp3051
g3
F-2.0
sg4
F9.0
sg5
F2.0
sg6
F-6.0
sb(dp3052
I00
F10.0
sI01
F0.0
ss(i__main__
State
p3053
(dp3054
g3
F2.0
sg4
F10.0
sg5
F-2.0
sg6
F2.0
sb(dp3055
I00
F133.9686130265141
sI01
F34.27
ss(i__main__
State
p3056
(dp3057
g3
F-6.0
sg4
F2.0
sg5
F6.0
sg6
F-4.0
sb(dp3058
I00
F55.301
sI01
I6
ss(i__main__
State
p3059
(dp3060
g3
F4.0
sg4
F0.0
sg5
F-4.0
sg6
F-2.0
sb(dp3061
I00
F45.1
sI01
I37
ss(i__main__
State
p3062
(dp3063
g3
F4.0
sg4
F3.0
sg5
F-4.0
sg6
F-2.0
sb(dp3064
I00
F67.93710000000002
sI01
I-40
ss(i__main__
State
p3065
(dp3066
g3
F7.0
sg4
F5.0
sg5
F-7.0
sg6
F-8.0
sb(dp3067
I00
F67.69640000000001
sI01
F46.0
ss(i__main__
State
p3068
(dp3069
g3
F1.0
sg4
F7.0
sg5
F-1.0
sg6
F2.0
sb(dp3070
I00
F64.69092467600001
sI01
I-46
ss(i__main__
State
p3071
(dp3072
g3
F7.0
sg4
F0.0
sg5
F-7.0
sg6
F-2.0
sb(dp3073
I00
I-44
sI01
F-39.09
ss(i__main__
State
p3074
(dp3075
g3
F-2.0
sg4
F0.0
sg5
F2.0
sg6
F2.0
sb(dp3076
I00
F74.80951999999999
sI01
I-31
ss(i__main__
State
p3077
(dp3078
g3
F7.0
sg4
F1.0
sg5
F-7.0
sg6
F8.0
sb(dp3079
I00
F26.2
sI01
I6
ss(i__main__
State
p3080
(dp3081
g3
F8.0
sg4
F0.0
sg5
F-8.0
sg6
F-4.0
sb(dp3082
I00
F41.6
sI01
I32
ss(i__main__
State
p3083
(dp3084
g3
F-2.0
sg4
F10.0
sg5
F2.0
sg6
F8.0
sb(dp3085
I00
F64.6115937080508
sI01
F20.0
ss(i__main__
State
p3086
(dp3087
g3
F-2.0
sg4
F7.0
sg5
F2.0
sg6
F4.0
sb(dp3088
I00
F79.81
sI01
I-4
ss(i__main__
State
p3089
(dp3090
g3
F2.0
sg4
F6.0
sg5
F-2.0
sg6
F-6.0
sb(dp3091
I00
F-72.3
sI01
F17.25428983149999
ss(i__main__
State
p3092
(dp3093
g3
F-5.0
sg4
F5.0
sg5
F5.0
sg6
F-8.0
sb(dp3094
I00
F63.135733
sI01
I6
ss(i__main__
State
p3095
(dp3096
g3
F-7.0
sg4
F2.0
sg5
F7.0
sg6
F8.0
sb(dp3097
I00
F-6.448600000000001
sI01
I-88
ss(i__main__
State
p3098
(dp3099
g3
F3.0
sg4
F4.0
sg5
F-3.0
sg6
F8.0
sb(dp3100
I00
F-4.159052539999999
sI01
F-55.5
ss(i__main__
State
p3101
(dp3102
g3
F0.0
sg4
F3.0
sg5
F0.0
sg6
F-2.0
sb(dp3103
I00
I-94
sI01
F-71.3
ss(i__main__
State
p3104
(dp3105
g3
F-5.0
sg4
F1.0
sg5
F5.0
sg6
F2.0
sb(dp3106
I00
I43
sI01
F31.5
ss(i__main__
State
p3107
(dp3108
g3
F4.0
sg4
F8.0
sg5
F-4.0
sg6
F6.0
sb(dp3109
I00
F57.87121200000001
sI01
F13.203242699999999
ss(i__main__
State
p3110
(dp3111
g3
F-3.0
sg4
F3.0
sg5
F3.0
sg6
F-6.0
sb(dp3112
I00
F-32.1
sI01
I-83
ss(i__main__
State
p3113
(dp3114
g3
F4.0
sg4
F6.0
sg5
F-4.0
sg6
F-8.0
sb(dp3115
I00
F-71.0146419
sI01
F16.776223666179842
ss(i__main__
State
p3116
(dp3117
g3
F-3.0
sg4
F5.0
sg5
F3.0
sg6
F8.0
sb(dp3118
I00
F57.3
sI01
I45
ss(i__main__
State
p3119
(dp3120
g3
F-7.0
sg4
F1.0
sg5
F7.0
sg6
F4.0
sb(dp3121
I00
I36
sI01
F57.905820000000006
ss(i__main__
State
p3122
(dp3123
g3
F2.0
sg4
F4.0
sg5
F-2.0
sg6
F2.0
sb(dp3124
I00
I33
sI01
F50.9303
ss(i__main__
State
p3125
(dp3126
g3
F-6.0
sg4
F1.0
sg5
F6.0
sg6
F-8.0
sb(dp3127
I00
I-50
sI01
F-31.88
ss(i__main__
State
p3128
(dp3129
g3
F7.0
sg4
F0.0
sg5
F-7.0
sg6
F6.0
sb(dp3130
I00
F75.79820275639139
sI01
I24
ss(i__main__
State
p3131
(dp3132
g3
F1.0
sg4
F2.0
sg5
F-1.0
sg6
F-8.0
sb(dp3133
I00
I-83
sI01
F45.0
ss(i__main__
State
p3134
(dp3135
g3
F-1.0
sg4
F10.0
sg5
F1.0
sg6
F-2.0
sb(dp3136
I00
F0.0
sI01
F27.550632
ss(i__main__
State
p3137
(dp3138
g3
F2.0
sg4
F5.0
sg5
F-2.0
sg6
F0.0
sb(dp3139
I00
F58.8
sI01
F53.624479
ss(i__main__
State
p3140
(dp3141
g3
F1.0
sg4
F9.0
sg5
F-1.0
sg6
F-2.0
sb(dp3142
I00
F-467.61028280000005
sI01
F-624.9080160000001
ss(i__main__
State
p3143
(dp3144
g3
F3.0
sg4
F6.0
sg5
F-3.0
sg6
F4.0
sb(dp3145
I00
F49.345
sI01
I-9
ss(i__main__
State
p3146
(dp3147
g3
F3.0
sg4
F9.0
sg5
F-3.0
sg6
F2.0
sb(dp3148
I00
F20.0
sI01
F0.0
ss(i__main__
State
p3149
(dp3150
g3
F-7.0
sg4
F10.0
sg5
F7.0
sg6
F-8.0
sb(dp3151
I00
F10.0
sI01
F0.0
ss(i__main__
State
p3152
(dp3153
g3
F8.0
sg4
F1.0
sg5
F-8.0
sg6
F2.0
sb(dp3154
I00
I79
sI01
F76.2
ss(i__main__
State
p3155
(dp3156
g3
F5.0
sg4
F6.0
sg5
F-5.0
sg6
F-4.0
sb(dp3157
I00
F-6.745400000000001
sI01
I-58
ss(i__main__
State
p3158
(dp3159
g3
F-4.0
sg4
F0.0
sg5
F4.0
sg6
F2.0
sb(dp3160
I00
F61.9793
sI01
I7
ss(i__main__
State
p3161
(dp3162
g3
F-4.0
sg4
F1.0
sg5
F4.0
sg6
F-2.0
sb(dp3163
I00
F11.46916
sI01
F-18.49746
ss(i__main__
State
p3164
(dp3165
g3
F-2.0
sg4
F10.0
sg5
F2.0
sg6
F-6.0
sb(dp3166
I00
F30.0
sI01
F74.089985
ss(i__main__
State
p3167
(dp3168
g3
F5.0
sg4
F8.0
sg5
F-5.0
sg6
F4.0
sb(dp3169
I00
F69.5570173
sI01
F0.0
ss(i__main__
State
p3170
(dp3171
g3
F3.0
sg4
F2.0
sg5
F-3.0
sg6
F0.0
sb(dp3172
I00
I-25
sI01
F-9.0
ss(i__main__
State
p3173
(dp3174
g3
F-1.0
sg4
F1.0
sg5
F1.0
sg6
F0.0
sb(dp3175
I00
F0.2200000000000002
sI01
I-66
ss(i__main__
State
p3176
(dp3177
g3
F1.0
sg4
F8.0
sg5
F-1.0
sg6
F-4.0
sb(dp3178
I00
F-162.9
sI01
F57.13681
ss(i__main__
State
p3179
(dp3180
g3
F-6.0
sg4
F0.0
sg5
F6.0
sg6
F-6.0
sb(dp3181
I00
I38
sI01
F51.900074000000004
ss(i__main__
State
p3182
(dp3183
g3
F2.0
sg4
F1.0
sg5
F-2.0
sg6
F8.0
sb(dp3184
I00
F54.55423946
sI01
I8
ss(i__main__
State
p3185
(dp3186
g3
F6.0
sg4
F8.0
sg5
F-6.0
sg6
F6.0
sb(dp3187
I00
F50.560691000000006
sI01
F0.0
ss(i__main__
State
p3188
(dp3189
g3
F-7.0
sg4
F3.0
sg5
F7.0
sg6
F2.0
sb(dp3190
I00
F0.31935
sI01
F67.6473641185
ss(i__main__
State
p3191
(dp3192
g3
F-4.0
sg4
F2.0
sg5
F4.0
sg6
F-2.0
sb(dp3193
I00
F-6.208273
sI01
F-71.7
ss(i__main__
State
p3194
(dp3195
g3
F8.0
sg4
F9.0
sg5
F-8.0
sg6
F8.0
sb(dp3196
I00
F46.509195542200004
sI01
F0.0
ss(i__main__
State
p3197
(dp3198
g3
F6.0
sg4
F2.0
sg5
F-6.0
sg6
F4.0
sb(dp3199
I00
I-76
sI01
F13.164675499899403
ss(i__main__
State
p3200
(dp3201
g3
F5.0
sg4
F8.0
sg5
F-5.0
sg6
F-2.0
sb(dp3202
I00
F40.037
sI01
F-252.70000000000002
ss(i__main__
State
p3203
(dp3204
g3
F-8.0
sg4
F1.0
sg5
F8.0
sg6
F-8.0
sb(dp3205
I00
I-54
sI01
F27.887
ss(i__main__
State
p3206
(dp3207
g3
F-6.0
sg4
F8.0
sg5
F6.0
sg6
F8.0
sb(dp3208
I00
F41.5401
sI01
F0.0
ss(i__main__
State
p3209
(dp3210
g3
F-6.0
sg4
F7.0
sg5
F6.0
sg6
F-8.0
sb(dp3211
I00
F16.63252726
sI01
I-21
ss(i__main__
State
p3212
(dp3213
g3
F6.0
sg4
F2.0
sg5
F-6.0
sg6
F-4.0
sb(dp3214
I00
F20.9
sI01
I-34
ss(i__main__
State
p3215
(dp3216
g3
F6.0
sg4
F5.0
sg5
F-6.0
sg6
F4.0
sb(dp3217
I00
I7
sI01
F76.87092261000001
ss(i__main__
State
p3218
(dp3219
g3
F3.0
sg4
F1.0
sg5
F-3.0
sg6
F6.0
sb(dp3220
I00
F85.508347259
sI01
I-72
ss(i__main__
State
p3221
(dp3222
g3
F1.0
sg4
F3.0
sg5
F-1.0
sg6
F2.0
sb(dp3223
I00
I-88
sI01
F-67.089
ss(i__main__
State
p3224
(dp3225
g3
F8.0
sg4
F8.0
sg5
F-8.0
sg6
F-8.0
sb(dp3226
I00
F10.0
sI01
F0.0
ss(i__main__
State
p3227
(dp3228
g3
F4.0
sg4
F10.0
sg5
F-4.0
sg6
F0.0
sb(dp3229
I00
F11.0
sI01
F71.0833274
ss(i__main__
State
p3230
(dp3231
g3
F0.0
sg4
F2.0
sg5
F0.0
sg6
F-6.0
sb(dp3232
I00
F7.275083300068002
sI01
I-52
ss(i__main__
State
p3233
(dp3234
g3
F0.0
sg4
F6.0
sg5
F0.0
sg6
F-6.0
sb(dp3235
I00
F86.1
sI01
F-44.0
ss(i__main__
State
p3236
(dp3237
g3
F5.0
sg4
F1.0
sg5
F-5.0
sg6
F4.0
sb(dp3238
I00
F82.3
sI01
I69
ss(i__main__
State
p3239
(dp3240
g3
F-7.0
sg4
F10.0
sg5
F7.0
sg6
F-4.0
sb(dp3241
I00
F111.27959369183202
sI01
F0.0
ss(i__main__
State
p3242
(dp3243
g3
F8.0
sg4
F7.0
sg5
F-8.0
sg6
F-2.0
sb(dp3244
I00
I-70
sI01
F80.429
ss(i__main__
State
p3245
(dp3246
g3
F-4.0
sg4
F7.0
sg5
F4.0
sg6
F0.0
sb(dp3247
I00
F82.630712
sI01
F-6.1
ss(i__main__
State
p3248
(dp3249
g3
F-6.0
sg4
F9.0
sg5
F6.0
sg6
F6.0
sb(dp3250
I00
F10.0
sI01
F70.64548952000001
ss(i__main__
State
p3251
(dp3252
g3
F-7.0
sg4
F2.0
sg5
F7.0
sg6
F2.0
sb(dp3253
I00
F57.526405
sI01
F54.67101999999999
ss(i__main__
State
p3254
(dp3255
g3
F7.0
sg4
F4.0
sg5
F-7.0
sg6
F-4.0
sb(dp3256
I00
F91.337
sI01
I-62
ss(i__main__
State
p3257
(dp3258
g3
F0.0
sg4
F4.0
sg5
F0.0
sg6
F8.0
sb(dp3259
I00
F71.3
sI01
I-62
ss(i__main__
State
p3260
(dp3261
g3
F7.0
sg4
F2.0
sg5
F-7.0
sg6
F2.0
sb(dp3262
I00
F-14.9082523
sI01
F-86.6
ss(i__main__
State
p3263
(dp3264
g3
F-7.0
sg4
F9.0
sg5
F7.0
sg6
F-8.0
sb(dp3265
I00
F82.355902
sI01
F0.0
ss(i__main__
State
p3266
(dp3267
g3
F3.0
sg4
F2.0
sg5
F-3.0
sg6
F-2.0
sb(dp3268
I00
I-57
sI01
F-78.4
ss(i__main__
State
p3269
(dp3270
g3
F2.0
sg4
F1.0
sg5
F-2.0
sg6
F0.0
sb(dp3271
I00
F77.26
sI01
I-3
ss(i__main__
State
p3272
(dp3273
g3
F4.0
sg4
F0.0
sg5
F-4.0
sg6
F-6.0
sb(dp3274
I00
F40.45477519644075
sI01
F-12.75455884
ss(i__main__
State
p3275
(dp3276
g3
F0.0
sg4
F8.0
sg5
F0.0
sg6
F0.0
sb(dp3277
I00
F-3432.39
sI01
F-3425.534918767
ss(i__main__
State
p3278
(dp3279
g3
F-4.0
sg4
F5.0
sg5
F4.0
sg6
F4.0
sb(dp3280
I00
I-48
sI01
F-37.5
ss(i__main__
State
p3281
(dp3282
g3
F-6.0
sg4
F5.0
sg5
F6.0
sg6
F-2.0
sb(dp3283
I00
I-28
sI01
F32.2
ss(i__main__
State
p3284
(dp3285
g3
F-8.0
sg4
F3.0
sg5
F8.0
sg6
F-8.0
sb(dp3286
I00
F33.6
sI01
I14
ss(i__main__
State
p3287
(dp3288
g3
F-5.0
sg4
F6.0
sg5
F5.0
sg6
F6.0
sb(dp3289
I00
F7.47
sI01
F-20.529
ss(i__main__
State
p3290
(dp3291
g3
F6.0
sg4
F6.0
sg5
F-6.0
sg6
F-4.0
sb(dp3292
I00
F41.288399999999996
sI01
F-63.116
ss(i__main__
State
p3293
(dp3294
g3
F5.0
sg4
F8.0
sg5
F-5.0
sg6
F-6.0
sb(dp3295
I00
F33.8367013
sI01
F0.0
ss(i__main__
State
p3296
(dp3297
g3
F-4.0
sg4
F9.0
sg5
F4.0
sg6
F8.0
sb(dp3298
I00
F20.0
sI01
F16.3610819738
ss(i__main__
State
p3299
(dp3300
g3
F5.0
sg4
F10.0
sg5
F-5.0
sg6
F2.0
sb(dp3301
I00
F104.67268893007001
sI01
F12.200000000000001
ss(i__main__
State
p3302
(dp3303
g3
F4.0
sg4
F1.0
sg5
F-4.0
sg6
F6.0
sb(dp3304
I00
F-64.0
sI01
F11.9
ss(i__main__
State
p3305
(dp3306
g3
F-1.0
sg4
F3.0
sg5
F1.0
sg6
F-6.0
sb(dp3307
I00
F51.84
sI01
I5
ss(i__main__
State
p3308
(dp3309
g3
F-1.0
sg4
F0.0
sg5
F1.0
sg6
F8.0
sb(dp3310
I00
F29.942
sI01
F58.5672668857282
ss(i__main__
State
p3311
(dp3312
g3
F-6.0
sg4
F8.0
sg5
F6.0
sg6
F2.0
sb(dp3313
I00
F31.1
sI01
F11.0
ss(i__main__
State
p3314
(dp3315
g3
F3.0
sg4
F0.0
sg5
F-3.0
sg6
F-2.0
sb(dp3316
I00
I-25
sI01
F21.3
ss(i__main__
State
p3317
(dp3318
g3
F-1.0
sg4
F10.0
sg5
F1.0
sg6
F2.0
sb(dp3319
I00
F22.0
sI01
F34.88487
ss(i__main__
State
p3320
(dp3321
g3
F-8.0
sg4
F7.0
sg5
F8.0
sg6
F2.0
sb(dp3322
I00
I-67
sI01
F26.587618000000003
ss(i__main__
State
p3323
(dp3324
g3
F3.0
sg4
F0.0
sg5
F-3.0
sg6
F-6.0
sb(dp3325
I00
F67.0
sI01
I-84
ss(i__main__
State
p3326
(dp3327
g3
F6.0
sg4
F10.0
sg5
F-6.0
sg6
F-4.0
sb(dp3328
I00
F0.0
sI01
F38.07782400000001
ss(i__main__
State
p3329
(dp3330
g3
F1.0
sg4
F2.0
sg5
F-1.0
sg6
F0.0
sb(dp3331
I00
F46.102238522001
sI01
I-34
ss(i__main__
State
p3332
(dp3333
g3
F-7.0
sg4
F2.0
sg5
F7.0
sg6
F6.0
sb(dp3334
I00
I-85
sI01
F65.6
ss(i__main__
State
p3335
(dp3336
g3
F3.0
sg4
F2.0
sg5
F-3.0
sg6
F8.0
sb(dp3337
I00
F82.53
sI01
I1
ss(i__main__
State
p3338
(dp3339
g3
F-7.0
sg4
F8.0
sg5
F7.0
sg6
F0.0
sb(dp3340
I00
F84.7067589
sI01
F0.0
ss(i__main__
State
p3341
(dp3342
g3
F8.0
sg4
F5.0
sg5
F-8.0
sg6
F4.0
sb(dp3343
I00
I-39
sI01
F-15.9
ss(i__main__
State
p3344
(dp3345
g3
F4.0
sg4
F5.0
sg5
F-4.0
sg6
F-6.0
sb(dp3346
I00
I-54
sI01
F51.3
ss(i__main__
State
p3347
(dp3348
g3
F8.0
sg4
F6.0
sg5
F-8.0
sg6
F-8.0
sb(dp3349
I00
F-63.754416
sI01
F16.929793000000004
ss(i__main__
State
p3350
(dp3351
g3
F3.0
sg4
F4.0
sg5
F-3.0
sg6
F-2.0
sb(dp3352
I00
F69.36
sI01
I-71
ss(i__main__
State
p3353
(dp3354
g3
F-2.0
sg4
F3.0
sg5
F2.0
sg6
F-2.0
sb(dp3355
I00
F29.885338800000003
sI01
I-34
ss(i__main__
State
p3356
(dp3357
g3
F2.0
sg4
F3.0
sg5
F-2.0
sg6
F4.0
sb(dp3358
I00
F-82.3
sI01
I80
ss(i__main__
State
p3359
(dp3360
g3
F1.0
sg4
F7.0
sg5
F-1.0
sg6
F-2.0
sb(dp3361
I00
F-65.2
sI01
I-49
ss(i__main__
State
p3362
(dp3363
g3
F-4.0
sg4
F3.0
sg5
F4.0
sg6
F-2.0
sb(dp3364
I00
I-46
sI01
F76.19780757600002
ss(i__main__
State
p3365
(dp3366
g3
F-4.0
sg4
F1.0
sg5
F4.0
sg6
F0.0
sb(dp3367
I00
F87.1
sI01
I-35
ss(i__main__
State
p3368
(dp3369
g3
F-6.0
sg4
F3.0
sg5
F6.0
sg6
F0.0
sb(dp3370
I00
F72.70163577400001
sI01
F63.6036
ss(i__main__
State
p3371
(dp3372
g3
F-7.0
sg4
F3.0
sg5
F7.0
sg6
F8.0
sb(dp3373
I00
F55.9
sI01
I52
ss(i__main__
State
p3374
(dp3375
g3
F-4.0
sg4
F0.0
sg5
F4.0
sg6
F-2.0
sb(dp3376
I00
F48.8
sI01
I27
ss(i__main__
State
p3377
(dp3378
g3
F8.0
sg4
F10.0
sg5
F-8.0
sg6
F4.0
sb(dp3379
I00
F103.2430245030986
sI01
F35.623881
ss(i__main__
State
p3380
(dp3381
g3
F-8.0
sg4
F4.0
sg5
F8.0
sg6
F4.0
sb(dp3382
I00
F39.254754999999996
sI01
F57.457644875499994
ss(i__main__
State
p3383
(dp3384
g3
F-1.0
sg4
F0.0
sg5
F1.0
sg6
F0.0
sb(dp3385
I00
F50.2
sI01
F-24.4
ss(i__main__
State
p3386
(dp3387
g3
F-2.0
sg4
F4.0
sg5
F2.0
sg6
F-2.0
sb(dp3388
I00
I13
sI01
F53.3
ss(i__main__
State
p3389
(dp3390
g3
F0.0
sg4
F4.0
sg5
F0.0
sg6
F4.0
sb(dp3391
I00
I-90
sI01
F24.017000000000003
ss(i__main__
State
p3392
(dp3393
g3
F1.0
sg4
F9.0
sg5
F-1.0
sg6
F6.0
sb(dp3394
I00
F0.0
sI01
F-72.414
ss(i__main__
State
p3395
(dp3396
g3
F8.0
sg4
F3.0
sg5
F-8.0
sg6
F6.0
sb(dp3397
I00
F10.77096813
sI01
F77.26327715490001
ss(i__main__
State
p3398
(dp3399
g3
F1.0
sg4
F6.0
sg5
F-1.0
sg6
F-8.0
sb(dp3400
I00
F-4.699999999999999
sI01
I6
ss(i__main__
State
p3401
(dp3402
g3
F7.0
sg4
F3.0
sg5
F-7.0
sg6
F4.0
sb(dp3403
I00
I-22
sI01
F38.64651356157443
ss(i__main__
State
p3404
(dp3405
g3
F7.0
sg4
F0.0
sg5
F-7.0
sg6
F-4.0
sb(dp3406
I00
I-88
sI01
F-0.3971609999999992
ss(i__main__
State
p3407
(dp3408
g3
F6.0
sg4
F5.0
sg5
F-6.0
sg6
F-6.0
sb(dp3409
I00
F-79.3
sI01
F8.3826
ss(i__main__
State
p3410
(dp3411
g3
F-5.0
sg4
F10.0
sg5
F5.0
sg6
F-4.0
sb(dp3412
I00
F99.31737441542775
sI01
F19.200000000000003
ss(i__main__
State
p3413
(dp3414
g3
F-3.0
sg4
F1.0
sg5
F3.0
sg6
F6.0
sb(dp3415
I00
F66.407098878
sI01
I-35
ss(i__main__
State
p3416
(dp3417
g3
F-5.0
sg4
F4.0
sg5
F5.0
sg6
F4.0
sb(dp3418
I00
F-20.869999999999997
sI01
F28.617232872
ss(i__main__
State
p3419
(dp3420
g3
F0.0
sg4
F9.0
sg5
F0.0
sg6
F6.0
sb(dp3421
I00
F45.456
sI01
F0.0
ss(i__main__
State
p3422
(dp3423
g3
F-2.0
sg4
F0.0
sg5
F2.0
sg6
F4.0
sb(dp3424
I00
F-10.215974
sI01
I-90
ss(i__main__
State
p3425
(dp3426
g3
F8.0
sg4
F3.0
sg5
F-8.0
sg6
F-6.0
sb(dp3427
I00
I49
sI01
F85.904
ss(i__main__
State
p3428
(dp3429
g3
F-1.0
sg4
F2.0
sg5
F1.0
sg6
F-4.0
sb(dp3430
I00
F6.355276253109442
sI01
F-53.710322399999995
ss(i__main__
State
p3431
(dp3432
g3
F-5.0
sg4
F3.0
sg5
F5.0
sg6
F6.0
sb(dp3433
I00
F74.268
sI01
F20.1
ss(i__main__
State
p3434
(dp3435
g3
F-6.0
sg4
F10.0
sg5
F6.0
sg6
F4.0
sb(dp3436
I00
F71.27963
sI01
F23.17
ss(i__main__
State
p3437
(dp3438
g3
F-6.0
sg4
F7.0
sg5
F6.0
sg6
F8.0
sb(dp3439
I00
F33.958
sI01
I-60
ss(i__main__
State
p3440
(dp3441
g3
F-5.0
sg4
F10.0
sg5
F5.0
sg6
F2.0
sb(dp3442
I00
F93.379121
sI01
F12.43
ss(i__main__
State
p3443
(dp3444
g3
F6.0
sg4
F1.0
sg5
F-6.0
sg6
F4.0
sb(dp3445
I00
F-12.8
sI01
I-20
ss(i__main__
State
p3446
(dp3447
g3
F-6.0
sg4
F3.0
sg5
F6.0
sg6
F8.0
sb(dp3448
I00
F49.4658
sI01
I-52
ss(i__main__
State
p3449
(dp3450
g3
F-4.0
sg4
F8.0
sg5
F4.0
sg6
F0.0
sb(dp3451
I00
F31.25633354
sI01
F0.0
ss(i__main__
State
p3452
(dp3453
g3
F4.0
sg4
F1.0
sg5
F-4.0
sg6
F-2.0
sb(dp3454
I00
F61.2
sI01
I-54
ss(i__main__
State
p3455
(dp3456
g3
F-2.0
sg4
F8.0
sg5
F2.0
sg6
F-6.0
sb(dp3457
I00
F40.001
sI01
F0.0
ss(i__main__
State
p3458
(dp3459
g3
F0.0
sg4
F1.0
sg5
F0.0
sg6
F-6.0
sb(dp3460
I00
F4.6352173175999996
sI01
F51.34187877592976
ss(i__main__
State
p3461
(dp3462
g3
F-1.0
sg4
F6.0
sg5
F1.0
sg6
F6.0
sb(dp3463
I00
I-97
sI01
F-37.8968
ss(i__main__
State
p3464
(dp3465
g3
F-8.0
sg4
F9.0
sg5
F8.0
sg6
F0.0
sb(dp3466
I00
F-1899.0
sI01
F-1000.0
ss(i__main__
State
p3467
(dp3468
g3
F-5.0
sg4
F9.0
sg5
F5.0
sg6
F8.0
sb(dp3469
I00
F60.13971608000001
sI01
F20.4603639
ss(i__main__
State
p3470
(dp3471
g3
F-7.0
sg4
F6.0
sg5
F7.0
sg6
F4.0
sb(dp3472
I00
F27.868955928509994
sI01
I30
ss(i__main__
State
p3473
(dp3474
g3
F8.0
sg4
F5.0
sg5
F-8.0
sg6
F-8.0
sb(dp3475
I00
I-10
sI01
F33.586
ss(i__main__
State
p3476
(dp3477
g3
F-6.0
sg4
F4.0
sg5
F6.0
sg6
F2.0
sb(dp3478
I00
F92.2
sI01
I-9
ss(i__main__
State
p3479
(dp3480
g3
F-7.0
sg4
F3.0
sg5
F7.0
sg6
F-8.0
sb(dp3481
I00
F-45.22
sI01
F-3.6925900000000045
ss(i__main__
State
p3482
(dp3483
g3
F8.0
sg4
F2.0
sg5
F-8.0
sg6
F6.0
sb(dp3484
I00
F91.53740332362
sI01
I-19
ss(i__main__
State
p3485
(dp3486
g3
F-3.0
sg4
F7.0
sg5
F3.0
sg6
F-4.0
sb(dp3487
I00
F-34.54
sI01
I-63
ss(i__main__
State
p3488
(dp3489
g3
F0.0
sg4
F0.0
sg5
F0.0
sg6
F6.0
sb(dp3490
I00
F58.38230221471725
sI01
I-36
ss(i__main__
State
p3491
(dp3492
g3
F-6.0
sg4
F9.0
sg5
F6.0
sg6
F-2.0
sb(dp3493
I00
F-72.9
sI01
F78.53365815310256
ss(i__main__
State
p3494
(dp3495
g3
F6.0
sg4
F10.0
sg5
F-6.0
sg6
F6.0
sb(dp3496
I00
F10.0
sI01
F37.0457
ss(i__main__
State
p3497
(dp3498
g3
F0.0
sg4
F6.0
sg5
F0.0
sg6
F0.0
sb(dp3499
I00
F14.4
sI01
I-38
ss(i__main__
State
p3500
(dp3501
g3
F3.0
sg4
F9.0
sg5
F-3.0
sg6
F4.0
sb(dp3502
I00
F126.5283639
sI01
F0.0
ss(i__main__
State
p3503
(dp3504
g3
F8.0
sg4
F9.0
sg5
F-8.0
sg6
F-6.0
sb(dp3505
I00
F10.0
sI01
F0.0
ss(i__main__
State
p3506
(dp3507
g3
F8.0
sg4
F5.0
sg5
F-8.0
sg6
F-4.0
sb(dp3508
I00
F53.541599999999995
sI01
F28.17
ss(i__main__
State
p3509
(dp3510
g3
F-6.0
sg4
F10.0
sg5
F6.0
sg6
F-8.0
sb(dp3511
I00
F45.00260492620001
sI01
F0.0
ss(i__main__
State
p3512
(dp3513
g3
F7.0
sg4
F8.0
sg5
F-7.0
sg6
F-6.0
sb(dp3514
I00
F20.200000000000003
sI01
F0.0
ss(i__main__
State
p3515
(dp3516
g3
F-7.0
sg4
F10.0
sg5
F7.0
sg6
F4.0
sb(dp3517
I00
F30.0
sI01
F0.0
ss(i__main__
State
p3518
(dp3519
g3
F1.0
sg4
F7.0
sg5
F-1.0
sg6
F8.0
sb(dp3520
I00
I-32
sI01
F-166.4
ss(i__main__
State
p3521
(dp3522
g3
F2.0
sg4
F9.0
sg5
F-2.0
sg6
F-8.0
sb(dp3523
I00
F42.749345700000006
sI01
F0.0
ss(i__main__
State
p3524
(dp3525
g3
F0.0
sg4
F10.0
sg5
F0.0
sg6
F-4.0
sb(dp3526
I00
F-998.46
sI01
F0.0
ss(i__main__
State
p3527
(dp3528
g3
F2.0
sg4
F7.0
sg5
F-2.0
sg6
F-4.0
sb(dp3529
I00
F-85.9
sI01
F-122.49126019100004
ss(i__main__
State
p3530
(dp3531
g3
F-8.0
sg4
F0.0
sg5
F8.0
sg6
F-4.0
sb(dp3532
I00
F10.4
sI01
F59.63175638480001
ss(i__main__
State
p3533
(dp3534
g3
F2.0
sg4
F10.0
sg5
F-2.0
sg6
F-2.0
sb(dp3535
I00
F0.0
sI01
F15.4
ss(i__main__
State
p3536
(dp3537
g3
F-4.0
sg4
F3.0
sg5
F4.0
sg6
F-8.0
sb(dp3538
I00
F-15.80865
sI01
I-81
ss(i__main__
State
p3539
(dp3540
g3
F-7.0
sg4
F3.0
sg5
F7.0
sg6
F-6.0
sb(dp3541
I00
F34.0
sI01
F95.1
ss(i__main__
State
p3542
(dp3543
g3
F8.0
sg4
F9.0
sg5
F-8.0
sg6
F-4.0
sb(dp3544
I00
F10.0
sI01
F80.76227876633001
ss(i__main__
State
p3545
(dp3546
g3
F5.0
sg4
F8.0
sg5
F-5.0
sg6
F8.0
sb(dp3547
I00
F66.884929528
sI01
F0.0
ss(i__main__
State
p3548
(dp3549
g3
F7.0
sg4
F7.0
sg5
F-7.0
sg6
F2.0
sb(dp3550
I00
I35
sI01
F48.269
ss(i__main__
State
p3551
(dp3552
g3
F0.0
sg4
F4.0
sg5
F0.0
sg6
F-4.0
sb(dp3553
I00
I4
sI01
F26.72
ss(i__main__
State
p3554
(dp3555
g3
F-6.0
sg4
F0.0
sg5
F6.0
sg6
F6.0
sb(dp3556
I00
I-11
sI01
F33.980000000000004
ss(i__main__
State
p3557
(dp3558
g3
F6.0
sg4
F7.0
sg5
F-6.0
sg6
F2.0
sb(dp3559
I00
F-26.997999999999998
sI01
I-56
ss(i__main__
State
p3560
(dp3561
g3
F2.0
sg4
F9.0
sg5
F-2.0
sg6
F2.0
sb(dp3562
I00
F29.0
sI01
F0.0
ss(i__main__
State
p3563
(dp3564
g3
F-5.0
sg4
F6.0
sg5
F5.0
sg6
F8.0
sb(dp3565
I00
I-43
sI01
F55.84068661
ss(i__main__
State
p3566
(dp3567
g3
F7.0
sg4
F10.0
sg5
F-7.0
sg6
F8.0
sb(dp3568
I00
F20.1
sI01
F0.0
ss(i__main__
State
p3569
(dp3570
g3
F8.0
sg4
F7.0
sg5
F-8.0
sg6
F2.0
sb(dp3571
I00
F-19.561506606599995
sI01
F-89.1
ss(i__main__
State
p3572
(dp3573
g3
F0.0
sg4
F6.0
sg5
F0.0
sg6
F8.0
sb(dp3574
I00
I-93
sI01
F-10.1176
ss(i__main__
State
p3575
(dp3576
g3
F4.0
sg4
F10.0
sg5
F-4.0
sg6
F6.0
sb(dp3577
I00
F10.0
sI01
F34.580000000000005
ss(i__main__
State
p3578
(dp3579
g3
F3.0
sg4
F3.0
sg5
F-3.0
sg6
F-8.0
sb(dp3580
I00
I-23
sI01
F-9.765699999999999
ss(i__main__
State
p3581
(dp3582
g3
F7.0
sg4
F5.0
sg5
F-7.0
sg6
F4.0
sb(dp3583
I00
I-84
sI01
F10.35538
ss(i__main__
State
p3584
(dp3585
g3
F8.0
sg4
F1.0
sg5
F-8.0
sg6
F-6.0
sb(dp3586
I00
F50.31838575
sI01
I48
ss(i__main__
State
p3587
(dp3588
g3
F-4.0
sg4
F2.0
sg5
F4.0
sg6
F8.0
sb(dp3589
I00
F71.0
sI01
I-98
ss(i__main__
State
p3590
(dp3591
g3
F-6.0
sg4
F7.0
sg5
F6.0
sg6
F4.0
sb(dp3592
I00
F-3.4000000000000004
sI01
F10.015880000000001
ss(i__main__
State
p3593
(dp3594
g3
F0.0
sg4
F0.0
sg5
F0.0
sg6
F-2.0
sb(dp3595
I00
F23.7
sI01
I-23
ss(i__main__
State
p3596
(dp3597
g3
F-7.0
sg4
F8.0
sg5
F7.0
sg6
F4.0
sb(dp3598
I00
F40.9
sI01
F0.0
ss(i__main__
State
p3599
(dp3600
g3
F-8.0
sg4
F6.0
sg5
F8.0
sg6
F8.0
sb(dp3601
I00
I-85
sI01
F-3.0
ss(i__main__
State
p3602
(dp3603
g3
F5.0
sg4
F7.0
sg5
F-5.0
sg6
F-6.0
sb(dp3604
I00
F51.75848
sI01
F15.202219
ss(i__main__
State
p3605
(dp3606
g3
F5.0
sg4
F5.0
sg5
F-5.0
sg6
F8.0
sb(dp3607
I00
I-59
sI01
F-11.39021169389526
ss(i__main__
State
p3608
(dp3609
g3
F6.0
sg4
F2.0
sg5
F-6.0
sg6
F-2.0
sb(dp3610
I00
F38.613099999999996
sI01
F-88.5
ss(i__main__
State
p3611
(dp3612
g3
F-3.0
sg4
F7.0
sg5
F3.0
sg6
F8.0
sb(dp3613
I00
F-39.76
sI01
I-52
ss(i__main__
State
p3614
(dp3615
g3
F4.0
sg4
F9.0
sg5
F-4.0
sg6
F4.0
sb(dp3616
I00
F21.19
sI01
F0.0
ss(i__main__
State
p3617
(dp3618
g3
F2.0
sg4
F5.0
sg5
F-2.0
sg6
F6.0
sb(dp3619
I00
F83.7363
sI01
F50.1
ss(i__main__
State
p3620
(dp3621
g3
F-6.0
sg4
F4.0
sg5
F6.0
sg6
F-4.0
sb(dp3622
I00
I-40
sI01
F12.466016660000001
ss(i__main__
State
p3623
(dp3624
g3
F5.0
sg4
F1.0
sg5
F-5.0
sg6
F2.0
sb(dp3625
I00
F45.28064
sI01
F-18.0
ss(i__main__
State
p3626
(dp3627
g3
F-7.0
sg4
F6.0
sg5
F7.0
sg6
F-2.0
sb(dp3628
I00
F65.2228498272
sI01
F66.86019999999999
ss(i__main__
State
p3629
(dp3630
g3
F0.0
sg4
F10.0
sg5
F0.0
sg6
F4.0
sb(dp3631
I00
F-1899.0
sI01
F0.0
ss(i__main__
State
p3632
(dp3633
g3
F3.0
sg4
F5.0
sg5
F-3.0
sg6
F8.0
sb(dp3634
I00
F78.15429999999999
sI01
F25.6
ss(i__main__
State
p3635
(dp3636
g3
F5.0
sg4
F6.0
sg5
F-5.0
sg6
F0.0
sb(dp3637
I00
I21
sI01
F-45.3
ss(i__main__
State
p3638
(dp3639
g3
F-4.0
sg4
F4.0
sg5
F4.0
sg6
F-8.0
sb(dp3640
I00
F40.10760023290999
sI01
F-41.97825
ss(i__main__
State
p3641
(dp3642
g3
F6.0
sg4
F9.0
sg5
F-6.0
sg6
F-6.0
sb(dp3643
I00
F79.5333989311483
sI01
F21.9
ss(i__main__
State
p3644
(dp3645
g3
F-5.0
sg4
F8.0
sg5
F5.0
sg6
F-8.0
sb(dp3646
I00
F38.1
sI01
F11.0
ss(i__main__
State
p3647
(dp3648
g3
F-3.0
sg4
F3.0
sg5
F3.0
sg6
F6.0
sb(dp3649
I00
I-54
sI01
F35.291111
ss(i__main__
State
p3650
(dp3651
g3
F-5.0
sg4
F7.0
sg5
F5.0
sg6
F6.0
sb(dp3652
I00
F-3.1999999999999997
sI01
F7.574
ss(i__main__
State
p3653
(dp3654
g3
F2.0
sg4
F0.0
sg5
F-2.0
sg6
F-6.0
sb(dp3655
I00
F72.837
sI01
I21
ss(i__main__
State
p3656
(dp3657
g3
F0.0
sg4
F9.0
sg5
F0.0
sg6
F-4.0
sb(dp3658
I00
F80.03910013000001
sI01
F10.0
ss(i__main__
State
p3659
(dp3660
g3
F0.0
sg4
F6.0
sg5
F0.0
sg6
F-8.0
sb(dp3661
I00
I-43
sI01
F6.1812612
ss(i__main__
State
p3662
(dp3663
g3
F-2.0
sg4
F10.0
sg5
F2.0
sg6
F6.0
sb(dp3664
I00
F25.700000000000003
sI01
F0.0
ss(i__main__
State
p3665
(dp3666
g3
F-1.0
sg4
F8.0
sg5
F1.0
sg6
F2.0
sb(dp3667
I00
F50.001
sI01
F0.0
ss(i__main__
State
p3668
(dp3669
g3
F-3.0
sg4
F10.0
sg5
F3.0
sg6
F-2.0
sb(dp3670
I00
F99.7011964
sI01
F0.0
ss(i__main__
State
p3671
(dp3672
g3
F1.0
sg4
F6.0
sg5
F-1.0
sg6
F2.0
sb(dp3673
I00
F75.23487116899999
sI01
F63.720000000000006
ss(i__main__
State
p3674
(dp3675
g3
F8.0
sg4
F0.0
sg5
F-8.0
sg6
F-8.0
sb(dp3676
I00
F65.083
sI01
F-91.0
ss(i__main__
State
p3677
(dp3678
g3
F1.0
sg4
F0.0
sg5
F-1.0
sg6
F4.0
sb(dp3679
I00
F78.42
sI01
I42
ss(i__main__
State
p3680
(dp3681
g3
F-5.0
sg4
F10.0
sg5
F5.0
sg6
F8.0
sb(dp3682
I00
F13.010135738
sI01
F25.732100000000003
ss(i__main__
State
p3683
(dp3684
g3
F2.0
sg4
F4.0
sg5
F-2.0
sg6
F-2.0
sb(dp3685
I00
I-62
sI01
F0.645999999999999
ss(i__main__
State
p3686
(dp3687
g3
F2.0
sg4
F9.0
sg5
F-2.0
sg6
F0.0
sb(dp3688
I00
F-1000.0
sI01
F0.0
ss(i__main__
State
p3689
(dp3690
g3
F-1.0
sg4
F4.0
sg5
F1.0
sg6
F-4.0
sb(dp3691
I00
F7.7
sI01
I-17
ss(i__main__
State
p3692
(dp3693
g3
F-3.0
sg4
F6.0
sg5
F3.0
sg6
F-8.0
sb(dp3694
I00
F37.2
sI01
F-23.0
ss(i__main__
State
p3695
(dp3696
g3
F5.0
sg4
F5.0
sg5
F-5.0
sg6
F-4.0
sb(dp3697
I00
I-54
sI01
F-19.5
ss(i__main__
State
p3698
(dp3699
g3
F-4.0
sg4
F8.0
sg5
F4.0
sg6
F-4.0
sb(dp3700
I00
F10.0
sI01
F11.9
ss(i__main__
State
p3701
(dp3702
g3
F-8.0
sg4
F5.0
sg5
F8.0
sg6
F0.0
sb(dp3703
I00
F15.84648902
sI01
I-98
ss(i__main__
State
p3704
(dp3705
g3
F1.0
sg4
F3.0
sg5
F-1.0
sg6
F-4.0
sb(dp3706
I00
F-82.2
sI01
F14.152
ss(i__main__
State
p3707
(dp3708
g3
F-8.0
sg4
F10.0
sg5
F8.0
sg6
F-6.0
sb(dp3709
I00
F13.94101088
sI01
F0.0
ss(i__main__
State
p3710
(dp3711
g3
F-8.0
sg4
F0.0
sg5
F8.0
sg6
F8.0
sb(dp3712
I00
I-98
sI01
F-39.396
ss(i__main__
State
p3713
(dp3714
g3
F4.0
sg4
F3.0
sg5
F-4.0
sg6
F4.0
sb(dp3715
I00
I-40
sI01
F-3.6899999999999995
ss(i__main__
State
p3716
(dp3717
g3
F5.0
sg4
F4.0
sg5
F-5.0
sg6
F-8.0
sb(dp3718
I00
F-59.72
sI01
F46.9
ss(i__main__
State
p3719
(dp3720
g3
F-1.0
sg4
F9.0
sg5
F1.0
sg6
F-6.0
sb(dp3721
I00
F30.270000000000003
sI01
F99.2648699
ss(i__main__
State
p3722
(dp3723
g3
F-7.0
sg4
F2.0
sg5
F7.0
sg6
F4.0
sb(dp3724
I00
F-73.19735
sI01
I76
ss(i__main__
State
p3725
(dp3726
g3
F-3.0
sg4
F8.0
sg5
F3.0
sg6
F-6.0
sb(dp3727
I00
F0.0
sI01
F30.0
ss(i__main__
State
p3728
(dp3729
g3
F7.0
sg4
F9.0
sg5
F-7.0
sg6
F-6.0
sb(dp3730
I00
F76.08005
sI01
F0.0
ss(i__main__
State
p3731
(dp3732
g3
F8.0
sg4
F0.0
sg5
F-8.0
sg6
F6.0
sb(dp3733
I00
F50.1
sI01
F-30.5
ss(i__main__
State
p3734
(dp3735
g3
F1.0
sg4
F9.0
sg5
F-1.0
sg6
F0.0
sb(dp3736
I00
F-1896.739
sI01
F-1000.0
ss(i__main__
State
p3737
(dp3738
g3
F4.0
sg4
F3.0
sg5
F-4.0
sg6
F2.0
sb(dp3739
I00
I40
sI01
F59.1
ss(i__main__
State
p3740
(dp3741
g3
F3.0
sg4
F8.0
sg5
F-3.0
sg6
F-4.0
sb(dp3742
I00
F59.1467
sI01
F11.0
ss(i__main__
State
p3743
(dp3744
g3
F2.0
sg4
F2.0
sg5
F-2.0
sg6
F6.0
sb(dp3745
I00
F-24.6
sI01
F4.9
ss(i__main__
State
p3746
(dp3747
g3
F-1.0
sg4
F7.0
sg5
F1.0
sg6
F4.0
sb(dp3748
I00
F36.84
sI01
F23.6
ss(i__main__
State
p3749
(dp3750
g3
F-2.0
sg4
F8.0
sg5
F2.0
sg6
F4.0
sb(dp3751
I00
F49.928
sI01
F0.0
ss(i__main__
State
p3752
(dp3753
g3
F-3.0
sg4
F1.0
sg5
F3.0
sg6
F-6.0
sb(dp3754
I00
F41.112199999999994
sI01
F22.937499744
ss(i__main__
State
p3755
(dp3756
g3
F-3.0
sg4
F8.0
sg5
F3.0
sg6
F4.0
sb(dp3757
I00
F50.0
sI01
F32.857621460800004
ss(i__main__
State
p3758
(dp3759
g3
F1.0
sg4
F5.0
sg5
F-1.0
sg6
F2.0
sb(dp3760
I00
I55
sI01
F80.41886410000001
ss(i__main__
State
p3761
(dp3762
g3
F4.0
sg4
F1.0
sg5
F-4.0
sg6
F-4.0
sb(dp3763
I00
F59.72
sI01
I14
ss(i__main__
State
p3764
(dp3765
g3
F-2.0
sg4
F7.0
sg5
F2.0
sg6
F2.0
sb(dp3766
I00
I-12
sI01
F28.684274000000002
ss(i__main__
State
p3767
(dp3768
g3
F5.0
sg4
F2.0
sg5
F-5.0
sg6
F-2.0
sb(dp3769
I00
I48
sI01
F50.7
ss(i__main__
State
p3770
(dp3771
g3
F6.0
sg4
F6.0
sg5
F-6.0
sg6
F-8.0
sb(dp3772
I00
F19.533079999999998
sI01
F59.360348
ss(i__main__
State
p3773
(dp3774
g3
F4.0
sg4
F4.0
sg5
F-4.0
sg6
F-6.0
sb(dp3775
I00
F53.465999999999994
sI01
I-77
ss(i__main__
State
p3776
(dp3777
g3
F-7.0
sg4
F1.0
sg5
F7.0
sg6
F-8.0
sb(dp3778
I00
F24.8506
sI01
F-45.959999999999994
ss(i__main__
State
p3779
(dp3780
g3
F2.0
sg4
F8.0
sg5
F-2.0
sg6
F-4.0
sb(dp3781
I00
F-42.992880100000015
sI01
F-37.61542615200002
ss(i__main__
State
p3782
(dp3783
g3
F-4.0
sg4
F4.0
sg5
F4.0
sg6
F-6.0
sb(dp3784
I00
F11.2
sI01
I-6
ss(i__main__
State
p3785
(dp3786
g3
F-2.0
sg4
F3.0
sg5
F2.0
sg6
F4.0
sb(dp3787
I00
F67.349441
sI01
I-97
ss(i__main__
State
p3788
(dp3789
g3
F5.0
sg4
F10.0
sg5
F-5.0
sg6
F-8.0
sb(dp3790
I00
F0.0
sI01
F39.776066986000004
ss(i__main__
State
p3791
(dp3792
g3
F6.0
sg4
F2.0
sg5
F-6.0
sg6
F0.0
sb(dp3793
I00
F42.07
sI01
I-60
ss(i__main__
State
p3794
(dp3795
g3
F2.0
sg4
F4.0
sg5
F-2.0
sg6
F-8.0
sb(dp3796
I00
I32
sI01
F52.98942214
ss(i__main__
State
p3797
(dp3798
g3
F7.0
sg4
F3.0
sg5
F-7.0
sg6
F0.0
sb(dp3799
I00
F-65.2094
sI01
F36.135
ss(i__main__
State
p3800
(dp3801
g3
F3.0
sg4
F10.0
sg5
F-3.0
sg6
F2.0
sb(dp3802
I00
F40.153000000000006
sI01
F0.0
ss(i__main__
State
p3803
(dp3804
g3
F-3.0
sg4
F7.0
sg5
F3.0
sg6
F-6.0
sb(dp3805
I00
F6.598
sI01
F-63.8
ss(i__main__
State
p3806
(dp3807
g3
F3.0
sg4
F8.0
sg5
F-3.0
sg6
F2.0
sb(dp3808
I00
F58.94682089
sI01
F12.0
ss(i__main__
State
p3809
(dp3810
g3
F1.0
sg4
F2.0
sg5
F-1.0
sg6
F-6.0
sb(dp3811
I00
I-65
sI01
F-21.29
ss(i__main__
State
p3812
(dp3813
g3
F-4.0
sg4
F8.0
sg5
F4.0
sg6
F6.0
sb(dp3814
I00
F50.0
sI01
F0.0
ss(i__main__
State
p3815
(dp3816
g3
F-6.0
sg4
F2.0
sg5
F6.0
sg6
F8.0
sb(dp3817
I00
F-74.0
sI01
F33.7049
ss(i__main__
State
p3818
(dp3819
g3
F6.0
sg4
F3.0
sg5
F-6.0
sg6
F2.0
sb(dp3820
I00
F23.9761
sI01
I-48
ss(i__main__
State
p3821
(dp3822
g3
F8.0
sg4
F1.0
sg5
F-8.0
sg6
F6.0
sb(dp3823
I00
F-73.5
sI01
F15.464551200000002
ss(i__main__
State
p3824
(dp3825
g3
F4.0
sg4
F10.0
sg5
F-4.0
sg6
F-8.0
sb(dp3826
I00
F11.0
sI01
F0.0
ss(i__main__
State
p3827
(dp3828
g3
F5.0
sg4
F8.0
sg5
F-5.0
sg6
F0.0
sb(dp3829
I00
F113.02907762
sI01
F10.0
ss(i__main__
State
p3830
(dp3831
g3
F3.0
sg4
F6.0
sg5
F-3.0
sg6
F-4.0
sb(dp3832
I00
I-57
sI01
F88.8
ss(i__main__
State
p3833
(dp3834
g3
F-8.0
sg4
F8.0
sg5
F8.0
sg6
F8.0
sb(dp3835
I00
F10.0
sI01
F0.0
ss(i__main__
State
p3836
(dp3837
g3
F-8.0
sg4
F8.0
sg5
F8.0
sg6
F-2.0
sb(dp3838
I00
F20.0
sI01
F0.0
ss(i__main__
State
p3839
(dp3840
g3
F3.0
sg4
F9.0
sg5
F-3.0
sg6
F6.0
sb(dp3841
I00
F43.4436
sI01
F0.0
ss(i__main__
State
p3842
(dp3843
g3
F5.0
sg4
F9.0
sg5
F-5.0
sg6
F-4.0
sb(dp3844
I00
F126.37593428121947
sI01
F37.392517356923996
ss(i__main__
State
p3845
(dp3846
g3
F4.0
sg4
F5.0
sg5
F-4.0
sg6
F4.0
sb(dp3847
I00
I-2
sI01
F57.90033505999999
ss(i__main__
State
p3848
(dp3849
g3
F4.0
sg4
F6.0
sg5
F-4.0
sg6
F4.0
sb(dp3850
I00
I-36
sI01
F38.508422
ss(i__main__
State
p3851
(dp3852
g3
F0.0
sg4
F8.0
sg5
F0.0
sg6
F-4.0
sb(dp3853
I00
F-1899.0
sI01
F-2704.86796
ss(i__main__
State
p3854
(dp3855
g3
F-7.0
sg4
F3.0
sg5
F7.0
sg6
F-4.0
sb(dp3856
I00
F-2.5999999999999996
sI01
F4.57
ss(i__main__
State
p3857
(dp3858
g3
F7.0
sg4
F3.0
sg5
F-7.0
sg6
F8.0
sb(dp3859
I00
I-100
sI01
F-16.99191669
ss(i__main__
State
p3860
(dp3861
g3
F-4.0
sg4
F4.0
sg5
F4.0
sg6
F2.0
sb(dp3862
I00
I-30
sI01
F16.919999999999998
ss(i__main__
State
p3863
(dp3864
g3
F-5.0
sg4
F10.0
sg5
F5.0
sg6
F4.0
sb(dp3865
I00
F52.623979094800006
sI01
F13.31
ss(i__main__
State
p3866
(dp3867
g3
F2.0
sg4
F10.0
sg5
F-2.0
sg6
F0.0
sb(dp3868
I00
F20.0
sI01
F6.5
ss(i__main__
State
p3869
(dp3870
g3
F-7.0
sg4
F3.0
sg5
F7.0
sg6
F4.0
sb(dp3871
I00
F-1.8000000000000007
sI01
F41.46265000000001
ss(i__main__
State
p3872
(dp3873
g3
F7.0
sg4
F1.0
sg5
F-7.0
sg6
F-4.0
sb(dp3874
I00
F40.992749849999996
sI01
F-59.06
ss(i__main__
State
p3875
(dp3876
g3
F4.0
sg4
F4.0
sg5
F-4.0
sg6
F-8.0
sb(dp3877
I00
F84.2
sI01
I-5
ss(i__main__
State
p3878
(dp3879
g3
F-3.0
sg4
F4.0
sg5
F3.0
sg6
F8.0
sb(dp3880
I00
F43.014370513923
sI01
I-25
ss(i__main__
State
p3881
(dp3882
g3
F-7.0
sg4
F9.0
sg5
F7.0
sg6
F0.0
sb(dp3883
I00
F-1898.9
sI01
F-1000.0
ss(i__main__
State
p3884
(dp3885
g3
F3.0
sg4
F10.0
sg5
F-3.0
sg6
F-6.0
sb(dp3886
I00
F20.0
sI01
F0.0
ss(i__main__
State
p3887
(dp3888
g3
F-8.0
sg4
F9.0
sg5
F8.0
sg6
F-4.0
sb(dp3889
I00
F19.0
sI01
F0.0
ss(i__main__
State
p3890
(dp3891
g3
F-6.0
sg4
F5.0
sg5
F6.0
sg6
F-6.0
sb(dp3892
I00
F37.227630500000004
sI01
I-47
ss(i__main__
State
p3893
(dp3894
g3
F-5.0
sg4
F8.0
sg5
F5.0
sg6
F-2.0
sb(dp3895
I00
F10.0
sI01
F0.0
ss(i__main__
State
p3896
(dp3897
g3
F8.0
sg4
F7.0
sg5
F-8.0
sg6
F-6.0
sb(dp3898
I00
F36.79616295
sI01
F-35.0
ss(i__main__
State
p3899
(dp3900
g3
F-5.0
sg4
F8.0
sg5
F5.0
sg6
F8.0
sb(dp3901
I00
F50.004972
sI01
F0.0
ss(i__main__
State
p3902
(dp3903
g3
F-6.0
sg4
F9.0
sg5
F6.0
sg6
F2.0
sb(dp3904
I00
F21.0
sI01
F0.0
ss(i__main__
State
p3905
(dp3906
g3
F8.0
sg4
F4.0
sg5
F-8.0
sg6
F-2.0
sb(dp3907
I00
F7.1000000000000005
sI01
F-67.61
ss(i__main__
State
p3908
(dp3909
g3
F-1.0
sg4
F7.0
sg5
F1.0
sg6
F-4.0
sb(dp3910
I00
I43
sI01
F52.84
ss(i__main__
State
p3911
(dp3912
g3
F5.0
sg4
F6.0
sg5
F-5.0
sg6
F6.0
sb(dp3913
I00
F-94.2
sI01
F-14.290773899999992
ss(i__main__
State
p3914
(dp3915
g3
F0.0
sg4
F4.0
sg5
F0.0
sg6
F-8.0
sb(dp3916
I00
F-30.2
sI01
F-28.0251
ss(i__main__
State
p3917
(dp3918
g3
F8.0
sg4
F5.0
sg5
F-8.0
sg6
F8.0
sb(dp3919
I00
F65.00405
sI01
I26
ss(i__main__
State
p3920
(dp3921
g3
F7.0
sg4
F2.0
sg5
F-7.0
sg6
F6.0
sb(dp3922
I00
I-97
sI01
F67.38
ss(i__main__
State
p3923
(dp3924
g3
F5.0
sg4
F3.0
sg5
F-5.0
sg6
F6.0
sb(dp3925
I00
F-87.05278000000001
sI01
F25.268757646900003
ss(i__main__
State
p3926
(dp3927
g3
F-3.0
sg4
F4.0
sg5
F3.0
sg6
F-2.0
sb(dp3928
I00
F-44.0
sI01
F-19.5
ss(i__main__
State
p3929
(dp3930
g3
F6.0
sg4
F9.0
sg5
F-6.0
sg6
F-4.0
sb(dp3931
I00
F62.03244
sI01
F10.0
ss(i__main__
State
p3932
(dp3933
g3
F-1.0
sg4
F0.0
sg5
F1.0
sg6
F-6.0
sb(dp3934
I00
I-19
sI01
F-5.6
ss(i__main__
State
p3935
(dp3936
g3
F-3.0
sg4
F7.0
sg5
F3.0
sg6
F6.0
sb(dp3937
I00
F39.43
sI01
I18
ss(i__main__
State
p3938
(dp3939
g3
F-4.0
sg4
F2.0
sg5
F4.0
sg6
F2.0
sb(dp3940
I00
F71.3
sI01
F-84.6775421
ss(i__main__
State
p3941
(dp3942
g3
F-4.0
sg4
F5.0
sg5
F4.0
sg6
F0.0
sb(dp3943
I00
F55.975899999999996
sI01
I1
ss(i__main__
State
p3944
(dp3945
g3
F8.0
sg4
F3.0
sg5
F-8.0
sg6
F2.0
sb(dp3946
I00
F54.663171150480004
sI01
I44
ss(i__main__
State
p3947
(dp3948
g3
F-8.0
sg4
F3.0
sg5
F8.0
sg6
F-4.0
sb(dp3949
I00
F40.316
sI01
F7.5
ss(i__main__
State
p3950
(dp3951
g3
F-1.0
sg4
F1.0
sg5
F1.0
sg6
F-4.0
sb(dp3952
I00
F-26.5
sI01
F-10.330642954799997
ss(i__main__
State
p3953
(dp3954
g3
F4.0
sg4
F8.0
sg5
F-4.0
sg6
F-2.0
sb(dp3955
I00
F11.100000000000001
sI01
F0.0
ss(i__main__
State
p3956
(dp3957
g3
F1.0
sg4
F8.0
sg5
F-1.0
sg6
F6.0
sb(dp3958
I00
F0.0
sI01
F91.93415522000001
ss(i__main__
State
p3959
(dp3960
g3
F-5.0
sg4
F10.0
sg5
F5.0
sg6
F6.0
sb(dp3961
I00
F10.0
sI01
F60.85650167
ss(i__main__
State
p3962
(dp3963
g3
F0.0
sg4
F3.0
sg5
F0.0
sg6
F4.0
sb(dp3964
I00
F-11.8
sI01
I-63
ss(i__main__
State
p3965
(dp3966
g3
F5.0
sg4
F7.0
sg5
F-5.0
sg6
F-4.0
sb(dp3967
I00
F12.0
sI01
I-1
ss(i__main__
State
p3968
(dp3969
g3
F1.0
sg4
F1.0
sg5
F-1.0
sg6
F2.0
sb(dp3970
I00
F33.260000000000005
sI01
I-64
ss(i__main__
State
p3971
(dp3972
g3
F5.0
sg4
F9.0
sg5
F-5.0
sg6
F8.0
sb(dp3973
I00
F10.0
sI01
F0.0
ss(i__main__
State
p3974
(dp3975
g3
F-2.0
sg4
F7.0
sg5
F2.0
sg6
F-2.0
sb(dp3976
I00
I-63
sI01
F49.7
ss(i__main__
State
p3977
(dp3978
g3
F-5.0
sg4
F9.0
sg5
F5.0
sg6
F4.0
sb(dp3979
I00
F43.05883686
sI01
F0.0
ss(i__main__
State
p3980
(dp3981
g3
F2.0
sg4
F8.0
sg5
F-2.0
sg6
F8.0
sb(dp3982
I00
F0.0
sI01
F27.318560000000005
ss(i__main__
State
p3983
(dp3984
g3
F-6.0
sg4
F6.0
sg5
F6.0
sg6
F8.0
sb(dp3985
I00
I-42
sI01
F67.5471
ss(i__main__
State
p3986
(dp3987
g3
F-7.0
sg4
F4.0
sg5
F7.0
sg6
F2.0
sb(dp3988
I00
F12.89762095
sI01
F-17.4
ss(i__main__
State
p3989
(dp3990
g3
F7.0
sg4
F9.0
sg5
F-7.0
sg6
F6.0
sb(dp3991
I00
F41.0834802
sI01
F12.304919726000001
ss(i__main__
State
p3992
(dp3993
g3
F-8.0
sg4
F5.0
sg5
F8.0
sg6
F2.0
sb(dp3994
I00
F78.2
sI01
I-52
ss(i__main__
State
p3995
(dp3996
g3
F3.0
sg4
F8.0
sg5
F-3.0
sg6
F-6.0
sb(dp3997
I00
F72.5056189556
sI01
F0.0
ss(i__main__
State
p3998
(dp3999
g3
F-1.0
sg4
F2.0
sg5
F1.0
sg6
F6.0
sb(dp4000
I00
F94.60000000000001
sI01
I59
ss(i__main__
State
p4001
(dp4002
g3
F-5.0
sg4
F9.0
sg5
F5.0
sg6
F0.0
sb(dp4003
I00
F-999.0
sI01
F0.0
ss(i__main__
State
p4004
(dp4005
g3
F-1.0
sg4
F7.0
sg5
F1.0
sg6
F-6.0
sb(dp4006
I00
F32.68498368
sI01
F-52.2
ss(i__main__
State
p4007
(dp4008
g3
F-2.0
sg4
F9.0
sg5
F2.0
sg6
F0.0
sb(dp4009
I00
F-3433.3905999999997
sI01
F-3427.336316129
ss(i__main__
State
p4010
(dp4011
g3
F-3.0
sg4
F8.0
sg5
F3.0
sg6
F2.0
sb(dp4012
I00
F59.638528
sI01
F0.0
ss(i__main__
State
p4013
(dp4014
g3
F1.0
sg4
F4.0
sg5
F-1.0
sg6
F2.0
sb(dp4015
I00
F52.23
sI01
F19.1
ss(i__main__
State
p4016
(dp4017
g3
F8.0
sg4
F10.0
sg5
F-8.0
sg6
F-6.0
sb(dp4018
I00
F0.0
sI01
F9.64
ss(i__main__
State
p4019
(dp4020
g3
F-6.0
sg4
F10.0
sg5
F6.0
sg6
F0.0
sb(dp4021
I00
F0.0
sI01
F82.4932746
ss(i__main__
State
p4022
(dp4023
g3
F6.0
sg4
F6.0
sg5
F-6.0
sg6
F6.0
sb(dp4024
I00
F77.44042827115841
sI01
I-52
ss(i__main__
State
p4025
(dp4026
g3
F-2.0
sg4
F2.0
sg5
F2.0
sg6
F-6.0
sb(dp4027
I00
F63.948184658260004
sI01
I-100
ss(i__main__
State
p4028
(dp4029
g3
F6.0
sg4
F5.0
sg5
F-6.0
sg6
F2.0
sb(dp4030
I00
F81.0
sI01
I95
ss(i__main__
State
p4031
(dp4032
g3
F-1.0
sg4
F9.0
sg5
F1.0
sg6
F4.0
sb(dp4033
I00
F55.56100000000001
sI01
F11.3
ss(i__main__
State
p4034
(dp4035
g3
F0.0
sg4
F1.0
sg5
F0.0
sg6
F-4.0
sb(dp4036
I00
F24.2
sI01
I-90
ss(i__main__
State
p4037
(dp4038
g3
F-1.0
sg4
F6.0
sg5
F1.0
sg6
F-4.0
sb(dp4039
I00
I-98
sI01
F67.4
ss(i__main__
State
p4040
(dp4041
g3
F-3.0
sg4
F8.0
sg5
F3.0
sg6
F6.0
sb(dp4042
I00
F39.190000000000005
sI01
F12.0
ss(i__main__
State
p4043
(dp4044
g3
F-2.0
sg4
F1.0
sg5
F2.0
sg6
F-4.0
sb(dp4045
I00
I80
sI01
F84.7103
ss(i__main__
State
p4046
(dp4047
g3
F0.0
sg4
F6.0
sg5
F0.0
sg6
F-4.0
sb(dp4048
I00
I-87
sI01
F-61.49676
ss(i__main__
State
p4049
(dp4050
g3
F-4.0
sg4
F7.0
sg5
F4.0
sg6
F-6.0
sb(dp4051
I00
I-25
sI01
F72.4
ss(i__main__
State
p4052
(dp4053
g3
F2.0
sg4
F8.0
sg5
F-2.0
sg6
F-6.0
sb(dp4054
I00
F71.8823669
sI01
F11.100000000000001
ss.