(dp0
(i__main__
State
p1
(dp2
S'y1'
p3
F8.0
sS'x'
p4
F3.0
sS'y3'
p5
F-3.0
sS'y2'
p6
F-6.0
sb(dp7
I00
F16970.11790384955
sI01
F11124.491540650928
ss(i__main__
State
p8
(dp9
g3
F4.0
sg4
F7.0
sg5
F-7.0
sg6
F7.0
sb(dp10
I00
F15754.999449650708
sI01
F17759.998749729017
ss(i__main__
State
p11
(dp12
g3
F-7.0
sg4
F5.0
sg5
F-1.0
sg6
F-4.0
sb(dp13
I00
F3258.9288667554692
sI01
F8041.605976267892
ss(i__main__
State
p14
(dp15
g3
F-5.0
sg4
F2.0
sg5
F1.0
sg6
F-2.0
sb(dp16
I00
F17214.24775968751
sI01
F13788.198000099677
ss(i__main__
State
p17
(dp18
g3
F7.0
sg4
F6.0
sg5
F-4.0
sg6
F-7.0
sb(dp19
I00
F16699.836290445874
sI01
F9838.364537246323
ss(i__main__
State
p20
(dp21
g3
F0.0
sg4
F7.0
sg5
F6.0
sg6
F3.0
sb(dp22
I00
F17485.673248361134
sI01
F18051.638543159068
ss(i__main__
State
p23
(dp24
g3
F-1.0
sg4
F3.0
sg5
F5.0
sg6
F2.0
sb(dp25
I00
F10609.203979263944
sI01
F16295.758516169013
ss(i__main__
State
p26
(dp27
g3
F1.0
sg4
F4.0
sg5
F7.0
sg6
F4.0
sb(dp28
I00
F13466.619049889865
sI01
F16987.892015053967
ss(i__main__
State
p29
(dp30
g3
F-1.0
sg4
F7.0
sg5
F5.0
sg6
F2.0
sb(dp31
I00
F17785.068608618036
sI01
F5688.6335924044715
ss(i__main__
State
p32
(dp33
g3
F-1.0
sg4
F5.0
sg5
F5.0
sg6
F2.0
sb(dp34
I00
F17786.68999402495
sI01
F17146.794620966764
ss(i__main__
State
p35
(dp36
g3
F-6.0
sg4
F5.0
sg5
F0.0
sg6
F-3.0
sb(dp37
I00
F11277.793654520516
sI01
F3078.2555169547113
ss(i__main__
State
p38
(dp39
g3
F-2.0
sg4
F8.0
sg5
F4.0
sg6
F1.0
sb(dp40
I00
F6576.257742576536
sI01
F13208.361047051578
ss(i__main__
State
p41
(dp42
g3
F6.0
sg4
F0.0
sg5
F-5.0
sg6
F-8.0
sb(dp43
I00
F17081.800808929354
sI01
F15586.155495388131
ss(i__main__
State
p44
(dp45
g3
F6.0
sg4
F4.0
sg5
F-5.0
sg6
F-8.0
sb(dp46
I00
F5358.588424635204
sI01
F16385.797241408716
ss(i__main__
State
p47
(dp48
g3
F-4.0
sg4
F7.0
sg5
F2.0
sg6
F-1.0
sb(dp49
I00
F7441.588312737609
sI01
F-5032.983032768734
ss(i__main__
State
p50
(dp51
g3
F-3.0
sg4
F2.0
sg5
F3.0
sg6
F0.0
sb(dp52
I00
F14723.296990664385
sI01
F17648.684953882657
ss(i__main__
State
p53
(dp54
g3
F5.0
sg4
F0.0
sg5
F-6.0
sg6
F8.0
sb(dp55
I00
F16757.120547278442
sI01
F15472.830497772313
ss(i__main__
State
p56
(dp57
g3
F3.0
sg4
F2.0
sg5
F-8.0
sg6
F6.0
sb(dp58
I00
F7883.488356488468
sI01
F13481.242332534903
ss(i__main__
State
p59
(dp60
g3
F3.0
sg4
F3.0
sg5
F-8.0
sg6
F6.0
sb(dp61
I00
F15013.54964664786
sI01
F16552.0328677091
ss(i__main__
State
p62
(dp63
g3
F2.0
sg4
F0.0
sg5
F8.0
sg6
F5.0
sb(dp64
I00
F16113.324332553726
sI01
F8246.186320907453
ss(i__main__
State
p65
(dp66
g3
F4.0
sg4
F4.0
sg5
F-7.0
sg6
F7.0
sb(dp67
I00
F16724.438730395847
sI01
F15824.037312590466
ss(i__main__
State
p68
(dp69
g3
F-2.0
sg4
F2.0
sg5
F4.0
sg6
F1.0
sb(dp70
I00
F15153.56209406524
sI01
F13249.985975899497
ss(i__main__
State
p71
(dp72
g3
F-4.0
sg4
F2.0
sg5
F2.0
sg6
F-1.0
sb(dp73
I00
F17404.900624070568
sI01
F17590.26346862861
ss(i__main__
State
p74
(dp75
g3
F-6.0
sg4
F3.0
sg5
F0.0
sg6
F-3.0
sb(dp76
I00
F16763.356834711685
sI01
F17644.36765282574
ss(i__main__
State
p77
(dp78
g3
F2.0
sg4
F8.0
sg5
F8.0
sg6
F5.0
sb(dp79
I00
F18103.06756781644
sI01
F16254.491445871763
ss(i__main__
State
p80
(dp81
g3
F6.0
sg4
F1.0
sg5
F-5.0
sg6
F-8.0
sb(dp82
I00
F13288.301155340312
sI01
F16420.704196884068
ss(i__main__
State
p83
(dp84
g3
F5.0
sg4
F6.0
sg5
F-6.0
sg6
F8.0
sb(dp85
I00
F14849.131952360738
sI01
F12232.725201759142
ss(i__main__
State
p86
(dp87
g3
F8.0
sg4
F1.0
sg5
F-3.0
sg6
F-6.0
sb(dp88
I00
F15942.494316481725
sI01
F17422.727084249476
ss(i__main__
State
p89
(dp90
g3
F-5.0
sg4
F5.0
sg5
F1.0
sg6
F-2.0
sb(dp91
I00
F16351.421330514084
sI01
F3668.1822759276347
ss(i__main__
State
p92
(dp93
g3
F-5.0
sg4
F8.0
sg5
F1.0
sg6
F-2.0
sb(dp94
I00
F14906.358966198353
sI01
F13729.624740225096
ss(i__main__
State
p95
(dp96
g3
F0.0
sg4
F1.0
sg5
F6.0
sg6
F3.0
sb(dp97
I00
F10987.403292913676
sI01
F15749.694435460133
ss(i__main__
State
p98
(dp99
g3
F5.0
sg4
F8.0
sg5
F-6.0
sg6
F8.0
sb(dp100
I00
F17930.429399546854
sI01
F16910.386075986436
ss(i__main__
State
p101
(dp102
g3
F3.0
sg4
F6.0
sg5
F-8.0
sg6
F6.0
sb(dp103
I00
F17082.31798409246
sI01
F12420.687419603662
ss(i__main__
State
p104
(dp105
g3
F3.0
sg4
F1.0
sg5
F-8.0
sg6
F6.0
sb(dp106
I00
F5574.906820226279
sI01
F11111.876932271569
ss(i__main__
State
p107
(dp108
g3
F8.0
sg4
F4.0
sg5
F-3.0
sg6
F-6.0
sb(dp109
I00
F4795.564097480916
sI01
F9493.996866601203
ss(i__main__
State
p110
(dp111
g3
F6.0
sg4
F3.0
sg5
F-5.0
sg6
F-8.0
sb(dp112
I00
F4114.838403499892
sI01
F3843.5276194659023
ss(i__main__
State
p113
(dp114
g3
F8.0
sg4
F8.0
sg5
F-3.0
sg6
F-6.0
sb(dp115
I00
F17736.127378944726
sI01
F17133.388451741568
ss(i__main__
State
p116
(dp117
g3
F7.0
sg4
F8.0
sg5
F-4.0
sg6
F-7.0
sb(dp118
I00
F17795.233960346955
sI01
F16881.078723237046
ss(i__main__
State
p119
(dp120
g3
F-7.0
sg4
F8.0
sg5
F-1.0
sg6
F-4.0
sb(dp121
I00
F6981.6816326874
sI01
F17604.17282541907
ss(i__main__
State
p122
(dp123
g3
F-6.0
sg4
F8.0
sg5
F0.0
sg6
F-3.0
sb(dp124
I00
F3504.167009681755
sI01
F7150.7487481421185
ss(i__main__
State
p125
(dp126
g3
F4.0
sg4
F1.0
sg5
F-7.0
sg6
F7.0
sb(dp127
I00
F11834.091978838655
sI01
F14365.12789517731
ss(i__main__
State
p128
(dp129
g3
F-5.0
sg4
F3.0
sg5
F1.0
sg6
F-2.0
sb(dp130
I00
F13859.001608916426
sI01
F17179.384133862175
ss(i__main__
State
p131
(dp132
g3
F6.0
sg4
F6.0
sg5
F-5.0
sg6
F-8.0
sb(dp133
I00
F12796.301403170926
sI01
F15965.958557273738
ss(i__main__
State
p134
(dp135
g3
F-8.0
sg4
F6.0
sg5
F-2.0
sg6
F-5.0
sb(dp136
I00
F11400.296585039107
sI01
F13934.308099287287
ss(i__main__
State
p137
(dp138
g3
F6.0
sg4
F7.0
sg5
F-5.0
sg6
F-8.0
sb(dp139
I00
F12459.278342795731
sI01
F16919.934505207606
ss(i__main__
State
p140
(dp141
g3
F1.0
sg4
F3.0
sg5
F7.0
sg6
F4.0
sb(dp142
I00
F12209.326957384097
sI01
F15185.927497768864
ss(i__main__
State
p143
(dp144
g3
F1.0
sg4
F1.0
sg5
F7.0
sg6
F4.0
sb(dp145
I00
F6897.6841635888795
sI01
F13695.707287052073
ss(i__main__
State
p146
(dp147
g3
F2.0
sg4
F5.0
sg5
F8.0
sg6
F5.0
sb(dp148
I00
F17234.84437243919
sI01
F16317.732718032414
ss(i__main__
State
p149
(dp150
g3
F0.0
sg4
F2.0
sg5
F6.0
sg6
F3.0
sb(dp151
I00
F16000.802844159323
sI01
F14437.304315302365
ss(i__main__
State
p152
(dp153
g3
F1.0
sg4
F5.0
sg5
F7.0
sg6
F4.0
sb(dp154
I00
F17013.14794105792
sI01
F16420.764791580197
ss(i__main__
State
p155
(dp156
g3
F2.0
sg4
F6.0
sg5
F8.0
sg6
F5.0
sb(dp157
I00
F14888.08492103812
sI01
F17358.491698587364
ss(i__main__
State
p158
(dp159
g3
F-1.0
sg4
F1.0
sg5
F5.0
sg6
F2.0
sb(dp160
I00
F14689.920708453767
sI01
F15755.834789702376
ss(i__main__
State
p161
(dp162
g3
F2.0
sg4
F7.0
sg5
F8.0
sg6
F5.0
sb(dp163
I00
F17359.830195311522
sI01
F17991.429568459545
ss(i__main__
State
p164
(dp165
g3
F-7.0
sg4
F1.0
sg5
F-1.0
sg6
F-4.0
sb(dp166
I00
F15902.075034443185
sI01
F9517.663243800302
ss(i__main__
State
p167
(dp168
g3
F-5.0
sg4
F6.0
sg5
F1.0
sg6
F-2.0
sb(dp169
I00
F4830.236377628178
sI01
F1359.4681297724856
ss(i__main__
State
p170
(dp171
g3
F-6.0
sg4
F7.0
sg5
F0.0
sg6
F-3.0
sb(dp172
I00
F11662.181962093438
sI01
F14607.416579166867
ss(i__main__
State
p173
(dp174
g3
F3.0
sg4
F4.0
sg5
F-8.0
sg6
F6.0
sb(dp175
I00
F16272.621462113606
sI01
F13834.538364064992
ss(i__main__
State
p176
(dp177
g3
F7.0
sg4
F4.0
sg5
F-4.0
sg6
F-7.0
sb(dp178
I00
F7373.93845439573
sI01
F5561.183283857138
ss(i__main__
State
p179
(dp180
g3
F8.0
sg4
F2.0
sg5
F-3.0
sg6
F-6.0
sb(dp181
I00
F16794.926955502346
sI01
F17291.120428734223
ss(i__main__
State
p182
(dp183
g3
F1.0
sg4
F7.0
sg5
F7.0
sg6
F4.0
sb(dp184
I00
F17193.419030795885
sI01
F17865.42104817334
ss(i__main__
State
p185
(dp186
g3
F-1.0
sg4
F4.0
sg5
F5.0
sg6
F2.0
sb(dp187
I00
F16388.205689190378
sI01
F17784.31166820324
ss(i__main__
State
p188
(dp189
g3
F-3.0
sg4
F0.0
sg5
F3.0
sg6
F0.0
sb(dp190
I00
F11287.242093526042
sI01
F15230.062883724255
ss(i__main__
State
p191
(dp192
g3
F-8.0
sg4
F4.0
sg5
F-2.0
sg6
F-5.0
sb(dp193
I00
F14253.27465712072
sI01
F5923.039624082454
ss(i__main__
State
p194
(dp195
g3
F1.0
sg4
F2.0
sg5
F7.0
sg6
F4.0
sb(dp196
I00
F15056.63612467025
sI01
F16183.959611386503
ss(i__main__
State
p197
(dp198
g3
F5.0
sg4
F4.0
sg5
F-6.0
sg6
F8.0
sb(dp199
I00
F15507.970333745574
sI01
F16850.232797475895
ss(i__main__
State
p200
(dp201
g3
F-2.0
sg4
F5.0
sg5
F4.0
sg6
F1.0
sb(dp202
I00
F15801.977866531857
sI01
F17721.925273312034
ss(i__main__
State
p203
(dp204
g3
F-8.0
sg4
F2.0
sg5
F-2.0
sg6
F-5.0
sb(dp205
I00
F16753.803842080833
sI01
F17502.97766933308
ss(i__main__
State
p206
(dp207
g3
F-5.0
sg4
F0.0
sg5
F1.0
sg6
F-2.0
sb(dp208
I00
F14330.396232106563
sI01
F17405.133960884275
ss(i__main__
State
p209
(dp210
g3
F1.0
sg4
F8.0
sg5
F7.0
sg6
F4.0
sb(dp211
I00
F18128.298558942493
sI01
F15895.803429863614
ss(i__main__
State
p212
(dp213
g3
F0.0
sg4
F5.0
sg5
F6.0
sg6
F3.0
sb(dp214
I00
F16828.874634032065
sI01
F17863.312989158756
ss(i__main__
State
p215
(dp216
g3
F-4.0
sg4
F3.0
sg5
F2.0
sg6
F-1.0
sb(dp217
I00
F15947.170319495028
sI01
F10193.723515651012
ss(i__main__
State
p218
(dp219
g3
F-8.0
sg4
F5.0
sg5
F-2.0
sg6
F-5.0
sb(dp220
I00
F3933.5798468907424
sI01
F11117.600948132967
ss(i__main__
State
p221
(dp222
g3
F-3.0
sg4
F6.0
sg5
F3.0
sg6
F0.0
sb(dp223
I00
F15722.929430915861
sI01
F16746.51718676734
ss(i__main__
State
p224
(dp225
g3
F7.0
sg4
F3.0
sg5
F-4.0
sg6
F-7.0
sb(dp226
I00
F15970.000411450132
sI01
F6695.214500183723
ss(i__main__
State
p227
(dp228
g3
F5.0
sg4
F5.0
sg5
F-6.0
sg6
F8.0
sb(dp229
I00
F16608.90481695247
sI01
F13144.122149644332
ss(i__main__
State
p230
(dp231
g3
F-5.0
sg4
F7.0
sg5
F1.0
sg6
F-2.0
sb(dp232
I00
F4935.178230354335
sI01
F13767.007007885972
ss(i__main__
State
p233
(dp234
g3
F-4.0
sg4
F4.0
sg5
F2.0
sg6
F-1.0
sb(dp235
I00
F14194.647617392522
sI01
F17599.24198495009
ss(i__main__
State
p236
(dp237
g3
F3.0
sg4
F7.0
sg5
F-8.0
sg6
F6.0
sb(dp238
I00
F17617.926187781035
sI01
F17063.597554825737
ss(i__main__
State
p239
(dp240
g3
F7.0
sg4
F0.0
sg5
F-4.0
sg6
F-7.0
sb(dp241
I00
F16461.442586353573
sI01
F17324.52472091227
ss(i__main__
State
p242
(dp243
g3
F-6.0
sg4
F6.0
sg5
F0.0
sg6
F-3.0
sb(dp244
I00
F2374.9062891832114
sI01
F11165.478138080605
ss(i__main__
State
p245
(dp246
g3
F-6.0
sg4
F0.0
sg5
F0.0
sg6
F-3.0
sb(dp247
I00
F17175.531333333503
sI01
F17528.6099577441
ss(i__main__
State
p248
(dp249
g3
F-8.0
sg4
F0.0
sg5
F-2.0
sg6
F-5.0
sb(dp250
I00
F17292.723549143517
sI01
F14924.533569965475
ss(i__main__
State
p251
(dp252
g3
F6.0
sg4
F8.0
sg5
F-5.0
sg6
F-8.0
sb(dp253
I00
F17859.716981278914
sI01
F17201.924008046604
ss(i__main__
State
p254
(dp255
g3
F-3.0
sg4
F3.0
sg5
F3.0
sg6
F0.0
sb(dp256
I00
F17372.41271190616
sI01
F17643.511351091413
ss(i__main__
State
p257
(dp258
g3
F0.0
sg4
F0.0
sg5
F6.0
sg6
F3.0
sb(dp259
I00
F3302.4996090968466
sI01
F11523.930330419998
ss(i__main__
State
p260
(dp261
g3
F5.0
sg4
F2.0
sg5
F-6.0
sg6
F8.0
sb(dp262
I00
F16096.790190206028
sI01
F2283.583300474437
ss(i__main__
State
p263
(dp264
g3
F-8.0
sg4
F3.0
sg5
F-2.0
sg6
F-5.0
sb(dp265
I00
F17457.50035747252
sI01
F16004.45947109152
ss(i__main__
State
p266
(dp267
g3
F-2.0
sg4
F7.0
sg5
F4.0
sg6
F1.0
sb(dp268
I00
F17186.43211770437
sI01
F8520.041981832457
ss(i__main__
State
p269
(dp270
g3
F0.0
sg4
F6.0
sg5
F6.0
sg6
F3.0
sb(dp271
I00
F16447.71096648715
sI01
F17636.97917827175
ss(i__main__
State
p272
(dp273
g3
F-2.0
sg4
F1.0
sg5
F4.0
sg6
F1.0
sb(dp274
I00
F15527.094899034195
sI01
F14515.191214568664
ss(i__main__
State
p275
(dp276
g3
F-4.0
sg4
F8.0
sg5
F2.0
sg6
F-1.0
sb(dp277
I00
F555.2586912033364
sI01
F15077.749140657123
ss(i__main__
State
p278
(dp279
g3
F-8.0
sg4
F1.0
sg5
F-2.0
sg6
F-5.0
sb(dp280
I00
F12878.185133289197
sI01
F16574.929525132255
ss(i__main__
State
p281
(dp282
g3
F-3.0
sg4
F1.0
sg5
F3.0
sg6
F0.0
sb(dp283
I00
F15236.135919352328
sI01
F13145.941988531937
ss(i__main__
State
p284
(dp285
g3
F7.0
sg4
F7.0
sg5
F-4.0
sg6
F-7.0
sb(dp286
I00
F9548.900541860068
sI01
F17021.731225567528
ss(i__main__
State
p287
(dp288
g3
F-3.0
sg4
F7.0
sg5
F3.0
sg6
F0.0
sb(dp289
I00
F7106.852103651687
sI01
F10757.930109631732
ss(i__main__
State
p290
(dp291
g3
F4.0
sg4
F5.0
sg5
F-7.0
sg6
F7.0
sb(dp292
I00
F16101.786257550699
sI01
F9339.25479372255
ss(i__main__
State
p293
(dp294
g3
F4.0
sg4
F0.0
sg5
F-7.0
sg6
F7.0
sb(dp295
I00
F15958.792287566434
sI01
F16766.945299886775
ss(i__main__
State
p296
(dp297
g3
F6.0
sg4
F5.0
sg5
F-5.0
sg6
F-8.0
sb(dp298
I00
F16978.02087272719
sI01
F15860.341299345146
ss(i__main__
State
p299
(dp300
g3
F-5.0
sg4
F4.0
sg5
F1.0
sg6
F-2.0
sb(dp301
I00
F17094.538346311434
sI01
F17700.513465580414
ss(i__main__
State
p302
(dp303
g3
F-3.0
sg4
F8.0
sg5
F3.0
sg6
F0.0
sb(dp304
I00
F1428.2658791748559
sI01
F-1856.8347054531168
ss(i__main__
State
p305
(dp306
g3
F-1.0
sg4
F0.0
sg5
F5.0
sg6
F2.0
sb(dp307
I00
F9126.79767755867
sI01
F14780.128998977287
ss(i__main__
State
p308
(dp309
g3
F-8.0
sg4
F7.0
sg5
F-2.0
sg6
F-5.0
sb(dp310
I00
F13365.319964945642
sI01
F17471.152124884662
ss(i__main__
State
p311
(dp312
g3
F-1.0
sg4
F2.0
sg5
F5.0
sg6
F2.0
sb(dp313
I00
F15634.425698674044
sI01
F11551.695888022707
ss(i__main__
State
p314
(dp315
g3
F5.0
sg4
F3.0
sg5
F-6.0
sg6
F8.0
sb(dp316
I00
F1272.7993846808279
sI01
F12455.865349355243
ss(i__main__
State
p317
(dp318
g3
F-1.0
sg4
F6.0
sg5
F5.0
sg6
F2.0
sb(dp319
I00
F17304.563505165777
sI01
F17964.014033724303
ss(i__main__
State
p320
(dp321
g3
F-7.0
sg4
F4.0
sg5
F-1.0
sg6
F-4.0
sb(dp322
I00
F16866.270832860042
sI01
F6075.477878429724
ss(i__main__
State
p323
(dp324
g3
F-4.0
sg4
F1.0
sg5
F2.0
sg6
F-1.0
sb(dp325
I00
F14697.75757935279
sI01
F17545.215176956193
ss(i__main__
State
p326
(dp327
g3
F1.0
sg4
F0.0
sg5
F7.0
sg6
F4.0
sb(dp328
I00
F2239.567383028742
sI01
F8918.722071330174
ss(i__main__
State
p329
(dp330
g3
F8.0
sg4
F5.0
sg5
F-3.0
sg6
F-6.0
sb(dp331
I00
F7990.288349759098
sI01
F13220.8434412311
ss(i__main__
State
p332
(dp333
g3
F3.0
sg4
F0.0
sg5
F-8.0
sg6
F6.0
sb(dp334
I00
F16488.466684571413
sI01
F12935.971267803065
ss(i__main__
State
p335
(dp336
g3
F7.0
sg4
F1.0
sg5
F-4.0
sg6
F-7.0
sb(dp337
I00
F14051.257470384588
sI01
F16461.88594755471
ss(i__main__
State
p338
(dp339
g3
F4.0
sg4
F2.0
sg5
F-7.0
sg6
F7.0
sb(dp340
I00
F14077.439622144664
sI01
F5353.841730233412
ss(i__main__
State
p341
(dp342
g3
F-6.0
sg4
F4.0
sg5
F0.0
sg6
F-3.0
sb(dp343
I00
F17444.866468847384
sI01
F14890.822368974574
ss(i__main__
State
p344
(dp345
g3
F-4.0
sg4
F5.0
sg5
F2.0
sg6
F-1.0
sb(dp346
I00
F17756.670325635758
sI01
F16459.371735037043
ss(i__main__
State
p347
(dp348
g3
F-3.0
sg4
F4.0
sg5
F3.0
sg6
F0.0
sb(dp349
I00
F9170.98108637115
sI01
F15957.717395122794
ss(i__main__
State
p350
(dp351
g3
F0.0
sg4
F3.0
sg5
F6.0
sg6
F3.0
sb(dp352
I00
F13538.984579932434
sI01
F9213.36058761342
ss(i__main__
State
p353
(dp354
g3
F4.0
sg4
F3.0
sg5
F-7.0
sg6
F7.0
sb(dp355
I00
F9227.830583563667
sI01
F15992.609175964972
ss(i__main__
State
p356
(dp357
g3
F-4.0
sg4
F6.0
sg5
F2.0
sg6
F-1.0
sb(dp358
I00
F4360.859469547317
sI01
F7922.19614259395
ss(i__main__
State
p359
(dp360
g3
F-6.0
sg4
F2.0
sg5
F0.0
sg6
F-3.0
sb(dp361
I00
F15200.297330453397
sI01
F9008.691909728515
ss(i__main__
State
p362
(dp363
g3
F-7.0
sg4
F6.0
sg5
F-1.0
sg6
F-4.0
sb(dp364
I00
F6391.096776148232
sI01
F13185.357535382494
ss(i__main__
State
p365
(dp366
g3
F6.0
sg4
F2.0
sg5
F-5.0
sg6
F-8.0
sb(dp367
I00
F17028.244355470713
sI01
F15150.956125298146
ss(i__main__
State
p368
(dp369
g3
F3.0
sg4
F5.0
sg5
F-8.0
sg6
F6.0
sb(dp370
I00
F15168.531064092245
sI01
F17404.61456021759
ss(i__main__
State
p371
(dp372
g3
F-8.0
sg4
F8.0
sg5
F-2.0
sg6
F-5.0
sb(dp373
I00
F17675.49733400026
sI01
F17077.293933461853
ss(i__main__
State
p374
(dp375
g3
F-2.0
sg4
F0.0
sg5
F4.0
sg6
F1.0
sb(dp376
I00
F12489.6579623909
sI01
F9469.953080952888
ss(i__main__
State
p377
(dp378
g3
F2.0
sg4
F2.0
sg5
F8.0
sg6
F5.0
sb(dp379
I00
F11064.622397256959
sI01
F15791.627903301367
ss(i__main__
State
p380
(dp381
g3
F5.0
sg4
F1.0
sg5
F-6.0
sg6
F8.0
sb(dp382
I00
F15529.870147596206
sI01
F16888.73497326855
ss(i__main__
State
p383
(dp384
g3
F-2.0
sg4
F4.0
sg5
F4.0
sg6
F1.0
sb(dp385
I00
F17422.2780284439
sI01
F17711.930879122112
ss(i__main__
State
p386
(dp387
g3
F-7.0
sg4
F2.0
sg5
F-1.0
sg6
F-4.0
sb(dp388
I00
F13450.413623177523
sI01
F17247.86385167722
ss(i__main__
State
p389
(dp390
g3
F2.0
sg4
F4.0
sg5
F8.0
sg6
F5.0
sb(dp391
I00
F15796.56124043869
sI01
F13732.670697354111
ss(i__main__
State
p392
(dp393
g3
F-2.0
sg4
F3.0
sg5
F4.0
sg6
F1.0
sb(dp394
I00
F15707.72228043695
sI01
F17723.55212463575
ss(i__main__
State
p395
(dp396
g3
F7.0
sg4
F5.0
sg5
F-4.0
sg6
F-7.0
sb(dp397
I00
F12543.480669417904
sI01
F17121.90801236141
ss(i__main__
State
p398
(dp399
g3
F-4.0
sg4
F0.0
sg5
F2.0
sg6
F-1.0
sb(dp400
I00
F12766.483710257706
sI01
F14844.935457443205
ss(i__main__
State
p401
(dp402
g3
F8.0
sg4
F7.0
sg5
F-3.0
sg6
F-6.0
sb(dp403
I00
F7752.277681459926
sI01
F14245.59874815249
ss(i__main__
State
p404
(dp405
g3
F-2.0
sg4
F6.0
sg5
F4.0
sg6
F1.0
sb(dp406
I00
F17871.822570028264
sI01
F17422.66105073013
ss(i__main__
State
p407
(dp408
g3
F-6.0
sg4
F1.0
sg5
F0.0
sg6
F-3.0
sb(dp409
I00
F15186.30643514296
sI01
F16704.997872987093
ss(i__main__
State
p410
(dp411
g3
F2.0
sg4
F1.0
sg5
F8.0
sg6
F5.0
sb(dp412
I00
F2906.6341951168115
sI01
F11141.61984301079
ss(i__main__
State
p413
(dp414
g3
F4.0
sg4
F8.0
sg5
F-7.0
sg6
F7.0
sb(dp415
I00
F18000.900926455877
sI01
F16580.911553405687
ss(i__main__
State
p416
(dp417
g3
F7.0
sg4
F2.0
sg5
F-4.0
sg6
F-7.0
sb(dp418
I00
F17144.783324222
sI01
F16413.204726472966
ss(i__main__
State
p419
(dp420
g3
F2.0
sg4
F3.0
sg5
F8.0
sg6
F5.0
sb(dp421
I00
F16350.051061961325
sI01
F15164.856482529443
ss(i__main__
State
p422
(dp423
g3
F0.0
sg4
F4.0
sg5
F6.0
sg6
F3.0
sb(dp424
I00
F16762.581919196164
sI01
F16055.265042332949
ss(i__main__
State
p425
(dp426
g3
F-1.0
sg4
F8.0
sg5
F5.0
sg6
F2.0
sb(dp427
I00
F686.9312891393071
sI01
F9918.324744907044
ss(i__main__
State
p428
(dp429
g3
F8.0
sg4
F6.0
sg5
F-3.0
sg6
F-6.0
sb(dp430
I00
F13320.687082711247
sI01
F17305.644897009886
ss(i__main__
State
p431
(dp432
g3
F5.0
sg4
F7.0
sg5
F-6.0
sg6
F8.0
sb(dp433
I00
F16142.71407582323
sI01
F17698.257853465224
ss(i__main__
State
p434
(dp435
g3
F-7.0
sg4
F7.0
sg5
F-1.0
sg6
F-4.0
sb(dp436
I00
F14282.458977749575
sI01
F4696.010968717427
ss(i__main__
State
p437
(dp438
g3
F-7.0
sg4
F3.0
sg5
F-1.0
sg6
F-4.0
sb(dp439
I00
F17581.48705255337
sI01
F17125.40133939954
ss(i__main__
State
p440
(dp441
g3
F-5.0
sg4
F1.0
sg5
F1.0
sg6
F-2.0
sb(dp442
I00
F17315.83235626919
sI01
F17553.147595001406
ss(i__main__
State
p443
(dp444
g3
F0.0
sg4
F8.0
sg5
F6.0
sg6
F3.0
sb(dp445
I00
F6963.596381709117
sI01
F-3895.2637820546965
ss(i__main__
State
p446
(dp447
g3
F4.0
sg4
F6.0
sg5
F-7.0
sg6
F7.0
sb(dp448
I00
F13820.310010028406
sI01
F17559.127396239364
ss(i__main__
State
p449
(dp450
g3
F-3.0
sg4
F5.0
sg5
F3.0
sg6
F0.0
sb(dp451
I00
F17443.102589205184
sI01
F17812.962347528886
ss(i__main__
State
p452
(dp453
g3
F1.0
sg4
F6.0
sg5
F7.0
sg6
F4.0
sb(dp454
I00
F16970.43764903446
sI01
F17921.20033299949
ss(i__main__
State
p455
(dp456
g3
F8.0
sg4
F0.0
sg5
F-3.0
sg6
F-6.0
sb(dp457
I00
F17049.0288371182
sI01
F15457.02402617483
ss(i__main__
State
p458
(dp459
g3
F3.0
sg4
F8.0
sg5
F-8.0
sg6
F6.0
sb(dp460
I00
F18066.998191480125
sI01
F16692.83225762635
ss(i__main__
State
p461
(dp462
g3
F-7.0
sg4
F0.0
sg5
F-1.0
sg6
F-4.0
sb(dp463
I00
F17411.2816985644
sI01
F16102.1470488363
ss.