(dp0
(i__main__
State
p1
(dp2
S'y1'
p3
F1.0
sS'x'
p4
F7.0
sS'y3'
p5
F-1.0
sS'y2'
p6
F-6.0
sb(dp7
I00
F-58.652
sI01
F-217.53000000000003
ss(i__main__
State
p8
(dp9
g3
F6.0
sg4
F5.0
sg5
F-6.0
sg6
F-2.0
sb(dp10
I00
F-74.33
sI01
F40.843308147529
ss(i__main__
State
p11
(dp12
g3
F1.0
sg4
F9.0
sg5
F-1.0
sg6
F-8.0
sb(dp13
I00
F99.3594315764836
sI01
F0.0
ss(i__main__
State
p14
(dp15
g3
F7.0
sg4
F6.0
sg5
F-7.0
sg6
F0.0
sb(dp16
I00
F-27.159999999999997
sI01
F2.2362871369
ss(i__main__
State
p17
(dp18
g3
F-7.0
sg4
F0.0
sg5
F7.0
sg6
F-8.0
sb(dp19
I00
F10.5
sI01
F10.628109999999996
ss(i__main__
State
p20
(dp21
g3
F2.0
sg4
F6.0
sg5
F-2.0
sg6
F4.0
sb(dp22
I00
F16.95744977
sI01
F-80.3
ss(i__main__
State
p23
(dp24
g3
F-1.0
sg4
F10.0
sg5
F1.0
sg6
F-8.0
sb(dp25
I00
F161.85785302390266
sI01
F34.258722507
ss(i__main__
State
p26
(dp27
g3
F-3.0
sg4
F4.0
sg5
F3.0
sg6
F6.0
sb(dp28
I00
F60.1718841485
sI01
I-3
ss(i__main__
State
p29
(dp30
g3
F8.0
sg4
F8.0
sg5
F-8.0
sg6
F2.0
sb(dp31
I00
F33.91560691
sI01
F13.87626139113
ss(i__main__
State
p32
(dp33
g3
F-8.0
sg4
F10.0
sg5
F8.0
sg6
F-6.0
sb(dp34
I00
F75.22639471042571
sI01
F13.353100000000001
ss(i__main__
State
p35
(dp36
g3
F5.0
sg4
F1.0
sg5
F-5.0
sg6
F6.0
sb(dp37
I00
F-40.609448799999996
sI01
I-77
ss(i__main__
State
p38
(dp39
g3
F-3.0
sg4
F0.0
sg5
F3.0
sg6
F2.0
sb(dp40
I00
F-8.45
sI01
F29.11595860591987
ss(i__main__
State
p41
(dp42
g3
F6.0
sg4
F1.0
sg5
F-6.0
sg6
F-2.0
sb(dp43
I00
F47.49194963370476
sI01
F-48.15521883072
ss(i__main__
State
p44
(dp45
g3
F-4.0
sg4
F4.0
sg5
F4.0
sg6
F-4.0
sb(dp46
I00
I-76
sI01
F65.88660999999999
ss(i__main__
State
p47
(dp48
g3
F1.0
sg4
F0.0
sg5
F-1.0
sg6
F-6.0
sb(dp49
I00
F42.33200620120001
sI01
I19
ss(i__main__
State
p50
(dp51
g3
F0.0
sg4
F5.0
sg5
F0.0
sg6
F8.0
sb(dp52
I00
F79.831252
sI01
I-17
ss(i__main__
State
p53
(dp54
g3
F0.0
sg4
F8.0
sg5
F0.0
sg6
F2.0
sb(dp55
I00
F-2707.1
sI01
F-3417.2622650030644
ss(i__main__
State
p56
(dp57
g3
F7.0
sg4
F10.0
sg5
F-7.0
sg6
F-6.0
sb(dp58
I00
F76.7854383498494
sI01
F58.9544233002
ss(i__main__
State
p59
(dp60
g3
F4.0
sg4
F2.0
sg5
F-4.0
sg6
F2.0
sb(dp61
I00
F39.156615420803995
sI01
I-36
ss(i__main__
State
p62
(dp63
g3
F4.0
sg4
F7.0
sg5
F-4.0
sg6
F-2.0
sb(dp64
I00
I-72
sI01
F77.52
ss(i__main__
State
p65
(dp66
g3
F-1.0
sg4
F3.0
sg5
F1.0
sg6
F-8.0
sb(dp67
I00
F62.71888735779529
sI01
F30.46
ss(i__main__
State
p68
(dp69
g3
F1.0
sg4
F2.0
sg5
F-1.0
sg6
F2.0
sb(dp70
I00
I-49
sI01
F30.4
ss(i__main__
State
p71
(dp72
g3
F-2.0
sg4
F1.0
sg5
F2.0
sg6
F-6.0
sb(dp73
I00
F58.599601369999995
sI01
F55.936
ss(i__main__
State
p74
(dp75
g3
F-3.0
sg4
F3.0
sg5
F3.0
sg6
F0.0
sb(dp76
I00
F44.51592521624947
sI01
F42.2077
ss(i__main__
State
p77
(dp78
g3
F4.0
sg4
F1.0
sg5
F-4.0
sg6
F-6.0
sb(dp79
I00
F-22.24216195789
sI01
I-75
ss(i__main__
State
p80
(dp81
g3
F1.0
sg4
F9.0
sg5
F-1.0
sg6
F8.0
sb(dp82
I00
F172.63451919478342
sI01
F10.0
ss(i__main__
State
p83
(dp84
g3
F-1.0
sg4
F6.0
sg5
F1.0
sg6
F8.0
sb(dp85
I00
F17.896403691895
sI01
F-27.385099999999998
ss(i__main__
State
p86
(dp87
g3
F-5.0
sg4
F9.0
sg5
F5.0
sg6
F2.0
sb(dp88
I00
F20.0
sI01
F0.0
ss(i__main__
State
p89
(dp90
g3
F4.0
sg4
F9.0
sg5
F-4.0
sg6
F8.0
sb(dp91
I00
F0.0
sI01
F103.02039886723634
ss(i__main__
State
p92
(dp93
g3
F0.0
sg4
F9.0
sg5
F0.0
sg6
F4.0
sb(dp94
I00
F35.307913672000005
sI01
F182.21285499877698
ss(i__main__
State
p95
(dp96
g3
F-5.0
sg4
F3.0
sg5
F5.0
sg6
F4.0
sb(dp97
I00
I-61
sI01
F27.38089245109316
ss(i__main__
State
p98
(dp99
g3
F-5.0
sg4
F10.0
sg5
F5.0
sg6
F-2.0
sb(dp100
I00
F118.31280001212463
sI01
F18.54438238942
ss(i__main__
State
p101
(dp102
g3
F8.0
sg4
F5.0
sg5
F-8.0
sg6
F-4.0
sb(dp103
I00
F28.015362735019377
sI01
F41.27850551025347
ss(i__main__
State
p104
(dp105
g3
F-2.0
sg4
F2.0
sg5
F2.0
sg6
F-6.0
sb(dp106
I00
F58.87704184159782
sI01
F-68.81939856151635
ss(i__main__
State
p107
(dp108
g3
F-7.0
sg4
F8.0
sg5
F7.0
sg6
F-2.0
sb(dp109
I00
F10.0
sI01
F-90.0
ss(i__main__
State
p110
(dp111
g3
F-1.0
sg4
F0.0
sg5
F1.0
sg6
F6.0
sb(dp112
I00
F58.658666700000005
sI01
F-3.1499999999999995
ss(i__main__
State
p113
(dp114
g3
F1.0
sg4
F0.0
sg5
F-1.0
sg6
F-4.0
sb(dp115
I00
F32.025766963741674
sI01
F-84.1
ss(i__main__
State
p116
(dp117
g3
F8.0
sg4
F8.0
sg5
F-8.0
sg6
F4.0
sb(dp118
I00
F171.39033319107898
sI01
F26.146714587586004
ss(i__main__
State
p119
(dp120
g3
F-8.0
sg4
F0.0
sg5
F8.0
sg6
F4.0
sb(dp121
I00
F11.31
sI01
F-88.383228
ss(i__main__
State
p122
(dp123
g3
F5.0
sg4
F10.0
sg5
F-5.0
sg6
F-4.0
sb(dp124
I00
F116.52256358732637
sI01
F0.0
ss(i__main__
State
p125
(dp126
g3
F6.0
sg4
F9.0
sg5
F-6.0
sg6
F6.0
sb(dp127
I00
F10.0
sI01
F0.0
ss(i__main__
State
p128
(dp129
g3
F7.0
sg4
F9.0
sg5
F-7.0
sg6
F8.0
sb(dp130
I00
F101.274648283
sI01
F13.437788000000001
ss(i__main__
State
p131
(dp132
g3
F0.0
sg4
F10.0
sg5
F0.0
sg6
F-6.0
sb(dp133
I00
F-997.93463
sI01
F0.0
ss(i__main__
State
p134
(dp135
g3
F2.0
sg4
F7.0
sg5
F-2.0
sg6
F-2.0
sb(dp136
I00
F-37.5
sI01
F-0.4819999999999993
ss(i__main__
State
p137
(dp138
g3
F-4.0
sg4
F3.0
sg5
F4.0
sg6
F-6.0
sb(dp139
I00
I-35
sI01
F-19.4701
ss(i__main__
State
p140
(dp141
g3
F3.0
sg4
F10.0
sg5
F-3.0
sg6
F8.0
sb(dp142
I00
F30.598200000000002
sI01
F0.0
ss(i__main__
State
p143
(dp144
g3
F-8.0
sg4
F10.0
sg5
F8.0
sg6
F-4.0
sb(dp145
I00
F21.219986
sI01
F0.0
ss(i__main__
State
p146
(dp147
g3
F-7.0
sg4
F10.0
sg5
F7.0
sg6
F2.0
sb(dp148
I00
F41.0642
sI01
F0.0
ss(i__main__
State
p149
(dp150
g3
F2.0
sg4
F7.0
sg5
F-2.0
sg6
F8.0
sb(dp151
I00
F2.5029455909863225
sI01
F-63.989999999999995
ss(i__main__
State
p152
(dp153
g3
F5.0
sg4
F4.0
sg5
F-5.0
sg6
F8.0
sb(dp154
I00
F56.422341
sI01
I-8
ss(i__main__
State
p155
(dp156
g3
F3.0
sg4
F7.0
sg5
F-3.0
sg6
F-2.0
sb(dp157
I00
F35.629085095387516
sI01
F97.0371320359518
ss(i__main__
State
p158
(dp159
g3
F5.0
sg4
F5.0
sg5
F-5.0
sg6
F8.0
sb(dp160
I00
F-50.2
sI01
F2.722195619538211
ss(i__main__
State
p161
(dp162
g3
F4.0
sg4
F9.0
sg5
F-4.0
sg6
F6.0
sb(dp163
I00
F40.2932427
sI01
F21.921
ss(i__main__
State
p164
(dp165
g3
F-7.0
sg4
F6.0
sg5
F7.0
sg6
F0.0
sb(dp166
I00
I-48
sI01
F68.2580313786781
ss(i__main__
State
p167
(dp168
g3
F4.0
sg4
F7.0
sg5
F-4.0
sg6
F6.0
sb(dp169
I00
F59.610716422952784
sI01
F19.0290065
ss(i__main__
State
p170
(dp171
g3
F7.0
sg4
F5.0
sg5
F-7.0
sg6
F0.0
sb(dp172
I00
F-26.5
sI01
F63.673
ss(i__main__
State
p173
(dp174
g3
F6.0
sg4
F0.0
sg5
F-6.0
sg6
F-8.0
sb(dp175
I00
F68.3
sI01
F-14.158
ss(i__main__
State
p176
(dp177
g3
F2.0
sg4
F9.0
sg5
F-2.0
sg6
F8.0
sb(dp178
I00
F95.34119476747553
sI01
F35.54470221029563
ss(i__main__
State
p179
(dp180
g3
F5.0
sg4
F6.0
sg5
F-5.0
sg6
F2.0
sb(dp181
I00
F-79.4
sI01
F11.453586606998789
ss(i__main__
State
p182
(dp183
g3
F0.0
sg4
F0.0
sg5
F0.0
sg6
F8.0
sb(dp184
I00
F49.894258969999996
sI01
I-97
ss(i__main__
State
p185
(dp186
g3
F-4.0
sg4
F4.0
sg5
F4.0
sg6
F-6.0
sb(dp187
I00
F17.6099
sI01
F-0.5
ss(i__main__
State
p188
(dp189
g3
F0.0
sg4
F6.0
sg5
F0.0
sg6
F-2.0
sb(dp190
I00
F-50.588270972000004
sI01
I-100
ss(i__main__
State
p191
(dp192
g3
F-7.0
sg4
F7.0
sg5
F7.0
sg6
F8.0
sb(dp193
I00
F-2.2396841720000005
sI01
F52.03788447587409
ss(i__main__
State
p194
(dp195
g3
F7.0
sg4
F10.0
sg5
F-7.0
sg6
F0.0
sb(dp196
I00
F86.4242215283928
sI01
F0.0
ss(i__main__
State
p197
(dp198
g3
F6.0
sg4
F7.0
sg5
F-6.0
sg6
F6.0
sb(dp199
I00
F32.292408626958434
sI01
F-51.9047634705644
ss(i__main__
State
p200
(dp201
g3
F-2.0
sg4
F9.0
sg5
F2.0
sg6
F0.0
sb(dp202
I00
F-3433.3905999999997
sI01
F-3427.336316129
ss(i__main__
State
p203
(dp204
g3
F1.0
sg4
F10.0
sg5
F-1.0
sg6
F8.0
sb(dp205
I00
F-326.40036693424804
sI01
F30.464000000000002
ss(i__main__
State
p206
(dp207
g3
F3.0
sg4
F2.0
sg5
F-3.0
sg6
F6.0
sb(dp208
I00
F34.982853500000004
sI01
I-84
ss(i__main__
State
p209
(dp210
g3
F2.0
sg4
F8.0
sg5
F-2.0
sg6
F4.0
sb(dp211
I00
F226.8173218511298
sI01
F25.25406540566904
ss(i__main__
State
p212
(dp213
g3
F-2.0
sg4
F5.0
sg5
F2.0
sg6
F-4.0
sb(dp214
I00
F61.020076
sI01
F64.92461082559599
ss(i__main__
State
p215
(dp216
g3
F2.0
sg4
F4.0
sg5
F-2.0
sg6
F-6.0
sb(dp217
I00
F-40.6
sI01
F27.95424864384
ss(i__main__
State
p218
(dp219
g3
F-2.0
sg4
F0.0
sg5
F2.0
sg6
F-6.0
sb(dp220
I00
F20.91830300219718
sI01
F77.88722507
ss(i__main__
State
p221
(dp222
g3
F6.0
sg4
F6.0
sg5
F-6.0
sg6
F6.0
sb(dp223
I00
F77.99684547452897
sI01
I-52
ss(i__main__
State
p224
(dp225
g3
F2.0
sg4
F2.0
sg5
F-2.0
sg6
F4.0
sb(dp226
I00
F21.52984557358904
sI01
F1.44
ss(i__main__
State
p227
(dp228
g3
F-3.0
sg4
F5.0
sg5
F3.0
sg6
F-4.0
sb(dp229
I00
I-41
sI01
F20.951800000000002
ss(i__main__
State
p230
(dp231
g3
F-3.0
sg4
F5.0
sg5
F3.0
sg6
F2.0
sb(dp232
I00
F73.65
sI01
F39.429
ss(i__main__
State
p233
(dp234
g3
F8.0
sg4
F2.0
sg5
F-8.0
sg6
F-4.0
sb(dp235
I00
F47.8309
sI01
F-85.72
ss(i__main__
State
p236
(dp237
g3
F4.0
sg4
F7.0
sg5
F-4.0
sg6
F8.0
sb(dp238
I00
F16.532461746722994
sI01
F77.02171219084289
ss(i__main__
State
p239
(dp240
g3
F1.0
sg4
F3.0
sg5
F-1.0
sg6
F8.0
sb(dp241
I00
I-37
sI01
F40.21870574680081
ss(i__main__
State
p242
(dp243
g3
F-8.0
sg4
F5.0
sg5
F8.0
sg6
F6.0
sb(dp244
I00
I10
sI01
F56.6890957299415
ss(i__main__
State
p245
(dp246
g3
F5.0
sg4
F0.0
sg5
F-5.0
sg6
F-8.0
sb(dp247
I00
F39.016217232707156
sI01
F8.785203349999996
ss(i__main__
State
p248
(dp249
g3
F-8.0
sg4
F0.0
sg5
F8.0
sg6
F2.0
sb(dp250
I00
I-3
sI01
F89.18115
ss(i__main__
State
p251
(dp252
g3
F5.0
sg4
F7.0
sg5
F-5.0
sg6
F2.0
sb(dp253
I00
F65.5377660163162
sI01
I-67
ss(i__main__
State
p254
(dp255
g3
F0.0
sg4
F5.0
sg5
F0.0
sg6
F-2.0
sb(dp256
I00
F38.61688138065454
sI01
F37.542656343
ss(i__main__
State
p257
(dp258
g3
F2.0
sg4
F1.0
sg5
F-2.0
sg6
F-8.0
sb(dp259
I00
I-49
sI01
F-30.029
ss(i__main__
State
p260
(dp261
g3
F-8.0
sg4
F4.0
sg5
F8.0
sg6
F-6.0
sb(dp262
I00
F41.792558017765415
sI01
F47.83894156827007
ss(i__main__
State
p263
(dp264
g3
F3.0
sg4
F0.0
sg5
F-3.0
sg6
F6.0
sb(dp265
I00
F-24.53678803589106
sI01
I-55
ss(i__main__
State
p266
(dp267
g3
F6.0
sg4
F1.0
sg5
F-6.0
sg6
F8.0
sb(dp268
I00
F-32.52
sI01
I-78
ss(i__main__
State
p269
(dp270
g3
F-1.0
sg4
F7.0
sg5
F1.0
sg6
F2.0
sb(dp271
I00
F16.302725950000003
sI01
F-66.474462
ss(i__main__
State
p272
(dp273
g3
F-2.0
sg4
F4.0
sg5
F2.0
sg6
F8.0
sb(dp274
I00
I25
sI01
F85.30258
ss(i__main__
State
p275
(dp276
g3
F3.0
sg4
F1.0
sg5
F-3.0
sg6
F-8.0
sb(dp277
I00
F-78.9
sI01
F-44.067800000000005
ss(i__main__
State
p278
(dp279
g3
F-6.0
sg4
F7.0
sg5
F6.0
sg6
F4.0
sb(dp280
I00
F-8.63
sI01
F57.47141227542477
ss(i__main__
State
p281
(dp282
g3
F-5.0
sg4
F8.0
sg5
F5.0
sg6
F2.0
sb(dp283
I00
F92.65141308463419
sI01
F0.0
ss(i__main__
State
p284
(dp285
g3
F-4.0
sg4
F3.0
sg5
F4.0
sg6
F2.0
sb(dp286
I00
F-24.32581658394
sI01
F32.52407356212744
ss(i__main__
State
p287
(dp288
g3
F5.0
sg4
F8.0
sg5
F-5.0
sg6
F-4.0
sb(dp289
I00
F20.11
sI01
F0.0
ss(i__main__
State
p290
(dp291
g3
F6.0
sg4
F1.0
sg5
F-6.0
sg6
F-6.0
sb(dp292
I00
F-20.5263
sI01
I-59
ss(i__main__
State
p293
(dp294
g3
F3.0
sg4
F3.0
sg5
F-3.0
sg6
F8.0
sb(dp295
I00
F15.586660000000002
sI01
I-88
ss(i__main__
State
p296
(dp297
g3
F-3.0
sg4
F2.0
sg5
F3.0
sg6
F-8.0
sb(dp298
I00
F67.805012009
sI01
F42.9
ss(i__main__
State
p299
(dp300
g3
F-7.0
sg4
F10.0
sg5
F7.0
sg6
F-2.0
sb(dp301
I00
F37.3858194
sI01
F0.0
ss(i__main__
State
p302
(dp303
g3
F1.0
sg4
F8.0
sg5
F-1.0
sg6
F4.0
sb(dp304
I00
F-80.9
sI01
F47.644551
ss(i__main__
State
p305
(dp306
g3
F8.0
sg4
F2.0
sg5
F-8.0
sg6
F4.0
sb(dp307
I00
F67.0722
sI01
F37.269999999999996
ss(i__main__
State
p308
(dp309
g3
F-2.0
sg4
F10.0
sg5
F2.0
sg6
F4.0
sb(dp310
I00
F173.6510099714636
sI01
F12.590000000000002
ss(i__main__
State
p311
(dp312
g3
F-2.0
sg4
F6.0
sg5
F2.0
sg6
F-6.0
sb(dp313
I00
F-0.10000000000000053
sI01
F42.88918
ss(i__main__
State
p314
(dp315
g3
F-1.0
sg4
F0.0
sg5
F1.0
sg6
F-8.0
sb(dp316
I00
F33.5
sI01
F58.583668149999994
ss(i__main__
State
p317
(dp318
g3
F1.0
sg4
F1.0
sg5
F-1.0
sg6
F4.0
sb(dp319
I00
F36.06996511906667
sI01
F-41.520544040000004
ss(i__main__
State
p320
(dp321
g3
F1.0
sg4
F5.0
sg5
F-1.0
sg6
F-2.0
sb(dp322
I00
F-57.869
sI01
F2.6041313000000015
ss(i__main__
State
p323
(dp324
g3
F4.0
sg4
F4.0
sg5
F-4.0
sg6
F8.0
sb(dp325
I00
F-4.959999999999999
sI01
F35.718333387262476
ss(i__main__
State
p326
(dp327
g3
F5.0
sg4
F5.0
sg5
F-5.0
sg6
F2.0
sb(dp328
I00
F65.64611291369724
sI01
I18
ss(i__main__
State
p329
(dp330
g3
F-5.0
sg4
F3.0
sg5
F5.0
sg6
F-6.0
sb(dp331
I00
F8.4369212
sI01
F10.113544096357778
ss(i__main__
State
p332
(dp333
g3
F-8.0
sg4
F5.0
sg5
F8.0
sg6
F8.0
sb(dp334
I00
F-12.312999999999999
sI01
F23.860887860635703
ss(i__main__
State
p335
(dp336
g3
F-3.0
sg4
F2.0
sg5
F3.0
sg6
F-4.0
sb(dp337
I00
F-7.3590481400000005
sI01
F61.46890435365351
ss(i__main__
State
p338
(dp339
g3
F-5.0
sg4
F7.0
sg5
F5.0
sg6
F-2.0
sb(dp340
I00
I-46
sI01
F51.57239364054001
ss(i__main__
State
p341
(dp342
g3
F1.0
sg4
F4.0
sg5
F-1.0
sg6
F8.0
sb(dp343
I00
F-33.74898513401804
sI01
F-82.828017
ss(i__main__
State
p344
(dp345
g3
F-1.0
sg4
F5.0
sg5
F1.0
sg6
F2.0
sb(dp346
I00
F47.84
sI01
I-14
ss(i__main__
State
p347
(dp348
g3
F-5.0
sg4
F9.0
sg5
F5.0
sg6
F-4.0
sb(dp349
I00
F132.6490641737858
sI01
F58.54543731884399
ss(i__main__
State
p350
(dp351
g3
F4.0
sg4
F0.0
sg5
F-4.0
sg6
F-8.0
sb(dp352
I00
F-54.5
sI01
F57.995032540333554
ss(i__main__
State
p353
(dp354
g3
F4.0
sg4
F3.0
sg5
F-4.0
sg6
F-6.0
sb(dp355
I00
F25.54846
sI01
F11.5198
ss(i__main__
State
p356
(dp357
g3
F-2.0
sg4
F6.0
sg5
F2.0
sg6
F0.0
sb(dp358
I00
F1.4980777430799121
sI01
I-46
ss(i__main__
State
p359
(dp360
g3
F-7.0
sg4
F8.0
sg5
F7.0
sg6
F-6.0
sb(dp361
I00
F91.2946342459465
sI01
F21.8
ss(i__main__
State
p362
(dp363
g3
F-2.0
sg4
F7.0
sg5
F2.0
sg6
F0.0
sb(dp364
I00
I36
sI01
F81.1185814962051
ss(i__main__
State
p365
(dp366
g3
F-2.0
sg4
F10.0
sg5
F2.0
sg6
F-2.0
sb(dp367
I00
F0.0
sI01
F26.4942
ss(i__main__
State
p368
(dp369
g3
F1.0
sg4
F8.0
sg5
F-1.0
sg6
F-8.0
sb(dp370
I00
F-90.0
sI01
F16.521999506486406
ss(i__main__
State
p371
(dp372
g3
F4.0
sg4
F8.0
sg5
F-4.0
sg6
F2.0
sb(dp373
I00
F22.0
sI01
F192.66406440827626
ss(i__main__
State
p374
(dp375
g3
F-3.0
sg4
F3.0
sg5
F3.0
sg6
F-2.0
sb(dp376
I00
F15.014144000000002
sI01
I-19
ss(i__main__
State
p377
(dp378
g3
F5.0
sg4
F7.0
sg5
F-5.0
sg6
F4.0
sb(dp379
I00
F71.80309651506508
sI01
F61.64498533742
ss(i__main__
State
p380
(dp381
g3
F-4.0
sg4
F5.0
sg5
F4.0
sg6
F-2.0
sb(dp382
I00
F28.93
sI01
F-57.57569043700791
ss(i__main__
State
p383
(dp384
g3
F6.0
sg4
F9.0
sg5
F-6.0
sg6
F2.0
sb(dp385
I00
F82.94740602041
sI01
F12.0
ss(i__main__
State
p386
(dp387
g3
F0.0
sg4
F4.0
sg5
F0.0
sg6
F0.0
sb(dp388
I00
F-52.17
sI01
F-45.265
ss(i__main__
State
p389
(dp390
g3
F-4.0
sg4
F3.0
sg5
F4.0
sg6
F-2.0
sb(dp391
I00
F-30.19172552
sI01
F73.7171013771345
ss(i__main__
State
p392
(dp393
g3
F3.0
sg4
F5.0
sg5
F-3.0
sg6
F-2.0
sb(dp394
I00
F-31.843622207969382
sI01
F-6.355984844994445
ss(i__main__
State
p395
(dp396
g3
F-7.0
sg4
F10.0
sg5
F7.0
sg6
F6.0
sb(dp397
I00
F97.00464263100001
sI01
F11.0104
ss(i__main__
State
p398
(dp399
g3
F-4.0
sg4
F5.0
sg5
F4.0
sg6
F4.0
sb(dp400
I00
I-48
sI01
F-33.003
ss(i__main__
State
p401
(dp402
g3
F-5.0
sg4
F7.0
sg5
F5.0
sg6
F0.0
sb(dp403
I00
F77.85271592846611
sI01
F-54.0
ss(i__main__
State
p404
(dp405
g3
F4.0
sg4
F5.0
sg5
F-4.0
sg6
F-6.0
sb(dp406
I00
I-54
sI01
F57.53218
ss(i__main__
State
p407
(dp408
g3
F-7.0
sg4
F10.0
sg5
F7.0
sg6
F-6.0
sb(dp409
I00
F20.0
sI01
F120.52816215051463
ss(i__main__
State
p410
(dp411
g3
F-6.0
sg4
F7.0
sg5
F6.0
sg6
F-2.0
sb(dp412
I00
F40.208304741999996
sI01
I-79
ss(i__main__
State
p413
(dp414
g3
F-6.0
sg4
F4.0
sg5
F6.0
sg6
F-8.0
sb(dp415
I00
F-65.9
sI01
F61.119398828
ss(i__main__
State
p416
(dp417
g3
F-1.0
sg4
F10.0
sg5
F1.0
sg6
F6.0
sb(dp418
I00
F155.06978865715877
sI01
F34.543057889406
ss(i__main__
State
p419
(dp420
g3
F5.0
sg4
F5.0
sg5
F-5.0
sg6
F-6.0
sb(dp421
I00
I-65
sI01
F63.84
ss(i__main__
State
p422
(dp423
g3
F2.0
sg4
F1.0
sg5
F-2.0
sg6
F4.0
sb(dp424
I00
F-63.8
sI01
F-17.273425973332465
ss(i__main__
State
p425
(dp426
g3
F-1.0
sg4
F3.0
sg5
F1.0
sg6
F-2.0
sb(dp427
I00
F43.9645
sI01
F-45.4
ss(i__main__
State
p428
(dp429
g3
F-6.0
sg4
F2.0
sg5
F6.0
sg6
F-2.0
sb(dp430
I00
F-40.34
sI01
F-34.7492
ss(i__main__
State
p431
(dp432
g3
F-2.0
sg4
F0.0
sg5
F2.0
sg6
F0.0
sb(dp433
I00
F7.287475480000001
sI01
F20.786433792837727
ss(i__main__
State
p434
(dp435
g3
F5.0
sg4
F6.0
sg5
F-5.0
sg6
F4.0
sb(dp436
I00
F86.800597750557
sI01
I52
ss(i__main__
State
p437
(dp438
g3
F-1.0
sg4
F6.0
sg5
F1.0
sg6
F2.0
sb(dp439
I00
F32.0
sI01
F88.22585
ss(i__main__
State
p440
(dp441
g3
F4.0
sg4
F2.0
sg5
F-4.0
sg6
F-2.0
sb(dp442
I00
F-16.219684909199998
sI01
I-89
ss(i__main__
State
p443
(dp444
g3
F0.0
sg4
F6.0
sg5
F0.0
sg6
F4.0
sb(dp445
I00
F-67.31168
sI01
F46.54250125414182
ss(i__main__
State
p446
(dp447
g3
F0.0
sg4
F9.0
sg5
F0.0
sg6
F2.0
sb(dp448
I00
F93.4975242846
sI01
F27.036563
ss(i__main__
State
p449
(dp450
g3
F7.0
sg4
F8.0
sg5
F-7.0
sg6
F2.0
sb(dp451
I00
F71.58031327610921
sI01
F23.102285000000002
ss(i__main__
State
p452
(dp453
g3
F-5.0
sg4
F9.0
sg5
F5.0
sg6
F-6.0
sb(dp454
I00
F22.691000000000003
sI01
F0.0
ss(i__main__
State
p455
(dp456
g3
F3.0
sg4
F6.0
sg5
F-3.0
sg6
F-8.0
sb(dp457
I00
F89.04352643910602
sI01
F89.91303532600001
ss(i__main__
State
p458
(dp459
g3
F-2.0
sg4
F3.0
sg5
F2.0
sg6
F6.0
sb(dp460
I00
F-10.240170569999998
sI01
F26.86378744912343
ss(i__main__
State
p461
(dp462
g3
F3.0
sg4
F5.0
sg5
F-3.0
sg6
F4.0
sb(dp463
I00
F31.633277500000002
sI01
F-62.2
ss(i__main__
State
p464
(dp465
g3
F-3.0
sg4
F7.0
sg5
F3.0
sg6
F-8.0
sb(dp466
I00
I-32
sI01
F36.27662206096796
ss(i__main__
State
p467
(dp468
g3
F8.0
sg4
F1.0
sg5
F-8.0
sg6
F4.0
sb(dp469
I00
F-49.7
sI01
F71.84148
ss(i__main__
State
p470
(dp471
g3
F-3.0
sg4
F4.0
sg5
F3.0
sg6
F-4.0
sb(dp472
I00
I-23
sI01
F10.732000000000001
ss(i__main__
State
p473
(dp474
g3
F2.0
sg4
F7.0
sg5
F-2.0
sg6
F-8.0
sb(dp475
I00
F-34.427130000000005
sI01
F-53.57868795026813
ss(i__main__
State
p476
(dp477
g3
F-7.0
sg4
F9.0
sg5
F7.0
sg6
F-2.0
sb(dp478
I00
F-230.04900000000004
sI01
F45.2668242
ss(i__main__
State
p479
(dp480
g3
F-4.0
sg4
F3.0
sg5
F4.0
sg6
F6.0
sb(dp481
I00
I-64
sI01
F83.72
ss(i__main__
State
p482
(dp483
g3
F5.0
sg4
F8.0
sg5
F-5.0
sg6
F-8.0
sb(dp484
I00
F160.22373231932585
sI01
F48.854595100000004
ss(i__main__
State
p485
(dp486
g3
F2.0
sg4
F7.0
sg5
F-2.0
sg6
F2.0
sb(dp487
I00
F-52.74
sI01
I0
ss(i__main__
State
p488
(dp489
g3
F0.0
sg4
F10.0
sg5
F0.0
sg6
F0.0
sb(dp490
I00
F-4665.679905412681
sI01
F-5190.845908313488
ss(i__main__
State
p491
(dp492
g3
F6.0
sg4
F8.0
sg5
F-6.0
sg6
F0.0
sb(dp493
I00
F69.45270678
sI01
F11.0
ss(i__main__
State
p494
(dp495
g3
F3.0
sg4
F3.0
sg5
F-3.0
sg6
F-4.0
sb(dp496
I00
F26.7
sI01
F34.6246
ss(i__main__
State
p497
(dp498
g3
F5.0
sg4
F3.0
sg5
F-5.0
sg6
F0.0
sb(dp499
I00
F-64.5
sI01
F-18.011
ss(i__main__
State
p500
(dp501
g3
F-6.0
sg4
F5.0
sg5
F6.0
sg6
F-8.0
sb(dp502
I00
F-47.38993082944
sI01
I-85
ss(i__main__
State
p503
(dp504
g3
F-6.0
sg4
F9.0
sg5
F6.0
sg6
F0.0
sb(dp505
I00
F-2705.1530000000002
sI01
F-1899.0
ss(i__main__
State
p506
(dp507
g3
F3.0
sg4
F10.0
sg5
F-3.0
sg6
F-4.0
sb(dp508
I00
F20.54
sI01
F0.0
ss(i__main__
State
p509
(dp510
g3
F6.0
sg4
F4.0
sg5
F-6.0
sg6
F-2.0
sb(dp511
I00
F63.842053575
sI01
F68.83217895130426
ss(i__main__
State
p512
(dp513
g3
F8.0
sg4
F5.0
sg5
F-8.0
sg6
F6.0
sb(dp514
I00
F-35.2
sI01
F64.71426108105855
ss(i__main__
State
p515
(dp516
g3
F1.0
sg4
F0.0
sg5
F-1.0
sg6
F0.0
sb(dp517
I00
F54.777042343803004
sI01
F10.897896924
ss(i__main__
State
p518
(dp519
g3
F-2.0
sg4
F3.0
sg5
F2.0
sg6
F-4.0
sb(dp520
I00
I-49
sI01
F-12.873932619
ss(i__main__
State
p521
(dp522
g3
F-2.0
sg4
F2.0
sg5
F2.0
sg6
F8.0
sb(dp523
I00
F84.31194285000001
sI01
F46.19199999999999
ss(i__main__
State
p524
(dp525
g3
F-5.0
sg4
F7.0
sg5
F5.0
sg6
F-4.0
sb(dp526
I00
F69.20436761799999
sI01
F-34.252776241999996
ss(i__main__
State
p527
(dp528
g3
F0.0
sg4
F9.0
sg5
F0.0
sg6
F-8.0
sb(dp529
I00
F167.27529475913556
sI01
F11.499000000000002
ss(i__main__
State
p530
(dp531
g3
F3.0
sg4
F8.0
sg5
F-3.0
sg6
F0.0
sb(dp532
I00
F0.0
sI01
F43.30675901
ss(i__main__
State
p533
(dp534
g3
F8.0
sg4
F10.0
sg5
F-8.0
sg6
F-8.0
sb(dp535
I00
F83.3274713591415
sI01
F14.562828600046988
ss(i__main__
State
p536
(dp537
g3
F6.0
sg4
F0.0
sg5
F-6.0
sg6
F0.0
sb(dp538
I00
I-43
sI01
F83.86410255222202
ss(i__main__
State
p539
(dp540
g3
F-1.0
sg4
F9.0
sg5
F1.0
sg6
F-2.0
sb(dp541
I00
F-542.88883578
sI01
F155.16637037772932
ss(i__main__
State
p542
(dp543
g3
F-2.0
sg4
F0.0
sg5
F2.0
sg6
F-8.0
sb(dp544
I00
I-11
sI01
F40.262278962864706
ss(i__main__
State
p545
(dp546
g3
F1.0
sg4
F2.0
sg5
F-1.0
sg6
F-2.0
sb(dp547
I00
F17.895891248883
sI01
F-27.240402239999998
ss(i__main__
State
p548
(dp549
g3
F2.0
sg4
F2.0
sg5
F-2.0
sg6
F2.0
sb(dp550
I00
F81.8
sI01
F77.0
ss(i__main__
State
p551
(dp552
g3
F-3.0
sg4
F1.0
sg5
F3.0
sg6
F-2.0
sb(dp553
I00
F72.6728588188
sI01
I-69
ss(i__main__
State
p554
(dp555
g3
F-6.0
sg4
F8.0
sg5
F6.0
sg6
F8.0
sb(dp556
I00
F51.26019
sI01
F22.69859174187434
ss(i__main__
State
p557
(dp558
g3
F-8.0
sg4
F3.0
sg5
F8.0
sg6
F6.0
sb(dp559
I00
F-63.566
sI01
F-36.827
ss(i__main__
State
p560
(dp561
g3
F8.0
sg4
F9.0
sg5
F-8.0
sg6
F-2.0
sb(dp562
I00
F-155.41100000000003
sI01
F60.02119240258
ss(i__main__
State
p563
(dp564
g3
F4.0
sg4
F0.0
sg5
F-4.0
sg6
F6.0
sb(dp565
I00
F-8.972531109999998
sI01
I-67
ss(i__main__
State
p566
(dp567
g3
F2.0
sg4
F1.0
sg5
F-2.0
sg6
F-2.0
sb(dp568
I00
F13.279873672229577
sI01
F-34.3627418163789
ss(i__main__
State
p569
(dp570
g3
F-4.0
sg4
F1.0
sg5
F4.0
sg6
F8.0
sb(dp571
I00
F35.443677925507856
sI01
I-67
ss(i__main__
State
p572
(dp573
g3
F3.0
sg4
F1.0
sg5
F-3.0
sg6
F2.0
sb(dp574
I00
F-73.420145
sI01
F8.281825236652745
ss(i__main__
State
p575
(dp576
g3
F4.0
sg4
F2.0
sg5
F-4.0
sg6
F8.0
sb(dp577
I00
I65
sI01
F78.22343000000001
ss(i__main__
State
p578
(dp579
g3
F4.0
sg4
F5.0
sg5
F-4.0
sg6
F8.0
sb(dp580
I00
F24.588314759341433
sI01
F-3.1094999999999953
ss(i__main__
State
p581
(dp582
g3
F6.0
sg4
F5.0
sg5
F-6.0
sg6
F4.0
sb(dp583
I00
I7
sI01
F57.4652273755912
ss(i__main__
State
p584
(dp585
g3
F-6.0
sg4
F8.0
sg5
F6.0
sg6
F-6.0
sb(dp586
I00
F20.0
sI01
F68.532619849
ss(i__main__
State
p587
(dp588
g3
F3.0
sg4
F2.0
sg5
F-3.0
sg6
F8.0
sb(dp589
I00
F81.001
sI01
I1
ss(i__main__
State
p590
(dp591
g3
F6.0
sg4
F0.0
sg5
F-6.0
sg6
F6.0
sb(dp592
I00
F26.966709813
sI01
F-21.48406452
ss(i__main__
State
p593
(dp594
g3
F8.0
sg4
F7.0
sg5
F-8.0
sg6
F8.0
sb(dp595
I00
F-64.31236
sI01
F49.69395610937094
ss(i__main__
State
p596
(dp597
g3
F0.0
sg4
F4.0
sg5
F0.0
sg6
F-4.0
sb(dp598
I00
I4
sI01
F26.72
ss(i__main__
State
p599
(dp600
g3
F4.0
sg4
F8.0
sg5
F-4.0
sg6
F-6.0
sb(dp601
I00
F162.75466547205406
sI01
F0.0
ss(i__main__
State
p602
(dp603
g3
F-1.0
sg4
F9.0
sg5
F1.0
sg6
F0.0
sb(dp604
I00
F-5193.78232564
sI01
F-3419.557740748
ss(i__main__
State
p605
(dp606
g3
F1.0
sg4
F7.0
sg5
F-1.0
sg6
F4.0
sb(dp607
I00
F63.5699
sI01
F-31.960000000000008
ss(i__main__
State
p608
(dp609
g3
F7.0
sg4
F9.0
sg5
F-7.0
sg6
F-8.0
sb(dp610
I00
F196.16899673074045
sI01
F23.032000000000004
ss(i__main__
State
p611
(dp612
g3
F-5.0
sg4
F2.0
sg5
F5.0
sg6
F4.0
sb(dp613
I00
F64.558
sI01
F68.0699204
ss(i__main__
State
p614
(dp615
g3
F4.0
sg4
F3.0
sg5
F-4.0
sg6
F0.0
sb(dp616
I00
I-54
sI01
F12.5376
ss(i__main__
State
p617
(dp618
g3
F-3.0
sg4
F8.0
sg5
F3.0
sg6
F-2.0
sb(dp619
I00
F20.0
sI01
F-89.80000000000001
ss(i__main__
State
p620
(dp621
g3
F4.0
sg4
F1.0
sg5
F-4.0
sg6
F-2.0
sb(dp622
I00
F62.08366
sI01
F-42.74885
ss(i__main__
State
p623
(dp624
g3
F-1.0
sg4
F0.0
sg5
F1.0
sg6
F-2.0
sb(dp625
I00
F14.938385780525598
sI01
I-50
ss(i__main__
State
p626
(dp627
g3
F6.0
sg4
F0.0
sg5
F-6.0
sg6
F-4.0
sb(dp628
I00
F62.319309049853416
sI01
F60.510664027598914
ss(i__main__
State
p629
(dp630
g3
F1.0
sg4
F5.0
sg5
F-1.0
sg6
F-8.0
sb(dp631
I00
I43
sI01
F82.94999999999999
ss(i__main__
State
p632
(dp633
g3
F6.0
sg4
F7.0
sg5
F-6.0
sg6
F-2.0
sb(dp634
I00
F-66.6
sI01
F58.69917001558814
ss(i__main__
State
p635
(dp636
g3
F0.0
sg4
F3.0
sg5
F0.0
sg6
F-4.0
sb(dp637
I00
F68.26809999999999
sI01
I-71
ss(i__main__
State
p638
(dp639
g3
F7.0
sg4
F9.0
sg5
F-7.0
sg6
F2.0
sb(dp640
I00
F21.1
sI01
F0.0
ss(i__main__
State
p641
(dp642
g3
F-5.0
sg4
F1.0
sg5
F5.0
sg6
F0.0
sb(dp643
I00
F12.699187508630404
sI01
F-38.41290000000001
ss(i__main__
State
p644
(dp645
g3
F7.0
sg4
F3.0
sg5
F-7.0
sg6
F4.0
sb(dp646
I00
F-15.69
sI01
F19.598326508907643
ss(i__main__
State
p647
(dp648
g3
F-8.0
sg4
F3.0
sg5
F8.0
sg6
F4.0
sb(dp649
I00
F-9.635551808915512
sI01
F-64.7
ss(i__main__
State
p650
(dp651
g3
F-3.0
sg4
F10.0
sg5
F3.0
sg6
F2.0
sb(dp652
I00
F96.41416891290402
sI01
F0.0
ss(i__main__
State
p653
(dp654
g3
F4.0
sg4
F10.0
sg5
F-4.0
sg6
F-6.0
sb(dp655
I00
F10.0
sI01
F0.0
ss(i__main__
State
p656
(dp657
g3
F3.0
sg4
F7.0
sg5
F-3.0
sg6
F4.0
sb(dp658
I00
I-90
sI01
F-27.069999999999997
ss(i__main__
State
p659
(dp660
g3
F-6.0
sg4
F2.0
sg5
F6.0
sg6
F4.0
sb(dp661
I00
F15.600000000000001
sI01
F45.03195451415073
ss(i__main__
State
p662
(dp663
g3
F5.0
sg4
F8.0
sg5
F-5.0
sg6
F6.0
sb(dp664
I00
F82.90771265015901
sI01
F26.328774000000003
ss(i__main__
State
p665
(dp666
g3
F1.0
sg4
F8.0
sg5
F-1.0
sg6
F-2.0
sb(dp667
I00
F-1899.7587171359455
sI01
F-2048.9819316183907
ss(i__main__
State
p668
(dp669
g3
F-7.0
sg4
F9.0
sg5
F7.0
sg6
F6.0
sb(dp670
I00
F49.427832123321025
sI01
F0.0
ss(i__main__
State
p671
(dp672
g3
F6.0
sg4
F9.0
sg5
F-6.0
sg6
F8.0
sb(dp673
I00
F33.26243
sI01
F85.72811373378238
ss(i__main__
State
p674
(dp675
g3
F-4.0
sg4
F9.0
sg5
F4.0
sg6
F2.0
sb(dp676
I00
F72.20382851354618
sI01
F21.069466597919465
ss(i__main__
State
p677
(dp678
g3
F0.0
sg4
F2.0
sg5
F0.0
sg6
F-4.0
sb(dp679
I00
I93
sI01
F-83.14
ss(i__main__
State
p680
(dp681
g3
F6.0
sg4
F3.0
sg5
F-6.0
sg6
F-2.0
sb(dp682
I00
F51.2
sI01
F-42.035
ss(i__main__
State
p683
(dp684
g3
F3.0
sg4
F6.0
sg5
F-3.0
sg6
F6.0
sb(dp685
I00
F-62.37688856199999
sI01
F26.83698129997644
ss(i__main__
State
p686
(dp687
g3
F-6.0
sg4
F5.0
sg5
F6.0
sg6
F-4.0
sb(dp688
I00
F-34.77924671289
sI01
F50.11398493491883
ss(i__main__
State
p689
(dp690
g3
F7.0
sg4
F8.0
sg5
F-7.0
sg6
F-2.0
sb(dp691
I00
F58.26724110000001
sI01
F-81.0
ss(i__main__
State
p692
(dp693
g3
F-1.0
sg4
F4.0
sg5
F1.0
sg6
F2.0
sb(dp694
I00
I-78
sI01
F68.6646
ss(i__main__
State
p695
(dp696
g3
F-2.0
sg4
F9.0
sg5
F2.0
sg6
F2.0
sb(dp697
I00
F122.31222511576237
sI01
F20.0
ss(i__main__
State
p698
(dp699
g3
F-6.0
sg4
F4.0
sg5
F6.0
sg6
F0.0
sb(dp700
I00
F53.09643549058909
sI01
I-16
ss(i__main__
State
p701
(dp702
g3
F-1.0
sg4
F10.0
sg5
F1.0
sg6
F0.0
sb(dp703
I00
F130.5615775697007
sI01
F33.18615763
ss(i__main__
State
p704
(dp705
g3
F-6.0
sg4
F10.0
sg5
F6.0
sg6
F2.0
sb(dp706
I00
F98.56596127
sI01
F15.700000000000001
ss(i__main__
State
p707
(dp708
g3
F0.0
sg4
F5.0
sg5
F0.0
sg6
F4.0
sb(dp709
I00
F30.2952
sI01
F-23.958
ss(i__main__
State
p710
(dp711
g3
F-8.0
sg4
F0.0
sg5
F8.0
sg6
F-6.0
sb(dp712
I00
F8.888
sI01
I-73
ss(i__main__
State
p713
(dp714
g3
F-3.0
sg4
F4.0
sg5
F3.0
sg6
F4.0
sb(dp715
I00
F55.963711
sI01
I-51
ss(i__main__
State
p716
(dp717
g3
F0.0
sg4
F1.0
sg5
F0.0
sg6
F-4.0
sb(dp718
I00
F6.641631791999998
sI01
F-55.5594
ss(i__main__
State
p719
(dp720
g3
F3.0
sg4
F0.0
sg5
F-3.0
sg6
F0.0
sb(dp721
I00
I-48
sI01
F-5.419999999999998
ss(i__main__
State
p722
(dp723
g3
F-1.0
sg4
F3.0
sg5
F1.0
sg6
F0.0
sb(dp724
I00
F36.3
sI01
I-61
ss(i__main__
State
p725
(dp726
g3
F-1.0
sg4
F7.0
sg5
F1.0
sg6
F0.0
sb(dp727
I00
F49.70729053603761
sI01
F-46.928
ss(i__main__
State
p728
(dp729
g3
F-2.0
sg4
F4.0
sg5
F2.0
sg6
F2.0
sb(dp730
I00
F48.65
sI01
F-76.564757958
ss(i__main__
State
p731
(dp732
g3
F-6.0
sg4
F1.0
sg5
F6.0
sg6
F-4.0
sb(dp733
I00
F-45.8
sI01
F-63.806442630336925
ss(i__main__
State
p734
(dp735
g3
F7.0
sg4
F0.0
sg5
F-7.0
sg6
F-6.0
sb(dp736
I00
F47.44022480084577
sI01
F-68.7511716986
ss(i__main__
State
p737
(dp738
g3
F3.0
sg4
F6.0
sg5
F-3.0
sg6
F8.0
sb(dp739
I00
I11
sI01
F46.303346999999995
ss(i__main__
State
p740
(dp741
g3
F6.0
sg4
F0.0
sg5
F-6.0
sg6
F-6.0
sb(dp742
I00
F-23.802768
sI01
I-91
ss(i__main__
State
p743
(dp744
g3
F6.0
sg4
F8.0
sg5
F-6.0
sg6
F-2.0
sb(dp745
I00
F203.7205643635981
sI01
F-325.9525420000001
ss(i__main__
State
p746
(dp747
g3
F-3.0
sg4
F9.0
sg5
F3.0
sg6
F-6.0
sb(dp748
I00
F13.696287024
sI01
F0.0
ss(i__main__
State
p749
(dp750
g3
F5.0
sg4
F0.0
sg5
F-5.0
sg6
F8.0
sb(dp751
I00
F-1.7152563787291957
sI01
F47.55470451378194
ss(i__main__
State
p752
(dp753
g3
F0.0
sg4
F6.0
sg5
F0.0
sg6
F2.0
sb(dp754
I00
I-29
sI01
F2.241296220000005
ss(i__main__
State
p755
(dp756
g3
F2.0
sg4
F9.0
sg5
F-2.0
sg6
F-6.0
sb(dp757
I00
F56.301788144973806
sI01
F21.137
ss(i__main__
State
p758
(dp759
g3
F-5.0
sg4
F10.0
sg5
F5.0
sg6
F-4.0
sb(dp760
I00
F175.54278013603908
sI01
F19.200000000000003
ss(i__main__
State
p761
(dp762
g3
F-4.0
sg4
F0.0
sg5
F4.0
sg6
F-6.0
sb(dp763
I00
I-35
sI01
F81.12009999999998
ss(i__main__
State
p764
(dp765
g3
F-5.0
sg4
F3.0
sg5
F5.0
sg6
F-8.0
sb(dp766
I00
F0.5
sI01
I-100
ss(i__main__
State
p767
(dp768
g3
F7.0
sg4
F10.0
sg5
F-7.0
sg6
F-8.0
sb(dp769
I00
F53.382134
sI01
F6.800000000000001
ss(i__main__
State
p770
(dp771
g3
F4.0
sg4
F7.0
sg5
F-4.0
sg6
F-4.0
sb(dp772
I00
F79.12778234789103
sI01
F-14.292957999999999
ss(i__main__
State
p773
(dp774
g3
F1.0
sg4
F6.0
sg5
F-1.0
sg6
F8.0
sb(dp775
I00
F-10.701953629853962
sI01
I-91
ss(i__main__
State
p776
(dp777
g3
F5.0
sg4
F6.0
sg5
F-5.0
sg6
F-4.0
sb(dp778
I00
F-19.925783725599995
sI01
I-58
ss(i__main__
State
p779
(dp780
g3
F-3.0
sg4
F3.0
sg5
F3.0
sg6
F2.0
sb(dp781
I00
F50.35629901175718
sI01
F17.0
ss(i__main__
State
p782
(dp783
g3
F-8.0
sg4
F10.0
sg5
F8.0
sg6
F4.0
sb(dp784
I00
F10.0
sI01
F40.77700000000001
ss(i__main__
State
p785
(dp786
g3
F0.0
sg4
F7.0
sg5
F0.0
sg6
F0.0
sb(dp787
I00
F5.924107075
sI01
F-9.6
ss(i__main__
State
p788
(dp789
g3
F0.0
sg4
F10.0
sg5
F0.0
sg6
F6.0
sb(dp790
I00
F-3433.2968
sI01
F-4074.0096969185365
ss(i__main__
State
p791
(dp792
g3
F7.0
sg4
F8.0
sg5
F-7.0
sg6
F4.0
sb(dp793
I00
F54.069773675280004
sI01
F0.0
ss(i__main__
State
p794
(dp795
g3
F4.0
sg4
F4.0
sg5
F-4.0
sg6
F2.0
sb(dp796
I00
F7.210000000000001
sI01
I-91
ss(i__main__
State
p797
(dp798
g3
F-8.0
sg4
F0.0
sg5
F8.0
sg6
F-8.0
sb(dp799
I00
F36.81342559678586
sI01
F14.5729
ss(i__main__
State
p800
(dp801
g3
F1.0
sg4
F0.0
sg5
F-1.0
sg6
F6.0
sb(dp802
I00
F-84.6126
sI01
F6.24793773730595
ss(i__main__
State
p803
(dp804
g3
F7.0
sg4
F3.0
sg5
F-7.0
sg6
F6.0
sb(dp805
I00
I-94
sI01
F-55.24
ss(i__main__
State
p806
(dp807
g3
F3.0
sg4
F2.0
sg5
F-3.0
sg6
F0.0
sb(dp808
I00
F-14.299999999999999
sI01
F22.096164154600007
ss(i__main__
State
p809
(dp810
g3
F-7.0
sg4
F4.0
sg5
F7.0
sg6
F0.0
sb(dp811
I00
F-14.870000000000001
sI01
F-59.68
ss(i__main__
State
p812
(dp813
g3
F8.0
sg4
F6.0
sg5
F-8.0
sg6
F-4.0
sb(dp814
I00
F13.3
sI01
F-44.33089
ss(i__main__
State
p815
(dp816
g3
F-1.0
sg4
F4.0
sg5
F1.0
sg6
F0.0
sb(dp817
I00
F-14.498999999999999
sI01
I-79
ss(i__main__
State
p818
(dp819
g3
F6.0
sg4
F4.0
sg5
F-6.0
sg6
F2.0
sb(dp820
I00
F41.43023301973266
sI01
F2.787
ss(i__main__
State
p821
(dp822
g3
F7.0
sg4
F6.0
sg5
F-7.0
sg6
F2.0
sb(dp823
I00
I10
sI01
F41.4
ss(i__main__
State
p824
(dp825
g3
F-3.0
sg4
F10.0
sg5
F3.0
sg6
F8.0
sb(dp826
I00
F99.3615221319
sI01
F0.0
ss(i__main__
State
p827
(dp828
g3
F-1.0
sg4
F8.0
sg5
F1.0
sg6
F-6.0
sb(dp829
I00
F20.9
sI01
F0.0
ss(i__main__
State
p830
(dp831
g3
F-4.0
sg4
F10.0
sg5
F4.0
sg6
F4.0
sb(dp832
I00
F106.270680470733
sI01
F0.0
ss(i__main__
State
p833
(dp834
g3
F-7.0
sg4
F10.0
sg5
F7.0
sg6
F0.0
sb(dp835
I00
F234.98554208595485
sI01
F53.08027
ss(i__main__
State
p836
(dp837
g3
F-3.0
sg4
F2.0
sg5
F3.0
sg6
F6.0
sb(dp838
I00
F68.5839
sI01
I-21
ss(i__main__
State
p839
(dp840
g3
F1.0
sg4
F2.0
sg5
F-1.0
sg6
F-8.0
sb(dp841
I00
I-83
sI01
F6.244662200000001
ss(i__main__
State
p842
(dp843
g3
F7.0
sg4
F10.0
sg5
F-7.0
sg6
F2.0
sb(dp844
I00
F0.0
sI01
F78.7216379358
ss(i__main__
State
p845
(dp846
g3
F-7.0
sg4
F1.0
sg5
F7.0
sg6
F-8.0
sb(dp847
I00
F3.780021724999999
sI01
F-45.959999999999994
ss(i__main__
State
p848
(dp849
g3
F5.0
sg4
F8.0
sg5
F-5.0
sg6
F2.0
sb(dp850
I00
F66.80062979
sI01
F0.0
ss(i__main__
State
p851
(dp852
g3
F4.0
sg4
F7.0
sg5
F-4.0
sg6
F4.0
sb(dp853
I00
F-3.8568387240366264
sI01
F-12.9986962382265
ss(i__main__
State
p854
(dp855
g3
F-5.0
sg4
F0.0
sg5
F5.0
sg6
F-6.0
sb(dp856
I00
F-5.539167770999999
sI01
F-88.6
ss(i__main__
State
p857
(dp858
g3
F8.0
sg4
F7.0
sg5
F-8.0
sg6
F6.0
sb(dp859
I00
F59.74432463115347
sI01
F36.5775557013
ss(i__main__
State
p860
(dp861
g3
F-8.0
sg4
F3.0
sg5
F8.0
sg6
F0.0
sb(dp862
I00
F43.96153723661211
sI01
I-29
ss(i__main__
State
p863
(dp864
g3
F0.0
sg4
F8.0
sg5
F0.0
sg6
F-6.0
sb(dp865
I00
F-1898.81
sI01
F-2700.6739336077085
ss(i__main__
State
p866
(dp867
g3
F-4.0
sg4
F4.0
sg5
F4.0
sg6
F0.0
sb(dp868
I00
I-39
sI01
F-23.799999999999997
ss(i__main__
State
p869
(dp870
g3
F-4.0
sg4
F9.0
sg5
F4.0
sg6
F6.0
sb(dp871
I00
F124.65108665120243
sI01
F22.70721
ss(i__main__
State
p872
(dp873
g3
F-8.0
sg4
F10.0
sg5
F8.0
sg6
F6.0
sb(dp874
I00
F83.044952518
sI01
F18.7
ss(i__main__
State
p875
(dp876
g3
F6.0
sg4
F3.0
sg5
F-6.0
sg6
F-6.0
sb(dp877
I00
F45.644681713757066
sI01
I-95
ss(i__main__
State
p878
(dp879
g3
F-4.0
sg4
F6.0
sg5
F4.0
sg6
F0.0
sb(dp880
I00
I-83
sI01
F54.129000794640405
ss(i__main__
State
p881
(dp882
g3
F-5.0
sg4
F5.0
sg5
F5.0
sg6
F4.0
sb(dp883
I00
I-76
sI01
F35.1965214
ss(i__main__
State
p884
(dp885
g3
F-1.0
sg4
F7.0
sg5
F1.0
sg6
F-4.0
sb(dp886
I00
I43
sI01
F58.52087790516498
ss(i__main__
State
p887
(dp888
g3
F-3.0
sg4
F0.0
sg5
F3.0
sg6
F-8.0
sb(dp889
I00
F96.1339
sI01
F-60.612
ss(i__main__
State
p890
(dp891
g3
F5.0
sg4
F7.0
sg5
F-5.0
sg6
F-2.0
sb(dp892
I00
F59.56000425757706
sI01
I-20
ss(i__main__
State
p893
(dp894
g3
F2.0
sg4
F0.0
sg5
F-2.0
sg6
F-8.0
sb(dp895
I00
F-15.285438
sI01
F42.13001024991001
ss(i__main__
State
p896
(dp897
g3
F-1.0
sg4
F2.0
sg5
F1.0
sg6
F4.0
sb(dp898
I00
F26.268252338705043
sI01
F-59.783510164875295
ss(i__main__
State
p899
(dp900
g3
F-3.0
sg4
F5.0
sg5
F3.0
sg6
F0.0
sb(dp901
I00
F37.412488999999994
sI01
F39.88719999999999
ss(i__main__
State
p902
(dp903
g3
F8.0
sg4
F2.0
sg5
F-8.0
sg6
F-2.0
sb(dp904
I00
F69.87280389580116
sI01
I-25
ss(i__main__
State
p905
(dp906
g3
F1.0
sg4
F7.0
sg5
F-1.0
sg6
F2.0
sb(dp907
I00
F58.62842145798426
sI01
F-230.975861
ss(i__main__
State
p908
(dp909
g3
F-2.0
sg4
F10.0
sg5
F2.0
sg6
F8.0
sb(dp910
I00
F139.2045550476879
sI01
F68.3328
ss(i__main__
State
p911
(dp912
g3
F7.0
sg4
F2.0
sg5
F-7.0
sg6
F8.0
sb(dp913
I00
F-41.9
sI01
F70.08071201311006
ss(i__main__
State
p914
(dp915
g3
F-5.0
sg4
F0.0
sg5
F5.0
sg6
F4.0
sb(dp916
I00
F19.3048
sI01
F26.131463482999997
ss(i__main__
State
p917
(dp918
g3
F5.0
sg4
F1.0
sg5
F-5.0
sg6
F4.0
sb(dp919
I00
F75.25999999999999
sI01
I69
ss(i__main__
State
p920
(dp921
g3
F-6.0
sg4
F1.0
sg5
F6.0
sg6
F-8.0
sb(dp922
I00
F-36.3
sI01
F-1.7561667999999955
ss(i__main__
State
p923
(dp924
g3
F8.0
sg4
F1.0
sg5
F-8.0
sg6
F2.0
sb(dp925
I00
I79
sI01
F71.15
ss(i__main__
State
p926
(dp927
g3
F-5.0
sg4
F6.0
sg5
F5.0
sg6
F-4.0
sb(dp928
I00
F23.996000000000002
sI01
I-26
ss(i__main__
State
p929
(dp930
g3
F-4.0
sg4
F7.0
sg5
F4.0
sg6
F-2.0
sb(dp931
I00
F30.31168919
sI01
I-62
ss(i__main__
State
p932
(dp933
g3
F-8.0
sg4
F6.0
sg5
F8.0
sg6
F8.0
sb(dp934
I00
F-63.196017060410306
sI01
F6.170541900000001
ss(i__main__
State
p935
(dp936
g3
F-4.0
sg4
F2.0
sg5
F4.0
sg6
F-2.0
sb(dp937
I00
F-0.4983221300000005
sI01
F-61.485862394815
ss(i__main__
State
p938
(dp939
g3
F4.0
sg4
F6.0
sg5
F-4.0
sg6
F-4.0
sb(dp940
I00
F87.339273555
sI01
F-84.1264
ss(i__main__
State
p941
(dp942
g3
F-8.0
sg4
F1.0
sg5
F8.0
sg6
F-8.0
sb(dp943
I00
I-54
sI01
F25.000026000000002
ss(i__main__
State
p944
(dp945
g3
F-7.0
sg4
F10.0
sg5
F7.0
sg6
F-4.0
sb(dp946
I00
F147.86798481776256
sI01
F28.8615789582264
ss(i__main__
State
p947
(dp948
g3
F-6.0
sg4
F9.0
sg5
F6.0
sg6
F6.0
sb(dp949
I00
F30.0
sI01
F144.98787790137789
ss(i__main__
State
p950
(dp951
g3
F8.0
sg4
F2.0
sg5
F-8.0
sg6
F6.0
sb(dp952
I00
F89.24921727144101
sI01
I-19
ss(i__main__
State
p953
(dp954
g3
F3.0
sg4
F2.0
sg5
F-3.0
sg6
F-2.0
sb(dp955
I00
F-48.6247140384
sI01
F-78.4
ss(i__main__
State
p956
(dp957
g3
F-2.0
sg4
F10.0
sg5
F2.0
sg6
F6.0
sb(dp958
I00
F25.700000000000003
sI01
F73.39424263500001
ss(i__main__
State
p959
(dp960
g3
F-7.0
sg4
F3.0
sg5
F7.0
sg6
F-8.0
sb(dp961
I00
F-9.304061974307997
sI01
F45.220349208423094
ss(i__main__
State
p962
(dp963
g3
F6.0
sg4
F6.0
sg5
F-6.0
sg6
F-4.0
sb(dp964
I00
F39.94444067272964
sI01
F-50.45421945
ss(i__main__
State
p965
(dp966
g3
F-4.0
sg4
F9.0
sg5
F4.0
sg6
F8.0
sb(dp967
I00
F30.142231100000004
sI01
F54.97585239658806
ss(i__main__
State
p968
(dp969
g3
F5.0
sg4
F10.0
sg5
F-5.0
sg6
F2.0
sb(dp970
I00
F158.9662748828133
sI01
F22.46
ss(i__main__
State
p971
(dp972
g3
F-1.0
sg4
F0.0
sg5
F1.0
sg6
F8.0
sb(dp973
I00
F33.054442118
sI01
F60.756133819743276
ss(i__main__
State
p974
(dp975
g3
F7.0
sg4
F8.0
sg5
F-7.0
sg6
F0.0
sb(dp976
I00
F145.28017040908006
sI01
F66.84844986270001
ss(i__main__
State
p977
(dp978
g3
F1.0
sg4
F5.0
sg5
F-1.0
sg6
F2.0
sb(dp979
I00
F52.4
sI01
F69.23184748900199
ss(i__main__
State
p980
(dp981
g3
F-7.0
sg4
F3.0
sg5
F7.0
sg6
F8.0
sb(dp982
I00
F51.33106117
sI01
F56.8289
ss(i__main__
State
p983
(dp984
g3
F-4.0
sg4
F0.0
sg5
F4.0
sg6
F-2.0
sb(dp985
I00
F48.614914999999996
sI01
I27
ss(i__main__
State
p986
(dp987
g3
F-2.0
sg4
F4.0
sg5
F2.0
sg6
F-2.0
sb(dp988
I00
I13
sI01
F56.073310299999996
ss(i__main__
State
p989
(dp990
g3
F1.0
sg4
F6.0
sg5
F-1.0
sg6
F-8.0
sb(dp991
I00
F-4.699999999999999
sI01
F23.343844359788406
ss(i__main__
State
p992
(dp993
g3
F4.0
sg4
F3.0
sg5
F-4.0
sg6
F-8.0
sb(dp994
I00
F87.5
sI01
I-28
ss(i__main__
State
p995
(dp996
g3
F-2.0
sg4
F6.0
sg5
F2.0
sg6
F2.0
sb(dp997
I00
F60.92450850134309
sI01
F44.3
ss(i__main__
State
p998
(dp999
g3
F-3.0
sg4
F1.0
sg5
F3.0
sg6
F6.0
sb(dp1000
I00
F42.66254251080672
sI01
F-24.4
ss(i__main__
State
p1001
(dp1002
g3
F8.0
sg4
F3.0
sg5
F-8.0
sg6
F-6.0
sb(dp1003
I00
I49
sI01
F85.48660906235003
ss(i__main__
State
p1004
(dp1005
g3
F-1.0
sg4
F2.0
sg5
F1.0
sg6
F-4.0
sb(dp1006
I00
F30.05175563331508
sI01
F-45.35075628
ss(i__main__
State
p1007
(dp1008
g3
F-6.0
sg4
F7.0
sg5
F6.0
sg6
F8.0
sb(dp1009
I00
F37.79859
sI01
I-60
ss(i__main__
State
p1010
(dp1011
g3
F-5.0
sg4
F10.0
sg5
F5.0
sg6
F2.0
sb(dp1012
I00
F137.981532651731
sI01
F23.246000000000002
ss(i__main__
State
p1013
(dp1014
g3
F4.0
sg4
F8.0
sg5
F-4.0
sg6
F0.0
sb(dp1015
I00
F130.64472779562155
sI01
F22.8
ss(i__main__
State
p1016
(dp1017
g3
F0.0
sg4
F1.0
sg5
F0.0
sg6
F-6.0
sb(dp1018
I00
F3.972105686005305
sI01
F36.052579794422364
ss(i__main__
State
p1019
(dp1020
g3
F-8.0
sg4
F9.0
sg5
F8.0
sg6
F0.0
sb(dp1021
I00
F-3433.48
sI01
F-1893.4556380200002
ss(i__main__
State
p1022
(dp1023
g3
F0.0
sg4
F0.0
sg5
F0.0
sg6
F6.0
sb(dp1024
I00
F59.51445640551826
sI01
F-14.269974479506846
ss(i__main__
State
p1025
(dp1026
g3
F-1.0
sg4
F3.0
sg5
F1.0
sg6
F6.0
sb(dp1027
I00
F-8.299999999999999
sI01
I-22
ss(i__main__
State
p1028
(dp1029
g3
F3.0
sg4
F9.0
sg5
F-3.0
sg6
F4.0
sb(dp1030
I00
F190.5941565673813
sI01
F30.064
ss(i__main__
State
p1031
(dp1032
g3
F7.0
sg4
F10.0
sg5
F-7.0
sg6
F4.0
sb(dp1033
I00
F65.15604560147
sI01
F33.6396709813
ss(i__main__
State
p1034
(dp1035
g3
F1.0
sg4
F10.0
sg5
F-1.0
sg6
F6.0
sb(dp1036
I00
F0.0
sI01
F68.70645642000001
ss(i__main__
State
p1037
(dp1038
g3
F-5.0
sg4
F8.0
sg5
F5.0
sg6
F8.0
sb(dp1039
I00
F115.41228321836141
sI01
F60.48384620300256
ss(i__main__
State
p1040
(dp1041
g3
F7.0
sg4
F7.0
sg5
F-7.0
sg6
F2.0
sb(dp1042
I00
I35
sI01
F56.90831925587734
ss(i__main__
State
p1043
(dp1044
g3
F3.0
sg4
F0.0
sg5
F-3.0
sg6
F-2.0
sb(dp1045
I00
F-24.7
sI01
F26.896
ss(i__main__
State
p1046
(dp1047
g3
F8.0
sg4
F7.0
sg5
F-8.0
sg6
F2.0
sb(dp1048
I00
F-10.187488648115743
sI01
F-77.19
ss(i__main__
State
p1049
(dp1050
g3
F0.0
sg4
F6.0
sg5
F0.0
sg6
F8.0
sb(dp1051
I00
I-93
sI01
F-5.579532489999999
ss(i__main__
State
p1052
(dp1053
g3
F-4.0
sg4
F2.0
sg5
F4.0
sg6
F-8.0
sb(dp1054
I00
F-15.594404338288495
sI01
F43.15707490053608
ss(i__main__
State
p1055
(dp1056
g3
F7.0
sg4
F4.0
sg5
F-7.0
sg6
F6.0
sb(dp1057
I00
I-24
sI01
F12.5
ss(i__main__
State
p1058
(dp1059
g3
F-3.0
sg4
F4.0
sg5
F3.0
sg6
F-6.0
sb(dp1060
I00
F13.5
sI01
I69
ss(i__main__
State
p1061
(dp1062
g3
F0.0
sg4
F0.0
sg5
F0.0
sg6
F-2.0
sb(dp1063
I00
F32.2552017292344
sI01
F-18.45511
ss(i__main__
State
p1064
(dp1065
g3
F-3.0
sg4
F1.0
sg5
F3.0
sg6
F8.0
sb(dp1066
I00
F18.97566430233312
sI01
I-77
ss(i__main__
State
p1067
(dp1068
g3
F-7.0
sg4
F0.0
sg5
F7.0
sg6
F8.0
sb(dp1069
I00
I-45
sI01
F-33.32794
ss(i__main__
State
p1070
(dp1071
g3
F2.0
sg4
F5.0
sg5
F-2.0
sg6
F6.0
sb(dp1072
I00
F74.681541612
sI01
F27.257994653981402
ss(i__main__
State
p1073
(dp1074
g3
F7.0
sg4
F6.0
sg5
F-7.0
sg6
F-2.0
sb(dp1075
I00
F40.343693338062835
sI01
F-50.2
ss(i__main__
State
p1076
(dp1077
g3
F-5.0
sg4
F5.0
sg5
F5.0
sg6
F8.0
sb(dp1078
I00
F50.19
sI01
I-13
ss(i__main__
State
p1079
(dp1080
g3
F-6.0
sg4
F2.0
sg5
F6.0
sg6
F-8.0
sb(dp1081
I00
F31.220000000000002
sI01
F68.14456036926
ss(i__main__
State
p1082
(dp1083
g3
F-1.0
sg4
F8.0
sg5
F1.0
sg6
F2.0
sb(dp1084
I00
F69.87975
sI01
F0.0
ss(i__main__
State
p1085
(dp1086
g3
F-7.0
sg4
F8.0
sg5
F7.0
sg6
F0.0
sb(dp1087
I00
F142.95544484231496
sI01
F24.68311188738
ss(i__main__
State
p1088
(dp1089
g3
F1.0
sg4
F6.0
sg5
F-1.0
sg6
F2.0
sb(dp1090
I00
F57.863235835733185
sI01
F59.77543603581721
ss(i__main__
State
p1091
(dp1092
g3
F-1.0
sg4
F4.0
sg5
F1.0
sg6
F-4.0
sb(dp1093
I00
F30.9537289
sI01
I-17
ss(i__main__
State
p1094
(dp1095
g3
F6.0
sg4
F2.0
sg5
F-6.0
sg6
F8.0
sb(dp1096
I00
F-80.8
sI01
F23.91486
ss(i__main__
State
p1097
(dp1098
g3
F8.0
sg4
F0.0
sg5
F-8.0
sg6
F6.0
sb(dp1099
I00
F49.31
sI01
F-30.5
ss(i__main__
State
p1100
(dp1101
g3
F-2.0
sg4
F8.0
sg5
F2.0
sg6
F4.0
sb(dp1102
I00
F67.92018
sI01
F25.701422311
ss(i__main__
State
p1103
(dp1104
g3
F-1.0
sg4
F1.0
sg5
F1.0
sg6
F6.0
sb(dp1105
I00
I-58
sI01
F85.92498061
ss(i__main__
State
p1106
(dp1107
g3
F-2.0
sg4
F3.0
sg5
F2.0
sg6
F4.0
sb(dp1108
I00
F53.93107013737
sI01
F-81.0
ss(i__main__
State
p1109
(dp1110
g3
F-3.0
sg4
F7.0
sg5
F3.0
sg6
F-6.0
sb(dp1111
I00
F19.278887127
sI01
F-63.8
ss(i__main__
State
p1112
(dp1113
g3
F-4.0
sg4
F8.0
sg5
F4.0
sg6
F6.0
sb(dp1114
I00
F140.4780306182956
sI01
F36.27418435952872
ss(i__main__
State
p1115
(dp1116
g3
F5.0
sg4
F3.0
sg5
F-5.0
sg6
F-6.0
sb(dp1117
I00
F47.2056
sI01
I57
ss(i__main__
State
p1118
(dp1119
g3
F8.0
sg4
F1.0
sg5
F-8.0
sg6
F6.0
sb(dp1120
I00
F-63.53
sI01
F40.97828692889797
ss(i__main__
State
p1121
(dp1122
g3
F-5.0
sg4
F6.0
sg5
F5.0
sg6
F-8.0
sb(dp1123
I00
F37.6578
sI01
F27.021947246730004
ss(i__main__
State
p1124
(dp1125
g3
F-4.0
sg4
F7.0
sg5
F4.0
sg6
F-6.0
sb(dp1126
I00
I-25
sI01
F77.27671233551001
ss(i__main__
State
p1127
(dp1128
g3
F-7.0
sg4
F9.0
sg5
F7.0
sg6
F-4.0
sb(dp1129
I00
F61.506204642
sI01
F20.26636052676018
ss(i__main__
State
p1130
(dp1131
g3
F2.0
sg4
F3.0
sg5
F-2.0
sg6
F-2.0
sb(dp1132
I00
F78.1
sI01
I4
ss(i__main__
State
p1133
(dp1134
g3
F4.0
sg4
F6.0
sg5
F-4.0
sg6
F4.0
sb(dp1135
I00
I-36
sI01
F38.508422
ss(i__main__
State
p1136
(dp1137
g3
F-8.0
sg4
F9.0
sg5
F8.0
sg6
F-4.0
sb(dp1138
I00
F54.444271544
sI01
F11.0
ss(i__main__
State
p1139
(dp1140
g3
F-6.0
sg4
F8.0
sg5
F6.0
sg6
F6.0
sb(dp1141
I00
F20.590320914847794
sI01
F0.0
ss(i__main__
State
p1142
(dp1143
g3
F3.0
sg4
F3.0
sg5
F-3.0
sg6
F-2.0
sb(dp1144
I00
F71.928
sI01
I24
ss(i__main__
State
p1145
(dp1146
g3
F-6.0
sg4
F5.0
sg5
F6.0
sg6
F-6.0
sb(dp1147
I00
F42.68946044657101
sI01
I-47
ss(i__main__
State
p1148
(dp1149
g3
F5.0
sg4
F8.0
sg5
F-5.0
sg6
F8.0
sb(dp1150
I00
F92.2056921070614
sI01
F0.0
ss(i__main__
State
p1151
(dp1152
g3
F-6.0
sg4
F9.0
sg5
F6.0
sg6
F2.0
sb(dp1153
I00
F31.902010000000004
sI01
F0.0
ss(i__main__
State
p1154
(dp1155
g3
F5.0
sg4
F2.0
sg5
F-5.0
sg6
F-6.0
sb(dp1156
I00
I-86
sI01
F-51.83
ss(i__main__
State
p1157
(dp1158
g3
F8.0
sg4
F5.0
sg5
F-8.0
sg6
F8.0
sb(dp1159
I00
F63.241413445000006
sI01
F26.0
ss(i__main__
State
p1160
(dp1161
g3
F-5.0
sg4
F10.0
sg5
F5.0
sg6
F6.0
sb(dp1162
I00
F10.0
sI01
F75.11778948743
ss(i__main__
State
p1163
(dp1164
g3
F4.0
sg4
F2.0
sg5
F-4.0
sg6
F4.0
sb(dp1165
I00
F-66.901
sI01
I-99
ss(i__main__
State
p1166
(dp1167
g3
F-1.0
sg4
F7.0
sg5
F1.0
sg6
F-6.0
sb(dp1168
I00
F39.32486410951899
sI01
F-52.2
ss(i__main__
State
p1169
(dp1170
g3
F3.0
sg4
F8.0
sg5
F-3.0
sg6
F2.0
sb(dp1171
I00
F174.8020648572405
sI01
F23.79
ss(i__main__
State
p1172
(dp1173
g3
F8.0
sg4
F10.0
sg5
F-8.0
sg6
F-6.0
sb(dp1174
I00
F0.0
sI01
F37.01610950207409
ss(i__main__
State
p1175
(dp1176
g3
F-2.0
sg4
F1.0
sg5
F2.0
sg6
F-4.0
sb(dp1177
I00
F78.271
sI01
F75.6691393116537
ss(i__main__
State
p1178
(dp1179
g3
F-7.0
sg4
F6.0
sg5
F7.0
sg6
F8.0
sb(dp1180
I00
F-50.3
sI01
F15.021292313411685
ss(i__main__
State
p1181
(dp1182
g3
F-2.0
sg4
F5.0
sg5
F2.0
sg6
F4.0
sb(dp1183
I00
F15.799575010000002
sI01
I2
ss(i__main__
State
p1184
(dp1185
g3
F6.0
sg4
F10.0
sg5
F-6.0
sg6
F2.0
sb(dp1186
I00
F94.14441787612071
sI01
F15.100000000000001
ss(i__main__
State
p1187
(dp1188
g3
F8.0
sg4
F3.0
sg5
F-8.0
sg6
F-2.0
sb(dp1189
I00
F55.611183663910005
sI01
I-99
ss(i__main__
State
p1190
(dp1191
g3
F-3.0
sg4
F1.0
sg5
F3.0
sg6
F-4.0
sb(dp1192
I00
F23.3577544338
sI01
F28.635193416999996
ss(i__main__
State
p1193
(dp1194
g3
F-8.0
sg4
F8.0
sg5
F8.0
sg6
F-8.0
sb(dp1195
I00
F96.71588376737994
sI01
F0.0
ss(i__main__
State
p1196
(dp1197
g3
F4.0
sg4
F0.0
sg5
F-4.0
sg6
F4.0
sb(dp1198
I00
F10.08280991394
sI01
I-17
ss(i__main__
State
p1199
(dp1200
g3
F-4.0
sg4
F1.0
sg5
F4.0
sg6
F-4.0
sb(dp1201
I00
I-49
sI01
F11.938901267724237
ss(i__main__
State
p1202
(dp1203
g3
F-8.0
sg4
F1.0
sg5
F8.0
sg6
F4.0
sb(dp1204
I00
F-7.929014799227265
sI01
F-66.4
ss(i__main__
State
p1205
(dp1206
g3
F3.0
sg4
F1.0
sg5
F-3.0
sg6
F0.0
sb(dp1207
I00
F66.6346
sI01
F-49.5
ss(i__main__
State
p1208
(dp1209
g3
F6.0
sg4
F2.0
sg5
F-6.0
sg6
F-6.0
sb(dp1210
I00
I-12
sI01
F49.4607993502539
ss(i__main__
State
p1211
(dp1212
g3
F2.0
sg4
F6.0
sg5
F-2.0
sg6
F-8.0
sb(dp1213
I00
I4
sI01
F-59.8
ss(i__main__
State
p1214
(dp1215
g3
F5.0
sg4
F9.0
sg5
F-5.0
sg6
F-4.0
sb(dp1216
I00
F252.14769734133483
sI01
F64.57048569106897
ss(i__main__
State
p1217
(dp1218
g3
F-6.0
sg4
F8.0
sg5
F6.0
sg6
F-8.0
sb(dp1219
I00
F100.7433522401564
sI01
F33.172700000000006
ss(i__main__
State
p1220
(dp1221
g3
F5.0
sg4
F9.0
sg5
F-5.0
sg6
F-6.0
sb(dp1222
I00
F20.1
sI01
F0.0
ss(i__main__
State
p1223
(dp1224
g3
F-8.0
sg4
F3.0
sg5
F8.0
sg6
F8.0
sb(dp1225
I00
F43.555890000000005
sI01
F55.69500000000001
ss(i__main__
State
p1226
(dp1227
g3
F-8.0
sg4
F6.0
sg5
F8.0
sg6
F6.0
sb(dp1228
I00
F-51.855196813
sI01
F4.5034529956449045
ss(i__main__
State
p1229
(dp1230
g3
F2.0
sg4
F3.0
sg5
F-2.0
sg6
F6.0
sb(dp1231
I00
F-34.69036320922486
sI01
F-24.89131961950256
ss(i__main__
State
p1232
(dp1233
g3
F1.0
sg4
F9.0
sg5
F-1.0
sg6
F0.0
sb(dp1234
I00
F-1896.739
sI01
F-3071.3365000000003
ss(i__main__
State
p1235
(dp1236
g3
F3.0
sg4
F7.0
sg5
F-3.0
sg6
F-8.0
sb(dp1237
I00
F81.34838686734743
sI01
F5.4314841000000005
ss(i__main__
State
p1238
(dp1239
g3
F7.0
sg4
F6.0
sg5
F-7.0
sg6
F-6.0
sb(dp1240
I00
F50.59238089495055
sI01
F-59.48617
ss(i__main__
State
p1241
(dp1242
g3
F4.0
sg4
F8.0
sg5
F-4.0
sg6
F-8.0
sb(dp1243
I00
F142.91175626386595
sI01
F39.86149332
ss(i__main__
State
p1244
(dp1245
g3
F4.0
sg4
F9.0
sg5
F-4.0
sg6
F0.0
sb(dp1246
I00
F-1899.0
sI01
F-3429.534784384
ss(i__main__
State
p1247
(dp1248
g3
F-2.0
sg4
F7.0
sg5
F2.0
sg6
F-8.0
sb(dp1249
I00
F71.333607
sI01
F75.76362870240001
ss(i__main__
State
p1250
(dp1251
g3
F7.0
sg4
F9.0
sg5
F-7.0
sg6
F-2.0
sb(dp1252
I00
F-251.66286079300002
sI01
F23.204785640815945
ss(i__main__
State
p1253
(dp1254
g3
F-7.0
sg4
F1.0
sg5
F7.0
sg6
F2.0
sb(dp1255
I00
I-31
sI01
F17.41160197
ss(i__main__
State
p1256
(dp1257
g3
F-4.0
sg4
F8.0
sg5
F4.0
sg6
F0.0
sb(dp1258
I00
F31.25633354
sI01
F0.0
ss(i__main__
State
p1259
(dp1260
g3
F2.0
sg4
F10.0
sg5
F-2.0
sg6
F-4.0
sb(dp1261
I00
F31.310672286480003
sI01
F14.380000000000003
ss(i__main__
State
p1262
(dp1263
g3
F5.0
sg4
F4.0
sg5
F-5.0
sg6
F-6.0
sb(dp1264
I00
F-57.14828897905583
sI01
F34.98031015992253
ss(i__main__
State
p1265
(dp1266
g3
F-8.0
sg4
F2.0
sg5
F8.0
sg6
F6.0
sb(dp1267
I00
F74.44783477818243
sI01
F-8.09666
ss(i__main__
State
p1268
(dp1269
g3
F6.0
sg4
F5.0
sg5
F-6.0
sg6
F-8.0
sb(dp1270
I00
F88.94999999999999
sI01
I-16
ss(i__main__
State
p1271
(dp1272
g3
F4.0
sg4
F4.0
sg5
F-4.0
sg6
F-6.0
sb(dp1273
I00
F54.562095299999996
sI01
I-77
ss(i__main__
State
p1274
(dp1275
g3
F1.0
sg4
F1.0
sg5
F-1.0
sg6
F-2.0
sb(dp1276
I00
I-11
sI01
F17.42
ss(i__main__
State
p1277
(dp1278
g3
F-8.0
sg4
F7.0
sg5
F8.0
sg6
F-8.0
sb(dp1279
I00
F-29.993454773693202
sI01
F17.333439092466975
ss(i__main__
State
p1280
(dp1281
g3
F7.0
sg4
F9.0
sg5
F-7.0
sg6
F0.0
sb(dp1282
I00
F-2700.6420532
sI01
F-1897.1
ss(i__main__
State
p1283
(dp1284
g3
F0.0
sg4
F7.0
sg5
F0.0
sg6
F-6.0
sb(dp1285
I00
F-17.96876521953738
sI01
F78.77664465096562
ss(i__main__
State
p1286
(dp1287
g3
F3.0
sg4
F4.0
sg5
F-3.0
sg6
F2.0
sb(dp1288
I00
I-59
sI01
F29.520159999999997
ss(i__main__
State
p1289
(dp1290
g3
F3.0
sg4
F10.0
sg5
F-3.0
sg6
F0.0
sb(dp1291
I00
F220.0670526197389
sI01
F82.21363669118182
ss(i__main__
State
p1292
(dp1293
g3
F-4.0
sg4
F1.0
sg5
F4.0
sg6
F-8.0
sb(dp1294
I00
F58.512200362120005
sI01
F10.651800000000001
ss(i__main__
State
p1295
(dp1296
g3
F-3.0
sg4
F0.0
sg5
F3.0
sg6
F6.0
sb(dp1297
I00
F28.47883
sI01
F21.326806840000003
ss(i__main__
State
p1298
(dp1299
g3
F3.0
sg4
F7.0
sg5
F-3.0
sg6
F6.0
sb(dp1300
I00
F-9.1425256400613
sI01
F-55.30558
ss(i__main__
State
p1301
(dp1302
g3
F-6.0
sg4
F2.0
sg5
F6.0
sg6
F6.0
sb(dp1303
I00
I-54
sI01
F22.5885
ss(i__main__
State
p1304
(dp1305
g3
F-3.0
sg4
F5.0
sg5
F3.0
sg6
F-6.0
sb(dp1306
I00
F52.0297713
sI01
F18.139
ss(i__main__
State
p1307
(dp1308
g3
F-7.0
sg4
F8.0
sg5
F7.0
sg6
F-4.0
sb(dp1309
I00
F20.0
sI01
F0.0
ss(i__main__
State
p1310
(dp1311
g3
F-8.0
sg4
F2.0
sg5
F8.0
sg6
F-4.0
sb(dp1312
I00
F69.97134495270629
sI01
F11.0
ss(i__main__
State
p1313
(dp1314
g3
F5.0
sg4
F9.0
sg5
F-5.0
sg6
F4.0
sb(dp1315
I00
F58.14642427
sI01
F76.14989871477576
ss(i__main__
State
p1316
(dp1317
g3
F2.0
sg4
F5.0
sg5
F-2.0
sg6
F-6.0
sb(dp1318
I00
F90.060904982
sI01
I-68
ss(i__main__
State
p1319
(dp1320
g3
F8.0
sg4
F4.0
sg5
F-8.0
sg6
F0.0
sb(dp1321
I00
F-78.66098742728971
sI01
F6.753939486600002
ss(i__main__
State
p1322
(dp1323
g3
F5.0
sg4
F3.0
sg5
F-5.0
sg6
F-8.0
sb(dp1324
I00
F22.4826
sI01
F76.0246144
ss(i__main__
State
p1325
(dp1326
g3
F2.0
sg4
F9.0
sg5
F-2.0
sg6
F0.0
sb(dp1327
I00
F-1897.53114
sI01
F-1895.58
ss(i__main__
State
p1328
(dp1329
g3
F0.0
sg4
F0.0
sg5
F0.0
sg6
F0.0
sb(dp1330
I00
F32.319705132346954
sI01
F-45.53713164179531
ss(i__main__
State
p1331
(dp1332
g3
F-8.0
sg4
F6.0
sg5
F8.0
sg6
F0.0
sb(dp1333
I00
F-8.5
sI01
F7.784151517134376
ss(i__main__
State
p1334
(dp1335
g3
F-4.0
sg4
F2.0
sg5
F4.0
sg6
F6.0
sb(dp1336
I00
F-67.54605430221599
sI01
F31.538346000000004
ss(i__main__
State
p1337
(dp1338
g3
F3.0
sg4
F1.0
sg5
F-3.0
sg6
F-2.0
sb(dp1339
I00
F66.7
sI01
F67.73517026399999
ss(i__main__
State
p1340
(dp1341
g3
F-6.0
sg4
F9.0
sg5
F6.0
sg6
F-2.0
sb(dp1342
I00
F-466.55469051353987
sI01
F178.64960787504947
ss(i__main__
State
p1343
(dp1344
g3
F-3.0
sg4
F6.0
sg5
F3.0
sg6
F4.0
sb(dp1345
I00
F67.17222418283404
sI01
F53.85
ss(i__main__
State
p1346
(dp1347
g3
F-6.0
sg4
F5.0
sg5
F6.0
sg6
F8.0
sb(dp1348
I00
I-20
sI01
F18.8
ss(i__main__
State
p1349
(dp1350
g3
F6.0
sg4
F2.0
sg5
F-6.0
sg6
F-4.0
sb(dp1351
I00
F20.9
sI01
I-34
ss(i__main__
State
p1352
(dp1353
g3
F1.0
sg4
F10.0
sg5
F-1.0
sg6
F0.0
sb(dp1354
I00
F-898.332555
sI01
F72.65977905092117
ss(i__main__
State
p1355
(dp1356
g3
F8.0
sg4
F8.0
sg5
F-8.0
sg6
F6.0
sb(dp1357
I00
F26.413943228641003
sI01
F0.0
ss(i__main__
State
p1358
(dp1359
g3
F-6.0
sg4
F5.0
sg5
F6.0
sg6
F-2.0
sb(dp1360
I00
F-22.7124
sI01
F32.2
ss(i__main__
State
p1361
(dp1362
g3
F6.0
sg4
F8.0
sg5
F-6.0
sg6
F-4.0
sb(dp1363
I00
F88.63976066841472
sI01
F0.0
ss(i__main__
State
p1364
(dp1365
g3
F0.0
sg4
F0.0
sg5
F0.0
sg6
F-8.0
sb(dp1366
I00
F47.563626804704
sI01
I-66
ss(i__main__
State
p1367
(dp1368
g3
F-8.0
sg4
F9.0
sg5
F8.0
sg6
F-8.0
sb(dp1369
I00
F30.11
sI01
F0.0
ss(i__main__
State
p1370
(dp1371
g3
F0.0
sg4
F1.0
sg5
F0.0
sg6
F6.0
sb(dp1372
I00
F-67.6
sI01
F-14.640948849743
ss(i__main__
State
p1373
(dp1374
g3
F-4.0
sg4
F8.0
sg5
F4.0
sg6
F-2.0
sb(dp1375
I00
F64.725379
sI01
F0.0
ss(i__main__
State
p1376
(dp1377
g3
F-2.0
sg4
F6.0
sg5
F2.0
sg6
F-4.0
sb(dp1378
I00
F53.170693756799956
sI01
F-29.78989653660455
ss(i__main__
State
p1379
(dp1380
g3
F-7.0
sg4
F10.0
sg5
F7.0
sg6
F4.0
sb(dp1381
I00
F93.68123413800001
sI01
F0.0
ss(i__main__
State
p1382
(dp1383
g3
F-1.0
sg4
F8.0
sg5
F1.0
sg6
F8.0
sb(dp1384
I00
F23.0
sI01
F0.0
ss(i__main__
State
p1385
(dp1386
g3
F1.0
sg4
F6.0
sg5
F-1.0
sg6
F4.0
sb(dp1387
I00
F45.910000000000004
sI01
F-6.7
ss(i__main__
State
p1388
(dp1389
g3
F2.0
sg4
F4.0
sg5
F-2.0
sg6
F0.0
sb(dp1390
I00
F24.2607
sI01
I-91
ss(i__main__
State
p1391
(dp1392
g3
F-6.0
sg4
F1.0
sg5
F6.0
sg6
F-2.0
sb(dp1393
I00
I-72
sI01
F77.206
ss(i__main__
State
p1394
(dp1395
g3
F-2.0
sg4
F9.0
sg5
F2.0
sg6
F-8.0
sb(dp1396
I00
F10.0
sI01
F106.02110710813399
ss(i__main__
State
p1397
(dp1398
g3
F-8.0
sg4
F8.0
sg5
F8.0
sg6
F2.0
sb(dp1399
I00
F151.2991172772102
sI01
F46.20450102582
ss(i__main__
State
p1400
(dp1401
g3
F-1.0
sg4
F4.0
sg5
F1.0
sg6
F-6.0
sb(dp1402
I00
I-69
sI01
F73.3230076
ss(i__main__
State
p1403
(dp1404
g3
F2.0
sg4
F8.0
sg5
F-2.0
sg6
F-2.0
sb(dp1405
I00
F127.09458170263083
sI01
F-170.6739
ss(i__main__
State
p1406
(dp1407
g3
F-5.0
sg4
F10.0
sg5
F5.0
sg6
F-6.0
sb(dp1408
I00
F110.38834532489
sI01
F35.699536686100004
ss(i__main__
State
p1409
(dp1410
g3
F-3.0
sg4
F9.0
sg5
F3.0
sg6
F-8.0
sb(dp1411
I00
F132.63821000281177
sI01
F14.4245791007
ss(i__main__
State
p1412
(dp1413
g3
F-8.0
sg4
F2.0
sg5
F8.0
sg6
F-2.0
sb(dp1414
I00
I40
sI01
F53.91819816854547
ss(i__main__
State
p1415
(dp1416
g3
F3.0
sg4
F3.0
sg5
F-3.0
sg6
F0.0
sb(dp1417
I00
F-2.5812201892589943
sI01
F50.31113220380811
ss(i__main__
State
p1418
(dp1419
g3
F-2.0
sg4
F10.0
sg5
F2.0
sg6
F-8.0
sb(dp1420
I00
F28.413198870000002
sI01
F56.315991600000004
ss(i__main__
State
p1421
(dp1422
g3
F-7.0
sg4
F5.0
sg5
F7.0
sg6
F4.0
sb(dp1423
I00
I-88
sI01
F24.496023830336366
ss(i__main__
State
p1424
(dp1425
g3
F5.0
sg4
F9.0
sg5
F-5.0
sg6
F2.0
sb(dp1426
I00
F30.119
sI01
F0.0
ss(i__main__
State
p1427
(dp1428
g3
F1.0
sg4
F10.0
sg5
F-1.0
sg6
F-4.0
sb(dp1429
I00
F-161.8191661977794
sI01
F12.370000000000001
ss(i__main__
State
p1430
(dp1431
g3
F-3.0
sg4
F2.0
sg5
F3.0
sg6
F2.0
sb(dp1432
I00
I-57
sI01
F31.224565094295293
ss(i__main__
State
p1433
(dp1434
g3
F-8.0
sg4
F1.0
sg5
F8.0
sg6
F0.0
sb(dp1435
I00
I-62
sI01
F34.431
ss(i__main__
State
p1436
(dp1437
g3
F5.0
sg4
F3.0
sg5
F-5.0
sg6
F4.0
sb(dp1438
I00
F-81.84772048522812
sI01
F-41.37568911388535
ss(i__main__
State
p1439
(dp1440
g3
F-7.0
sg4
F4.0
sg5
F7.0
sg6
F-6.0
sb(dp1441
I00
I25
sI01
F-69.0394386
ss(i__main__
State
p1442
(dp1443
g3
F-4.0
sg4
F2.0
sg5
F4.0
sg6
F0.0
sb(dp1444
I00
F-7.219000000000001
sI01
F49.0289330043639
ss(i__main__
State
p1445
(dp1446
g3
F-5.0
sg4
F5.0
sg5
F5.0
sg6
F-4.0
sb(dp1447
I00
I-49
sI01
F53.68361
ss(i__main__
State
p1448
(dp1449
g3
F-2.0
sg4
F8.0
sg5
F2.0
sg6
F-8.0
sb(dp1450
I00
F75.0053003283958
sI01
F0.0
ss(i__main__
State
p1451
(dp1452
g3
F-6.0
sg4
F8.0
sg5
F6.0
sg6
F4.0
sb(dp1453
I00
F222.60299989897962
sI01
F12.490000000000002
ss(i__main__
State
p1454
(dp1455
g3
F-7.0
sg4
F8.0
sg5
F7.0
sg6
F6.0
sb(dp1456
I00
F35.4791709651
sI01
F208.61212713464909
ss(i__main__
State
p1457
(dp1458
g3
F0.0
sg4
F3.0
sg5
F0.0
sg6
F6.0
sb(dp1459
I00
I-80
sI01
F26.197
ss(i__main__
State
p1460
(dp1461
g3
F-8.0
sg4
F9.0
sg5
F8.0
sg6
F-6.0
sb(dp1462
I00
F115.22471133016512
sI01
F99.04575387034718
ss(i__main__
State
p1463
(dp1464
g3
F4.0
sg4
F4.0
sg5
F-4.0
sg6
F0.0
sb(dp1465
I00
F14.91144
sI01
F73.42958242
ss(i__main__
State
p1466
(dp1467
g3
F-5.0
sg4
F9.0
sg5
F5.0
sg6
F6.0
sb(dp1468
I00
F86.30056091954395
sI01
F0.0
ss(i__main__
State
p1469
(dp1470
g3
F4.0
sg4
F5.0
sg5
F-4.0
sg6
F-4.0
sb(dp1471
I00
F-15.404433841083522
sI01
F42.20468939853864
ss(i__main__
State
p1472
(dp1473
g3
F-1.0
sg4
F1.0
sg5
F1.0
sg6
F-6.0
sb(dp1474
I00
F92.17103
sI01
F-20.65673106645777
ss(i__main__
State
p1475
(dp1476
g3
F4.0
sg4
F1.0
sg5
F-4.0
sg6
F4.0
sb(dp1477
I00
F76.89015045049042
sI01
F44.32368
ss(i__main__
State
p1478
(dp1479
g3
F-3.0
sg4
F9.0
sg5
F3.0
sg6
F8.0
sb(dp1480
I00
F50.498896938
sI01
F0.0
ss(i__main__
State
p1481
(dp1482
g3
F2.0
sg4
F10.0
sg5
F-2.0
sg6
F6.0
sb(dp1483
I00
F41.50656
sI01
F0.0
ss(i__main__
State
p1484
(dp1485
g3
F6.0
sg4
F6.0
sg5
F-6.0
sg6
F8.0
sb(dp1486
I00
I13
sI01
F40.831526927217524
ss(i__main__
State
p1487
(dp1488
g3
F-1.0
sg4
F6.0
sg5
F1.0
sg6
F-2.0
sb(dp1489
I00
F-82.694
sI01
F67.10935149730629
ss(i__main__
State
p1490
(dp1491
g3
F5.0
sg4
F4.0
sg5
F-5.0
sg6
F-2.0
sb(dp1492
I00
F-11.3589
sI01
I-54
ss(i__main__
State
p1493
(dp1494
g3
F-2.0
sg4
F7.0
sg5
F2.0
sg6
F8.0
sb(dp1495
I00
I-81
sI01
F86.98071722358102
ss(i__main__
State
p1496
(dp1497
g3
F-5.0
sg4
F2.0
sg5
F5.0
sg6
F0.0
sb(dp1498
I00
F31.834801
sI01
F4.368602877499997
ss(i__main__
State
p1499
(dp1500
g3
F8.0
sg4
F8.0
sg5
F-8.0
sg6
F0.0
sb(dp1501
I00
F69.73143255375051
sI01
F0.0
ss(i__main__
State
p1502
(dp1503
g3
F6.0
sg4
F5.0
sg5
F-6.0
sg6
F-4.0
sb(dp1504
I00
I-65
sI01
F5.137660945517063
ss(i__main__
State
p1505
(dp1506
g3
F-3.0
sg4
F6.0
sg5
F3.0
sg6
F-8.0
sb(dp1507
I00
F36.192440000000005
sI01
F-13.459999999999999
ss(i__main__
State
p1508
(dp1509
g3
F-5.0
sg4
F8.0
sg5
F5.0
sg6
F-4.0
sb(dp1510
I00
F161.9104873745513
sI01
F99.65055018404809
ss(i__main__
State
p1511
(dp1512
g3
F1.0
sg4
F9.0
sg5
F-1.0
sg6
F-6.0
sb(dp1513
I00
F142.74039875906274
sI01
F10.0
ss(i__main__
State
p1514
(dp1515
g3
F-2.0
sg4
F0.0
sg5
F2.0
sg6
F6.0
sb(dp1516
I00
F37.854819559999996
sI01
I-53
ss(i__main__
State
p1517
(dp1518
g3
F3.0
sg4
F2.0
sg5
F-3.0
sg6
F4.0
sb(dp1519
I00
F-66.59100899999999
sI01
F6.523850160784999
ss(i__main__
State
p1520
(dp1521
g3
F6.0
sg4
F10.0
sg5
F-6.0
sg6
F8.0
sb(dp1522
I00
F10.0
sI01
F72.66536167145755
ss(i__main__
State
p1523
(dp1524
g3
F2.0
sg4
F6.0
sg5
F-2.0
sg6
F2.0
sb(dp1525
I00
I4
sI01
F59.31
ss(i__main__
State
p1526
(dp1527
g3
F7.0
sg4
F7.0
sg5
F-7.0
sg6
F8.0
sb(dp1528
I00
F-51.7
sI01
F47.76243979662544
ss(i__main__
State
p1529
(dp1530
g3
F-7.0
sg4
F5.0
sg5
F7.0
sg6
F6.0
sb(dp1531
I00
F13.828100000000001
sI01
I-81
ss(i__main__
State
p1532
(dp1533
g3
F-8.0
sg4
F7.0
sg5
F8.0
sg6
F-4.0
sb(dp1534
I00
F-8.787099999999999
sI01
F91.5443610027137
ss(i__main__
State
p1535
(dp1536
g3
F-1.0
sg4
F10.0
sg5
F1.0
sg6
F-6.0
sb(dp1537
I00
F56.45172188373881
sI01
F11.5
ss(i__main__
State
p1538
(dp1539
g3
F8.0
sg4
F7.0
sg5
F-8.0
sg6
F4.0
sb(dp1540
I00
I-58
sI01
F33.34468925860679
ss(i__main__
State
p1541
(dp1542
g3
F-4.0
sg4
F6.0
sg5
F4.0
sg6
F-2.0
sb(dp1543
I00
F7.2780000000000005
sI01
F-77.2
ss(i__main__
State
p1544
(dp1545
g3
F5.0
sg4
F2.0
sg5
F-5.0
sg6
F0.0
sb(dp1546
I00
F34.061515394219995
sI01
I-98
ss(i__main__
State
p1547
(dp1548
g3
F5.0
sg4
F0.0
sg5
F-5.0
sg6
F6.0
sb(dp1549
I00
I-22
sI01
F18.7179291056
ss(i__main__
State
p1550
(dp1551
g3
F6.0
sg4
F1.0
sg5
F-6.0
sg6
F-4.0
sb(dp1552
I00
F82.0304547126
sI01
I-22
ss(i__main__
State
p1553
(dp1554
g3
F-7.0
sg4
F2.0
sg5
F7.0
sg6
F8.0
sb(dp1555
I00
F-12.237808000000001
sI01
F-74.404425941
ss(i__main__
State
p1556
(dp1557
g3
F-4.0
sg4
F9.0
sg5
F4.0
sg6
F-6.0
sb(dp1558
I00
F131.52794107894363
sI01
F45.282095496205486
ss(i__main__
State
p1559
(dp1560
g3
F-4.0
sg4
F4.0
sg5
F4.0
sg6
F-2.0
sb(dp1561
I00
F-5.021543043999982
sI01
F-35.04422
ss(i__main__
State
p1562
(dp1563
g3
F3.0
sg4
F6.0
sg5
F-3.0
sg6
F-2.0
sb(dp1564
I00
F60.92136766451141
sI01
F-8.7601729892148
ss(i__main__
State
p1565
(dp1566
g3
F0.0
sg4
F8.0
sg5
F0.0
sg6
F4.0
sb(dp1567
I00
F-2695.1258306989303
sI01
F-1897.8575429000002
ss(i__main__
State
p1568
(dp1569
g3
F3.0
sg4
F5.0
sg5
F-3.0
sg6
F2.0
sb(dp1570
I00
F47.8
sI01
F45.73813268000001
ss(i__main__
State
p1571
(dp1572
g3
F3.0
sg4
F9.0
sg5
F-3.0
sg6
F-6.0
sb(dp1573
I00
F36.862439880000004
sI01
F0.0
ss(i__main__
State
p1574
(dp1575
g3
F-3.0
sg4
F0.0
sg5
F3.0
sg6
F-6.0
sb(dp1576
I00
F-17.7
sI01
F52.17937882552866
ss(i__main__
State
p1577
(dp1578
g3
F1.0
sg4
F2.0
sg5
F-1.0
sg6
F4.0
sb(dp1579
I00
I-63
sI01
F82.2
ss(i__main__
State
p1580
(dp1581
g3
F2.0
sg4
F0.0
sg5
F-2.0
sg6
F8.0
sb(dp1582
I00
F48.23813766017068
sI01
F-1.1696330000000001
ss(i__main__
State
p1583
(dp1584
g3
F3.0
sg4
F2.0
sg5
F-3.0
sg6
F-8.0
sb(dp1585
I00
F14.435799999999997
sI01
F13.681212533349997
ss(i__main__
State
p1586
(dp1587
g3
F2.0
sg4
F3.0
sg5
F-2.0
sg6
F8.0
sb(dp1588
I00
F-21.7
sI01
I-92
ss(i__main__
State
p1589
(dp1590
g3
F7.0
sg4
F10.0
sg5
F-7.0
sg6
F-2.0
sb(dp1591
I00
F180.0594794913426
sI01
F51.416000779859786
ss(i__main__
State
p1592
(dp1593
g3
F-6.0
sg4
F9.0
sg5
F6.0
sg6
F4.0
sb(dp1594
I00
F20.1
sI01
F0.0
ss(i__main__
State
p1595
(dp1596
g3
F-3.0
sg4
F10.0
sg5
F3.0
sg6
F-6.0
sb(dp1597
I00
F110.319550885006
sI01
F0.0
ss(i__main__
State
p1598
(dp1599
g3
F-7.0
sg4
F5.0
sg5
F7.0
sg6
F-2.0
sb(dp1600
I00
F18.65290344621709
sI01
F0.27000000000000135
ss(i__main__
State
p1601
(dp1602
g3
F-7.0
sg4
F6.0
sg5
F7.0
sg6
F-2.0
sb(dp1603
I00
F40.339092897184656
sI01
F36.410802402412116
ss(i__main__
State
p1604
(dp1605
g3
F2.0
sg4
F10.0
sg5
F-2.0
sg6
F-6.0
sb(dp1606
I00
F19.0
sI01
F0.0
ss(i__main__
State
p1607
(dp1608
g3
F-1.0
sg4
F0.0
sg5
F1.0
sg6
F4.0
sb(dp1609
I00
F-2.71492
sI01
I-29
ss(i__main__
State
p1610
(dp1611
g3
F-6.0
sg4
F1.0
sg5
F6.0
sg6
F-6.0
sb(dp1612
I00
F34.392303049449794
sI01
F44.63256316706193
ss(i__main__
State
p1613
(dp1614
g3
F7.0
sg4
F4.0
sg5
F-7.0
sg6
F8.0
sb(dp1615
I00
F66.50386781026428
sI01
I-82
ss(i__main__
State
p1616
(dp1617
g3
F5.0
sg4
F10.0
sg5
F-5.0
sg6
F-2.0
sb(dp1618
I00
F31.443755050472788
sI01
F10.0
ss(i__main__
State
p1619
(dp1620
g3
F6.0
sg4
F9.0
sg5
F-6.0
sg6
F4.0
sb(dp1621
I00
F46.6469096128
sI01
F0.0
ss(i__main__
State
p1622
(dp1623
g3
F3.0
sg4
F5.0
sg5
F-3.0
sg6
F8.0
sb(dp1624
I00
F71.59925515056604
sI01
F25.6
ss(i__main__
State
p1625
(dp1626
g3
F-5.0
sg4
F6.0
sg5
F5.0
sg6
F0.0
sb(dp1627
I00
F-33.762726819013
sI01
F-69.62
ss(i__main__
State
p1628
(dp1629
g3
F0.0
sg4
F10.0
sg5
F0.0
sg6
F-8.0
sb(dp1630
I00
F-2701.172130219858
sI01
F-1899.667447937883
ss(i__main__
State
p1631
(dp1632
g3
F0.0
sg4
F7.0
sg5
F0.0
sg6
F-4.0
sb(dp1633
I00
F18.52084583371127
sI01
F28.0
ss(i__main__
State
p1634
(dp1635
g3
F-4.0
sg4
F0.0
sg5
F4.0
sg6
F-4.0
sb(dp1636
I00
F16.9
sI01
I-39
ss(i__main__
State
p1637
(dp1638
g3
F4.0
sg4
F6.0
sg5
F-4.0
sg6
F-2.0
sb(dp1639
I00
F-70.9
sI01
F-27.118193661999992
ss(i__main__
State
p1640
(dp1641
g3
F0.0
sg4
F10.0
sg5
F0.0
sg6
F8.0
sb(dp1642
I00
F-1000.0
sI01
F-1890.3315000000002
ss(i__main__
State
p1643
(dp1644
g3
F-5.0
sg4
F10.0
sg5
F5.0
sg6
F0.0
sb(dp1645
I00
F95.728245224
sI01
F9.912161472000001
ss(i__main__
State
p1646
(dp1647
g3
F1.0
sg4
F0.0
sg5
F-1.0
sg6
F8.0
sb(dp1648
I00
F16.864779266928
sI01
I54
ss(i__main__
State
p1649
(dp1650
g3
F-7.0
sg4
F3.0
sg5
F7.0
sg6
F-6.0
sb(dp1651
I00
F35.588547
sI01
F80.01378258000001
ss(i__main__
State
p1652
(dp1653
g3
F-4.0
sg4
F0.0
sg5
F4.0
sg6
F4.0
sb(dp1654
I00
F89.47
sI01
I75
ss(i__main__
State
p1655
(dp1656
g3
F2.0
sg4
F9.0
sg5
F-2.0
sg6
F6.0
sb(dp1657
I00
F177.5585093996517
sI01
F20.0
ss(i__main__
State
p1658
(dp1659
g3
F0.0
sg4
F6.0
sg5
F0.0
sg6
F-4.0
sb(dp1660
I00
F-57.91963319
sI01
F-55.1196947087
ss(i__main__
State
p1661
(dp1662
g3
F-7.0
sg4
F8.0
sg5
F7.0
sg6
F2.0
sb(dp1663
I00
F87.5732975586
sI01
F15.10852136823
ss(i__main__
State
p1664
(dp1665
g3
F2.0
sg4
F2.0
sg5
F-2.0
sg6
F-8.0
sb(dp1666
I00
F59.341699999999996
sI01
I-69
ss(i__main__
State
p1667
(dp1668
g3
F3.0
sg4
F4.0
sg5
F-3.0
sg6
F-4.0
sb(dp1669
I00
F55.960257
sI01
F46.7
ss(i__main__
State
p1670
(dp1671
g3
F2.0
sg4
F8.0
sg5
F-2.0
sg6
F6.0
sb(dp1672
I00
F36.91
sI01
F17.972
ss(i__main__
State
p1673
(dp1674
g3
F-5.0
sg4
F3.0
sg5
F5.0
sg6
F-2.0
sb(dp1675
I00
F66.7650965090496
sI01
F37.04209563184229
ss(i__main__
State
p1676
(dp1677
g3
F2.0
sg4
F4.0
sg5
F-2.0
sg6
F-4.0
sb(dp1678
I00
F-2.0
sI01
F32.13976699999999
ss(i__main__
State
p1679
(dp1680
g3
F6.0
sg4
F6.0
sg5
F-6.0
sg6
F4.0
sb(dp1681
I00
F18.801325217975997
sI01
F-1.9886925910999995
ss(i__main__
State
p1682
(dp1683
g3
F-3.0
sg4
F1.0
sg5
F3.0
sg6
F4.0
sb(dp1684
I00
F-73.131
sI01
F-2.6004178199999988
ss(i__main__
State
p1685
(dp1686
g3
F8.0
sg4
F3.0
sg5
F-8.0
sg6
F-8.0
sb(dp1687
I00
I-68
sI01
F6.390771445499999
ss(i__main__
State
p1688
(dp1689
g3
F5.0
sg4
F2.0
sg5
F-5.0
sg6
F4.0
sb(dp1690
I00
I-74
sI01
F5.018137013502247
ss(i__main__
State
p1691
(dp1692
g3
F1.0
sg4
F3.0
sg5
F-1.0
sg6
F6.0
sb(dp1693
I00
I-79
sI01
F-4.210000000000001
ss(i__main__
State
p1694
(dp1695
g3
F3.0
sg4
F0.0
sg5
F-3.0
sg6
F-4.0
sb(dp1696
I00
F35.23975601769719
sI01
F33.167057756494884
ss(i__main__
State
p1697
(dp1698
g3
F5.0
sg4
F7.0
sg5
F-5.0
sg6
F0.0
sb(dp1699
I00
F-25.38
sI01
I-68
ss(i__main__
State
p1700
(dp1701
g3
F0.0
sg4
F5.0
sg5
F0.0
sg6
F-4.0
sb(dp1702
I00
F-4.883826431760797
sI01
F-45.82633579924159
ss(i__main__
State
p1703
(dp1704
g3
F8.0
sg4
F6.0
sg5
F-8.0
sg6
F4.0
sb(dp1705
I00
I65
sI01
F77.81160409506484
ss(i__main__
State
p1706
(dp1707
g3
F-5.0
sg4
F1.0
sg5
F5.0
sg6
F-8.0
sb(dp1708
I00
F42.5110159570191
sI01
F33.533202030000005
ss(i__main__
State
p1709
(dp1710
g3
F3.0
sg4
F4.0
sg5
F-3.0
sg6
F4.0
sb(dp1711
I00
I36
sI01
F80.5391541612
ss(i__main__
State
p1712
(dp1713
g3
F-6.0
sg4
F10.0
sg5
F6.0
sg6
F-4.0
sb(dp1714
I00
F20.0
sI01
F96.27381787083901
ss(i__main__
State
p1715
(dp1716
g3
F7.0
sg4
F0.0
sg5
F-7.0
sg6
F6.0
sb(dp1717
I00
F71.5913206706197
sI01
I24
ss(i__main__
State
p1718
(dp1719
g3
F4.0
sg4
F1.0
sg5
F-4.0
sg6
F-8.0
sb(dp1720
I00
F50.592851308364615
sI01
I-19
ss(i__main__
State
p1721
(dp1722
g3
F4.0
sg4
F5.0
sg5
F-4.0
sg6
F0.0
sb(dp1723
I00
F-7.317267199999999
sI01
I-29
ss(i__main__
State
p1724
(dp1725
g3
F8.0
sg4
F7.0
sg5
F-8.0
sg6
F0.0
sb(dp1726
I00
F75.57307945430365
sI01
F-60.34196867238908
ss(i__main__
State
p1727
(dp1728
g3
F5.0
sg4
F0.0
sg5
F-5.0
sg6
F-6.0
sb(dp1729
I00
I-62
sI01
F61.59
ss(i__main__
State
p1730
(dp1731
g3
F0.0
sg4
F2.0
sg5
F0.0
sg6
F2.0
sb(dp1732
I00
F17.69315243220281
sI01
F15.742759366529997
ss(i__main__
State
p1733
(dp1734
g3
F4.0
sg4
F10.0
sg5
F-4.0
sg6
F-4.0
sb(dp1735
I00
F69.37175617689999
sI01
F22.9496
ss(i__main__
State
p1736
(dp1737
g3
F6.0
sg4
F1.0
sg5
F-6.0
sg6
F-8.0
sb(dp1738
I00
F-39.879999999999995
sI01
I10
ss(i__main__
State
p1739
(dp1740
g3
F-4.0
sg4
F9.0
sg5
F4.0
sg6
F-2.0
sb(dp1741
I00
F-72.60000000000001
sI01
F56.213138240000006
ss(i__main__
State
p1742
(dp1743
g3
F-7.0
sg4
F6.0
sg5
F7.0
sg6
F-4.0
sb(dp1744
I00
I-49
sI01
F-13.978105053452488
ss(i__main__
State
p1745
(dp1746
g3
F1.0
sg4
F8.0
sg5
F-1.0
sg6
F2.0
sb(dp1747
I00
F-155.52000000000004
sI01
F186.35412955047076
ss(i__main__
State
p1748
(dp1749
g3
F-6.0
sg4
F2.0
sg5
F6.0
sg6
F-6.0
sb(dp1750
I00
F-56.9
sI01
F4.2967627120000005
ss(i__main__
State
p1751
(dp1752
g3
F2.0
sg4
F0.0
sg5
F-2.0
sg6
F-4.0
sb(dp1753
I00
F-7.8999999999999995
sI01
I-83
ss(i__main__
State
p1754
(dp1755
g3
F0.0
sg4
F3.0
sg5
F0.0
sg6
F0.0
sb(dp1756
I00
F11.12453048
sI01
F-28.352849999999997
ss(i__main__
State
p1757
(dp1758
g3
F1.0
sg4
F1.0
sg5
F-1.0
sg6
F6.0
sb(dp1759
I00
F6.8591116969479415
sI01
F-6.450109182163038
ss(i__main__
State
p1760
(dp1761
g3
F8.0
sg4
F0.0
sg5
F-8.0
sg6
F4.0
sb(dp1762
I00
F53.969402825466
sI01
I-93
ss(i__main__
State
p1763
(dp1764
g3
F7.0
sg4
F3.0
sg5
F-7.0
sg6
F-8.0
sb(dp1765
I00
F36.65026332331948
sI01
F8.2
ss(i__main__
State
p1766
(dp1767
g3
F-6.0
sg4
F0.0
sg5
F6.0
sg6
F2.0
sb(dp1768
I00
I-18
sI01
F5.913932852200002
ss(i__main__
State
p1769
(dp1770
g3
F-5.0
sg4
F1.0
sg5
F5.0
sg6
F8.0
sb(dp1771
I00
F24.143162
sI01
F-59.4142569054
ss(i__main__
State
p1772
(dp1773
g3
F-1.0
sg4
F1.0
sg5
F1.0
sg6
F-4.0
sb(dp1774
I00
F-20.65
sI01
F11.034214258279675
ss(i__main__
State
p1775
(dp1776
g3
F5.0
sg4
F2.0
sg5
F-5.0
sg6
F-8.0
sb(dp1777
I00
I-57
sI01
F4.1
ss(i__main__
State
p1778
(dp1779
g3
F-2.0
sg4
F9.0
sg5
F2.0
sg6
F4.0
sb(dp1780
I00
F30.0
sI01
F0.0
ss(i__main__
State
p1781
(dp1782
g3
F5.0
sg4
F5.0
sg5
F-5.0
sg6
F0.0
sb(dp1783
I00
F-29.80303701
sI01
F60.959461672007805
ss(i__main__
State
p1784
(dp1785
g3
F-3.0
sg4
F10.0
sg5
F3.0
sg6
F4.0
sb(dp1786
I00
F29.8
sI01
F0.0
ss(i__main__
State
p1787
(dp1788
g3
F-5.0
sg4
F9.0
sg5
F5.0
sg6
F-2.0
sb(dp1789
I00
F-319.84800000000007
sI01
F50.326106852576274
ss(i__main__
State
p1790
(dp1791
g3
F-4.0
sg4
F5.0
sg5
F4.0
sg6
F-4.0
sb(dp1792
I00
F-6.820280099999999
sI01
F-37.48
ss(i__main__
State
p1793
(dp1794
g3
F6.0
sg4
F9.0
sg5
F-6.0
sg6
F0.0
sb(dp1795
I00
F-1898.0
sI01
F-2686.163252215437
ss(i__main__
State
p1796
(dp1797
g3
F1.0
sg4
F9.0
sg5
F-1.0
sg6
F-4.0
sb(dp1798
I00
F82.79620827668778
sI01
F10.0
ss(i__main__
State
p1799
(dp1800
g3
F4.0
sg4
F6.0
sg5
F-4.0
sg6
F6.0
sb(dp1801
I00
I-69
sI01
F52.335065262380155
ss(i__main__
State
p1802
(dp1803
g3
F-2.0
sg4
F5.0
sg5
F2.0
sg6
F8.0
sb(dp1804
I00
F-1.8839999999999995
sI01
F44.69979
ss(i__main__
State
p1805
(dp1806
g3
F6.0
sg4
F8.0
sg5
F-6.0
sg6
F4.0
sb(dp1807
I00
F86.275108706301
sI01
F50.136357712000006
ss(i__main__
State
p1808
(dp1809
g3
F6.0
sg4
F2.0
sg5
F-6.0
sg6
F6.0
sb(dp1810
I00
F-40.482517
sI01
I-69
ss(i__main__
State
p1811
(dp1812
g3
F-7.0
sg4
F1.0
sg5
F7.0
sg6
F-6.0
sb(dp1813
I00
I-63
sI01
F84.7
ss(i__main__
State
p1814
(dp1815
g3
F6.0
sg4
F4.0
sg5
F-6.0
sg6
F-6.0
sb(dp1816
I00
F-25.057
sI01
F-2.71787856
ss(i__main__
State
p1817
(dp1818
g3
F-8.0
sg4
F10.0
sg5
F8.0
sg6
F-2.0
sb(dp1819
I00
F30.25761
sI01
F106.67776164867567
ss(i__main__
State
p1820
(dp1821
g3
F-8.0
sg4
F4.0
sg5
F8.0
sg6
F2.0
sb(dp1822
I00
F-37.943000000000005
sI01
F-45.69
ss(i__main__
State
p1823
(dp1824
g3
F2.0
sg4
F1.0
sg5
F-2.0
sg6
F2.0
sb(dp1825
I00
F78.91717
sI01
I66
ss(i__main__
State
p1826
(dp1827
g3
F-7.0
sg4
F4.0
sg5
F7.0
sg6
F8.0
sb(dp1828
I00
F30.5
sI01
I63
ss(i__main__
State
p1829
(dp1830
g3
F-4.0
sg4
F5.0
sg5
F4.0
sg6
F6.0
sb(dp1831
I00
F-77.39
sI01
I88
ss(i__main__
State
p1832
(dp1833
g3
F6.0
sg4
F6.0
sg5
F-6.0
sg6
F0.0
sb(dp1834
I00
F13.835469509079296
sI01
F-38.9
ss(i__main__
State
p1835
(dp1836
g3
F8.0
sg4
F8.0
sg5
F-8.0
sg6
F-6.0
sb(dp1837
I00
F134.60016262703928
sI01
F34.772000000000006
ss(i__main__
State
p1838
(dp1839
g3
F8.0
sg4
F10.0
sg5
F-8.0
sg6
F-4.0
sb(dp1840
I00
F159.33612272025744
sI01
F7.03
ss(i__main__
State
p1841
(dp1842
g3
F2.0
sg4
F0.0
sg5
F-2.0
sg6
F2.0
sb(dp1843
I00
F59.702583148305074
sI01
F55.46892709656937
ss(i__main__
State
p1844
(dp1845
g3
F-2.0
sg4
F1.0
sg5
F2.0
sg6
F-2.0
sb(dp1846
I00
F34.823
sI01
F27.16
ss(i__main__
State
p1847
(dp1848
g3
F-3.0
sg4
F3.0
sg5
F3.0
sg6
F4.0
sb(dp1849
I00
I-28
sI01
F56.3
ss(i__main__
State
p1850
(dp1851
g3
F7.0
sg4
F8.0
sg5
F-7.0
sg6
F-6.0
sb(dp1852
I00
F73.53067788264305
sI01
F39.294393782930726
ss(i__main__
State
p1853
(dp1854
g3
F8.0
sg4
F3.0
sg5
F-8.0
sg6
F-4.0
sb(dp1855
I00
F50.13295502961801
sI01
F-74.066
ss(i__main__
State
p1856
(dp1857
g3
F0.0
sg4
F9.0
sg5
F0.0
sg6
F0.0
sb(dp1858
I00
F-6080.688041213537
sI01
F-5201.31698397569
ss(i__main__
State
p1859
(dp1860
g3
F8.0
sg4
F6.0
sg5
F-8.0
sg6
F8.0
sb(dp1861
I00
I-80
sI01
F-6.177848206748906
ss(i__main__
State
p1862
(dp1863
g3
F-8.0
sg4
F2.0
sg5
F8.0
sg6
F-8.0
sb(dp1864
I00
F-69.349
sI01
F2.8633085351000016
ss(i__main__
State
p1865
(dp1866
g3
F5.0
sg4
F9.0
sg5
F-5.0
sg6
F8.0
sb(dp1867
I00
F30.1
sI01
F0.0
ss(i__main__
State
p1868
(dp1869
g3
F4.0
sg4
F9.0
sg5
F-4.0
sg6
F-4.0
sb(dp1870
I00
F29.189999999999998
sI01
F0.0
ss(i__main__
State
p1871
(dp1872
g3
F-8.0
sg4
F0.0
sg5
F8.0
sg6
F0.0
sb(dp1873
I00
F38.037209124289994
sI01
F11.23
ss(i__main__
State
p1874
(dp1875
g3
F-6.0
sg4
F8.0
sg5
F6.0
sg6
F-2.0
sb(dp1876
I00
F161.04200088821736
sI01
F0.0
ss(i__main__
State
p1877
(dp1878
g3
F-8.0
sg4
F4.0
sg5
F8.0
sg6
F-8.0
sb(dp1879
I00
I-74
sI01
F69.1347
ss(i__main__
State
p1880
(dp1881
g3
F0.0
sg4
F10.0
sg5
F0.0
sg6
F-2.0
sb(dp1882
I00
F-1887.7801752864539
sI01
F-1889.736301549734
ss(i__main__
State
p1883
(dp1884
g3
F2.0
sg4
F7.0
sg5
F-2.0
sg6
F-6.0
sb(dp1885
I00
F51.838827251580426
sI01
F29.203681000000003
ss(i__main__
State
p1886
(dp1887
g3
F2.0
sg4
F7.0
sg5
F-2.0
sg6
F4.0
sb(dp1888
I00
F42.1
sI01
I3
ss(i__main__
State
p1889
(dp1890
g3
F-7.0
sg4
F4.0
sg5
F7.0
sg6
F-8.0
sb(dp1891
I00
I-87
sI01
F-44.86
ss(i__main__
State
p1892
(dp1893
g3
F-8.0
sg4
F4.0
sg5
F8.0
sg6
F0.0
sb(dp1894
I00
I24
sI01
F78.5362018341703
ss(i__main__
State
p1895
(dp1896
g3
F3.0
sg4
F7.0
sg5
F-3.0
sg6
F-6.0
sb(dp1897
I00
F-20.585761531998614
sI01
F-71.04558986203554
ss(i__main__
State
p1898
(dp1899
g3
F6.0
sg4
F8.0
sg5
F-6.0
sg6
F2.0
sb(dp1900
I00
F132.46526417303446
sI01
F34.7019
ss(i__main__
State
p1901
(dp1902
g3
F-7.0
sg4
F6.0
sg5
F7.0
sg6
F-8.0
sb(dp1903
I00
F6.8
sI01
I35
ss(i__main__
State
p1904
(dp1905
g3
F8.0
sg4
F9.0
sg5
F-8.0
sg6
F-6.0
sb(dp1906
I00
F34.0649482750823
sI01
F0.0
ss(i__main__
State
p1907
(dp1908
g3
F4.0
sg4
F9.0
sg5
F-4.0
sg6
F2.0
sb(dp1909
I00
F93.70108098747028
sI01
F0.0
ss(i__main__
State
p1910
(dp1911
g3
F-3.0
sg4
F4.0
sg5
F3.0
sg6
F0.0
sb(dp1912
I00
I16
sI01
F-83.718511
ss(i__main__
State
p1913
(dp1914
g3
F7.0
sg4
F9.0
sg5
F-7.0
sg6
F-4.0
sb(dp1915
I00
F62.65570184262109
sI01
F0.0
ss(i__main__
State
p1916
(dp1917
g3
F-3.0
sg4
F9.0
sg5
F3.0
sg6
F2.0
sb(dp1918
I00
F10.0
sI01
F45.392031358699995
ss(i__main__
State
p1919
(dp1920
g3
F5.0
sg4
F1.0
sg5
F-5.0
sg6
F0.0
sb(dp1921
I00
F51.76747561662088
sI01
F-24.260965546193997
ss(i__main__
State
p1922
(dp1923
g3
F-7.0
sg4
F2.0
sg5
F7.0
sg6
F-8.0
sb(dp1924
I00
I-5
sI01
F52.0946865
ss(i__main__
State
p1925
(dp1926
g3
F3.0
sg4
F0.0
sg5
F-3.0
sg6
F4.0
sb(dp1927
I00
I-94
sI01
F-74.59321823799586
ss(i__main__
State
p1928
(dp1929
g3
F0.0
sg4
F9.0
sg5
F0.0
sg6
F-2.0
sb(dp1930
I00
F-238.67210000000003
sI01
F107.99431847615168
ss(i__main__
State
p1931
(dp1932
g3
F0.0
sg4
F6.0
sg5
F0.0
sg6
F-6.0
sb(dp1933
I00
F84.22999999999999
sI01
F-44.0
ss(i__main__
State
p1934
(dp1935
g3
F4.0
sg4
F4.0
sg5
F-4.0
sg6
F-8.0
sb(dp1936
I00
F82.80153000000001
sI01
I-5
ss(i__main__
State
p1937
(dp1938
g3
F-6.0
sg4
F4.0
sg5
F6.0
sg6
F4.0
sb(dp1939
I00
F-7.390468493000002
sI01
I-16
ss(i__main__
State
p1940
(dp1941
g3
F8.0
sg4
F3.0
sg5
F-8.0
sg6
F2.0
sb(dp1942
I00
F43.37490206617504
sI01
F52.470000000000006
ss(i__main__
State
p1943
(dp1944
g3
F-2.0
sg4
F8.0
sg5
F2.0
sg6
F8.0
sb(dp1945
I00
F192.2129004446093
sI01
F78.39787330825648
ss(i__main__
State
p1946
(dp1947
g3
F7.0
sg4
F9.0
sg5
F-7.0
sg6
F6.0
sb(dp1948
I00
F92.70198129379403
sI01
F12.304919726000001
ss(i__main__
State
p1949
(dp1950
g3
F-2.0
sg4
F5.0
sg5
F2.0
sg6
F-8.0
sb(dp1951
I00
F55.69888706100001
sI01
I37
ss(i__main__
State
p1952
(dp1953
g3
F-1.0
sg4
F9.0
sg5
F1.0
sg6
F-8.0
sb(dp1954
I00
F60.482797000000005
sI01
F0.0
ss(i__main__
State
p1955
(dp1956
g3
F-2.0
sg4
F1.0
sg5
F2.0
sg6
F0.0
sb(dp1957
I00
I-17
sI01
F10.179020330842292
ss(i__main__
State
p1958
(dp1959
g3
F-2.0
sg4
F0.0
sg5
F2.0
sg6
F-2.0
sb(dp1960
I00
F16.781741
sI01
F-38.2
ss(i__main__
State
p1961
(dp1962
g3
F-6.0
sg4
F2.0
sg5
F6.0
sg6
F0.0
sb(dp1963
I00
F40.24890754164045
sI01
I-28
ss(i__main__
State
p1964
(dp1965
g3
F-3.0
sg4
F5.0
sg5
F3.0
sg6
F-8.0
sb(dp1966
I00
F34.2
sI01
F39.604
ss(i__main__
State
p1967
(dp1968
g3
F8.0
sg4
F10.0
sg5
F-8.0
sg6
F0.0
sb(dp1969
I00
F79.52926226600002
sI01
F0.0
ss(i__main__
State
p1970
(dp1971
g3
F-4.0
sg4
F5.0
sg5
F4.0
sg6
F-8.0
sb(dp1972
I00
F51.937075475
sI01
I67
ss(i__main__
State
p1973
(dp1974
g3
F8.0
sg4
F4.0
sg5
F-8.0
sg6
F6.0
sb(dp1975
I00
F45.084517543360946
sI01
F-37.92
ss(i__main__
State
p1976
(dp1977
g3
F2.0
sg4
F1.0
sg5
F-2.0
sg6
F-4.0
sb(dp1978
I00
F45.9
sI01
I77
ss(i__main__
State
p1979
(dp1980
g3
F-5.0
sg4
F3.0
sg5
F5.0
sg6
F2.0
sb(dp1981
I00
F55.332178466301315
sI01
F12.8
ss(i__main__
State
p1982
(dp1983
g3
F-8.0
sg4
F4.0
sg5
F8.0
sg6
F-2.0
sb(dp1984
I00
F7.36141672866
sI01
F-69.372655505646
ss(i__main__
State
p1985
(dp1986
g3
F-4.0
sg4
F6.0
sg5
F4.0
sg6
F8.0
sb(dp1987
I00
F54.39212931216529
sI01
I-82
ss(i__main__
State
p1988
(dp1989
g3
F3.0
sg4
F1.0
sg5
F-3.0
sg6
F-4.0
sb(dp1990
I00
F-56.245507853004256
sI01
F31.985149891099997
ss(i__main__
State
p1991
(dp1992
g3
F-6.0
sg4
F4.0
sg5
F6.0
sg6
F6.0
sb(dp1993
I00
F-11.7
sI01
F33.62335316120086
ss(i__main__
State
p1994
(dp1995
g3
F-8.0
sg4
F7.0
sg5
F8.0
sg6
F8.0
sb(dp1996
I00
F38.726601
sI01
I-49
ss(i__main__
State
p1997
(dp1998
g3
F7.0
sg4
F10.0
sg5
F-7.0
sg6
F6.0
sb(dp1999
I00
F79.04862087523685
sI01
F112.1635871236235
ss(i__main__
State
p2000
(dp2001
g3
F6.0
sg4
F3.0
sg5
F-6.0
sg6
F8.0
sb(dp2002
I00
F30.07266
sI01
F66.8
ss(i__main__
State
p2003
(dp2004
g3
F0.0
sg4
F2.0
sg5
F0.0
sg6
F8.0
sb(dp2005
I00
F34.49890817836962
sI01
F-13.385806150399398
ss(i__main__
State
p2006
(dp2007
g3
F-2.0
sg4
F4.0
sg5
F2.0
sg6
F-4.0
sb(dp2008
I00
F10.621899172800001
sI01
F-64.01167
ss(i__main__
State
p2009
(dp2010
g3
F0.0
sg4
F4.0
sg5
F0.0
sg6
F-2.0
sb(dp2011
I00
F-7.551
sI01
F32.1988723018177
ss(i__main__
State
p2012
(dp2013
g3
F6.0
sg4
F9.0
sg5
F-6.0
sg6
F-2.0
sb(dp2014
I00
F-170.51459944700002
sI01
F89.92481286186712
ss(i__main__
State
p2015
(dp2016
g3
F-4.0
sg4
F5.0
sg5
F4.0
sg6
F2.0
sb(dp2017
I00
F-39.684013
sI01
F7.949060300000001
ss(i__main__
State
p2018
(dp2019
g3
F1.0
sg4
F8.0
sg5
F-1.0
sg6
F8.0
sb(dp2020
I00
F-72.7
sI01
F23.828862265799003
ss(i__main__
State
p2021
(dp2022
g3
F-1.0
sg4
F9.0
sg5
F1.0
sg6
F2.0
sb(dp2023
I00
F30.0
sI01
F152.90132564490168
ss(i__main__
State
p2024
(dp2025
g3
F-2.0
sg4
F10.0
sg5
F2.0
sg6
F0.0
sb(dp2026
I00
F54.46921898501301
sI01
F113.04958132092177
ss(i__main__
State
p2027
(dp2028
g3
F-5.0
sg4
F4.0
sg5
F5.0
sg6
F0.0
sb(dp2029
I00
F56.10501000000001
sI01
F65.60785786574505
ss(i__main__
State
p2030
(dp2031
g3
F-7.0
sg4
F7.0
sg5
F7.0
sg6
F-8.0
sb(dp2032
I00
I-82
sI01
F73.61861739
ss(i__main__
State
p2033
(dp2034
g3
F-2.0
sg4
F9.0
sg5
F2.0
sg6
F-6.0
sb(dp2035
I00
F51.12402
sI01
F16.136712260000003
ss(i__main__
State
p2036
(dp2037
g3
F8.0
sg4
F0.0
sg5
F-8.0
sg6
F-4.0
sb(dp2038
I00
F27.2079
sI01
F28.7760636026201
ss(i__main__
State
p2039
(dp2040
g3
F1.0
sg4
F5.0
sg5
F-1.0
sg6
F-6.0
sb(dp2041
I00
F11.705979383604957
sI01
F-46.11967787087
ss(i__main__
State
p2042
(dp2043
g3
F0.0
sg4
F3.0
sg5
F0.0
sg6
F-2.0
sb(dp2044
I00
I-94
sI01
F-67.1
ss(i__main__
State
p2045
(dp2046
g3
F7.0
sg4
F7.0
sg5
F-7.0
sg6
F0.0
sb(dp2047
I00
F45.144488
sI01
I-54
ss(i__main__
State
p2048
(dp2049
g3
F-5.0
sg4
F1.0
sg5
F5.0
sg6
F2.0
sb(dp2050
I00
F29.964000000000002
sI01
F33.73269866488796
ss(i__main__
State
p2051
(dp2052
g3
F7.0
sg4
F4.0
sg5
F-7.0
sg6
F-8.0
sb(dp2053
I00
F59.615399999999994
sI01
F-7.26174
ss(i__main__
State
p2054
(dp2055
g3
F-2.0
sg4
F6.0
sg5
F2.0
sg6
F4.0
sb(dp2056
I00
I76
sI01
F81.343
ss(i__main__
State
p2057
(dp2058
g3
F-2.0
sg4
F10.0
sg5
F2.0
sg6
F-6.0
sb(dp2059
I00
F60.213597199999995
sI01
F108.12614292225231
ss(i__main__
State
p2060
(dp2061
g3
F-5.0
sg4
F8.0
sg5
F5.0
sg6
F4.0
sb(dp2062
I00
F11.0
sI01
F104.75521883997288
ss(i__main__
State
p2063
(dp2064
g3
F1.0
sg4
F8.0
sg5
F-1.0
sg6
F-4.0
sb(dp2065
I00
F-784.5624101999999
sI01
F73.7835625
ss(i__main__
State
p2066
(dp2067
g3
F0.0
sg4
F4.0
sg5
F0.0
sg6
F4.0
sb(dp2068
I00
F-72.1
sI01
F31.923826212
ss(i__main__
State
p2069
(dp2070
g3
F-4.0
sg4
F9.0
sg5
F4.0
sg6
F0.0
sb(dp2071
I00
F-1899.0
sI01
F-1885.170137827241
ss(i__main__
State
p2072
(dp2073
g3
F6.0
sg4
F1.0
sg5
F-6.0
sg6
F6.0
sb(dp2074
I00
F45.179810280000005
sI01
F44.74787
ss(i__main__
State
p2075
(dp2076
g3
F6.0
sg4
F4.0
sg5
F-6.0
sg6
F-8.0
sb(dp2077
I00
F47.21499007482821
sI01
I-32
ss(i__main__
State
p2078
(dp2079
g3
F4.0
sg4
F10.0
sg5
F-4.0
sg6
F0.0
sb(dp2080
I00
F46.000463
sI01
F96.53591586408544
ss(i__main__
State
p2081
(dp2082
g3
F0.0
sg4
F2.0
sg5
F0.0
sg6
F-6.0
sb(dp2083
I00
F12.262768066579246
sI01
I-52
ss(i__main__
State
p2084
(dp2085
g3
F3.0
sg4
F5.0
sg5
F-3.0
sg6
F-6.0
sb(dp2086
I00
I8
sI01
F26.0
ss(i__main__
State
p2087
(dp2088
g3
F8.0
sg4
F7.0
sg5
F-8.0
sg6
F-2.0
sb(dp2089
I00
F-57.8
sI01
F87.9382537516227
ss(i__main__
State
p2090
(dp2091
g3
F7.0
sg4
F4.0
sg5
F-7.0
sg6
F-4.0
sb(dp2092
I00
F80.78441933330001
sI01
F-51.56209307557
ss(i__main__
State
p2093
(dp2094
g3
F-7.0
sg4
F2.0
sg5
F7.0
sg6
F2.0
sb(dp2095
I00
F59.48119189916666
sI01
F54.67101999999999
ss(i__main__
State
p2096
(dp2097
g3
F4.0
sg4
F5.0
sg5
F-4.0
sg6
F-2.0
sb(dp2098
I00
I-5
sI01
F24.490000000000002
ss(i__main__
State
p2099
(dp2100
g3
F7.0
sg4
F6.0
sg5
F-7.0
sg6
F-8.0
sb(dp2101
I00
F32.290391
sI01
I-97
ss(i__main__
State
p2102
(dp2103
g3
F-7.0
sg4
F3.0
sg5
F7.0
sg6
F0.0
sb(dp2104
I00
F-82.4
sI01
F-35.246
ss(i__main__
State
p2105
(dp2106
g3
F4.0
sg4
F1.0
sg5
F-4.0
sg6
F6.0
sb(dp2107
I00
F-64.0
sI01
F18.963
ss(i__main__
State
p2108
(dp2109
g3
F-1.0
sg4
F10.0
sg5
F1.0
sg6
F2.0
sb(dp2110
I00
F101.89180822298569
sI01
F34.88487
ss(i__main__
State
p2111
(dp2112
g3
F8.0
sg4
F6.0
sg5
F-8.0
sg6
F-8.0
sb(dp2113
I00
F-21.134132614644496
sI01
F33.14983044577462
ss(i__main__
State
p2114
(dp2115
g3
F1.0
sg4
F7.0
sg5
F-1.0
sg6
F-2.0
sb(dp2116
I00
F-51.94919
sI01
F-451.60587425081
ss(i__main__
State
p2117
(dp2118
g3
F8.0
sg4
F3.0
sg5
F-8.0
sg6
F6.0
sb(dp2119
I00
F6.207475682414662
sI01
F75.82525007942847
ss(i__main__
State
p2120
(dp2121
g3
F7.0
sg4
F0.0
sg5
F-7.0
sg6
F-4.0
sb(dp2122
I00
I-88
sI01
F19.85239667965328
ss(i__main__
State
p2123
(dp2124
g3
F-4.0
sg4
F5.0
sg5
F4.0
sg6
F0.0
sb(dp2125
I00
F64.6626569829
sI01
I1
ss(i__main__
State
p2126
(dp2127
g3
F2.0
sg4
F0.0
sg5
F-2.0
sg6
F4.0
sb(dp2128
I00
F55.275999999999996
sI01
I-77
ss(i__main__
State
p2129
(dp2130
g3
F-2.0
sg4
F8.0
sg5
F2.0
sg6
F-6.0
sb(dp2131
I00
F77.2180683
sI01
F35.1242963
ss(i__main__
State
p2132
(dp2133
g3
F-1.0
sg4
F6.0
sg5
F1.0
sg6
F6.0
sb(dp2134
I00
I-97
sI01
F-26.747239999999998
ss(i__main__
State
p2135
(dp2136
g3
F5.0
sg4
F5.0
sg5
F-5.0
sg6
F4.0
sb(dp2137
I00
F-7.346999999999999
sI01
I-49
ss(i__main__
State
p2138
(dp2139
g3
F0.0
sg4
F6.0
sg5
F0.0
sg6
F0.0
sb(dp2140
I00
F28.6823
sI01
F-29.5315585
ss(i__main__
State
p2141
(dp2142
g3
F3.0
sg4
F2.0
sg5
F-3.0
sg6
F-6.0
sb(dp2143
I00
I13
sI01
F35.26
ss(i__main__
State
p2144
(dp2145
g3
F-4.0
sg4
F4.0
sg5
F4.0
sg6
F4.0
sb(dp2146
I00
F-56.2
sI01
F-19.799999999999997
ss(i__main__
State
p2147
(dp2148
g3
F-7.0
sg4
F1.0
sg5
F7.0
sg6
F0.0
sb(dp2149
I00
F46.8
sI01
I12
ss(i__main__
State
p2150
(dp2151
g3
F7.0
sg4
F7.0
sg5
F-7.0
sg6
F-2.0
sb(dp2152
I00
I-3
sI01
F44.38351233
ss(i__main__
State
p2153
(dp2154
g3
F2.0
sg4
F9.0
sg5
F-2.0
sg6
F-8.0
sb(dp2155
I00
F130.9656447894415
sI01
F0.0
ss(i__main__
State
p2156
(dp2157
g3
F4.0
sg4
F0.0
sg5
F-4.0
sg6
F-4.0
sb(dp2158
I00
F-19.47
sI01
F24.3032333
ss(i__main__
State
p2159
(dp2160
g3
F7.0
sg4
F0.0
sg5
F-7.0
sg6
F-2.0
sb(dp2161
I00
F-29.7
sI01
F-28.807162720459218
ss(i__main__
State
p2162
(dp2163
g3
F-5.0
sg4
F5.0
sg5
F5.0
sg6
F0.0
sb(dp2164
I00
F81.7104258
sI01
I10
ss(i__main__
State
p2165
(dp2166
g3
F3.0
sg4
F9.0
sg5
F-3.0
sg6
F-8.0
sb(dp2167
I00
F38.379974992471375
sI01
F0.0
ss(i__main__
State
p2168
(dp2169
g3
F7.0
sg4
F5.0
sg5
F-7.0
sg6
F4.0
sb(dp2170
I00
I-84
sI01
F17.063884827115842
ss(i__main__
State
p2171
(dp2172
g3
F5.0
sg4
F7.0
sg5
F-5.0
sg6
F-6.0
sb(dp2173
I00
F67.34236983752834
sI01
F15.202219
ss(i__main__
State
p2174
(dp2175
g3
F-3.0
sg4
F7.0
sg5
F3.0
sg6
F8.0
sb(dp2176
I00
F-21.1386576
sI01
F-44.79
ss(i__main__
State
p2177
(dp2178
g3
F0.0
sg4
F7.0
sg5
F0.0
sg6
F2.0
sb(dp2179
I00
F65.784
sI01
I-26
ss(i__main__
State
p2180
(dp2181
g3
F0.0
sg4
F10.0
sg5
F0.0
sg6
F4.0
sb(dp2182
I00
F-1899.0
sI01
F-1886.21
ss(i__main__
State
p2183
(dp2184
g3
F6.0
sg4
F9.0
sg5
F-6.0
sg6
F-6.0
sb(dp2185
I00
F202.37820984610903
sI01
F74.9847726653604
ss(i__main__
State
p2186
(dp2187
g3
F-5.0
sg4
F7.0
sg5
F5.0
sg6
F6.0
sb(dp2188
I00
F0.5158000000000005
sI01
F11.942619
ss(i__main__
State
p2189
(dp2190
g3
F-1.0
sg4
F5.0
sg5
F1.0
sg6
F-2.0
sb(dp2191
I00
F-52.5
sI01
F-11.399129050734823
ss(i__main__
State
p2192
(dp2193
g3
F-3.0
sg4
F10.0
sg5
F3.0
sg6
F-8.0
sb(dp2194
I00
F141.06895517783252
sI01
F18.534
ss(i__main__
State
p2195
(dp2196
g3
F1.0
sg4
F0.0
sg5
F-1.0
sg6
F4.0
sb(dp2197
I00
F73.05789136184184
sI01
I42
ss(i__main__
State
p2198
(dp2199
g3
F-5.0
sg4
F10.0
sg5
F5.0
sg6
F8.0
sb(dp2200
I00
F13.010135738
sI01
F25.732100000000003
ss(i__main__
State
p2201
(dp2202
g3
F-2.0
sg4
F2.0
sg5
F2.0
sg6
F4.0
sb(dp2203
I00
F-1.1799999999999997
sI01
I-30
ss(i__main__
State
p2204
(dp2205
g3
F-7.0
sg4
F5.0
sg5
F7.0
sg6
F-4.0
sb(dp2206
I00
F53.2244250213699
sI01
F20.4
ss(i__main__
State
p2207
(dp2208
g3
F5.0
sg4
F4.0
sg5
F-5.0
sg6
F-8.0
sb(dp2209
I00
F-59.72
sI01
F47.714999999999996
ss(i__main__
State
p2210
(dp2211
g3
F6.0
sg4
F4.0
sg5
F-6.0
sg6
F-4.0
sb(dp2212
I00
I93
sI01
F50.8
ss(i__main__
State
p2213
(dp2214
g3
F3.0
sg4
F8.0
sg5
F-3.0
sg6
F-6.0
sb(dp2215
I00
F1.78040195109336
sI01
F84.91968720810203
ss(i__main__
State
p2216
(dp2217
g3
F-1.0
sg4
F4.0
sg5
F1.0
sg6
F6.0
sb(dp2218
I00
F89.76802
sI01
I51
ss(i__main__
State
p2219
(dp2220
g3
F-1.0
sg4
F8.0
sg5
F1.0
sg6
F-8.0
sb(dp2221
I00
F42.4555774
sI01
F0.0
ss(i__main__
State
p2222
(dp2223
g3
F3.0
sg4
F8.0
sg5
F-3.0
sg6
F4.0
sb(dp2224
I00
F31.89
sI01
F0.0
ss(i__main__
State
p2225
(dp2226
g3
F6.0
sg4
F6.0
sg5
F-6.0
sg6
F-8.0
sb(dp2227
I00
F19.533079999999998
sI01
F60.27364414401562
ss(i__main__
State
p2228
(dp2229
g3
F-3.0
sg4
F8.0
sg5
F3.0
sg6
F2.0
sb(dp2230
I00
F123.72449314594334
sI01
F22.094226
ss(i__main__
State
p2231
(dp2232
g3
F1.0
sg4
F2.0
sg5
F-1.0
sg6
F-6.0
sb(dp2233
I00
I-65
sI01
F-3.465299999999999
ss(i__main__
State
p2234
(dp2235
g3
F-5.0
sg4
F8.0
sg5
F5.0
sg6
F0.0
sb(dp2236
I00
F51.6921
sI01
F21.1
ss(i__main__
State
p2237
(dp2238
g3
F3.0
sg4
F9.0
sg5
F-3.0
sg6
F6.0
sb(dp2239
I00
F69.32398077000751
sI01
F12.12460952
ss(i__main__
State
p2240
(dp2241
g3
F0.0
sg4
F8.0
sg5
F0.0
sg6
F-4.0
sb(dp2242
I00
F-2706.950361472
sI01
F-3427.15854264
ss(i__main__
State
p2243
(dp2244
g3
F-7.0
sg4
F3.0
sg5
F7.0
sg6
F-4.0
sb(dp2245
I00
F-0.2647698672868142
sI01
F5.385977398
ss(i__main__
State
p2246
(dp2247
g3
F4.0
sg4
F0.0
sg5
F-4.0
sg6
F2.0
sb(dp2248
I00
F-31.1
sI01
I-17
ss(i__main__
State
p2249
(dp2250
g3
F7.0
sg4
F3.0
sg5
F-7.0
sg6
F8.0
sb(dp2251
I00
I-100
sI01
F-3.6759781294034273
ss(i__main__
State
p2252
(dp2253
g3
F-4.0
sg4
F4.0
sg5
F4.0
sg6
F2.0
sb(dp2254
I00
I-30
sI01
F20.4088466
ss(i__main__
State
p2255
(dp2256
g3
F-4.0
sg4
F9.0
sg5
F4.0
sg6
F4.0
sb(dp2257
I00
F36.41888745392032
sI01
F0.0
ss(i__main__
State
p2258
(dp2259
g3
F-2.0
sg4
F4.0
sg5
F2.0
sg6
F4.0
sb(dp2260
I00
I-64
sI01
F41.20772092035427
ss(i__main__
State
p2261
(dp2262
g3
F3.0
sg4
F4.0
sg5
F-3.0
sg6
F8.0
sb(dp2263
I00
F24.76657345564165
sI01
F-43.22203742705
ss(i__main__
State
p2264
(dp2265
g3
F3.0
sg4
F1.0
sg5
F-3.0
sg6
F6.0
sb(dp2266
I00
F60.71033115623604
sI01
F-60.174
ss(i__main__
State
p2267
(dp2268
g3
F2.0
sg4
F0.0
sg5
F-2.0
sg6
F0.0
sb(dp2269
I00
I-85
sI01
F-16.520899999999997
ss(i__main__
State
p2270
(dp2271
g3
F-5.0
sg4
F5.0
sg5
F5.0
sg6
F6.0
sb(dp2272
I00
I-22
sI01
F55.41226628
ss(i__main__
State
p2273
(dp2274
g3
F-8.0
sg4
F7.0
sg5
F8.0
sg6
F2.0
sb(dp2275
I00
I-67
sI01
F52.55427531263464
ss(i__main__
State
p2276
(dp2277
g3
F-7.0
sg4
F2.0
sg5
F7.0
sg6
F6.0
sb(dp2278
I00
I-85
sI01
F65.16
ss(i__main__
State
p2279
(dp2280
g3
F3.0
sg4
F4.0
sg5
F-3.0
sg6
F-2.0
sb(dp2281
I00
F64.5393
sI01
F-57.51727354815182
ss(i__main__
State
p2282
(dp2283
g3
F-3.0
sg4
F4.0
sg5
F3.0
sg6
F8.0
sb(dp2284
I00
F42.28926438360287
sI01
F-15.799999999999999
ss(i__main__
State
p2285
(dp2286
g3
F5.0
sg4
F7.0
sg5
F-5.0
sg6
F-4.0
sb(dp2287
I00
F19.17
sI01
I-1
ss(i__main__
State
p2288
(dp2289
g3
F2.0
sg4
F8.0
sg5
F-2.0
sg6
F8.0
sb(dp2290
I00
F0.0
sI01
F27.318560000000005
ss(i__main__
State
p2291
(dp2292
g3
F2.0
sg4
F0.0
sg5
F-2.0
sg6
F-6.0
sb(dp2293
I00
F58.87519089623171
sI01
F28.2
ss(i__main__
State
p2294
(dp2295
g3
F-4.0
sg4
F3.0
sg5
F4.0
sg6
F8.0
sb(dp2296
I00
F-64.4
sI01
F62.2008
ss(i__main__
State
p2297
(dp2298
g3
F-7.0
sg4
F4.0
sg5
F7.0
sg6
F2.0
sb(dp2299
I00
F31.499763598875663
sI01
F-21.296614999999996
ss(i__main__
State
p2300
(dp2301
g3
F-1.0
sg4
F2.0
sg5
F1.0
sg6
F6.0
sb(dp2302
I00
F92.96738428500001
sI01
I59
ss(i__main__
State
p2303
(dp2304
g3
F5.0
sg4
F2.0
sg5
F-5.0
sg6
F-2.0
sb(dp2305
I00
I48
sI01
F50.7
ss(i__main__
State
p2306
(dp2307
g3
F-4.0
sg4
F5.0
sg5
F4.0
sg6
F8.0
sb(dp2308
I00
I-44
sI01
F60.5
ss(i__main__
State
p2309
(dp2310
g3
F6.0
sg4
F5.0
sg5
F-6.0
sg6
F2.0
sb(dp2311
I00
F81.0
sI01
F94.57
ss(i__main__
State
p2312
(dp2313
g3
F-1.0
sg4
F9.0
sg5
F1.0
sg6
F4.0
sb(dp2314
I00
F106.243623987232
sI01
F11.3
ss(i__main__
State
p2315
(dp2316
g3
F1.0
sg4
F7.0
sg5
F-1.0
sg6
F0.0
sb(dp2317
I00
F82.5
sI01
I-88
ss(i__main__
State
p2318
(dp2319
g3
F8.0
sg4
F6.0
sg5
F-8.0
sg6
F6.0
sb(dp2320
I00
F33.68832263523716
sI01
I-52
ss(i__main__
State
p2321
(dp2322
g3
F7.0
sg4
F0.0
sg5
F-7.0
sg6
F-8.0
sb(dp2323
I00
I-45
sI01
F-28.0614
ss(i__main__
State
p2324
(dp2325
g3
F3.0
sg4
F4.0
sg5
F-3.0
sg6
F6.0
sb(dp2326
I00
I-88
sI01
F32.8812509930525
ss(i__main__
State
p2327
(dp2328
g3
F-2.0
sg4
F2.0
sg5
F2.0
sg6
F-4.0
sb(dp2329
I00
F31.71606103175513
sI01
F-64.0
ss(i__main__
State
p2330
(dp2331
g3
F-6.0
sg4
F10.0
sg5
F6.0
sg6
F-2.0
sb(dp2332
I00
F195.9327046777362
sI01
F31.36309
ss(i__main__
State
p2333
(dp2334
g3
F1.0
sg4
F4.0
sg5
F-1.0
sg6
F-2.0
sb(dp2335
I00
F-47.6365
sI01
F-66.8
ss(i__main__
State
p2336
(dp2337
g3
F7.0
sg4
F6.0
sg5
F-7.0
sg6
F8.0
sb(dp2338
I00
F66.28103521844976
sI01
F24.68286
ss(i__main__
State
p2339
(dp2340
g3
F3.0
sg4
F1.0
sg5
F-3.0
sg6
F8.0
sb(dp2341
I00
I-59
sI01
F24.5
ss(i__main__
State
p2342
(dp2343
g3
F-7.0
sg4
F7.0
sg5
F7.0
sg6
F4.0
sb(dp2344
I00
F-25.512054728372547
sI01
F45.43093682531771
ss(i__main__
State
p2345
(dp2346
g3
F4.0
sg4
F5.0
sg5
F-4.0
sg6
F2.0
sb(dp2347
I00
F3.645055819000001
sI01
F-43.6655
ss(i__main__
State
p2348
(dp2349
g3
F5.0
sg4
F6.0
sg5
F-5.0
sg6
F-2.0
sb(dp2350
I00
F-6.5
sI01
F37.02511395782479
ss(i__main__
State
p2351
(dp2352
g3
F-8.0
sg4
F9.0
sg5
F8.0
sg6
F4.0
sb(dp2353
I00
F66.01895319375001
sI01
F0.0
ss(i__main__
State
p2354
(dp2355
g3
F-7.0
sg4
F5.0
sg5
F7.0
sg6
F8.0
sb(dp2356
I00
F-57.6
sI01
F12.821849741722865
ss(i__main__
State
p2357
(dp2358
g3
F0.0
sg4
F3.0
sg5
F0.0
sg6
F-8.0
sb(dp2359
I00
I-26
sI01
F22.769
ss(i__main__
State
p2360
(dp2361
g3
F7.0
sg4
F5.0
sg5
F-7.0
sg6
F-2.0
sb(dp2362
I00
F-4.800000000000001
sI01
F1.992697132450894
ss(i__main__
State
p2363
(dp2364
g3
F-4.0
sg4
F2.0
sg5
F4.0
sg6
F-4.0
sb(dp2365
I00
F5.200191565
sI01
F65.45720498768054
ss(i__main__
State
p2366
(dp2367
g3
F4.0
sg4
F10.0
sg5
F-4.0
sg6
F-2.0
sb(dp2368
I00
F178.77645986101086
sI01
F8.48
ss(i__main__
State
p2369
(dp2370
g3
F-1.0
sg4
F5.0
sg5
F1.0
sg6
F8.0
sb(dp2371
I00
F-4.1099999999999985
sI01
F61.71
ss(i__main__
State
p2372
(dp2373
g3
F-8.0
sg4
F1.0
sg5
F8.0
sg6
F-2.0
sb(dp2374
I00
I-83
sI01
F-59.1525564694
ss(i__main__
State
p2375
(dp2376
g3
F3.0
sg4
F7.0
sg5
F-3.0
sg6
F0.0
sb(dp2377
I00
F-32.4
sI01
F8.964159974000003
ss(i__main__
State
p2378
(dp2379
g3
F-3.0
sg4
F10.0
sg5
F3.0
sg6
F6.0
sb(dp2380
I00
F148.17957900698164
sI01
F40.95794419255179
ss(i__main__
State
p2381
(dp2382
g3
F2.0
sg4
F2.0
sg5
F-2.0
sg6
F0.0
sb(dp2383
I00
F17.0
sI01
F19.9211401344
ss(i__main__
State
p2384
(dp2385
g3
F8.0
sg4
F4.0
sg5
F-8.0
sg6
F-2.0
sb(dp2386
I00
F27.9171839818
sI01
F-54.659
ss(i__main__
State
p2387
(dp2388
g3
F1.0
sg4
F5.0
sg5
F-1.0
sg6
F4.0
sb(dp2389
I00
F52.267384415893275
sI01
F8.694210000000002
ss(i__main__
State
p2390
(dp2391
g3
F8.0
sg4
F0.0
sg5
F-8.0
sg6
F2.0
sb(dp2392
I00
F45.9938910056
sI01
F-26.2
ss(i__main__
State
p2393
(dp2394
g3
F-2.0
sg4
F8.0
sg5
F2.0
sg6
F2.0
sb(dp2395
I00
F42.15846517600801
sI01
F18.94758503408
ss(i__main__
State
p2396
(dp2397
g3
F-6.0
sg4
F0.0
sg5
F6.0
sg6
F0.0
sb(dp2398
I00
F78.17370155978945
sI01
F3.55
ss(i__main__
State
p2399
(dp2400
g3
F-8.0
sg4
F8.0
sg5
F8.0
sg6
F-2.0
sb(dp2401
I00
F60.126116427
sI01
F-90.0
ss(i__main__
State
p2402
(dp2403
g3
F-2.0
sg4
F9.0
sg5
F2.0
sg6
F6.0
sb(dp2404
I00
F40.998403209
sI01
F88.2595015689
ss(i__main__
State
p2405
(dp2406
g3
F-6.0
sg4
F10.0
sg5
F6.0
sg6
F8.0
sb(dp2407
I00
F10.0
sI01
F0.0
ss(i__main__
State
p2408
(dp2409
g3
F-6.0
sg4
F1.0
sg5
F6.0
sg6
F0.0
sb(dp2410
I00
F81.833
sI01
I-43
ss(i__main__
State
p2411
(dp2412
g3
F1.0
sg4
F6.0
sg5
F-1.0
sg6
F-6.0
sb(dp2413
I00
F-17.738457420000003
sI01
F-59.864999999999995
ss(i__main__
State
p2414
(dp2415
g3
F-1.0
sg4
F2.0
sg5
F1.0
sg6
F-2.0
sb(dp2416
I00
F86.54726142
sI01
I-43
ss(i__main__
State
p2417
(dp2418
g3
F-4.0
sg4
F8.0
sg5
F4.0
sg6
F2.0
sb(dp2419
I00
F99.74614169144056
sI01
F18.851758744847384
ss(i__main__
State
p2420
(dp2421
g3
F5.0
sg4
F3.0
sg5
F-5.0
sg6
F-2.0
sb(dp2422
I00
F-24.3
sI01
F44.721917019
ss(i__main__
State
p2423
(dp2424
g3
F0.0
sg4
F1.0
sg5
F0.0
sg6
F-8.0
sb(dp2425
I00
F-42.352897
sI01
F-79.5672823
ss(i__main__
State
p2426
(dp2427
g3
F8.0
sg4
F2.0
sg5
F-8.0
sg6
F8.0
sb(dp2428
I00
F57.693474612200006
sI01
F56.17799077154916
ss(i__main__
State
p2429
(dp2430
g3
F8.0
sg4
F4.0
sg5
F-8.0
sg6
F8.0
sb(dp2431
I00
F21.3816
sI01
F-12.130359999999998
ss(i__main__
State
p2432
(dp2433
g3
F-8.0
sg4
F9.0
sg5
F8.0
sg6
F6.0
sb(dp2434
I00
F43.18184655422
sI01
F0.0
ss(i__main__
State
p2435
(dp2436
g3
F-3.0
sg4
F0.0
sg5
F3.0
sg6
F0.0
sb(dp2437
I00
F47.019905
sI01
I-66
ss(i__main__
State
p2438
(dp2439
g3
F-1.0
sg4
F3.0
sg5
F1.0
sg6
F4.0
sb(dp2440
I00
F0.06764603266746061
sI01
F-38.830000000000005
ss(i__main__
State
p2441
(dp2442
g3
F-6.0
sg4
F5.0
sg5
F6.0
sg6
F0.0
sb(dp2443
I00
I-10
sI01
F41.251226700000004
ss(i__main__
State
p2444
(dp2445
g3
F1.0
sg4
F10.0
sg5
F-1.0
sg6
F-2.0
sb(dp2446
I00
F-617.5022633214776
sI01
F72.40481437701617
ss(i__main__
State
p2447
(dp2448
g3
F5.0
sg4
F1.0
sg5
F-5.0
sg6
F-8.0
sb(dp2449
I00
I-91
sI01
F-17.14
ss(i__main__
State
p2450
(dp2451
g3
F-3.0
sg4
F9.0
sg5
F3.0
sg6
F-2.0
sb(dp2452
I00
F-72.7
sI01
F36.25864979534651
ss(i__main__
State
p2453
(dp2454
g3
F-5.0
sg4
F4.0
sg5
F5.0
sg6
F4.0
sb(dp2455
I00
F-14.783537973596598
sI01
F26.20743011753175
ss(i__main__
State
p2456
(dp2457
g3
F-8.0
sg4
F6.0
sg5
F8.0
sg6
F-4.0
sb(dp2458
I00
I18
sI01
F73.091233306638
ss(i__main__
State
p2459
(dp2460
g3
F2.0
sg4
F9.0
sg5
F-2.0
sg6
F-2.0
sb(dp2461
I00
F-72.9
sI01
F95.83761928822842
ss(i__main__
State
p2462
(dp2463
g3
F-7.0
sg4
F8.0
sg5
F7.0
sg6
F-8.0
sb(dp2464
I00
F52.37493
sI01
F15.78859
ss(i__main__
State
p2465
(dp2466
g3
F8.0
sg4
F4.0
sg5
F-8.0
sg6
F-8.0
sb(dp2467
I00
F16.174761445500003
sI01
I-13
ss(i__main__
State
p2468
(dp2469
g3
F2.0
sg4
F5.0
sg5
F-2.0
sg6
F4.0
sb(dp2470
I00
F-31.548799999999996
sI01
F-45.8064
ss(i__main__
State
p2471
(dp2472
g3
F-3.0
sg4
F2.0
sg5
F3.0
sg6
F-2.0
sb(dp2473
I00
F49.74910298710754
sI01
F-50.3
ss(i__main__
State
p2474
(dp2475
g3
F-8.0
sg4
F2.0
sg5
F8.0
sg6
F0.0
sb(dp2476
I00
F-65.11317
sI01
F33.104818553535345
ss(i__main__
State
p2477
(dp2478
g3
F8.0
sg4
F10.0
sg5
F-8.0
sg6
F-2.0
sb(dp2479
I00
F35.3774653
sI01
F0.0
ss(i__main__
State
p2480
(dp2481
g3
F2.0
sg4
F2.0
sg5
F-2.0
sg6
F-2.0
sb(dp2482
I00
F49.918245006789
sI01
I-57
ss(i__main__
State
p2483
(dp2484
g3
F-1.0
sg4
F8.0
sg5
F1.0
sg6
F0.0
sb(dp2485
I00
F10.0
sI01
F87.6833077239493
ss(i__main__
State
p2486
(dp2487
g3
F-6.0
sg4
F9.0
sg5
F6.0
sg6
F-6.0
sb(dp2488
I00
F12.990000000000002
sI01
F61.12822723153843
ss(i__main__
State
p2489
(dp2490
g3
F-3.0
sg4
F3.0
sg5
F3.0
sg6
F6.0
sb(dp2491
I00
F-30.25
sI01
F34.600199427350006
ss(i__main__
State
p2492
(dp2493
g3
F0.0
sg4
F7.0
sg5
F0.0
sg6
F4.0
sb(dp2494
I00
F-69.873812702766
sI01
F54.90474773788482
ss(i__main__
State
p2495
(dp2496
g3
F-8.0
sg4
F7.0
sg5
F8.0
sg6
F6.0
sb(dp2497
I00
F21.76257221894491
sI01
F95.69633589696322
ss(i__main__
State
p2498
(dp2499
g3
F4.0
sg4
F4.0
sg5
F-4.0
sg6
F6.0
sb(dp2500
I00
F-18.52164461328188
sI01
F-43.42
ss(i__main__
State
p2501
(dp2502
g3
F-1.0
sg4
F5.0
sg5
F1.0
sg6
F-8.0
sb(dp2503
I00
F7.6
sI01
F83.41283000000001
ss(i__main__
State
p2504
(dp2505
g3
F6.0
sg4
F5.0
sg5
F-6.0
sg6
F6.0
sb(dp2506
I00
F40.54485749053646
sI01
I30
ss(i__main__
State
p2507
(dp2508
g3
F-1.0
sg4
F1.0
sg5
F1.0
sg6
F0.0
sb(dp2509
I00
F2.74871
sI01
I-66
ss(i__main__
State
p2510
(dp2511
g3
F-2.0
sg4
F7.0
sg5
F2.0
sg6
F6.0
sb(dp2512
I00
F26.823977600000003
sI01
F-62.8
ss(i__main__
State
p2513
(dp2514
g3
F4.0
sg4
F9.0
sg5
F-4.0
sg6
F-2.0
sb(dp2515
I00
F-871.9968889216259
sI01
F225.38691750902123
ss(i__main__
State
p2516
(dp2517
g3
F-3.0
sg4
F3.0
sg5
F3.0
sg6
F-8.0
sb(dp2518
I00
I-76
sI01
F-30.441010000000002
ss(i__main__
State
p2519
(dp2520
g3
F5.0
sg4
F6.0
sg5
F-5.0
sg6
F-6.0
sb(dp2521
I00
I-2
sI01
F81.2378
ss(i__main__
State
p2522
(dp2523
g3
F-1.0
sg4
F8.0
sg5
F1.0
sg6
F-2.0
sb(dp2524
I00
F31.843132032
sI01
F10.0
ss(i__main__
State
p2525
(dp2526
g3
F-6.0
sg4
F8.0
sg5
F6.0
sg6
F-4.0
sb(dp2527
I00
F20.0
sI01
F13.32252
ss(i__main__
State
p2528
(dp2529
g3
F7.0
sg4
F2.0
sg5
F-7.0
sg6
F-6.0
sb(dp2530
I00
F-84.7
sI01
F17.758881818199995
ss(i__main__
State
p2531
(dp2532
g3
F5.0
sg4
F9.0
sg5
F-5.0
sg6
F-2.0
sb(dp2533
I00
F-252.8
sI01
F137.06707948409993
ss(i__main__
State
p2534
(dp2535
g3
F2.0
sg4
F3.0
sg5
F-2.0
sg6
F-8.0
sb(dp2536
I00
I-52
sI01
F85.900350564346
ss(i__main__
State
p2537
(dp2538
g3
F7.0
sg4
F1.0
sg5
F-7.0
sg6
F2.0
sb(dp2539
I00
F-84.08
sI01
F10.26087628706902
ss(i__main__
State
p2540
(dp2541
g3
F-4.0
sg4
F2.0
sg5
F4.0
sg6
F8.0
sb(dp2542
I00
F55.99996
sI01
I-98
ss(i__main__
State
p2543
(dp2544
g3
F-8.0
sg4
F6.0
sg5
F8.0
sg6
F-2.0
sb(dp2545
I00
F32.256
sI01
I-63
ss(i__main__
State
p2546
(dp2547
g3
F3.0
sg4
F2.0
sg5
F-3.0
sg6
F2.0
sb(dp2548
I00
F1.8604714659560004
sI01
F40.60659
ss(i__main__
State
p2549
(dp2550
g3
F7.0
sg4
F4.0
sg5
F-7.0
sg6
F-6.0
sb(dp2551
I00
F-77.1
sI01
F-65.88021887300602
ss(i__main__
State
p2552
(dp2553
g3
F-5.0
sg4
F5.0
sg5
F5.0
sg6
F-8.0
sb(dp2554
I00
F55.038909112054505
sI01
I6
ss(i__main__
State
p2555
(dp2556
g3
F-5.0
sg4
F0.0
sg5
F5.0
sg6
F6.0
sb(dp2557
I00
F43.0787
sI01
F94.4
ss(i__main__
State
p2558
(dp2559
g3
F-3.0
sg4
F9.0
sg5
F3.0
sg6
F0.0
sb(dp2560
I00
F-4669.605716790091
sI01
F-4657.617496320088
ss(i__main__
State
p2561
(dp2562
g3
F-7.0
sg4
F1.0
sg5
F7.0
sg6
F6.0
sb(dp2563
I00
F1.774301780000001
sI01
I-65
ss(i__main__
State
p2564
(dp2565
g3
F-8.0
sg4
F1.0
sg5
F8.0
sg6
F-6.0
sb(dp2566
I00
F-37.84909683550219
sI01
F-26.83444
ss(i__main__
State
p2567
(dp2568
g3
F5.0
sg4
F2.0
sg5
F-5.0
sg6
F8.0
sb(dp2569
I00
F35.686825999999996
sI01
F-26.9
ss(i__main__
State
p2570
(dp2571
g3
F8.0
sg4
F8.0
sg5
F-8.0
sg6
F8.0
sb(dp2572
I00
F42.5338575884478
sI01
F186.14808427179898
ss(i__main__
State
p2573
(dp2574
g3
F6.0
sg4
F8.0
sg5
F-6.0
sg6
F-8.0
sb(dp2575
I00
F104.63243855530051
sI01
F20.0
ss(i__main__
State
p2576
(dp2577
g3
F7.0
sg4
F1.0
sg5
F-7.0
sg6
F-6.0
sb(dp2578
I00
F-48.643
sI01
I-82
ss(i__main__
State
p2579
(dp2580
g3
F-1.0
sg4
F7.0
sg5
F1.0
sg6
F-8.0
sb(dp2581
I00
I-24
sI01
F16.470305880000005
ss(i__main__
State
p2582
(dp2583
g3
F-8.0
sg4
F7.0
sg5
F8.0
sg6
F4.0
sb(dp2584
I00
F40.29183331264295
sI01
I-41
ss(i__main__
State
p2585
(dp2586
g3
F-7.0
sg4
F4.0
sg5
F7.0
sg6
F-2.0
sb(dp2587
I00
F89.4
sI01
F-24.866336748857268
ss(i__main__
State
p2588
(dp2589
g3
F-3.0
sg4
F0.0
sg5
F3.0
sg6
F-4.0
sb(dp2590
I00
F-7.81
sI01
F23.53295517468478
ss(i__main__
State
p2591
(dp2592
g3
F8.0
sg4
F3.0
sg5
F-8.0
sg6
F0.0
sb(dp2593
I00
F-49.64635
sI01
F50.85856100513068
ss(i__main__
State
p2594
(dp2595
g3
F7.0
sg4
F9.0
sg5
F-7.0
sg6
F4.0
sb(dp2596
I00
F10.0
sI01
F52.991874072883604
ss(i__main__
State
p2597
(dp2598
g3
F-2.0
sg4
F5.0
sg5
F2.0
sg6
F-6.0
sb(dp2599
I00
F38.238
sI01
I11
ss(i__main__
State
p2600
(dp2601
g3
F-2.0
sg4
F1.0
sg5
F2.0
sg6
F2.0
sb(dp2602
I00
F-69.58836138
sI01
F13.529
ss(i__main__
State
p2603
(dp2604
g3
F7.0
sg4
F2.0
sg5
F-7.0
sg6
F0.0
sb(dp2605
I00
F-0.33075100749231434
sI01
F-24.141624149409203
ss(i__main__
State
p2606
(dp2607
g3
F-5.0
sg4
F2.0
sg5
F5.0
sg6
F-8.0
sb(dp2608
I00
F-6.2040063
sI01
I-71
ss(i__main__
State
p2609
(dp2610
g3
F6.0
sg4
F10.0
sg5
F-6.0
sg6
F0.0
sb(dp2611
I00
F169.44873461776731
sI01
F32.45868306201
ss(i__main__
State
p2612
(dp2613
g3
F-1.0
sg4
F2.0
sg5
F1.0
sg6
F0.0
sb(dp2614
I00
F-33.2
sI01
I-95
ss(i__main__
State
p2615
(dp2616
g3
F-6.0
sg4
F2.0
sg5
F6.0
sg6
F2.0
sb(dp2617
I00
F63.86310999999999
sI01
F-25.392787999999996
ss(i__main__
State
p2618
(dp2619
g3
F8.0
sg4
F10.0
sg5
F-8.0
sg6
F2.0
sb(dp2620
I00
F83.30281048410899
sI01
F0.0
ss(i__main__
State
p2621
(dp2622
g3
F6.0
sg4
F5.0
sg5
F-6.0
sg6
F8.0
sb(dp2623
I00
F-17.0
sI01
I-70
ss(i__main__
State
p2624
(dp2625
g3
F4.0
sg4
F2.0
sg5
F-4.0
sg6
F-8.0
sb(dp2626
I00
F-85.0
sI01
F31.835010999999998
ss(i__main__
State
p2627
(dp2628
g3
F7.0
sg4
F10.0
sg5
F-7.0
sg6
F8.0
sb(dp2629
I00
F30.372660000000003
sI01
F0.0
ss(i__main__
State
p2630
(dp2631
g3
F-6.0
sg4
F6.0
sg5
F6.0
sg6
F-8.0
sb(dp2632
I00
F19.6
sI01
I-64
ss(i__main__
State
p2633
(dp2634
g3
F6.0
sg4
F4.0
sg5
F-6.0
sg6
F4.0
sb(dp2635
I00
F27.53103371693581
sI01
F46.524378564115715
ss(i__main__
State
p2636
(dp2637
g3
F-6.0
sg4
F9.0
sg5
F6.0
sg6
F-4.0
sb(dp2638
I00
F68.72937141999999
sI01
F12.332022700000001
ss(i__main__
State
p2639
(dp2640
g3
F-6.0
sg4
F5.0
sg5
F6.0
sg6
F4.0
sb(dp2641
I00
F63.925900000000006
sI01
F65.114119419
ss(i__main__
State
p2642
(dp2643
g3
F6.0
sg4
F2.0
sg5
F-6.0
sg6
F-8.0
sb(dp2644
I00
F53.099999999999994
sI01
I-96
ss(i__main__
State
p2645
(dp2646
g3
F8.0
sg4
F7.0
sg5
F-8.0
sg6
F-8.0
sb(dp2647
I00
I38
sI01
F43.520532100000004
ss(i__main__
State
p2648
(dp2649
g3
F6.0
sg4
F8.0
sg5
F-6.0
sg6
F-6.0
sb(dp2650
I00
F20.0
sI01
F218.36079974126176
ss(i__main__
State
p2651
(dp2652
g3
F-8.0
sg4
F9.0
sg5
F8.0
sg6
F2.0
sb(dp2653
I00
F49.80520351948164
sI01
F27.229910162918955
ss(i__main__
State
p2654
(dp2655
g3
F-5.0
sg4
F7.0
sg5
F5.0
sg6
F2.0
sb(dp2656
I00
F51.51938535275428
sI01
F137.37460655400275
ss(i__main__
State
p2657
(dp2658
g3
F-4.0
sg4
F10.0
sg5
F4.0
sg6
F2.0
sb(dp2659
I00
F134.21189860659712
sI01
F27.5292234
ss(i__main__
State
p2660
(dp2661
g3
F4.0
sg4
F6.0
sg5
F-4.0
sg6
F-8.0
sb(dp2662
I00
F-71.0146419
sI01
F7.929505528068221
ss(i__main__
State
p2663
(dp2664
g3
F2.0
sg4
F3.0
sg5
F-2.0
sg6
F0.0
sb(dp2665
I00
I-92
sI01
F52.9114008
ss(i__main__
State
p2666
(dp2667
g3
F1.0
sg4
F9.0
sg5
F-1.0
sg6
F2.0
sb(dp2668
I00
F47.82396344924567
sI01
F0.0
ss(i__main__
State
p2669
(dp2670
g3
F-4.0
sg4
F7.0
sg5
F4.0
sg6
F4.0
sb(dp2671
I00
F-54.21604000000001
sI01
F67.81926959164615
ss(i__main__
State
p2672
(dp2673
g3
F6.0
sg4
F0.0
sg5
F-6.0
sg6
F8.0
sb(dp2674
I00
F34.168973532922706
sI01
F-25.5
ss(i__main__
State
p2675
(dp2676
g3
F8.0
sg4
F1.0
sg5
F-8.0
sg6
F-8.0
sb(dp2677
I00
I-78
sI01
F51.203342969999994
ss(i__main__
State
p2678
(dp2679
g3
F-4.0
sg4
F8.0
sg5
F4.0
sg6
F-6.0
sb(dp2680
I00
F182.0021483032038
sI01
F19.05759165419612
ss(i__main__
State
p2681
(dp2682
g3
F-5.0
sg4
F0.0
sg5
F5.0
sg6
F2.0
sb(dp2683
I00
F48.8
sI01
I13
ss(i__main__
State
p2684
(dp2685
g3
F-2.0
sg4
F10.0
sg5
F2.0
sg6
F2.0
sb(dp2686
I00
F12.0
sI01
F141.8539822762264
ss(i__main__
State
p2687
(dp2688
g3
F-2.0
sg4
F3.0
sg5
F2.0
sg6
F-6.0
sb(dp2689
I00
F57.410692461087784
sI01
F-6.589999999999999
ss(i__main__
State
p2690
(dp2691
g3
F-6.0
sg4
F8.0
sg5
F6.0
sg6
F0.0
sb(dp2692
I00
F91.49543616232
sI01
F11.0
ss(i__main__
State
p2693
(dp2694
g3
F-5.0
sg4
F4.0
sg5
F5.0
sg6
F-8.0
sb(dp2695
I00
F-10.7703
sI01
I-65
ss(i__main__
State
p2696
(dp2697
g3
F-7.0
sg4
F7.0
sg5
F7.0
sg6
F-6.0
sb(dp2698
I00
F34.39210806644387
sI01
I-73
ss(i__main__
State
p2699
(dp2700
g3
F-4.0
sg4
F6.0
sg5
F4.0
sg6
F6.0
sb(dp2701
I00
F56.788549691565535
sI01
F21.0
ss(i__main__
State
p2702
(dp2703
g3
F8.0
sg4
F0.0
sg5
F-8.0
sg6
F-6.0
sb(dp2704
I00
F-5.672940633747754
sI01
F37.46861431714713
ss(i__main__
State
p2705
(dp2706
g3
F7.0
sg4
F0.0
sg5
F-7.0
sg6
F4.0
sb(dp2707
I00
F-65.0058460782
sI01
F42.117070919
ss(i__main__
State
p2708
(dp2709
g3
F1.0
sg4
F1.0
sg5
F-1.0
sg6
F-8.0
sb(dp2710
I00
F-60.328699563777434
sI01
F-6.600959476293217
ss(i__main__
State
p2711
(dp2712
g3
F-4.0
sg4
F6.0
sg5
F4.0
sg6
F2.0
sb(dp2713
I00
F-51.0336
sI01
F-28.088
ss(i__main__
State
p2714
(dp2715
g3
F-6.0
sg4
F4.0
sg5
F6.0
sg6
F-6.0
sb(dp2716
I00
I-97
sI01
F46.030558115549994
ss(i__main__
State
p2717
(dp2718
g3
F-2.0
sg4
F4.0
sg5
F2.0
sg6
F-6.0
sb(dp2719
I00
F-76.8
sI01
F16.9072
ss(i__main__
State
p2720
(dp2721
g3
F1.0
sg4
F6.0
sg5
F-1.0
sg6
F-4.0
sb(dp2722
I00
F50.239908281999995
sI01
I61
ss(i__main__
State
p2723
(dp2724
g3
F-1.0
sg4
F2.0
sg5
F1.0
sg6
F-8.0
sb(dp2725
I00
F54.79192278228846
sI01
F16.9876431424114
ss(i__main__
State
p2726
(dp2727
g3
F-3.0
sg4
F10.0
sg5
F3.0
sg6
F-4.0
sb(dp2728
I00
F71.7963686
sI01
F0.0
ss(i__main__
State
p2729
(dp2730
g3
F-7.0
sg4
F6.0
sg5
F7.0
sg6
F-6.0
sb(dp2731
I00
F-2.799999999999999
sI01
I-23
ss(i__main__
State
p2732
(dp2733
g3
F5.0
sg4
F9.0
sg5
F-5.0
sg6
F6.0
sb(dp2734
I00
F89.77682404755201
sI01
F0.0
ss(i__main__
State
p2735
(dp2736
g3
F2.0
sg4
F5.0
sg5
F-2.0
sg6
F-8.0
sb(dp2737
I00
F53.336967229069835
sI01
F40.844477778
ss(i__main__
State
p2738
(dp2739
g3
F-5.0
sg4
F0.0
sg5
F5.0
sg6
F-4.0
sb(dp2740
I00
F75.48
sI01
I-93
ss(i__main__
State
p2741
(dp2742
g3
F-4.0
sg4
F8.0
sg5
F4.0
sg6
F-8.0
sb(dp2743
I00
F45.7528349
sI01
F0.0
ss(i__main__
State
p2744
(dp2745
g3
F0.0
sg4
F0.0
sg5
F0.0
sg6
F2.0
sb(dp2746
I00
I-60
sI01
F44.84784738951785
ss(i__main__
State
p2747
(dp2748
g3
F-7.0
sg4
F2.0
sg5
F7.0
sg6
F-6.0
sb(dp2749
I00
F-43.09249520994016
sI01
F54.07412000000001
ss(i__main__
State
p2750
(dp2751
g3
F3.0
sg4
F9.0
sg5
F-3.0
sg6
F8.0
sb(dp2752
I00
F85.37906434014644
sI01
F12.409200000000002
ss(i__main__
State
p2753
(dp2754
g3
F4.0
sg4
F10.0
sg5
F-4.0
sg6
F2.0
sb(dp2755
I00
F104.21134108569454
sI01
F0.0
ss(i__main__
State
p2756
(dp2757
g3
F-4.0
sg4
F2.0
sg5
F4.0
sg6
F4.0
sb(dp2758
I00
F77.30526275575711
sI01
I33
ss(i__main__
State
p2759
(dp2760
g3
F3.0
sg4
F5.0
sg5
F-3.0
sg6
F-8.0
sb(dp2761
I00
F-71.58
sI01
F17.81954111801387
ss(i__main__
State
p2762
(dp2763
g3
F8.0
sg4
F7.0
sg5
F-8.0
sg6
F-4.0
sb(dp2764
I00
F23.2
sI01
I17
ss(i__main__
State
p2765
(dp2766
g3
F7.0
sg4
F4.0
sg5
F-7.0
sg6
F-2.0
sb(dp2767
I00
F-17.641368603135795
sI01
I-58
ss(i__main__
State
p2768
(dp2769
g3
F-4.0
sg4
F1.0
sg5
F4.0
sg6
F6.0
sb(dp2770
I00
F63.845555000000004
sI01
F75.46216374296
ss(i__main__
State
p2771
(dp2772
g3
F-7.0
sg4
F2.0
sg5
F7.0
sg6
F0.0
sb(dp2773
I00
F-0.06800000000000006
sI01
I-16
ss(i__main__
State
p2774
(dp2775
g3
F1.0
sg4
F10.0
sg5
F-1.0
sg6
F2.0
sb(dp2776
I00
F-64.86000000000001
sI01
F67.5881216461
ss(i__main__
State
p2777
(dp2778
g3
F1.0
sg4
F10.0
sg5
F-1.0
sg6
F-8.0
sb(dp2779
I00
F10.0
sI01
F52.47409295554106
ss(i__main__
State
p2780
(dp2781
g3
F-7.0
sg4
F3.0
sg5
F7.0
sg6
F2.0
sb(dp2782
I00
F-1.634762
sI01
F62.689795882273174
ss(i__main__
State
p2783
(dp2784
g3
F5.0
sg4
F0.0
sg5
F-5.0
sg6
F2.0
sb(dp2785
I00
I-10
sI01
F31.130964850493
ss(i__main__
State
p2786
(dp2787
g3
F0.0
sg4
F0.0
sg5
F0.0
sg6
F-6.0
sb(dp2788
I00
I-81
sI01
F8.246463468703245
ss(i__main__
State
p2789
(dp2790
g3
F-5.0
sg4
F10.0
sg5
F5.0
sg6
F4.0
sb(dp2791
I00
F133.36571973454807
sI01
F36.304100000000005
ss(i__main__
State
p2792
(dp2793
g3
F-8.0
sg4
F9.0
sg5
F8.0
sg6
F-2.0
sb(dp2794
I00
F-72.76600000000002
sI01
F52.854657020000005
ss(i__main__
State
p2795
(dp2796
g3
F8.0
sg4
F6.0
sg5
F-8.0
sg6
F-6.0
sb(dp2797
I00
I37
sI01
F72.08782425976803
ss(i__main__
State
p2798
(dp2799
g3
F2.0
sg4
F5.0
sg5
F-2.0
sg6
F2.0
sb(dp2800
I00
I-67
sI01
F9.058400000000002
ss(i__main__
State
p2801
(dp2802
g3
F0.0
sg4
F1.0
sg5
F0.0
sg6
F4.0
sb(dp2803
I00
F0.44790000000000063
sI01
F41.048610000000004
ss(i__main__
State
p2804
(dp2805
g3
F1.0
sg4
F3.0
sg5
F-1.0
sg6
F-8.0
sb(dp2806
I00
F81.743
sI01
I59
ss(i__main__
State
p2807
(dp2808
g3
F5.0
sg4
F7.0
sg5
F-5.0
sg6
F8.0
sb(dp2809
I00
F-25.035242175213753
sI01
F85.71415229193592
ss(i__main__
State
p2810
(dp2811
g3
F7.0
sg4
F5.0
sg5
F-7.0
sg6
F6.0
sb(dp2812
I00
I-71
sI01
F-19.653389925399996
ss(i__main__
State
p2813
(dp2814
g3
F6.0
sg4
F6.0
sg5
F-6.0
sg6
F-6.0
sb(dp2815
I00
F78.145402409
sI01
F33.87
ss(i__main__
State
p2816
(dp2817
g3
F4.0
sg4
F3.0
sg5
F-4.0
sg6
F6.0
sb(dp2818
I00
F9.49315
sI01
F19.346075642910037
ss(i__main__
State
p2819
(dp2820
g3
F3.0
sg4
F8.0
sg5
F-3.0
sg6
F-8.0
sb(dp2821
I00
F122.300435022702
sI01
F41.35064010000001
ss(i__main__
State
p2822
(dp2823
g3
F-1.0
sg4
F8.0
sg5
F1.0
sg6
F6.0
sb(dp2824
I00
F127.71514077925768
sI01
F48.7162904566609
ss(i__main__
State
p2825
(dp2826
g3
F1.0
sg4
F6.0
sg5
F-1.0
sg6
F6.0
sb(dp2827
I00
F21.145188739999995
sI01
I-84
ss(i__main__
State
p2828
(dp2829
g3
F-1.0
sg4
F7.0
sg5
F1.0
sg6
F8.0
sb(dp2830
I00
F-56.032
sI01
F68.132408447686
ss(i__main__
State
p2831
(dp2832
g3
F-8.0
sg4
F0.0
sg5
F8.0
sg6
F-2.0
sb(dp2833
I00
F48.200061245742205
sI01
I4
ss(i__main__
State
p2834
(dp2835
g3
F2.0
sg4
F4.0
sg5
F-2.0
sg6
F2.0
sb(dp2836
I00
I33
sI01
F57.422065045320196
ss(i__main__
State
p2837
(dp2838
g3
F-1.0
sg4
F4.0
sg5
F1.0
sg6
F-8.0
sb(dp2839
I00
F55.635
sI01
I-23
ss(i__main__
State
p2840
(dp2841
g3
F-5.0
sg4
F2.0
sg5
F5.0
sg6
F-4.0
sb(dp2842
I00
F-63.32
sI01
F-43.446
ss(i__main__
State
p2843
(dp2844
g3
F5.0
sg4
F4.0
sg5
F-5.0
sg6
F2.0
sb(dp2845
I00
F43.1334
sI01
F32.9918
ss(i__main__
State
p2846
(dp2847
g3
F-4.0
sg4
F6.0
sg5
F4.0
sg6
F-6.0
sb(dp2848
I00
F-27.259999999999998
sI01
F44.79644
ss(i__main__
State
p2849
(dp2850
g3
F7.0
sg4
F7.0
sg5
F-7.0
sg6
F-8.0
sb(dp2851
I00
I-63
sI01
F46.176711144411186
ss(i__main__
State
p2852
(dp2853
g3
F-2.0
sg4
F3.0
sg5
F2.0
sg6
F8.0
sb(dp2854
I00
F74.6
sI01
I-23
ss(i__main__
State
p2855
(dp2856
g3
F-5.0
sg4
F4.0
sg5
F5.0
sg6
F-6.0
sb(dp2857
I00
F-70.0898928367965
sI01
F44.65513174802947
ss(i__main__
State
p2858
(dp2859
g3
F-6.0
sg4
F4.0
sg5
F6.0
sg6
F8.0
sb(dp2860
I00
F78.4
sI01
I79
ss(i__main__
State
p2861
(dp2862
g3
F-6.0
sg4
F9.0
sg5
F6.0
sg6
F-8.0
sb(dp2863
I00
F23.33282
sI01
F148.55582164010377
ss(i__main__
State
p2864
(dp2865
g3
F7.0
sg4
F0.0
sg5
F-7.0
sg6
F2.0
sb(dp2866
I00
I-89
sI01
F28.2
ss(i__main__
State
p2867
(dp2868
g3
F-8.0
sg4
F1.0
sg5
F8.0
sg6
F6.0
sb(dp2869
I00
F58.50046
sI01
I22
ss(i__main__
State
p2870
(dp2871
g3
F-7.0
sg4
F0.0
sg5
F7.0
sg6
F-2.0
sb(dp2872
I00
F44.241016685171
sI01
I-79
ss(i__main__
State
p2873
(dp2874
g3
F4.0
sg4
F6.0
sg5
F-4.0
sg6
F0.0
sb(dp2875
I00
I18
sI01
F86.05761325
ss(i__main__
State
p2876
(dp2877
g3
F-5.0
sg4
F5.0
sg5
F5.0
sg6
F-2.0
sb(dp2878
I00
F12.062677500000001
sI01
I-82
ss(i__main__
State
p2879
(dp2880
g3
F-3.0
sg4
F8.0
sg5
F3.0
sg6
F-8.0
sb(dp2881
I00
F192.79548675777056
sI01
F54.35964526896988
ss(i__main__
State
p2882
(dp2883
g3
F-4.0
sg4
F7.0
sg5
F4.0
sg6
F0.0
sb(dp2884
I00
F91.34100515578193
sI01
F12.19717406958652
ss(i__main__
State
p2885
(dp2886
g3
F-4.0
sg4
F10.0
sg5
F4.0
sg6
F-2.0
sb(dp2887
I00
F65.6595826
sI01
F39.874266011
ss(i__main__
State
p2888
(dp2889
g3
F0.0
sg4
F3.0
sg5
F0.0
sg6
F8.0
sb(dp2890
I00
F-28.93995132092372
sI01
I-95
ss(i__main__
State
p2891
(dp2892
g3
F-3.0
sg4
F0.0
sg5
F3.0
sg6
F8.0
sb(dp2893
I00
F72.4941185
sI01
F72.77782696700001
ss(i__main__
State
p2894
(dp2895
g3
F8.0
sg4
F1.0
sg5
F-8.0
sg6
F-4.0
sb(dp2896
I00
F-27.8763335796924
sI01
F-77.1
ss(i__main__
State
p2897
(dp2898
g3
F-5.0
sg4
F4.0
sg5
F5.0
sg6
F-2.0
sb(dp2899
I00
F1.8000000000000007
sI01
F27.61
ss(i__main__
State
p2900
(dp2901
g3
F-6.0
sg4
F1.0
sg5
F6.0
sg6
F6.0
sb(dp2902
I00
F-53.66173
sI01
F-9.98343625
ss(i__main__
State
p2903
(dp2904
g3
F1.0
sg4
F4.0
sg5
F-1.0
sg6
F6.0
sb(dp2905
I00
I-52
sI01
F7.793956000000002
ss(i__main__
State
p2906
(dp2907
g3
F2.0
sg4
F10.0
sg5
F-2.0
sg6
F4.0
sb(dp2908
I00
F63.452582500000005
sI01
F10.025
ss(i__main__
State
p2909
(dp2910
g3
F-2.0
sg4
F2.0
sg5
F2.0
sg6
F6.0
sb(dp2911
I00
F-61.623376
sI01
F32.6440554906948
ss(i__main__
State
p2912
(dp2913
g3
F-7.0
sg4
F5.0
sg5
F7.0
sg6
F-6.0
sb(dp2914
I00
F30.233649648799997
sI01
F-10.80571
ss(i__main__
State
p2915
(dp2916
g3
F-3.0
sg4
F8.0
sg5
F3.0
sg6
F0.0
sb(dp2917
I00
F101.79983645442529
sI01
F26.7323064686
ss(i__main__
State
p2918
(dp2919
g3
F-5.0
sg4
F4.0
sg5
F5.0
sg6
F-4.0
sb(dp2920
I00
F75.299
sI01
F-60.05
ss(i__main__
State
p2921
(dp2922
g3
F5.0
sg4
F2.0
sg5
F-5.0
sg6
F2.0
sb(dp2923
I00
F-63.6
sI01
F43.322424000000005
ss(i__main__
State
p2924
(dp2925
g3
F3.0
sg4
F8.0
sg5
F-3.0
sg6
F6.0
sb(dp2926
I00
F0.0
sI01
F73.486745034663
ss(i__main__
State
p2927
(dp2928
g3
F-7.0
sg4
F0.0
sg5
F7.0
sg6
F0.0
sb(dp2929
I00
F66.46560000000001
sI01
F-0.8999999999999986
ss(i__main__
State
p2930
(dp2931
g3
F5.0
sg4
F3.0
sg5
F-5.0
sg6
F8.0
sb(dp2932
I00
I51
sI01
F91.22
ss(i__main__
State
p2933
(dp2934
g3
F-2.0
sg4
F5.0
sg5
F2.0
sg6
F0.0
sb(dp2935
I00
F30.2
sI01
I-73
ss(i__main__
State
p2936
(dp2937
g3
F2.0
sg4
F6.0
sg5
F-2.0
sg6
F0.0
sb(dp2938
I00
F70.3836505147606
sI01
F-17.9435486917224
ss(i__main__
State
p2939
(dp2940
g3
F-1.0
sg4
F10.0
sg5
F1.0
sg6
F-4.0
sb(dp2941
I00
F10.0
sI01
F38.009378
ss(i__main__
State
p2942
(dp2943
g3
F5.0
sg4
F0.0
sg5
F-5.0
sg6
F-4.0
sb(dp2944
I00
F-40.6
sI01
F51.132888
ss(i__main__
State
p2945
(dp2946
g3
F6.0
sg4
F3.0
sg5
F-6.0
sg6
F4.0
sb(dp2947
I00
F-29.5059571
sI01
I-2
ss(i__main__
State
p2948
(dp2949
g3
F-7.0
sg4
F3.0
sg5
F7.0
sg6
F-2.0
sb(dp2950
I00
F73.51633673375649
sI01
I34
ss(i__main__
State
p2951
(dp2952
g3
F2.0
sg4
F8.0
sg5
F-2.0
sg6
F-8.0
sb(dp2953
I00
F131.24720933617445
sI01
F12.223300000000002
ss(i__main__
State
p2954
(dp2955
g3
F-4.0
sg4
F9.0
sg5
F4.0
sg6
F-8.0
sb(dp2956
I00
F20.0
sI01
F60.764162281500006
ss(i__main__
State
p2957
(dp2958
g3
F7.0
sg4
F2.0
sg5
F-7.0
sg6
F-2.0
sb(dp2959
I00
F3.996450000000001
sI01
F-76.3
ss(i__main__
State
p2960
(dp2961
g3
F0.0
sg4
F8.0
sg5
F0.0
sg6
F6.0
sb(dp2962
I00
F-1899.0
sI01
F-1897.1
ss(i__main__
State
p2963
(dp2964
g3
F-8.0
sg4
F3.0
sg5
F8.0
sg6
F-2.0
sb(dp2965
I00
F23.759451781643293
sI01
F-71.96003099999999
ss(i__main__
State
p2966
(dp2967
g3
F3.0
sg4
F1.0
sg5
F-3.0
sg6
F4.0
sb(dp2968
I00
F26.090856800639965
sI01
F-1.3
ss(i__main__
State
p2969
(dp2970
g3
F4.0
sg4
F7.0
sg5
F-4.0
sg6
F-6.0
sb(dp2971
I00
F11.7
sI01
F81.00874602734437
ss(i__main__
State
p2972
(dp2973
g3
F7.0
sg4
F2.0
sg5
F-7.0
sg6
F4.0
sb(dp2974
I00
F-2.110000000000001
sI01
F28.677
ss(i__main__
State
p2975
(dp2976
g3
F2.0
sg4
F6.0
sg5
F-2.0
sg6
F-4.0
sb(dp2977
I00
F55.5
sI01
I-37
ss(i__main__
State
p2978
(dp2979
g3
F-8.0
sg4
F9.0
sg5
F8.0
sg6
F8.0
sb(dp2980
I00
F178.81270721428268
sI01
F72.60703951560882
ss(i__main__
State
p2981
(dp2982
g3
F1.0
sg4
F2.0
sg5
F-1.0
sg6
F6.0
sb(dp2983
I00
F15.722801376793955
sI01
F-81.41887999999999
ss(i__main__
State
p2984
(dp2985
g3
F-4.0
sg4
F10.0
sg5
F4.0
sg6
F8.0
sb(dp2986
I00
F135.9553475044881
sI01
F66.11554975077614
ss(i__main__
State
p2987
(dp2988
g3
F-8.0
sg4
F6.0
sg5
F8.0
sg6
F2.0
sb(dp2989
I00
F77.1866354899035
sI01
F-36.39176961502496
ss(i__main__
State
p2990
(dp2991
g3
F-3.0
sg4
F10.0
sg5
F3.0
sg6
F0.0
sb(dp2992
I00
F122.00894636278201
sI01
F42.484482392100006
ss(i__main__
State
p2993
(dp2994
g3
F-4.0
sg4
F10.0
sg5
F4.0
sg6
F-8.0
sb(dp2995
I00
F96.6785972151
sI01
F7.300000000000001
ss(i__main__
State
p2996
(dp2997
g3
F-3.0
sg4
F6.0
sg5
F3.0
sg6
F-4.0
sb(dp2998
I00
I-68
sI01
F-32.23
ss(i__main__
State
p2999
(dp3000
g3
F7.0
sg4
F4.0
sg5
F-7.0
sg6
F4.0
sb(dp3001
I00
F31.58992388134405
sI01
F86.4
ss(i__main__
State
p3002
(dp3003
g3
F5.0
sg4
F8.0
sg5
F-5.0
sg6
F0.0
sb(dp3004
I00
F200.385267564432
sI01
F24.048017106115
ss(i__main__
State
p3005
(dp3006
g3
F0.0
sg4
F9.0
sg5
F0.0
sg6
F8.0
sb(dp3007
I00
F43.866742
sI01
F198.73163696585826
ss(i__main__
State
p3008
(dp3009
g3
F-6.0
sg4
F4.0
sg5
F6.0
sg6
F-2.0
sb(dp3010
I00
F-37.2
sI01
F50.809846000478
ss(i__main__
State
p3011
(dp3012
g3
F8.0
sg4
F6.0
sg5
F-8.0
sg6
F0.0
sb(dp3013
I00
I-60
sI01
F31.967777310000002
ss(i__main__
State
p3014
(dp3015
g3
F-5.0
sg4
F1.0
sg5
F5.0
sg6
F-4.0
sb(dp3016
I00
F41.650000000000006
sI01
F53.34759999999999
ss(i__main__
State
p3017
(dp3018
g3
F-6.0
sg4
F6.0
sg5
F6.0
sg6
F2.0
sb(dp3019
I00
F-9.09561989254924
sI01
I-37
ss(i__main__
State
p3020
(dp3021
g3
F-7.0
sg4
F0.0
sg5
F7.0
sg6
F-6.0
sb(dp3022
I00
F83.33143786747999
sI01
I-77
ss(i__main__
State
p3023
(dp3024
g3
F5.0
sg4
F10.0
sg5
F-5.0
sg6
F8.0
sb(dp3025
I00
F10.0
sI01
F0.0
ss(i__main__
State
p3026
(dp3027
g3
F2.0
sg4
F10.0
sg5
F-2.0
sg6
F-8.0
sb(dp3028
I00
F10.0
sI01
F35.56906000000001
ss(i__main__
State
p3029
(dp3030
g3
F-1.0
sg4
F0.0
sg5
F1.0
sg6
F2.0
sb(dp3031
I00
F-1.9215974
sI01
F45.19616897622038
ss(i__main__
State
p3032
(dp3033
g3
F1.0
sg4
F0.0
sg5
F-1.0
sg6
F-8.0
sb(dp3034
I00
F-17.9833
sI01
F54.930711190579714
ss(i__main__
State
p3035
(dp3036
g3
F-7.0
sg4
F7.0
sg5
F7.0
sg6
F6.0
sb(dp3037
I00
I-94
sI01
F-47.1198
ss(i__main__
State
p3038
(dp3039
g3
F5.0
sg4
F4.0
sg5
F-5.0
sg6
F6.0
sb(dp3040
I00
I-78
sI01
F8.506211964509443
ss(i__main__
State
p3041
(dp3042
g3
F4.0
sg4
F4.0
sg5
F-4.0
sg6
F-2.0
sb(dp3043
I00
F2.6219
sI01
F-41.3
ss(i__main__
State
p3044
(dp3045
g3
F1.0
sg4
F5.0
sg5
F-1.0
sg6
F8.0
sb(dp3046
I00
F-72.48843
sI01
F34.58475612
ss(i__main__
State
p3047
(dp3048
g3
F0.0
sg4
F7.0
sg5
F0.0
sg6
F-2.0
sb(dp3049
I00
F42.00756291270207
sI01
F21.68299718699724
ss(i__main__
State
p3050
(dp3051
g3
F7.0
sg4
F5.0
sg5
F-7.0
sg6
F-4.0
sb(dp3052
I00
F80.04
sI01
F-23.9
ss(i__main__
State
p3053
(dp3054
g3
F-8.0
sg4
F10.0
sg5
F8.0
sg6
F-8.0
sb(dp3055
I00
F39.6911537158073
sI01
F0.0
ss(i__main__
State
p3056
(dp3057
g3
F-5.0
sg4
F6.0
sg5
F5.0
sg6
F-2.0
sb(dp3058
I00
I-41
sI01
F36.21334
ss(i__main__
State
p3059
(dp3060
g3
F3.0
sg4
F7.0
sg5
F-3.0
sg6
F2.0
sb(dp3061
I00
F-23.7
sI01
F129.3570886963406
ss(i__main__
State
p3062
(dp3063
g3
F4.0
sg4
F7.0
sg5
F-4.0
sg6
F2.0
sb(dp3064
I00
F-27.53
sI01
F-10.8
ss(i__main__
State
p3065
(dp3066
g3
F-4.0
sg4
F0.0
sg5
F4.0
sg6
F6.0
sb(dp3067
I00
F-22.5357
sI01
F79.6343162
ss(i__main__
State
p3068
(dp3069
g3
F-7.0
sg4
F1.0
sg5
F7.0
sg6
F8.0
sb(dp3070
I00
F38.011514
sI01
F-63.6407156269
ss(i__main__
State
p3071
(dp3072
g3
F-2.0
sg4
F0.0
sg5
F2.0
sg6
F-4.0
sb(dp3073
I00
I11
sI01
F20.77168
ss(i__main__
State
p3074
(dp3075
g3
F-5.0
sg4
F7.0
sg5
F5.0
sg6
F-8.0
sb(dp3076
I00
I-7
sI01
F37.1
ss(i__main__
State
p3077
(dp3078
g3
F2.0
sg4
F9.0
sg5
F-2.0
sg6
F4.0
sb(dp3079
I00
F49.2991609826517
sI01
F0.0
ss(i__main__
State
p3080
(dp3081
g3
F8.0
sg4
F0.0
sg5
F-8.0
sg6
F0.0
sb(dp3082
I00
F5.9
sI01
F20.995504732051586
ss(i__main__
State
p3083
(dp3084
g3
F-2.0
sg4
F8.0
sg5
F2.0
sg6
F0.0
sb(dp3085
I00
F42.66844852502766
sI01
F12.999400000000001
ss(i__main__
State
p3086
(dp3087
g3
F-5.0
sg4
F3.0
sg5
F5.0
sg6
F-4.0
sb(dp3088
I00
I-87
sI01
F62.31324458433066
ss(i__main__
State
p3089
(dp3090
g3
F-6.0
sg4
F0.0
sg5
F6.0
sg6
F6.0
sb(dp3091
I00
F-13.9
sI01
F34.9843514
ss(i__main__
State
p3092
(dp3093
g3
F-6.0
sg4
F1.0
sg5
F6.0
sg6
F2.0
sb(dp3094
I00
F42.5861826424655
sI01
I-67
ss(i__main__
State
p3095
(dp3096
g3
F2.0
sg4
F4.0
sg5
F-2.0
sg6
F-2.0
sb(dp3097
I00
I-62
sI01
F-8.981110000000001
ss(i__main__
State
p3098
(dp3099
g3
F-2.0
sg4
F1.0
sg5
F2.0
sg6
F8.0
sb(dp3100
I00
F51.087
sI01
I22
ss(i__main__
State
p3101
(dp3102
g3
F-4.0
sg4
F5.0
sg5
F4.0
sg6
F-6.0
sb(dp3103
I00
I83
sI01
F90.676
ss(i__main__
State
p3104
(dp3105
g3
F5.0
sg4
F8.0
sg5
F-5.0
sg6
F4.0
sb(dp3106
I00
F135.6668279774261
sI01
F0.0
ss(i__main__
State
p3107
(dp3108
g3
F2.0
sg4
F2.0
sg5
F-2.0
sg6
F8.0
sb(dp3109
I00
F39.024190399999995
sI01
I-31
ss(i__main__
State
p3110
(dp3111
g3
F-3.0
sg4
F5.0
sg5
F3.0
sg6
F6.0
sb(dp3112
I00
F-46.3
sI01
F35.417275760288426
ss(i__main__
State
p3113
(dp3114
g3
F8.0
sg4
F10.0
sg5
F-8.0
sg6
F8.0
sb(dp3115
I00
F60.7319022
sI01
F19.3809
ss(i__main__
State
p3116
(dp3117
g3
F-5.0
sg4
F2.0
sg5
F5.0
sg6
F6.0
sb(dp3118
I00
F22.7687911756167
sI01
F-1.3603635569999977
ss(i__main__
State
p3119
(dp3120
g3
F2.0
sg4
F5.0
sg5
F-2.0
sg6
F8.0
sb(dp3121
I00
F-35.39
sI01
F20.753106973862863
ss(i__main__
State
p3122
(dp3123
g3
F-7.0
sg4
F9.0
sg5
F7.0
sg6
F4.0
sb(dp3124
I00
F40.188193
sI01
F0.0
ss(i__main__
State
p3125
(dp3126
g3
F0.0
sg4
F1.0
sg5
F0.0
sg6
F2.0
sb(dp3127
I00
F-31.3845006155613
sI01
F17.826663027276606
ss(i__main__
State
p3128
(dp3129
g3
F1.0
sg4
F3.0
sg5
F-1.0
sg6
F4.0
sb(dp3130
I00
F30.3
sI01
I-27
ss(i__main__
State
p3131
(dp3132
g3
F-7.0
sg4
F2.0
sg5
F7.0
sg6
F-4.0
sb(dp3133
I00
F58.432140347345516
sI01
F56.366099
ss(i__main__
State
p3134
(dp3135
g3
F-5.0
sg4
F1.0
sg5
F5.0
sg6
F-6.0
sb(dp3136
I00
F3.9699999999999998
sI01
F65.31757819913626
ss(i__main__
State
p3137
(dp3138
g3
F3.0
sg4
F0.0
sg5
F-3.0
sg6
F2.0
sb(dp3139
I00
F-2.799999999999999
sI01
F3.298002365479508
ss(i__main__
State
p3140
(dp3141
g3
F-1.0
sg4
F7.0
sg5
F1.0
sg6
F6.0
sb(dp3142
I00
F-47.29953251581
sI01
F86.58129303144631
ss(i__main__
State
p3143
(dp3144
g3
F6.0
sg4
F4.0
sg5
F-6.0
sg6
F8.0
sb(dp3145
I00
F68.05000000000001
sI01
I-87
ss(i__main__
State
p3146
(dp3147
g3
F-2.0
sg4
F9.0
sg5
F2.0
sg6
F-4.0
sb(dp3148
I00
F37.968
sI01
F0.0
ss(i__main__
State
p3149
(dp3150
g3
F-5.0
sg4
F4.0
sg5
F5.0
sg6
F8.0
sb(dp3151
I00
F78.661914
sI01
F-83.00147731048
ss(i__main__
State
p3152
(dp3153
g3
F-6.0
sg4
F5.0
sg5
F6.0
sg6
F2.0
sb(dp3154
I00
F31.9
sI01
F51.5804768635964
ss(i__main__
State
p3155
(dp3156
g3
F6.0
sg4
F2.0
sg5
F-6.0
sg6
F2.0
sb(dp3157
I00
F0.2786141604569078
sI01
F-79.76937
ss(i__main__
State
p3158
(dp3159
g3
F-3.0
sg4
F6.0
sg5
F3.0
sg6
F-6.0
sb(dp3160
I00
F9.09004
sI01
F81.25481038999999
ss(i__main__
State
p3161
(dp3162
g3
F-7.0
sg4
F1.0
sg5
F7.0
sg6
F-2.0
sb(dp3163
I00
F59.0027
sI01
I-22
ss(i__main__
State
p3164
(dp3165
g3
F-3.0
sg4
F9.0
sg5
F3.0
sg6
F-4.0
sb(dp3166
I00
F55.77885593
sI01
F25.819990000000004
ss(i__main__
State
p3167
(dp3168
g3
F-5.0
sg4
F0.0
sg5
F5.0
sg6
F-8.0
sb(dp3169
I00
F81.83324846199329
sI01
I67
ss(i__main__
State
p3170
(dp3171
g3
F6.0
sg4
F3.0
sg5
F-6.0
sg6
F0.0
sb(dp3172
I00
I-64
sI01
F9.8
ss(i__main__
State
p3173
(dp3174
g3
F0.0
sg4
F2.0
sg5
F0.0
sg6
F0.0
sb(dp3175
I00
F46.476227786188
sI01
I-35
ss(i__main__
State
p3176
(dp3177
g3
F-4.0
sg4
F9.0
sg5
F4.0
sg6
F-4.0
sb(dp3178
I00
F63.291140661979995
sI01
F54.445533507930605
ss(i__main__
State
p3179
(dp3180
g3
F-7.0
sg4
F4.0
sg5
F7.0
sg6
F4.0
sb(dp3181
I00
I68
sI01
F81.61975435718
ss(i__main__
State
p3182
(dp3183
g3
F3.0
sg4
F2.0
sg5
F-3.0
sg6
F-4.0
sb(dp3184
I00
F-47.309802187
sI01
I-74
ss(i__main__
State
p3185
(dp3186
g3
F1.0
sg4
F8.0
sg5
F-1.0
sg6
F0.0
sb(dp3187
I00
F-680.108892145768
sI01
F102.34928096815601
ss(i__main__
State
p3188
(dp3189
g3
F6.0
sg4
F10.0
sg5
F-6.0
sg6
F-6.0
sb(dp3190
I00
F22.0
sI01
F59.86792
ss(i__main__
State
p3191
(dp3192
g3
F-5.0
sg4
F6.0
sg5
F5.0
sg6
F4.0
sb(dp3193
I00
F76.79717450368146
sI01
I-56
ss(i__main__
State
p3194
(dp3195
g3
F-8.0
sg4
F3.0
sg5
F8.0
sg6
F-6.0
sb(dp3196
I00
F59.634699327506
sI01
I-50
ss(i__main__
State
p3197
(dp3198
g3
F0.0
sg4
F3.0
sg5
F0.0
sg6
F2.0
sb(dp3199
I00
F33.028073497324
sI01
I-91
ss(i__main__
State
p3200
(dp3201
g3
F6.0
sg4
F7.0
sg5
F-6.0
sg6
F0.0
sb(dp3202
I00
F41.3914613692798
sI01
I-39
ss(i__main__
State
p3203
(dp3204
g3
F1.0
sg4
F1.0
sg5
F-1.0
sg6
F0.0
sb(dp3205
I00
F10.955565906174263
sI01
F-25.69444550270742
ss(i__main__
State
p3206
(dp3207
g3
F4.0
sg4
F4.0
sg5
F-4.0
sg6
F4.0
sb(dp3208
I00
F42.7902
sI01
I-89
ss(i__main__
State
p3209
(dp3210
g3
F-8.0
sg4
F5.0
sg5
F8.0
sg6
F4.0
sb(dp3211
I00
I-74
sI01
F-28.300534075869997
ss(i__main__
State
p3212
(dp3213
g3
F-1.0
sg4
F1.0
sg5
F1.0
sg6
F-2.0
sb(dp3214
I00
F-46.441891602
sI01
F-2.4412571999999964
ss(i__main__
State
p3215
(dp3216
g3
F4.0
sg4
F1.0
sg5
F-4.0
sg6
F0.0
sb(dp3217
I00
F-9.896674780810912
sI01
I-58
ss(i__main__
State
p3218
(dp3219
g3
F-1.0
sg4
F5.0
sg5
F1.0
sg6
F6.0
sb(dp3220
I00
F43.91095368
sI01
F-28.4
ss(i__main__
State
p3221
(dp3222
g3
F2.0
sg4
F10.0
sg5
F-2.0
sg6
F2.0
sb(dp3223
I00
F195.6923863266337
sI01
F48.685
ss(i__main__
State
p3224
(dp3225
g3
F4.0
sg4
F3.0
sg5
F-4.0
sg6
F-2.0
sb(dp3226
I00
F53.99387701126417
sI01
I-40
ss(i__main__
State
p3227
(dp3228
g3
F-2.0
sg4
F7.0
sg5
F2.0
sg6
F4.0
sb(dp3229
I00
F66.30911185000001
sI01
I-4
ss(i__main__
State
p3230
(dp3231
g3
F4.0
sg4
F8.0
sg5
F-4.0
sg6
F6.0
sb(dp3232
I00
F110.6135717813294
sI01
F52.65352063017519
ss(i__main__
State
p3233
(dp3234
g3
F-3.0
sg4
F3.0
sg5
F3.0
sg6
F-6.0
sb(dp3235
I00
F-28.093
sI01
F-67.41127
ss(i__main__
State
p3236
(dp3237
g3
F1.0
sg4
F9.0
sg5
F-1.0
sg6
F-2.0
sb(dp3238
I00
F-1479.5704170066
sI01
F-1735.7482837632074
ss(i__main__
State
p3239
(dp3240
g3
F3.0
sg4
F6.0
sg5
F-3.0
sg6
F4.0
sb(dp3241
I00
F40.13237627348279
sI01
F-8.1
ss(i__main__
State
p3242
(dp3243
g3
F3.0
sg4
F9.0
sg5
F-3.0
sg6
F2.0
sb(dp3244
I00
F31.904710151838103
sI01
F14.194341550000003
ss(i__main__
State
p3245
(dp3246
g3
F-3.0
sg4
F2.0
sg5
F3.0
sg6
F0.0
sb(dp3247
I00
F83.47522799999999
sI01
F-13.83576287
ss(i__main__
State
p3248
(dp3249
g3
F-6.0
sg4
F0.0
sg5
F6.0
sg6
F-6.0
sb(dp3250
I00
I38
sI01
F42.37209846560775
ss(i__main__
State
p3251
(dp3252
g3
F6.0
sg4
F8.0
sg5
F-6.0
sg6
F6.0
sb(dp3253
I00
F62.19311485280001
sI01
F21.9
ss(i__main__
State
p3254
(dp3255
g3
F2.0
sg4
F6.0
sg5
F-2.0
sg6
F6.0
sb(dp3256
I00
F13.527037324356828
sI01
F-19.4
ss(i__main__
State
p3257
(dp3258
g3
F6.0
sg4
F2.0
sg5
F-6.0
sg6
F4.0
sb(dp3259
I00
F-60.730000000000004
sI01
F17.879027761427558
ss(i__main__
State
p3260
(dp3261
g3
F-7.0
sg4
F4.0
sg5
F7.0
sg6
F-4.0
sb(dp3262
I00
I89
sI01
F-22.145337015
ss(i__main__
State
p3263
(dp3264
g3
F-7.0
sg4
F1.0
sg5
F7.0
sg6
F4.0
sb(dp3265
I00
F37.95
sI01
F70.9861341197752
ss(i__main__
State
p3266
(dp3267
g3
F7.0
sg4
F2.0
sg5
F-7.0
sg6
F2.0
sb(dp3268
I00
F-11.629524293857243
sI01
F-86.6
ss(i__main__
State
p3269
(dp3270
g3
F-7.0
sg4
F9.0
sg5
F7.0
sg6
F-8.0
sb(dp3271
I00
F150.89863056873864
sI01
F36.51937144869265
ss(i__main__
State
p3272
(dp3273
g3
F2.0
sg4
F1.0
sg5
F-2.0
sg6
F0.0
sb(dp3274
I00
F72.86
sI01
I-3
ss(i__main__
State
p3275
(dp3276
g3
F4.0
sg4
F0.0
sg5
F-4.0
sg6
F-6.0
sb(dp3277
I00
F41.53478380129987
sI01
F-12.75455884
ss(i__main__
State
p3278
(dp3279
g3
F0.0
sg4
F8.0
sg5
F0.0
sg6
F0.0
sb(dp3280
I00
F-4669.73644
sI01
F-5177.720042061985
ss(i__main__
State
p3281
(dp3282
g3
F8.0
sg4
F9.0
sg5
F-8.0
sg6
F0.0
sb(dp3283
I00
F-1899.0
sI01
F-1896.268
ss(i__main__
State
p3284
(dp3285
g3
F-8.0
sg4
F3.0
sg5
F8.0
sg6
F-8.0
sb(dp3286
I00
F51.747237670850005
sI01
I14
ss(i__main__
State
p3287
(dp3288
g3
F5.0
sg4
F8.0
sg5
F-5.0
sg6
F-6.0
sb(dp3289
I00
F109.88872784789696
sI01
F11.990000000000002
ss(i__main__
State
p3290
(dp3291
g3
F7.0
sg4
F1.0
sg5
F-7.0
sg6
F-8.0
sb(dp3292
I00
F70.71
sI01
I-8
ss(i__main__
State
p3293
(dp3294
g3
F3.0
sg4
F9.0
sg5
F-3.0
sg6
F-2.0
sb(dp3295
I00
F-80.81
sI01
F26.150381769000003
ss(i__main__
State
p3296
(dp3297
g3
F-1.0
sg4
F3.0
sg5
F1.0
sg6
F-6.0
sb(dp3298
I00
F39.345697210000004
sI01
F7.365
ss(i__main__
State
p3299
(dp3300
g3
F-3.0
sg4
F0.0
sg5
F3.0
sg6
F-2.0
sb(dp3301
I00
F18.34
sI01
F66.98502
ss(i__main__
State
p3302
(dp3303
g3
F6.0
sg4
F10.0
sg5
F-6.0
sg6
F-4.0
sb(dp3304
I00
F11.3686
sI01
F54.947937974957156
ss(i__main__
State
p3305
(dp3306
g3
F1.0
sg4
F2.0
sg5
F-1.0
sg6
F0.0
sb(dp3307
I00
F43.212080541405825
sI01
I-34
ss(i__main__
State
p3308
(dp3309
g3
F8.0
sg4
F10.0
sg5
F-8.0
sg6
F4.0
sb(dp3310
I00
F176.2855501786329
sI01
F49.64131317563914
ss(i__main__
State
p3311
(dp3312
g3
F-5.0
sg4
F9.0
sg5
F5.0
sg6
F0.0
sb(dp3313
I00
F-999.0
sI01
F-1893.3000000000002
ss(i__main__
State
p3314
(dp3315
g3
F4.0
sg4
F2.0
sg5
F-4.0
sg6
F-6.0
sb(dp3316
I00
F-20.2
sI01
F1.4000000000000004
ss(i__main__
State
p3317
(dp3318
g3
F0.0
sg4
F9.0
sg5
F0.0
sg6
F6.0
sb(dp3319
I00
F101.76074304403402
sI01
F27.739866380000002
ss(i__main__
State
p3320
(dp3321
g3
F-5.0
sg4
F3.0
sg5
F5.0
sg6
F6.0
sb(dp3322
I00
F53.78992573476509
sI01
F20.1
ss(i__main__
State
p3323
(dp3324
g3
F-6.0
sg4
F10.0
sg5
F6.0
sg6
F4.0
sb(dp3325
I00
F115.2085529311
sI01
F33.139611
ss(i__main__
State
p3326
(dp3327
g3
F-6.0
sg4
F3.0
sg5
F6.0
sg6
F8.0
sb(dp3328
I00
F41.17049467934264
sI01
F-51.68
ss(i__main__
State
p3329
(dp3330
g3
F-6.0
sg4
F6.0
sg5
F6.0
sg6
F-6.0
sb(dp3331
I00
F49.5864
sI01
I47
ss(i__main__
State
p3332
(dp3333
g3
F-2.0
sg4
F3.0
sg5
F2.0
sg6
F2.0
sb(dp3334
I00
I-93
sI01
F32.274121
ss(i__main__
State
p3335
(dp3336
g3
F1.0
sg4
F0.0
sg5
F-1.0
sg6
F-2.0
sb(dp3337
I00
F42.34702604450037
sI01
I22
ss(i__main__
State
p3338
(dp3339
g3
F8.0
sg4
F5.0
sg5
F-8.0
sg6
F-8.0
sb(dp3340
I00
I-10
sI01
F42.135703189230775
ss(i__main__
State
p3341
(dp3342
g3
F-6.0
sg4
F4.0
sg5
F6.0
sg6
F2.0
sb(dp3343
I00
F90.667773024
sI01
F-5.349922875653519
ss(i__main__
State
p3344
(dp3345
g3
F-3.0
sg4
F7.0
sg5
F3.0
sg6
F-4.0
sb(dp3346
I00
F-23.86222
sI01
I-63
ss(i__main__
State
p3347
(dp3348
g3
F-5.0
sg4
F2.0
sg5
F5.0
sg6
F8.0
sb(dp3349
I00
F62.934787502196
sI01
I-94
ss(i__main__
State
p3350
(dp3351
g3
F-5.0
sg4
F7.0
sg5
F5.0
sg6
F4.0
sb(dp3352
I00
F14.452433190999997
sI01
F-10.8
ss(i__main__
State
p3353
(dp3354
g3
F-6.0
sg4
F5.0
sg5
F6.0
sg6
F6.0
sb(dp3355
I00
F21.598996590331446
sI01
F21.949926391412486
ss(i__main__
State
p3356
(dp3357
g3
F0.0
sg4
F10.0
sg5
F0.0
sg6
F-4.0
sb(dp3358
I00
F-1894.8072338799998
sI01
F0.0
ss(i__main__
State
p3359
(dp3360
g3
F2.0
sg4
F7.0
sg5
F-2.0
sg6
F-4.0
sb(dp3361
I00
F-78.27610000000001
sI01
F-333.93798416213605
ss(i__main__
State
p3362
(dp3363
g3
F-4.0
sg4
F3.0
sg5
F4.0
sg6
F-8.0
sb(dp3364
I00
F-7.643928419818
sI01
F-69.11035516888745
ss(i__main__
State
p3365
(dp3366
g3
F2.0
sg4
F7.0
sg5
F-2.0
sg6
F6.0
sb(dp3367
I00
F-3.2
sI01
I-10
ss(i__main__
State
p3368
(dp3369
g3
F5.0
sg4
F0.0
sg5
F-5.0
sg6
F-2.0
sb(dp3370
I00
I-34
sI01
F-3.6635637938213894
ss(i__main__
State
p3371
(dp3372
g3
F3.0
sg4
F3.0
sg5
F-3.0
sg6
F-8.0
sb(dp3373
I00
I-23
sI01
F-6.240155133219999
ss(i__main__
State
p3374
(dp3375
g3
F8.0
sg4
F1.0
sg5
F-8.0
sg6
F-6.0
sb(dp3376
I00
F50.31838575
sI01
I48
ss(i__main__
State
p3377
(dp3378
g3
F-2.0
sg4
F3.0
sg5
F2.0
sg6
F-8.0
sb(dp3379
I00
I-37
sI01
F-1.1999999999999993
ss(i__main__
State
p3380
(dp3381
g3
F-6.0
sg4
F4.0
sg5
F6.0
sg6
F-4.0
sb(dp3382
I00
F-27.0
sI01
F14.907344825865671
ss(i__main__
State
p3383
(dp3384
g3
F5.0
sg4
F1.0
sg5
F-5.0
sg6
F2.0
sb(dp3385
I00
F64.90076466461512
sI01
F-18.0
ss(i__main__
State
p3386
(dp3387
g3
F5.0
sg4
F6.0
sg5
F-5.0
sg6
F0.0
sb(dp3388
I00
F29.448350117376663
sI01
F-45.3
ss(i__main__
State
p3389
(dp3390
g3
F-4.0
sg4
F4.0
sg5
F4.0
sg6
F-8.0
sb(dp3391
I00
F38.438244547182855
sI01
F-41.97825
ss(i__main__
State
p3392
(dp3393
g3
F-5.0
sg4
F8.0
sg5
F5.0
sg6
F-8.0
sb(dp3394
I00
F75.20203396800001
sI01
F35.715964729026666
ss(i__main__
State
p3395
(dp3396
g3
F7.0
sg4
F5.0
sg5
F-7.0
sg6
F8.0
sb(dp3397
I00
F97.22999999999999
sI01
I-4
ss(i__main__
State
p3398
(dp3399
g3
F0.0
sg4
F9.0
sg5
F0.0
sg6
F-4.0
sb(dp3400
I00
F173.42559463418965
sI01
F34.332855628000004
ss(i__main__
State
p3401
(dp3402
g3
F0.0
sg4
F6.0
sg5
F0.0
sg6
F-8.0
sb(dp3403
I00
I-43
sI01
F24.944753814704587
ss(i__main__
State
p3404
(dp3405
g3
F-1.0
sg4
F1.0
sg5
F1.0
sg6
F8.0
sb(dp3406
I00
I26
sI01
F76.6639672047658
ss(i__main__
State
p3407
(dp3408
g3
F-3.0
sg4
F10.0
sg5
F3.0
sg6
F-2.0
sb(dp3409
I00
F148.924654797611
sI01
F33.278000000000006
ss(i__main__
State
p3410
(dp3411
g3
F6.0
sg4
F7.0
sg5
F-6.0
sg6
F4.0
sb(dp3412
I00
I-53
sI01
F71.075337026093
ss(i__main__
State
p3413
(dp3414
g3
F8.0
sg4
F0.0
sg5
F-8.0
sg6
F-8.0
sb(dp3415
I00
F60.93777
sI01
F-88.32
ss(i__main__
State
p3416
(dp3417
g3
F3.0
sg4
F4.0
sg5
F-3.0
sg6
F-8.0
sb(dp3418
I00
F50.60700731000001
sI01
F-31.6
ss(i__main__
State
p3419
(dp3420
g3
F-7.0
sg4
F0.0
sg5
F7.0
sg6
F6.0
sb(dp3421
I00
F15.622
sI01
F26.72924186
ss(i__main__
State
p3422
(dp3423
g3
F-5.0
sg4
F1.0
sg5
F5.0
sg6
F6.0
sb(dp3424
I00
F56.70465925
sI01
I-5
ss(i__main__
State
p3425
(dp3426
g3
F-1.0
sg4
F9.0
sg5
F1.0
sg6
F-6.0
sb(dp3427
I00
F40.205000000000005
sI01
F169.5294770903817
ss(i__main__
State
p3428
(dp3429
g3
F2.0
sg4
F4.0
sg5
F-2.0
sg6
F-8.0
sb(dp3430
I00
F41.53363877196943
sI01
F36.90599745566435
ss(i__main__
State
p3431
(dp3432
g3
F2.0
sg4
F2.0
sg5
F-2.0
sg6
F6.0
sb(dp3433
I00
F-24.6
sI01
F15.352802447200002
ss(i__main__
State
p3434
(dp3435
g3
F-3.0
sg4
F1.0
sg5
F3.0
sg6
F-6.0
sb(dp3436
I00
F32.12260860864699
sI01
F27.176480776564787
ss(i__main__
State
p3437
(dp3438
g3
F0.0
sg4
F1.0
sg5
F0.0
sg6
F8.0
sb(dp3439
I00
F38.1
sI01
F59.06580733899022
ss(i__main__
State
p3440
(dp3441
g3
F1.0
sg4
F3.0
sg5
F-1.0
sg6
F0.0
sb(dp3442
I00
F1.9000000000000004
sI01
I-61
ss(i__main__
State
p3443
(dp3444
g3
F5.0
sg4
F4.0
sg5
F-5.0
sg6
F-4.0
sb(dp3445
I00
F-15.3394
sI01
I-92
ss(i__main__
State
p3446
(dp3447
g3
F2.0
sg4
F1.0
sg5
F-2.0
sg6
F-6.0
sb(dp3448
I00
I-69
sI01
F66.9
ss(i__main__
State
p3449
(dp3450
g3
F-5.0
sg4
F3.0
sg5
F5.0
sg6
F0.0
sb(dp3451
I00
F30.44137605185
sI01
F-61.054289999999995
ss(i__main__
State
p3452
(dp3453
g3
F3.0
sg4
F4.0
sg5
F-3.0
sg6
F0.0
sb(dp3454
I00
I-1
sI01
F58.6601
ss(i__main__
State
p3455
(dp3456
g3
F7.0
sg4
F2.0
sg5
F-7.0
sg6
F-8.0
sb(dp3457
I00
F12.192190166472
sI01
I-75
ss(i__main__
State
p3458
(dp3459
g3
F-5.0
sg4
F2.0
sg5
F5.0
sg6
F2.0
sb(dp3460
I00
F-49.77367
sI01
I-94
ss(i__main__
State
p3461
(dp3462
g3
F-8.0
sg4
F8.0
sg5
F8.0
sg6
F8.0
sb(dp3463
I00
F51.141184075666295
sI01
F24.692365820100914
ss(i__main__
State
p3464
(dp3465
g3
F4.0
sg4
F5.0
sg5
F-4.0
sg6
F4.0
sb(dp3466
I00
F5.300000000000001
sI01
F49.39645820241747
ss(i__main__
State
p3467
(dp3468
g3
F4.0
sg4
F0.0
sg5
F-4.0
sg6
F-2.0
sb(dp3469
I00
F45.1
sI01
I37
ss(i__main__
State
p3470
(dp3471
g3
F-7.0
sg4
F3.0
sg5
F7.0
sg6
F4.0
sb(dp3472
I00
F-1.8000000000000007
sI01
F41.02603682815001
ss(i__main__
State
p3473
(dp3474
g3
F0.0
sg4
F2.0
sg5
F0.0
sg6
F6.0
sb(dp3475
I00
F49.369663239999994
sI01
I-62
ss(i__main__
State
p3476
(dp3477
g3
F-4.0
sg4
F3.0
sg5
F4.0
sg6
F0.0
sb(dp3478
I00
F74.98711944
sI01
I-54
ss(i__main__
State
p3479
(dp3480
g3
F5.0
sg4
F8.0
sg5
F-5.0
sg6
F-2.0
sb(dp3481
I00
F132.1182420570406
sI01
F-252.70000000000002
ss(i__main__
State
p3482
(dp3483
g3
F-7.0
sg4
F8.0
sg5
F7.0
sg6
F8.0
sb(dp3484
I00
F32.58526963512006
sI01
F0.0
ss(i__main__
State
p3485
(dp3486
g3
F0.0
sg4
F4.0
sg5
F0.0
sg6
F-8.0
sb(dp3487
I00
F-30.2
sI01
F-20.196824402230927
ss(i__main__
State
p3488
(dp3489
g3
F6.0
sg4
F9.0
sg5
F-6.0
sg6
F-4.0
sb(dp3490
I00
F155.4603808705166
sI01
F22.14437550504728
ss(i__main__
State
p3491
(dp3492
g3
F8.0
sg4
F9.0
sg5
F-8.0
sg6
F4.0
sb(dp3493
I00
F84.49038298315651
sI01
F0.0
ss(i__main__
State
p3494
(dp3495
g3
F3.0
sg4
F8.0
sg5
F-3.0
sg6
F-2.0
sb(dp3496
I00
F123.22893140401956
sI01
F-81.0
ss(i__main__
State
p3497
(dp3498
g3
F4.0
sg4
F8.0
sg5
F-4.0
sg6
F-2.0
sb(dp3499
I00
F23.251000000000005
sI01
F0.0
ss(i__main__
State
p3500
(dp3501
g3
F1.0
sg4
F8.0
sg5
F-1.0
sg6
F6.0
sb(dp3502
I00
F-162.72000000000003
sI01
F208.4561291476596
ss(i__main__
State
p3503
(dp3504
g3
F1.0
sg4
F7.0
sg5
F-1.0
sg6
F8.0
sb(dp3505
I00
I-32
sI01
F-338.38647368209
ss(i__main__
State
p3506
(dp3507
g3
F-7.0
sg4
F9.0
sg5
F7.0
sg6
F8.0
sb(dp3508
I00
F30.0
sI01
F0.0
ss(i__main__
State
p3509
(dp3510
g3
F-2.0
sg4
F7.0
sg5
F2.0
sg6
F-2.0
sb(dp3511
I00
I-63
sI01
F52.88616392943327
ss(i__main__
State
p3512
(dp3513
g3
F-6.0
sg4
F6.0
sg5
F6.0
sg6
F8.0
sb(dp3514
I00
I-42
sI01
F68.47403153
ss(i__main__
State
p3515
(dp3516
g3
F4.0
sg4
F3.0
sg5
F-4.0
sg6
F4.0
sb(dp3517
I00
F-33.4
sI01
F3.6362835948950005
ss(i__main__
State
p3518
(dp3519
g3
F-3.0
sg4
F8.0
sg5
F3.0
sg6
F-6.0
sb(dp3520
I00
F0.0
sI01
F85.29977856173879
ss(i__main__
State
p3521
(dp3522
g3
F8.0
sg4
F4.0
sg5
F-8.0
sg6
F4.0
sb(dp3523
I00
F-24.5
sI01
F-14.407117999999999
ss(i__main__
State
p3524
(dp3525
g3
F-1.0
sg4
F0.0
sg5
F1.0
sg6
F-6.0
sb(dp3526
I00
I-19
sI01
F23.852968559051202
ss(i__main__
State
p3527
(dp3528
g3
F-3.0
sg4
F8.0
sg5
F3.0
sg6
F6.0
sb(dp3529
I00
F49.51400000000001
sI01
F24.40398268050444
ss(i__main__
State
p3530
(dp3531
g3
F1.0
sg4
F5.0
sg5
F-1.0
sg6
F-4.0
sb(dp3532
I00
F48.893993585379995
sI01
F-53.07
ss(i__main__
State
p3533
(dp3534
g3
F-7.0
sg4
F5.0
sg5
F7.0
sg6
F0.0
sb(dp3535
I00
F-64.1
sI01
F52.208721830498845
ss(i__main__
State
p3536
(dp3537
g3
F7.0
sg4
F0.0
sg5
F-7.0
sg6
F0.0
sb(dp3538
I00
F1.6300000000000008
sI01
I-37
ss(i__main__
State
p3539
(dp3540
g3
F-2.0
sg4
F9.0
sg5
F2.0
sg6
F8.0
sb(dp3541
I00
F98.15490582662983
sI01
F11.0
ss(i__main__
State
p3542
(dp3543
g3
F3.0
sg4
F10.0
sg5
F-3.0
sg6
F6.0
sb(dp3544
I00
F31.22659263970452
sI01
F100.10794515969027
ss(i__main__
State
p3545
(dp3546
g3
F-1.0
sg4
F5.0
sg5
F1.0
sg6
F0.0
sb(dp3547
I00
F46.44402078556322
sI01
I16
ss(i__main__
State
p3548
(dp3549
g3
F2.0
sg4
F10.0
sg5
F-2.0
sg6
F8.0
sb(dp3550
I00
F42.96965929306724
sI01
F0.0
ss(i__main__
State
p3551
(dp3552
g3
F7.0
sg4
F7.0
sg5
F-7.0
sg6
F-6.0
sb(dp3553
I00
F63.829579998553996
sI01
I16
ss(i__main__
State
p3554
(dp3555
g3
F6.0
sg4
F6.0
sg5
F-6.0
sg6
F2.0
sb(dp3556
I00
I-20
sI01
F79.25769100000001
ss(i__main__
State
p3557
(dp3558
g3
F3.0
sg4
F7.0
sg5
F-3.0
sg6
F8.0
sb(dp3559
I00
F-12.06657
sI01
F63.41196410986576
ss(i__main__
State
p3560
(dp3561
g3
F-2.0
sg4
F4.0
sg5
F2.0
sg6
F0.0
sb(dp3562
I00
I-43
sI01
F-19.299999999999997
ss(i__main__
State
p3563
(dp3564
g3
F7.0
sg4
F8.0
sg5
F-7.0
sg6
F8.0
sb(dp3565
I00
F56.074886193564
sI01
F0.0
ss(i__main__
State
p3566
(dp3567
g3
F8.0
sg4
F2.0
sg5
F-8.0
sg6
F-8.0
sb(dp3568
I00
F44.7676597441
sI01
I-100
ss(i__main__
State
p3569
(dp3570
g3
F1.0
sg4
F8.0
sg5
F-1.0
sg6
F-6.0
sb(dp3571
I00
F-400.85900000000004
sI01
F140.48610415697556
ss(i__main__
State
p3572
(dp3573
g3
F-2.0
sg4
F0.0
sg5
F2.0
sg6
F4.0
sb(dp3574
I00
F-10.215974
sI01
F-75.2233394322775
ss(i__main__
State
p3575
(dp3576
g3
F-7.0
sg4
F7.0
sg5
F7.0
sg6
F-2.0
sb(dp3577
I00
I50
sI01
F25.3
ss(i__main__
State
p3578
(dp3579
g3
F5.0
sg4
F7.0
sg5
F-5.0
sg6
F6.0
sb(dp3580
I00
F31.016711169184294
sI01
I15
ss(i__main__
State
p3581
(dp3582
g3
F-8.0
sg4
F5.0
sg5
F8.0
sg6
F-6.0
sb(dp3583
I00
I-25
sI01
F-7.13
ss(i__main__
State
p3584
(dp3585
g3
F0.0
sg4
F4.0
sg5
F0.0
sg6
F6.0
sb(dp3586
I00
F-59.47437
sI01
I74
ss(i__main__
State
p3587
(dp3588
g3
F-6.0
sg4
F0.0
sg5
F6.0
sg6
F-4.0
sb(dp3589
I00
F80.37971410160999
sI01
F81.75
ss(i__main__
State
p3590
(dp3591
g3
F6.0
sg4
F1.0
sg5
F-6.0
sg6
F4.0
sb(dp3592
I00
F-17.09212
sI01
I-20
ss(i__main__
State
p3593
(dp3594
g3
F-4.0
sg4
F3.0
sg5
F4.0
sg6
F-4.0
sb(dp3595
I00
F12.75042886016254
sI01
F7.970000000000001
ss(i__main__
State
p3596
(dp3597
g3
F4.0
sg4
F6.0
sg5
F-4.0
sg6
F2.0
sb(dp3598
I00
F49.666285979108956
sI01
F-93.7
ss(i__main__
State
p3599
(dp3600
g3
F0.0
sg4
F2.0
sg5
F0.0
sg6
F-8.0
sb(dp3601
I00
F62.061249990357666
sI01
F12.773160121000004
ss(i__main__
State
p3602
(dp3603
g3
F-3.0
sg4
F6.0
sg5
F3.0
sg6
F2.0
sb(dp3604
I00
F-71.8749
sI01
F22.550686475694285
ss(i__main__
State
p3605
(dp3606
g3
F8.0
sg4
F1.0
sg5
F-8.0
sg6
F-2.0
sb(dp3607
I00
I3
sI01
F13.324336622979914
ss(i__main__
State
p3608
(dp3609
g3
F-6.0
sg4
F0.0
sg5
F6.0
sg6
F8.0
sb(dp3610
I00
F0.4382170000000003
sI01
F14.108142950000001
ss(i__main__
State
p3611
(dp3612
g3
F-6.0
sg4
F1.0
sg5
F6.0
sg6
F8.0
sb(dp3613
I00
F38.118886775
sI01
F-43.46
ss(i__main__
State
p3614
(dp3615
g3
F-1.0
sg4
F10.0
sg5
F1.0
sg6
F4.0
sb(dp3616
I00
F63.937970719000006
sI01
F12.8352
ss(i__main__
State
p3617
(dp3618
g3
F5.0
sg4
F5.0
sg5
F-5.0
sg6
F-8.0
sb(dp3619
I00
F-74.97
sI01
I1
ss(i__main__
State
p3620
(dp3621
g3
F-8.0
sg4
F4.0
sg5
F8.0
sg6
F6.0
sb(dp3622
I00
F-86.39
sI01
F47.267229011500014
ss(i__main__
State
p3623
(dp3624
g3
F2.0
sg4
F1.0
sg5
F-2.0
sg6
F6.0
sb(dp3625
I00
F28.06781762004138
sI01
F-30.75781988584067
ss(i__main__
State
p3626
(dp3627
g3
F0.0
sg4
F5.0
sg5
F0.0
sg6
F0.0
sb(dp3628
I00
F34.3
sI01
F96.31
ss(i__main__
State
p3629
(dp3630
g3
F1.0
sg4
F7.0
sg5
F-1.0
sg6
F-4.0
sb(dp3631
I00
F31.14495663264295
sI01
F-1112.4753926
ss(i__main__
State
p3632
(dp3633
g3
F5.0
sg4
F10.0
sg5
F-5.0
sg6
F-6.0
sb(dp3634
I00
F84.79063382369002
sI01
F45.36332710000001
ss(i__main__
State
p3635
(dp3636
g3
F-8.0
sg4
F5.0
sg5
F8.0
sg6
F-8.0
sb(dp3637
I00
F-8.3
sI01
I-59
ss(i__main__
State
p3638
(dp3639
g3
F5.0
sg4
F1.0
sg5
F-5.0
sg6
F-2.0
sb(dp3640
I00
F31.377574237929565
sI01
F25.983530000000002
ss(i__main__
State
p3641
(dp3642
g3
F8.0
sg4
F2.0
sg5
F-8.0
sg6
F0.0
sb(dp3643
I00
F-41.818650883000004
sI01
F-78.1
ss(i__main__
State
p3644
(dp3645
g3
F-7.0
sg4
F0.0
sg5
F7.0
sg6
F2.0
sb(dp3646
I00
F-31.069999999999997
sI01
F4.437617515636803
ss(i__main__
State
p3647
(dp3648
g3
F3.0
sg4
F0.0
sg5
F-3.0
sg6
F8.0
sb(dp3649
I00
F47.6999159789199
sI01
F-65.2
ss(i__main__
State
p3650
(dp3651
g3
F-6.0
sg4
F3.0
sg5
F6.0
sg6
F6.0
sb(dp3652
I00
F52.1520136
sI01
I-69
ss(i__main__
State
p3653
(dp3654
g3
F2.0
sg4
F0.0
sg5
F-2.0
sg6
F6.0
sb(dp3655
I00
F13.5
sI01
F26.025025385421962
ss(i__main__
State
p3656
(dp3657
g3
F-3.0
sg4
F3.0
sg5
F3.0
sg6
F8.0
sb(dp3658
I00
F-7.7227225097200005
sI01
F34.47203394462811
ss(i__main__
State
p3659
(dp3660
g3
F-2.0
sg4
F4.0
sg5
F2.0
sg6
F6.0
sb(dp3661
I00
F73.62674132337
sI01
F-75.5
ss(i__main__
State
p3662
(dp3663
g3
F-2.0
sg4
F5.0
sg5
F2.0
sg6
F2.0
sb(dp3664
I00
F46.30535912056635
sI01
F3.070366
ss(i__main__
State
p3665
(dp3666
g3
F-1.0
sg4
F6.0
sg5
F1.0
sg6
F0.0
sb(dp3667
I00
F38.34361168270227
sI01
F-65.5909726
ss(i__main__
State
p3668
(dp3669
g3
F5.0
sg4
F5.0
sg5
F-5.0
sg6
F6.0
sb(dp3670
I00
F36.96370771316377
sI01
F-87.65
ss(i__main__
State
p3671
(dp3672
g3
F6.0
sg4
F7.0
sg5
F-6.0
sg6
F-8.0
sb(dp3673
I00
F61.18213826411678
sI01
F56.18
ss(i__main__
State
p3674
(dp3675
g3
F0.0
sg4
F6.0
sg5
F0.0
sg6
F6.0
sb(dp3676
I00
I-50
sI01
F69.09699
ss(i__main__
State
p3677
(dp3678
g3
F-5.0
sg4
F9.0
sg5
F5.0
sg6
F8.0
sb(dp3679
I00
F134.36755318374952
sI01
F20.4603639
ss(i__main__
State
p3680
(dp3681
g3
F-4.0
sg4
F4.0
sg5
F4.0
sg6
F6.0
sb(dp3682
I00
F84.33578940000001
sI01
F60.1
ss(i__main__
State
p3683
(dp3684
g3
F-7.0
sg4
F6.0
sg5
F7.0
sg6
F4.0
sb(dp3685
I00
F22.20285656808004
sI01
F54.07546562576972
ss(i__main__
State
p3686
(dp3687
g3
F-5.0
sg4
F9.0
sg5
F5.0
sg6
F-8.0
sb(dp3688
I00
F21.422311
sI01
F32.0807791104423
ss(i__main__
State
p3689
(dp3690
g3
F3.0
sg4
F10.0
sg5
F-3.0
sg6
F2.0
sb(dp3691
I00
F61.54615670400001
sI01
F31.567999999999998
ss(i__main__
State
p3692
(dp3693
g3
F7.0
sg4
F2.0
sg5
F-7.0
sg6
F-4.0
sb(dp3694
I00
F-13.685090200000001
sI01
F45.168
ss(i__main__
State
p3695
(dp3696
g3
F7.0
sg4
F4.0
sg5
F-7.0
sg6
F2.0
sb(dp3697
I00
F49.73909447110235
sI01
F-2.5892873653971886
ss(i__main__
State
p3698
(dp3699
g3
F-5.0
sg4
F5.0
sg5
F5.0
sg6
F2.0
sb(dp3700
I00
F72.25389360999999
sI01
F-21.799999999999997
ss(i__main__
State
p3701
(dp3702
g3
F4.0
sg4
F7.0
sg5
F-4.0
sg6
F-8.0
sb(dp3703
I00
F37.80938191006807
sI01
F-35.2779545716
ss(i__main__
State
p3704
(dp3705
g3
F4.0
sg4
F9.0
sg5
F-4.0
sg6
F-8.0
sb(dp3706
I00
F0.0
sI01
F31.9
ss(i__main__
State
p3707
(dp3708
g3
F-8.0
sg4
F4.0
sg5
F8.0
sg6
F-4.0
sb(dp3709
I00
F50.25016381
sI01
F-9.1
ss(i__main__
State
p3710
(dp3711
g3
F5.0
sg4
F7.0
sg5
F-5.0
sg6
F-8.0
sb(dp3712
I00
F78.56456885853044
sI01
F37.78308309266001
ss(i__main__
State
p3713
(dp3714
g3
F-8.0
sg4
F10.0
sg5
F8.0
sg6
F0.0
sb(dp3715
I00
F74.999336558218
sI01
F0.0
ss(i__main__
State
p3716
(dp3717
g3
F-4.0
sg4
F3.0
sg5
F4.0
sg6
F4.0
sb(dp3718
I00
F53.10843466464405
sI01
I-64
ss(i__main__
State
p3719
(dp3720
g3
F-5.0
sg4
F8.0
sg5
F5.0
sg6
F-6.0
sb(dp3721
I00
F29.332252
sI01
F75.59050224200001
ss(i__main__
State
p3722
(dp3723
g3
F2.0
sg4
F7.0
sg5
F-2.0
sg6
F0.0
sb(dp3724
I00
F56.90554438422351
sI01
F34.67670363055225
ss(i__main__
State
p3725
(dp3726
g3
F0.0
sg4
F10.0
sg5
F0.0
sg6
F2.0
sb(dp3727
I00
F-4084.442637
sI01
F-3442.7023000000004
ss(i__main__
State
p3728
(dp3729
g3
F-8.0
sg4
F4.0
sg5
F8.0
sg6
F4.0
sb(dp3730
I00
F38.47911746122021
sI01
F60.28957833654736
ss(i__main__
State
p3731
(dp3732
g3
F6.0
sg4
F9.0
sg5
F-6.0
sg6
F-8.0
sb(dp3733
I00
F0.0
sI01
F99.77535669690002
ss(i__main__
State
p3734
(dp3735
g3
F7.0
sg4
F7.0
sg5
F-7.0
sg6
F4.0
sb(dp3736
I00
F-3.0204049926930967
sI01
F-25.640688514719997
ss(i__main__
State
p3737
(dp3738
g3
F-8.0
sg4
F0.0
sg5
F8.0
sg6
F-4.0
sb(dp3739
I00
F17.77
sI01
F37.63923426757504
ss(i__main__
State
p3740
(dp3741
g3
F8.0
sg4
F8.0
sg5
F-8.0
sg6
F-4.0
sb(dp3742
I00
F73.87241
sI01
F30.230478564081594
ss(i__main__
State
p3743
(dp3744
g3
F1.0
sg4
F0.0
sg5
F-1.0
sg6
F2.0
sb(dp3745
I00
F-40.4
sI01
F-28.643
ss(i__main__
State
p3746
(dp3747
g3
F8.0
sg4
F6.0
sg5
F-8.0
sg6
F2.0
sb(dp3748
I00
F-45.231387627428596
sI01
F50.623370695882265
ss(i__main__
State
p3749
(dp3750
g3
F-3.0
sg4
F9.0
sg5
F3.0
sg6
F6.0
sb(dp3751
I00
F40.01422311
sI01
F23.59553475044881
ss(i__main__
State
p3752
(dp3753
g3
F-6.0
sg4
F6.0
sg5
F6.0
sg6
F4.0
sb(dp3754
I00
I-88
sI01
F56.7
ss(i__main__
State
p3755
(dp3756
g3
F5.0
sg4
F5.0
sg5
F-5.0
sg6
F-2.0
sb(dp3757
I00
F34.6
sI01
I35
ss(i__main__
State
p3758
(dp3759
g3
F-4.0
sg4
F6.0
sg5
F4.0
sg6
F-4.0
sb(dp3760
I00
F-36.233779999999996
sI01
I-74
ss(i__main__
State
p3761
(dp3762
g3
F-6.0
sg4
F10.0
sg5
F6.0
sg6
F-6.0
sb(dp3763
I00
F155.1664578582689
sI01
F0.0
ss(i__main__
State
p3764
(dp3765
g3
F0.0
sg4
F9.0
sg5
F0.0
sg6
F-6.0
sb(dp3766
I00
F87.72248622384386
sI01
F39.124203
ss(i__main__
State
p3767
(dp3768
g3
F-7.0
sg4
F7.0
sg5
F7.0
sg6
F0.0
sb(dp3769
I00
F56.2987618
sI01
F11.081907176095614
ss(i__main__
State
p3770
(dp3771
g3
F4.0
sg4
F4.0
sg5
F-4.0
sg6
F-4.0
sb(dp3772
I00
F21.009999999999998
sI01
F23.855509397939226
ss(i__main__
State
p3773
(dp3774
g3
F-4.0
sg4
F0.0
sg5
F4.0
sg6
F0.0
sb(dp3775
I00
I9
sI01
F67.66953496000001
ss(i__main__
State
p3776
(dp3777
g3
F-1.0
sg4
F9.0
sg5
F1.0
sg6
F-4.0
sb(dp3778
I00
F99.8580007331744
sI01
F11.370000000000001
ss(i__main__
State
p3779
(dp3780
g3
F-2.0
sg4
F1.0
sg5
F2.0
sg6
F4.0
sb(dp3781
I00
F44.670735734981925
sI01
F-22.9
ss(i__main__
State
p3782
(dp3783
g3
F1.0
sg4
F2.0
sg5
F-1.0
sg6
F-4.0
sb(dp3784
I00
F58.8
sI01
F60.37
ss(i__main__
State
p3785
(dp3786
g3
F-5.0
sg4
F8.0
sg5
F5.0
sg6
F6.0
sb(dp3787
I00
F41.17201
sI01
F181.1722240317615
ss(i__main__
State
p3788
(dp3789
g3
F4.0
sg4
F8.0
sg5
F-4.0
sg6
F8.0
sb(dp3790
I00
F68.82885652003
sI01
F30.719104130886002
ss(i__main__
State
p3791
(dp3792
g3
F4.0
sg4
F7.0
sg5
F-4.0
sg6
F0.0
sb(dp3793
I00
F57.076482944625695
sI01
F-35.80041688207043
ss(i__main__
State
p3794
(dp3795
g3
F0.0
sg4
F8.0
sg5
F0.0
sg6
F-2.0
sb(dp3796
I00
F-4674.790300000001
sI01
F-5542.350512995999
ss(i__main__
State
p3797
(dp3798
g3
F3.0
sg4
F6.0
sg5
F-3.0
sg6
F-4.0
sb(dp3799
I00
F-52.6
sI01
F79.8718
ss(i__main__
State
p3800
(dp3801
g3
F6.0
sg4
F1.0
sg5
F-6.0
sg6
F0.0
sb(dp3802
I00
F25.2099462312528
sI01
F-46.7001
ss(i__main__
State
p3803
(dp3804
g3
F-8.0
sg4
F10.0
sg5
F8.0
sg6
F2.0
sb(dp3805
I00
F216.5269457005549
sI01
F28.33648
ss(i__main__
State
p3806
(dp3807
g3
F-6.0
sg4
F7.0
sg5
F6.0
sg6
F-6.0
sb(dp3808
I00
F-15.22413442269
sI01
I-81
ss(i__main__
State
p3809
(dp3810
g3
F-7.0
sg4
F2.0
sg5
F7.0
sg6
F-2.0
sb(dp3811
I00
F30.3832966111284
sI01
F-17.8
ss(i__main__
State
p3812
(dp3813
g3
F8.0
sg4
F1.0
sg5
F-8.0
sg6
F8.0
sb(dp3814
I00
I45
sI01
F77.2692935
ss(i__main__
State
p3815
(dp3816
g3
F8.0
sg4
F3.0
sg5
F-8.0
sg6
F8.0
sb(dp3817
I00
F13.5334
sI01
F-27.726
ss(i__main__
State
p3818
(dp3819
g3
F7.0
sg4
F3.0
sg5
F-7.0
sg6
F-2.0
sb(dp3820
I00
F-67.79
sI01
F10.981469937538003
ss(i__main__
State
p3821
(dp3822
g3
F6.0
sg4
F0.0
sg5
F-6.0
sg6
F4.0
sb(dp3823
I00
F24.876347117599998
sI01
F-25.163316
ss(i__main__
State
p3824
(dp3825
g3
F-7.0
sg4
F9.0
sg5
F7.0
sg6
F-6.0
sb(dp3826
I00
F53.40948
sI01
F0.0
ss(i__main__
State
p3827
(dp3828
g3
F7.0
sg4
F4.0
sg5
F-7.0
sg6
F0.0
sb(dp3829
I00
F52.06603487583255
sI01
F-79.6
ss(i__main__
State
p3830
(dp3831
g3
F5.0
sg4
F1.0
sg5
F-5.0
sg6
F-4.0
sb(dp3832
I00
I-1
sI01
F1.9712679999999994
ss(i__main__
State
p3833
(dp3834
g3
F-1.0
sg4
F2.0
sg5
F1.0
sg6
F8.0
sb(dp3835
I00
F3.307014574764965
sI01
F-86.4
ss(i__main__
State
p3836
(dp3837
g3
F3.0
sg4
F5.0
sg5
F-3.0
sg6
F0.0
sb(dp3838
I00
F16.3
sI01
I-28
ss(i__main__
State
p3839
(dp3840
g3
F-3.0
sg4
F5.0
sg5
F3.0
sg6
F4.0
sb(dp3841
I00
F-11.0
sI01
F59.586182581520056
ss(i__main__
State
p3842
(dp3843
g3
F-5.0
sg4
F6.0
sg5
F5.0
sg6
F8.0
sb(dp3844
I00
F-36.4
sI01
F33.482323769372414
ss(i__main__
State
p3845
(dp3846
g3
F6.0
sg4
F5.0
sg5
F-6.0
sg6
F0.0
sb(dp3847
I00
I-99
sI01
F-39.07701842462
ss(i__main__
State
p3848
(dp3849
g3
F-1.0
sg4
F9.0
sg5
F1.0
sg6
F6.0
sb(dp3850
I00
F58.36121618518396
sI01
F0.0
ss(i__main__
State
p3851
(dp3852
g3
F1.0
sg4
F7.0
sg5
F-1.0
sg6
F6.0
sb(dp3853
I00
F43.7
sI01
F-24.3
ss(i__main__
State
p3854
(dp3855
g3
F-6.0
sg4
F3.0
sg5
F6.0
sg6
F2.0
sb(dp3856
I00
F0.19504931500000477
sI01
I-100
ss(i__main__
State
p3857
(dp3858
g3
F1.0
sg4
F4.0
sg5
F-1.0
sg6
F-4.0
sb(dp3859
I00
F-35.269442
sI01
I-79
ss(i__main__
State
p3860
(dp3861
g3
F-2.0
sg4
F9.0
sg5
F2.0
sg6
F-2.0
sb(dp3862
I00
F-1605.2620873820915
sI01
F132.61806638823796
ss(i__main__
State
p3863
(dp3864
g3
F3.0
sg4
F8.0
sg5
F-3.0
sg6
F8.0
sb(dp3865
I00
F93.63459773374038
sI01
F69.94269049262445
ss(i__main__
State
p3866
(dp3867
g3
F-8.0
sg4
F5.0
sg5
F8.0
sg6
F-4.0
sb(dp3868
I00
F-7.68
sI01
F-4.044131881100002
ss(i__main__
State
p3869
(dp3870
g3
F8.0
sg4
F0.0
sg5
F-8.0
sg6
F8.0
sb(dp3871
I00
I64
sI01
F86.5
ss(i__main__
State
p3872
(dp3873
g3
F8.0
sg4
F0.0
sg5
F-8.0
sg6
F-2.0
sb(dp3874
I00
F75.1
sI01
I17
ss(i__main__
State
p3875
(dp3876
g3
F-7.0
sg4
F1.0
sg5
F7.0
sg6
F-4.0
sb(dp3877
I00
F-10.205938888000004
sI01
F40.07738174534643
ss(i__main__
State
p3878
(dp3879
g3
F-7.0
sg4
F2.0
sg5
F7.0
sg6
F4.0
sb(dp3880
I00
F-57.92418530535
sI01
F42.391
ss(i__main__
State
p3881
(dp3882
g3
F0.0
sg4
F3.0
sg5
F0.0
sg6
F-6.0
sb(dp3883
I00
I-86
sI01
F-29.418355299999988
ss(i__main__
State
p3884
(dp3885
g3
F-8.0
sg4
F3.0
sg5
F8.0
sg6
F2.0
sb(dp3886
I00
I-23
sI01
F-75.8
ss(i__main__
State
p3887
(dp3888
g3
F7.0
sg4
F6.0
sg5
F-7.0
sg6
F6.0
sb(dp3889
I00
F-70.3322
sI01
F-50.239
ss(i__main__
State
p3890
(dp3891
g3
F3.0
sg4
F3.0
sg5
F-3.0
sg6
F6.0
sb(dp3892
I00
F19.9
sI01
I-95
ss(i__main__
State
p3893
(dp3894
g3
F-7.0
sg4
F4.0
sg5
F7.0
sg6
F6.0
sb(dp3895
I00
F-34.18
sI01
F48.96301683982666
ss(i__main__
State
p3896
(dp3897
g3
F-6.0
sg4
F7.0
sg5
F6.0
sg6
F2.0
sb(dp3898
I00
F53.3417526487268
sI01
F27.2
ss(i__main__
State
p3899
(dp3900
g3
F4.0
sg4
F10.0
sg5
F-4.0
sg6
F4.0
sb(dp3901
I00
F134.37893646241778
sI01
F11.07775
ss(i__main__
State
p3902
(dp3903
g3
F1.0
sg4
F3.0
sg5
F-1.0
sg6
F-2.0
sb(dp3904
I00
F25.1644
sI01
I17
ss(i__main__
State
p3905
(dp3906
g3
F0.0
sg4
F2.0
sg5
F0.0
sg6
F-2.0
sb(dp3907
I00
F-33.0
sI01
F-43.1
ss(i__main__
State
p3908
(dp3909
g3
F6.0
sg4
F3.0
sg5
F-6.0
sg6
F-4.0
sb(dp3910
I00
F20.1374482527
sI01
F8.615
ss(i__main__
State
p3911
(dp3912
g3
F1.0
sg4
F5.0
sg5
F-1.0
sg6
F6.0
sb(dp3913
I00
F-8.770199999999999
sI01
F-62.172582
ss(i__main__
State
p3914
(dp3915
g3
F6.0
sg4
F0.0
sg5
F-6.0
sg6
F2.0
sb(dp3916
I00
I12
sI01
F70.69
ss(i__main__
State
p3917
(dp3918
g3
F4.0
sg4
F1.0
sg5
F-4.0
sg6
F2.0
sb(dp3919
I00
F43.72780664482082
sI01
F40.646036049815
ss(i__main__
State
p3920
(dp3921
g3
F4.0
sg4
F0.0
sg5
F-4.0
sg6
F0.0
sb(dp3922
I00
F0.853075996779499
sI01
I-3
ss(i__main__
State
p3923
(dp3924
g3
F-6.0
sg4
F0.0
sg5
F6.0
sg6
F4.0
sb(dp3925
I00
F-84.81435938
sI01
F20.59
ss(i__main__
State
p3926
(dp3927
g3
F4.0
sg4
F3.0
sg5
F-4.0
sg6
F-4.0
sb(dp3928
I00
I-73
sI01
F58.70433
ss(i__main__
State
p3929
(dp3930
g3
F-3.0
sg4
F1.0
sg5
F3.0
sg6
F2.0
sb(dp3931
I00
F0.8286261452172836
sI01
F-5.1
ss(i__main__
State
p3932
(dp3933
g3
F-8.0
sg4
F4.0
sg5
F8.0
sg6
F8.0
sb(dp3934
I00
I-23
sI01
F55.95743298874466
ss(i__main__
State
p3935
(dp3936
g3
F0.0
sg4
F5.0
sg5
F0.0
sg6
F6.0
sb(dp3937
I00
F-9.3351
sI01
F21.45165017787984
ss(i__main__
State
p3938
(dp3939
g3
F7.0
sg4
F8.0
sg5
F-7.0
sg6
F6.0
sb(dp3940
I00
F176.52412063129856
sI01
F39.94730776575271
ss(i__main__
State
p3941
(dp3942
g3
F-8.0
sg4
F5.0
sg5
F8.0
sg6
F-2.0
sb(dp3943
I00
F51.336622974954004
sI01
F35.56739
ss(i__main__
State
p3944
(dp3945
g3
F4.0
sg4
F8.0
sg5
F-4.0
sg6
F4.0
sb(dp3946
I00
F23.858281514155
sI01
F57.136236801034016
ss(i__main__
State
p3947
(dp3948
g3
F5.0
sg4
F3.0
sg5
F-5.0
sg6
F-4.0
sb(dp3949
I00
F46.29245889200502
sI01
F-44.06
ss(i__main__
State
p3950
(dp3951
g3
F0.0
sg4
F1.0
sg5
F0.0
sg6
F-2.0
sb(dp3952
I00
F-34.4
sI01
I-22
ss(i__main__
State
p3953
(dp3954
g3
F-1.0
sg4
F3.0
sg5
F1.0
sg6
F2.0
sb(dp3955
I00
I7
sI01
F42.30227515920201
ss(i__main__
State
p3956
(dp3957
g3
F3.0
sg4
F9.0
sg5
F-3.0
sg6
F0.0
sb(dp3958
I00
F-3427.068725651964
sI01
F-3403.508697930423
ss(i__main__
State
p3959
(dp3960
g3
F7.0
sg4
F1.0
sg5
F-7.0
sg6
F6.0
sb(dp3961
I00
F51.5
sI01
I60
ss(i__main__
State
p3962
(dp3963
g3
F-6.0
sg4
F0.0
sg5
F6.0
sg6
F-8.0
sb(dp3964
I00
F52.096587581
sI01
I-16
ss(i__main__
State
p3965
(dp3966
g3
F-2.0
sg4
F8.0
sg5
F2.0
sg6
F-2.0
sb(dp3967
I00
F100.5206020836957
sI01
F-333.2388091
ss(i__main__
State
p3968
(dp3969
g3
F1.0
sg4
F9.0
sg5
F-1.0
sg6
F4.0
sb(dp3970
I00
F86.98159688262211
sI01
F-340.430311
ss(i__main__
State
p3971
(dp3972
g3
F5.0
sg4
F1.0
sg5
F-5.0
sg6
F-6.0
sb(dp3973
I00
F-62.698
sI01
F52.318999999999996
ss(i__main__
State
p3974
(dp3975
g3
F2.0
sg4
F9.0
sg5
F-2.0
sg6
F-4.0
sb(dp3976
I00
F-32.84662948000001
sI01
F87.1443113774568
ss(i__main__
State
p3977
(dp3978
g3
F-4.0
sg4
F0.0
sg5
F4.0
sg6
F-8.0
sb(dp3979
I00
F-55.008796419
sI01
F49.8568379
ss(i__main__
State
p3980
(dp3981
g3
F8.0
sg4
F9.0
sg5
F-8.0
sg6
F2.0
sb(dp3982
I00
F38.6543183
sI01
F0.0
ss(i__main__
State
p3983
(dp3984
g3
F8.0
sg4
F5.0
sg5
F-8.0
sg6
F2.0
sb(dp3985
I00
F-26.922845
sI01
F9.381527225755857
ss(i__main__
State
p3986
(dp3987
g3
F7.0
sg4
F1.0
sg5
F-7.0
sg6
F-2.0
sb(dp3988
I00
F4.411256057985864
sI01
I-46
ss(i__main__
State
p3989
(dp3990
g3
F3.0
sg4
F9.0
sg5
F-3.0
sg6
F-4.0
sb(dp3991
I00
F82.4290447421867
sI01
F0.0
ss(i__main__
State
p3992
(dp3993
g3
F-7.0
sg4
F9.0
sg5
F7.0
sg6
F2.0
sb(dp3994
I00
F40.903366440000006
sI01
F0.0
ss(i__main__
State
p3995
(dp3996
g3
F2.0
sg4
F2.0
sg5
F-2.0
sg6
F-4.0
sb(dp3997
I00
F16.65042807076587
sI01
F-67.4464
ss(i__main__
State
p3998
(dp3999
g3
F-3.0
sg4
F7.0
sg5
F3.0
sg6
F4.0
sb(dp4000
I00
F-10.749960784000002
sI01
I-92
ss(i__main__
State
p4001
(dp4002
g3
F0.0
sg4
F7.0
sg5
F0.0
sg6
F6.0
sb(dp4003
I00
F-4.207477531760599
sI01
I-42
ss(i__main__
State
p4004
(dp4005
g3
F-8.0
sg4
F7.0
sg5
F8.0
sg6
F0.0
sb(dp4006
I00
F-8.322149542167839
sI01
F-50.919
ss(i__main__
State
p4007
(dp4008
g3
F8.0
sg4
F10.0
sg5
F-8.0
sg6
F6.0
sb(dp4009
I00
F12.01
sI01
F0.0
ss(i__main__
State
p4010
(dp4011
g3
F6.0
sg4
F8.0
sg5
F-6.0
sg6
F8.0
sb(dp4012
I00
F177.43606181866934
sI01
F32.0009
ss(i__main__
State
p4013
(dp4014
g3
F-1.0
sg4
F5.0
sg5
F1.0
sg6
F-6.0
sb(dp4015
I00
F-33.2776838
sI01
F4.680135250233705
ss(i__main__
State
p4016
(dp4017
g3
F-6.0
sg4
F9.0
sg5
F6.0
sg6
F8.0
sb(dp4018
I00
F170.74104733454067
sI01
F40.3558044779776
ss(i__main__
State
p4019
(dp4020
g3
F3.0
sg4
F10.0
sg5
F-3.0
sg6
F-8.0
sb(dp4021
I00
F20.0
sI01
F96.85219395961826
ss(i__main__
State
p4022
(dp4023
g3
F-1.0
sg4
F1.0
sg5
F1.0
sg6
F2.0
sb(dp4024
I00
F-26.23545771305514
sI01
F-67.5
ss(i__main__
State
p4025
(dp4026
g3
F-6.0
sg4
F10.0
sg5
F6.0
sg6
F6.0
sb(dp4027
I00
F143.1269649287984
sI01
F0.0
ss(i__main__
State
p4028
(dp4029
g3
F-2.0
sg4
F2.0
sg5
F2.0
sg6
F0.0
sb(dp4030
I00
F-15.5175
sI01
F57.288335775470166
ss(i__main__
State
p4031
(dp4032
g3
F-6.0
sg4
F3.0
sg5
F6.0
sg6
F-2.0
sb(dp4033
I00
F-12.36
sI01
F-53.4
ss(i__main__
State
p4034
(dp4035
g3
F-6.0
sg4
F6.0
sg5
F6.0
sg6
F-4.0
sb(dp4036
I00
F-55.87013608
sI01
F46.4
ss(i__main__
State
p4037
(dp4038
g3
F-2.0
sg4
F3.0
sg5
F2.0
sg6
F0.0
sb(dp4039
I00
F22.432054644229762
sI01
F49.269999999999996
ss(i__main__
State
p4040
(dp4041
g3
F-6.0
sg4
F1.0
sg5
F6.0
sg6
F4.0
sb(dp4042
I00
F-5.039130500000001
sI01
F-71.74
ss(i__main__
State
p4043
(dp4044
g3
F8.0
sg4
F5.0
sg5
F-8.0
sg6
F-6.0
sb(dp4045
I00
F28.5879
sI01
I-92
ss(i__main__
State
p4046
(dp4047
g3
F6.0
sg4
F4.0
sg5
F-6.0
sg6
F0.0
sb(dp4048
I00
F-72.2
sI01
F31.03314366216175
ss(i__main__
State
p4049
(dp4050
g3
F-3.0
sg4
F7.0
sg5
F3.0
sg6
F-2.0
sb(dp4051
I00
F70.99198576636151
sI01
F-4.3
ss(i__main__
State
p4052
(dp4053
g3
F-1.0
sg4
F8.0
sg5
F1.0
sg6
F-4.0
sb(dp4054
I00
F63.9413706298127
sI01
F133.26744069833555
ss(i__main__
State
p4055
(dp4056
g3
F-3.0
sg4
F8.0
sg5
F3.0
sg6
F8.0
sb(dp4057
I00
F31.247629000000003
sI01
F12.0
ss(i__main__
State
p4058
(dp4059
g3
F8.0
sg4
F8.0
sg5
F-8.0
sg6
F-2.0
sb(dp4060
I00
F173.0829283164583
sI01
F-179.68200000000002
ss(i__main__
State
p4061
(dp4062
g3
F-4.0
sg4
F10.0
sg5
F4.0
sg6
F6.0
sb(dp4063
I00
F10.0
sI01
F33.729
ss(i__main__
State
p4064
(dp4065
g3
F2.0
sg4
F3.0
sg5
F-2.0
sg6
F-6.0
sb(dp4066
I00
F-0.7819472699126959
sI01
F-57.17593
ss(i__main__
State
p4067
(dp4068
g3
F4.0
sg4
F6.0
sg5
F-4.0
sg6
F8.0
sb(dp4069
I00
F-51.4
sI01
F3.0393000000000026
ss(i__main__
State
p4070
(dp4071
g3
F-2.0
sg4
F6.0
sg5
F2.0
sg6
F8.0
sb(dp4072
I00
I-1
sI01
F46.4
ss(i__main__
State
p4073
(dp4074
g3
F-7.0
sg4
F6.0
sg5
F7.0
sg6
F2.0
sb(dp4075
I00
F58.7278391
sI01
F56.421
ss(i__main__
State
p4076
(dp4077
g3
F-4.0
sg4
F7.0
sg5
F4.0
sg6
F8.0
sb(dp4078
I00
F-55.5
sI01
F68.215539
ss(i__main__
State
p4079
(dp4080
g3
F3.0
sg4
F3.0
sg5
F-3.0
sg6
F-6.0
sb(dp4081
I00
F36.697
sI01
F-48.041395900000005
ss(i__main__
State
p4082
(dp4083
g3
F5.0
sg4
F5.0
sg5
F-5.0
sg6
F-4.0
sb(dp4084
I00
F-46.5
sI01
F-21.7787856
ss(i__main__
State
p4085
(dp4086
g3
F-6.0
sg4
F7.0
sg5
F6.0
sg6
F6.0
sb(dp4087
I00
F-62.574011244185364
sI01
I-94
ss(i__main__
State
p4088
(dp4089
g3
F-4.0
sg4
F8.0
sg5
F4.0
sg6
F-4.0
sb(dp4090
I00
F10.0
sI01
F11.9
ss(i__main__
State
p4091
(dp4092
g3
F5.0
sg4
F0.0
sg5
F-5.0
sg6
F4.0
sb(dp4093
I00
I-5
sI01
F46.3
ss(i__main__
State
p4094
(dp4095
g3
F0.0
sg4
F8.0
sg5
F0.0
sg6
F-8.0
sb(dp4096
I00
F-1898.9
sI01
F-2681.7448240875697
ss(i__main__
State
p4097
(dp4098
g3
F-4.0
sg4
F1.0
sg5
F4.0
sg6
F0.0
sb(dp4099
I00
F68.32616604999998
sI01
I-35
ss(i__main__
State
p4100
(dp4101
g3
F-8.0
sg4
F10.0
sg5
F8.0
sg6
F8.0
sb(dp4102
I00
F34.246638211000004
sI01
F87.0507139
ss(i__main__
State
p4103
(dp4104
g3
F1.0
sg4
F7.0
sg5
F-1.0
sg6
F-8.0
sb(dp4105
I00
F33.628342012202616
sI01
F-246.91500000000002
ss(i__main__
State
p4106
(dp4107
g3
F6.0
sg4
F3.0
sg5
F-6.0
sg6
F-8.0
sb(dp4108
I00
F-27.6
sI01
F49.28022423958252
ss(i__main__
State
p4109
(dp4110
g3
F8.0
sg4
F6.0
sg5
F-8.0
sg6
F-2.0
sb(dp4111
I00
F-17.250729174800004
sI01
I-98
ss(i__main__
State
p4112
(dp4113
g3
F4.0
sg4
F2.0
sg5
F-4.0
sg6
F0.0
sb(dp4114
I00
F-7.009379999999997
sI01
I-48
ss(i__main__
State
p4115
(dp4116
g3
F-1.0
sg4
F7.0
sg5
F1.0
sg6
F-2.0
sb(dp4117
I00
F-4.907374965308485
sI01
F-88.1
ss(i__main__
State
p4118
(dp4119
g3
F3.0
sg4
F4.0
sg5
F-3.0
sg6
F-6.0
sb(dp4120
I00
F73.076373
sI01
I24
ss(i__main__
State
p4121
(dp4122
g3
F7.0
sg4
F0.0
sg5
F-7.0
sg6
F8.0
sb(dp4123
I00
F49.184000000000005
sI01
I-23
ss(i__main__
State
p4124
(dp4125
g3
F-8.0
sg4
F8.0
sg5
F8.0
sg6
F0.0
sb(dp4126
I00
F20.1
sI01
F0.0
ss(i__main__
State
p4127
(dp4128
g3
F-2.0
sg4
F1.0
sg5
F2.0
sg6
F-8.0
sb(dp4129
I00
F-62.918334986000005
sI01
F62.2266044332894
ss(i__main__
State
p4130
(dp4131
g3
F-2.0
sg4
F2.0
sg5
F2.0
sg6
F-2.0
sb(dp4132
I00
F-0.015140000000002374
sI01
F45.22602523568052
ss(i__main__
State
p4133
(dp4134
g3
F2.0
sg4
F0.0
sg5
F-2.0
sg6
F-2.0
sb(dp4135
I00
F-33.1812016
sI01
F24.897265053040442
ss(i__main__
State
p4136
(dp4137
g3
F-5.0
sg4
F2.0
sg5
F5.0
sg6
F-6.0
sb(dp4138
I00
F58.73087552039296
sI01
I-22
ss(i__main__
State
p4139
(dp4140
g3
F-6.0
sg4
F10.0
sg5
F6.0
sg6
F-8.0
sb(dp4141
I00
F45.00260492620001
sI01
F0.0
ss(i__main__
State
p4142
(dp4143
g3
F-1.0
sg4
F2.0
sg5
F1.0
sg6
F2.0
sb(dp4144
I00
I48
sI01
F61.83351200314299
ss(i__main__
State
p4145
(dp4146
g3
F2.0
sg4
F6.0
sg5
F-2.0
sg6
F8.0
sb(dp4147
I00
F56.661859672193614
sI01
I-84
ss(i__main__
State
p4148
(dp4149
g3
F-3.0
sg4
F1.0
sg5
F3.0
sg6
F-8.0
sb(dp4150
I00
F-11.090799999999998
sI01
F37.253624298983006
ss(i__main__
State
p4151
(dp4152
g3
F-1.0
sg4
F9.0
sg5
F1.0
sg6
F8.0
sb(dp4153
I00
F110.109235786153
sI01
F0.0
ss(i__main__
State
p4154
(dp4155
g3
F-8.0
sg4
F8.0
sg5
F8.0
sg6
F-4.0
sb(dp4156
I00
F97.80218572861504
sI01
F33.029908000000006
ss(i__main__
State
p4157
(dp4158
g3
F-4.0
sg4
F0.0
sg5
F4.0
sg6
F8.0
sb(dp4159
I00
I-21
sI01
F49.90959170574692
ss(i__main__
State
p4160
(dp4161
g3
F7.0
sg4
F3.0
sg5
F-7.0
sg6
F2.0
sb(dp4162
I00
I-75
sI01
F-37.329404537152996
ss(i__main__
State
p4163
(dp4164
g3
F-8.0
sg4
F1.0
sg5
F8.0
sg6
F8.0
sb(dp4165
I00
F-22.410652644000002
sI01
F44.00319305000001
ss(i__main__
State
p4166
(dp4167
g3
F4.0
sg4
F3.0
sg5
F-4.0
sg6
F8.0
sb(dp4168
I00
F-75.9
sI01
F-24.575482531
ss(i__main__
State
p4169
(dp4170
g3
F-3.0
sg4
F4.0
sg5
F3.0
sg6
F2.0
sb(dp4171
I00
F-36.1
sI01
F17.5
ss(i__main__
State
p4172
(dp4173
g3
F-2.0
sg4
F2.0
sg5
F2.0
sg6
F-8.0
sb(dp4174
I00
F65.8428028032744
sI01
F-75.354
ss(i__main__
State
p4175
(dp4176
g3
F7.0
sg4
F8.0
sg5
F-7.0
sg6
F-4.0
sb(dp4177
I00
F142.2010224130402
sI01
F61.28391963023919
ss(i__main__
State
p4178
(dp4179
g3
F1.0
sg4
F4.0
sg5
F-1.0
sg6
F-6.0
sb(dp4180
I00
F-7.7
sI01
F52.51019694210045
ss(i__main__
State
p4181
(dp4182
g3
F6.0
sg4
F4.0
sg5
F-6.0
sg6
F6.0
sb(dp4183
I00
F-27.059033999999997
sI01
F0.9884714616591175
ss(i__main__
State
p4184
(dp4185
g3
F3.0
sg4
F8.0
sg5
F-3.0
sg6
F-4.0
sb(dp4186
I00
F148.38365021789696
sI01
F77.44940249930214
ss(i__main__
State
p4187
(dp4188
g3
F4.0
sg4
F5.0
sg5
F-4.0
sg6
F6.0
sb(dp4189
I00
F39.456792222900575
sI01
F-35.54299
ss(i__main__
State
p4190
(dp4191
g3
F-7.0
sg4
F3.0
sg5
F7.0
sg6
F6.0
sb(dp4192
I00
F11.609580000000001
sI01
F67.28081141525752
ss(i__main__
State
p4193
(dp4194
g3
F-4.0
sg4
F10.0
sg5
F4.0
sg6
F0.0
sb(dp4195
I00
F153.2477103308775
sI01
F15.100000000000001
ss(i__main__
State
p4196
(dp4197
g3
F-4.0
sg4
F7.0
sg5
F4.0
sg6
F-4.0
sb(dp4198
I00
F50.7261817894
sI01
I-34
ss(i__main__
State
p4199
(dp4200
g3
F7.0
sg4
F3.0
sg5
F-7.0
sg6
F0.0
sb(dp4201
I00
F-65.2094
sI01
F40.14917100764729
ss(i__main__
State
p4202
(dp4203
g3
F2.0
sg4
F3.0
sg5
F-2.0
sg6
F2.0
sb(dp4204
I00
I38
sI01
F70.22522988004648
ss(i__main__
State
p4205
(dp4206
g3
F-4.0
sg4
F7.0
sg5
F4.0
sg6
F6.0
sb(dp4207
I00
F85.460745104
sI01
I37
ss(i__main__
State
p4208
(dp4209
g3
F8.0
sg4
F5.0
sg5
F-8.0
sg6
F-2.0
sb(dp4210
I00
F-54.652699999999996
sI01
I-94
ss(i__main__
State
p4211
(dp4212
g3
F0.0
sg4
F4.0
sg5
F0.0
sg6
F8.0
sb(dp4213
I00
F70.17
sI01
I-62
ss(i__main__
State
p4214
(dp4215
g3
F3.0
sg4
F7.0
sg5
F-3.0
sg6
F-4.0
sb(dp4216
I00
I-84
sI01
F42.5
ss(i__main__
State
p4217
(dp4218
g3
F-3.0
sg4
F8.0
sg5
F3.0
sg6
F4.0
sb(dp4219
I00
F158.87407535306107
sI01
F32.857621460800004
ss(i__main__
State
p4220
(dp4221
g3
F8.0
sg4
F9.0
sg5
F-8.0
sg6
F6.0
sb(dp4222
I00
F109.50671521322
sI01
F20.0
ss(i__main__
State
p4223
(dp4224
g3
F-5.0
sg4
F4.0
sg5
F5.0
sg6
F6.0
sb(dp4225
I00
I-73
sI01
F71.0
ss(i__main__
State
p4226
(dp4227
g3
F4.0
sg4
F8.0
sg5
F-4.0
sg6
F-4.0
sb(dp4228
I00
F117.18481782471261
sI01
F10.0
ss(i__main__
State
p4229
(dp4230
g3
F4.0
sg4
F9.0
sg5
F-4.0
sg6
F4.0
sb(dp4231
I00
F21.19
sI01
F18.937290128098592
ss(i__main__
State
p4232
(dp4233
g3
F7.0
sg4
F5.0
sg5
F-7.0
sg6
F2.0
sb(dp4234
I00
I-84
sI01
F36.2376849896916
ss(i__main__
State
p4235
(dp4236
g3
F-2.0
sg4
F7.0
sg5
F2.0
sg6
F-4.0
sb(dp4237
I00
F51.05411906549122
sI01
F-18.7
ss(i__main__
State
p4238
(dp4239
g3
F6.0
sg4
F6.0
sg5
F-6.0
sg6
F-2.0
sb(dp4240
I00
F54.3
sI01
I-94
ss(i__main__
State
p4241
(dp4242
g3
F5.0
sg4
F10.0
sg5
F-5.0
sg6
F0.0
sb(dp4243
I00
F92.73705490155437
sI01
F8.3
ss(i__main__
State
p4244
(dp4245
g3
F-4.0
sg4
F6.0
sg5
F4.0
sg6
F4.0
sb(dp4246
I00
F-21.826329
sI01
I-49
ss(i__main__
State
p4247
(dp4248
g3
F-8.0
sg4
F2.0
sg5
F8.0
sg6
F2.0
sb(dp4249
I00
F36.385799999999996
sI01
I-9
ss(i__main__
State
p4250
(dp4251
g3
F-7.0
sg4
F7.0
sg5
F7.0
sg6
F-4.0
sb(dp4252
I00
F-66.8
sI01
F16.2668591955
ss(i__main__
State
p4253
(dp4254
g3
F1.0
sg4
F5.0
sg5
F-1.0
sg6
F0.0
sb(dp4255
I00
I-50
sI01
F-31.381548999999996
ss(i__main__
State
p4256
(dp4257
g3
F1.0
sg4
F1.0
sg5
F-1.0
sg6
F-6.0
sb(dp4258
I00
F40.035299778
sI01
F18.3
ss(i__main__
State
p4259
(dp4260
g3
F-2.0
sg4
F8.0
sg5
F2.0
sg6
F6.0
sb(dp4261
I00
F30.0
sI01
F13.0
ss(i__main__
State
p4262
(dp4263
g3
F-8.0
sg4
F8.0
sg5
F8.0
sg6
F-6.0
sb(dp4264
I00
F99.70036169999999
sI01
F15.4439045
ss(i__main__
State
p4265
(dp4266
g3
F3.0
sg4
F10.0
sg5
F-3.0
sg6
F4.0
sb(dp4267
I00
F13.16224
sI01
F77.98304420993037
ss(i__main__
State
p4268
(dp4269
g3
F-1.0
sg4
F10.0
sg5
F1.0
sg6
F8.0
sb(dp4270
I00
F60.376212220000006
sI01
F0.0
ss(i__main__
State
p4271
(dp4272
g3
F2.0
sg4
F8.0
sg5
F-2.0
sg6
F-4.0
sb(dp4273
I00
F-518.8764977758515
sI01
F-413.6598991638441
ss(i__main__
State
p4274
(dp4275
g3
F1.0
sg4
F6.0
sg5
F-1.0
sg6
F-2.0
sb(dp4276
I00
I-13
sI01
F-2.22290728
ss(i__main__
State
p4277
(dp4278
g3
F-6.0
sg4
F3.0
sg5
F6.0
sg6
F-6.0
sb(dp4279
I00
I-75
sI01
F-19.0
ss(i__main__
State
p4280
(dp4281
g3
F-3.0
sg4
F5.0
sg5
F3.0
sg6
F-2.0
sb(dp4282
I00
F53.8549429
sI01
I3
ss(i__main__
State
p4283
(dp4284
g3
F-1.0
sg4
F2.0
sg5
F1.0
sg6
F-6.0
sb(dp4285
I00
F36.63321560351338
sI01
F-10.1
ss(i__main__
State
p4286
(dp4287
g3
F8.0
sg4
F2.0
sg5
F-8.0
sg6
F-6.0
sb(dp4288
I00
F21.42843
sI01
F13.328000000000003
ss(i__main__
State
p4289
(dp4290
g3
F5.0
sg4
F10.0
sg5
F-5.0
sg6
F-8.0
sb(dp4291
I00
F0.0
sI01
F76.1855662797327
ss(i__main__
State
p4292
(dp4293
g3
F6.0
sg4
F7.0
sg5
F-6.0
sg6
F-4.0
sb(dp4294
I00
F37.2326837
sI01
F70.05102181429794
ss(i__main__
State
p4295
(dp4296
g3
F2.0
sg4
F5.0
sg5
F-2.0
sg6
F-2.0
sb(dp4297
I00
I8
sI01
F84.17027343
ss(i__main__
State
p4298
(dp4299
g3
F-3.0
sg4
F2.0
sg5
F3.0
sg6
F4.0
sb(dp4300
I00
F-53.62
sI01
F-9.969999999999997
ss(i__main__
State
p4301
(dp4302
g3
F-4.0
sg4
F1.0
sg5
F4.0
sg6
F-6.0
sb(dp4303
I00
I-48
sI01
F46.88179999999999
ss(i__main__
State
p4304
(dp4305
g3
F-3.0
sg4
F0.0
sg5
F3.0
sg6
F4.0
sb(dp4306
I00
F-5.000999999999998
sI01
F83.8620701713594
ss(i__main__
State
p4307
(dp4308
g3
F0.0
sg4
F0.0
sg5
F0.0
sg6
F4.0
sb(dp4309
I00
F64.63199187000001
sI01
F-46.128989999999995
ss(i__main__
State
p4310
(dp4311
g3
F2.0
sg4
F6.0
sg5
F-2.0
sg6
F-2.0
sb(dp4312
I00
F-7.1
sI01
I-96
ss(i__main__
State
p4313
(dp4314
g3
F-8.0
sg4
F6.0
sg5
F8.0
sg6
F4.0
sb(dp4315
I00
I-19
sI01
F41.1671129
ss(i__main__
State
p4316
(dp4317
g3
F2.0
sg4
F8.0
sg5
F-2.0
sg6
F-6.0
sb(dp4318
I00
F97.2235010471
sI01
F36.67207953829232
ss(i__main__
State
p4319
(dp4320
g3
F-5.0
sg4
F5.0
sg5
F5.0
sg6
F-6.0
sb(dp4321
I00
F-39.991096862219884
sI01
F-64.92999999999999
ss(i__main__
State
p4322
(dp4323
g3
F3.0
sg4
F1.0
sg5
F-3.0
sg6
F-6.0
sb(dp4324
I00
F-13.0
sI01
F24.762010579916595
ss(i__main__
State
p4325
(dp4326
g3
F-7.0
sg4
F0.0
sg5
F7.0
sg6
F4.0
sb(dp4327
I00
I-52
sI01
F56.4
ss(i__main__
State
p4328
(dp4329
g3
F3.0
sg4
F6.0
sg5
F-3.0
sg6
F0.0
sb(dp4330
I00
F56.1
sI01
I-3
ss(i__main__
State
p4331
(dp4332
g3
F1.0
sg4
F10.0
sg5
F-1.0
sg6
F4.0
sb(dp4333
I00
F-889.9409596411429
sI01
F139.7369898782746
ss(i__main__
State
p4334
(dp4335
g3
F1.0
sg4
F10.0
sg5
F-1.0
sg6
F-6.0
sb(dp4336
I00
F10.0
sI01
F0.0
ss(i__main__
State
p4337
(dp4338
g3
F-5.0
sg4
F0.0
sg5
F5.0
sg6
F0.0
sb(dp4339
I00
F-84.5
sI01
F43.505365424889995
ss(i__main__
State
p4340
(dp4341
g3
F-4.0
sg4
F2.0
sg5
F4.0
sg6
F-6.0
sb(dp4342
I00
I1
sI01
F62.40555131442035
ss(i__main__
State
p4343
(dp4344
g3
F-8.0
sg4
F6.0
sg5
F8.0
sg6
F-8.0
sb(dp4345
I00
F13.4909758505
sI01
F35.62782523760253
ss(i__main__
State
p4346
(dp4347
g3
F0.0
sg4
F0.0
sg5
F0.0
sg6
F-4.0
sb(dp4348
I00
F50.8135693212902
sI01
F47.3
ss(i__main__
State
p4349
(dp4350
g3
F-4.0
sg4
F1.0
sg5
F4.0
sg6
F4.0
sb(dp4351
I00
F-16.3
sI01
F13.990630848955021
ss(i__main__
State
p4352
(dp4353
g3
F-5.0
sg4
F7.0
sg5
F5.0
sg6
F8.0
sb(dp4354
I00
F-49.8581099711786
sI01
F73.6056642708229
ss(i__main__
State
p4355
(dp4356
g3
F2.0
sg4
F5.0
sg5
F-2.0
sg6
F0.0
sb(dp4357
I00
F64.65758023565711
sI01
F53.624479
ss(i__main__
State
p4358
(dp4359
g3
F-3.0
sg4
F2.0
sg5
F3.0
sg6
F-6.0
sb(dp4360
I00
F63.47183267392005
sI01
F-49.199799999999996
ss(i__main__
State
p4361
(dp4362
g3
F-8.0
sg4
F2.0
sg5
F8.0
sg6
F4.0
sb(dp4363
I00
F-11.8358991063348
sI01
F64.9207232021265
ss(i__main__
State
p4364
(dp4365
g3
F8.0
sg4
F2.0
sg5
F-8.0
sg6
F2.0
sb(dp4366
I00
F16.878
sI01
F-0.8773123627496155
ss(i__main__
State
p4367
(dp4368
g3
F2.0
sg4
F2.0
sg5
F-2.0
sg6
F-6.0
sb(dp4369
I00
F-57.0
sI01
F-36.91928382626984
ss(i__main__
State
p4370
(dp4371
g3
F-2.0
sg4
F6.0
sg5
F2.0
sg6
F-8.0
sb(dp4372
I00
F54.826645954099995
sI01
F25.385087
ss(i__main__
State
p4373
(dp4374
g3
F-6.0
sg4
F3.0
sg5
F6.0
sg6
F4.0
sb(dp4375
I00
F12.414526000000002
sI01
F61.66580542698384
ss(i__main__
State
p4376
(dp4377
g3
F-7.0
sg4
F6.0
sg5
F7.0
sg6
F6.0
sb(dp4378
I00
F50.12556296100001
sI01
F7.4
ss(i__main__
State
p4379
(dp4380
g3
F-1.0
sg4
F8.0
sg5
F1.0
sg6
F4.0
sb(dp4381
I00
F31.0
sI01
F0.0
ss(i__main__
State
p4382
(dp4383
g3
F2.0
sg4
F8.0
sg5
F-2.0
sg6
F0.0
sb(dp4384
I00
F180.88988863353148
sI01
F11.238100000000001
ss(i__main__
State
p4385
(dp4386
g3
F1.0
sg4
F6.0
sg5
F-1.0
sg6
F0.0
sb(dp4387
I00
F36.42506886
sI01
I14
ss(i__main__
State
p4388
(dp4389
g3
F-5.0
sg4
F0.0
sg5
F5.0
sg6
F8.0
sb(dp4390
I00
F69.312046
sI01
I-92
ss(i__main__
State
p4391
(dp4392
g3
F-8.0
sg4
F8.0
sg5
F8.0
sg6
F6.0
sb(dp4393
I00
F119.71117158169082
sI01
F12.372800000000002
ss(i__main__
State
p4394
(dp4395
g3
F-5.0
sg4
F2.0
sg5
F5.0
sg6
F-2.0
sb(dp4396
I00
F24.52881237966342
sI01
F-22.09193850168907
ss(i__main__
State
p4397
(dp4398
g3
F0.0
sg4
F7.0
sg5
F0.0
sg6
F8.0
sb(dp4399
I00
I44
sI01
F46.40001
ss(i__main__
State
p4400
(dp4401
g3
F5.0
sg4
F4.0
sg5
F-5.0
sg6
F0.0
sb(dp4402
I00
I-13
sI01
F32.518970353
ss(i__main__
State
p4403
(dp4404
g3
F-5.0
sg4
F8.0
sg5
F5.0
sg6
F-2.0
sb(dp4405
I00
F10.0
sI01
F0.0
ss(i__main__
State
p4406
(dp4407
g3
F-8.0
sg4
F2.0
sg5
F8.0
sg6
F-6.0
sb(dp4408
I00
F50.8
sI01
F16.5
ss(i__main__
State
p4409
(dp4410
g3
F-1.0
sg4
F1.0
sg5
F1.0
sg6
F4.0
sb(dp4411
I00
F29.856027390077926
sI01
F10.769204937481499
ss(i__main__
State
p4412
(dp4413
g3
F-5.0
sg4
F0.0
sg5
F5.0
sg6
F-2.0
sb(dp4414
I00
F-44.7
sI01
F1.6600000000000001
ss(i__main__
State
p4415
(dp4416
g3
F7.0
sg4
F8.0
sg5
F-7.0
sg6
F-8.0
sb(dp4417
I00
F171.19802511001302
sI01
F15.082654453800002
ss(i__main__
State
p4418
(dp4419
g3
F-2.0
sg4
F7.0
sg5
F2.0
sg6
F2.0
sb(dp4420
I00
F-12.96
sI01
F84.90463213828947
ss(i__main__
State
p4421
(dp4422
g3
F-2.0
sg4
F10.0
sg5
F2.0
sg6
F-4.0
sb(dp4423
I00
F164.88525629219902
sI01
F44.724000000000004
ss(i__main__
State
p4424
(dp4425
g3
F-1.0
sg4
F4.0
sg5
F1.0
sg6
F8.0
sb(dp4426
I00
I-48
sI01
F69.741326659
ss(i__main__
State
p4427
(dp4428
g3
F4.0
sg4
F9.0
sg5
F-4.0
sg6
F-6.0
sb(dp4429
I00
F80.20920222960001
sI01
F11.0
ss(i__main__
State
p4430
(dp4431
g3
F-4.0
sg4
F8.0
sg5
F4.0
sg6
F4.0
sb(dp4432
I00
F137.4535927907889
sI01
F25.210907855734355
ss(i__main__
State
p4433
(dp4434
g3
F-3.0
sg4
F3.0
sg5
F3.0
sg6
F-4.0
sb(dp4435
I00
F29.687141541094086
sI01
F-27.164206540241985
ss(i__main__
State
p4436
(dp4437
g3
F8.0
sg4
F4.0
sg5
F-8.0
sg6
F-4.0
sb(dp4438
I00
F22.983709824
sI01
F25.143294561283934
ss(i__main__
State
p4439
(dp4440
g3
F8.0
sg4
F9.0
sg5
F-8.0
sg6
F-8.0
sb(dp4441
I00
F166.1179772736333
sI01
F50.61578153651839
ss(i__main__
State
p4442
(dp4443
g3
F-4.0
sg4
F7.0
sg5
F4.0
sg6
F-8.0
sb(dp4444
I00
I-42
sI01
F22.6653747
ss(i__main__
State
p4445
(dp4446
g3
F2.0
sg4
F3.0
sg5
F-2.0
sg6
F-4.0
sb(dp4447
I00
F-9.212
sI01
F-19.549999999999997
ss(i__main__
State
p4448
(dp4449
g3
F-8.0
sg4
F6.0
sg5
F8.0
sg6
F-6.0
sb(dp4450
I00
I-66
sI01
F22.8
ss(i__main__
State
p4451
(dp4452
g3
F-7.0
sg4
F10.0
sg5
F7.0
sg6
F8.0
sb(dp4453
I00
F39.983235940540006
sI01
F123.60070887627462
ss(i__main__
State
p4454
(dp4455
g3
F-4.0
sg4
F10.0
sg5
F4.0
sg6
F-4.0
sb(dp4456
I00
F94.384987991178
sI01
F25.880900000000004
ss(i__main__
State
p4457
(dp4458
g3
F8.0
sg4
F8.0
sg5
F-8.0
sg6
F-8.0
sb(dp4459
I00
F58.46105554655948
sI01
F0.0
ss(i__main__
State
p4460
(dp4461
g3
F6.0
sg4
F7.0
sg5
F-6.0
sg6
F8.0
sb(dp4462
I00
F49.062070000000006
sI01
F26.09946313
ss(i__main__
State
p4463
(dp4464
g3
F1.0
sg4
F1.0
sg5
F-1.0
sg6
F8.0
sb(dp4465
I00
F-50.46
sI01
F47.2202464748823
ss(i__main__
State
p4466
(dp4467
g3
F7.0
sg4
F7.0
sg5
F-7.0
sg6
F6.0
sb(dp4468
I00
F72.33238
sI01
F84.4171362528334
ss(i__main__
State
p4469
(dp4470
g3
F4.0
sg4
F5.0
sg5
F-4.0
sg6
F-8.0
sb(dp4471
I00
F28.3
sI01
I10
ss(i__main__
State
p4472
(dp4473
g3
F7.0
sg4
F7.0
sg5
F-7.0
sg6
F-4.0
sb(dp4474
I00
F-2.5999999999999996
sI01
F113.72308872260118
ss(i__main__
State
p4475
(dp4476
g3
F4.0
sg4
F1.0
sg5
F-4.0
sg6
F8.0
sb(dp4477
I00
F-44.605000000000004
sI01
F22.278803007999997
ss(i__main__
State
p4478
(dp4479
g3
F1.0
sg4
F4.0
sg5
F-1.0
sg6
F4.0
sb(dp4480
I00
F41.6
sI01
F45.73065674377461
ss(i__main__
State
p4481
(dp4482
g3
F-3.0
sg4
F9.0
sg5
F3.0
sg6
F4.0
sb(dp4483
I00
F127.78654598491656
sI01
F0.0
ss(i__main__
State
p4484
(dp4485
g3
F-6.0
sg4
F6.0
sg5
F6.0
sg6
F6.0
sb(dp4486
I00
F16.91381934
sI01
F38.80025726994779
ss(i__main__
State
p4487
(dp4488
g3
F-8.0
sg4
F1.0
sg5
F8.0
sg6
F2.0
sb(dp4489
I00
F88.2888
sI01
F-13.09278
ss(i__main__
State
p4490
(dp4491
g3
F-4.0
sg4
F4.0
sg5
F4.0
sg6
F8.0
sb(dp4492
I00
F13.408000000000001
sI01
F39.029353464500005
ss(i__main__
State
p4493
(dp4494
g3
F-5.0
sg4
F3.0
sg5
F5.0
sg6
F8.0
sb(dp4495
I00
I15
sI01
F71.8097123
ss(i__main__
State
p4496
(dp4497
g3
F5.0
sg4
F10.0
sg5
F-5.0
sg6
F4.0
sb(dp4498
I00
F102.59347004550911
sI01
F8.4
ss(i__main__
State
p4499
(dp4500
g3
F-8.0
sg4
F8.0
sg5
F8.0
sg6
F4.0
sb(dp4501
I00
F20.329405149485
sI01
F82.75432876100001
ss(i__main__
State
p4502
(dp4503
g3
F-7.0
sg4
F7.0
sg5
F7.0
sg6
F2.0
sb(dp4504
I00
F-26.239173179374085
sI01
F32.8
ss(i__main__
State
p4505
(dp4506
g3
F5.0
sg4
F1.0
sg5
F-5.0
sg6
F8.0
sb(dp4507
I00
F38.77952864744055
sI01
F-70.339
ss(i__main__
State
p4508
(dp4509
g3
F-7.0
sg4
F10.0
sg5
F7.0
sg6
F-8.0
sb(dp4510
I00
F35.07364477977597
sI01
F19.848
ss(i__main__
State
p4511
(dp4512
g3
F-6.0
sg4
F2.0
sg5
F6.0
sg6
F-4.0
sb(dp4513
I00
F43.69397492375191
sI01
F26.159069910200532
ss(i__main__
State
p4514
(dp4515
g3
F-3.0
sg4
F6.0
sg5
F3.0
sg6
F-2.0
sb(dp4516
I00
F70.50485387123763
sI01
F84.63735044554687
ss(i__main__
State
p4517
(dp4518
g3
F7.0
sg4
F5.0
sg5
F-7.0
sg6
F-8.0
sb(dp4519
I00
F50.9993452
sI01
F55.150391
ss(i__main__
State
p4520
(dp4521
g3
F-2.0
sg4
F0.0
sg5
F2.0
sg6
F2.0
sb(dp4522
I00
F78.49911251395594
sI01
F-27.58
ss(i__main__
State
p4523
(dp4524
g3
F7.0
sg4
F1.0
sg5
F-7.0
sg6
F8.0
sb(dp4525
I00
F24.58
sI01
I6
ss(i__main__
State
p4526
(dp4527
g3
F-2.0
sg4
F1.0
sg5
F2.0
sg6
F6.0
sb(dp4528
I00
F-21.933326713842078
sI01
F31.955917680738544
ss(i__main__
State
p4529
(dp4530
g3
F-3.0
sg4
F2.0
sg5
F3.0
sg6
F8.0
sb(dp4531
I00
F15.947448687184227
sI01
F-88.44058221334
ss(i__main__
State
p4532
(dp4533
g3
F-7.0
sg4
F9.0
sg5
F7.0
sg6
F0.0
sb(dp4534
I00
F-2704.029479648052
sI01
F-2680.1036866793643
ss(i__main__
State
p4535
(dp4536
g3
F-3.0
sg4
F5.0
sg5
F3.0
sg6
F8.0
sb(dp4537
I00
F57.3
sI01
I45
ss(i__main__
State
p4538
(dp4539
g3
F-1.0
sg4
F10.0
sg5
F1.0
sg6
F-2.0
sb(dp4540
I00
F20.860300278090495
sI01
F47.53298748
ss(i__main__
State
p4541
(dp4542
g3
F4.0
sg4
F2.0
sg5
F-4.0
sg6
F-4.0
sb(dp4543
I00
F22.38
sI01
F47.0
ss(i__main__
State
p4544
(dp4545
g3
F6.0
sg4
F3.0
sg5
F-6.0
sg6
F6.0
sb(dp4546
I00
F-50.2
sI01
F42.4496
ss(i__main__
State
p4547
(dp4548
g3
F-4.0
sg4
F0.0
sg5
F4.0
sg6
F2.0
sb(dp4549
I00
F52.4560485281
sI01
I7
ss(i__main__
State
p4550
(dp4551
g3
F-4.0
sg4
F1.0
sg5
F4.0
sg6
F-2.0
sb(dp4552
I00
F8.530643558197402
sI01
F-4.636546506000001
ss(i__main__
State
p4553
(dp4554
g3
F2.0
sg4
F1.0
sg5
F-2.0
sg6
F8.0
sb(dp4555
I00
F23.475232380922993
sI01
F9.62273
ss(i__main__
State
p4556
(dp4557
g3
F3.0
sg4
F6.0
sg5
F-3.0
sg6
F-6.0
sb(dp4558
I00
I-46
sI01
F24.301803899999996
ss(i__main__
State
p4559
(dp4560
g3
F0.0
sg4
F8.0
sg5
F0.0
sg6
F8.0
sb(dp4561
I00
F-1897.1501197
sI01
F-1895.1891
ss(i__main__
State
p4562
(dp4563
g3
F8.0
sg4
F9.0
sg5
F-8.0
sg6
F8.0
sb(dp4564
I00
F59.76902516860156
sI01
F0.0
ss(i__main__
State
p4565
(dp4566
g3
F3.0
sg4
F5.0
sg5
F-3.0
sg6
F6.0
sb(dp4567
I00
F56.9884926389975
sI01
I71
ss(i__main__
State
p4568
(dp4569
g3
F-6.0
sg4
F7.0
sg5
F6.0
sg6
F-8.0
sb(dp4570
I00
F14.960478164514345
sI01
I-21
ss(i__main__
State
p4571
(dp4572
g3
F8.0
sg4
F7.0
sg5
F-8.0
sg6
F-6.0
sb(dp4573
I00
F63.08005249914215
sI01
F-20.85213957283984
ss(i__main__
State
p4574
(dp4575
g3
F2.0
sg4
F6.0
sg5
F-2.0
sg6
F-6.0
sb(dp4576
I00
F-45.354899999999994
sI01
F16.220235279355585
ss(i__main__
State
p4577
(dp4578
g3
F1.0
sg4
F2.0
sg5
F-1.0
sg6
F8.0
sb(dp4579
I00
F40.18105665806967
sI01
F-71.2
ss(i__main__
State
p4580
(dp4581
g3
F5.0
sg4
F9.0
sg5
F-5.0
sg6
F-8.0
sb(dp4582
I00
F55.45843897
sI01
F10.0
ss(i__main__
State
p4583
(dp4584
g3
F2.0
sg4
F3.0
sg5
F-2.0
sg6
F4.0
sb(dp4585
I00
F-82.3
sI01
F56.059572
ss(i__main__
State
p4586
(dp4587
g3
F5.0
sg4
F6.0
sg5
F-5.0
sg6
F6.0
sb(dp4588
I00
F-78.45660000000001
sI01
F13.590002711859007
ss(i__main__
State
p4589
(dp4590
g3
F1.0
sg4
F9.0
sg5
F-1.0
sg6
F6.0
sb(dp4591
I00
F83.16708438891182
sI01
F-72.414
ss(i__main__
State
p4592
(dp4593
g3
F-6.0
sg4
F8.0
sg5
F6.0
sg6
F2.0
sb(dp4594
I00
F53.057365958530184
sI01
F11.0
ss(i__main__
State
p4595
(dp4596
g3
F3.0
sg4
F0.0
sg5
F-3.0
sg6
F-6.0
sb(dp4597
I00
F67.0
sI01
I-84
ss(i__main__
State
p4598
(dp4599
g3
F7.0
sg4
F2.0
sg5
F-7.0
sg6
F6.0
sb(dp4600
I00
F-60.420399999999994
sI01
F67.322
ss(i__main__
State
p4601
(dp4602
g3
F3.0
sg4
F10.0
sg5
F-3.0
sg6
F-2.0
sb(dp4603
I00
F67.6421325453
sI01
F0.0
ss(i__main__
State
p4604
(dp4605
g3
F8.0
sg4
F5.0
sg5
F-8.0
sg6
F4.0
sb(dp4606
I00
I-39
sI01
F-23.2849
ss(i__main__
State
p4607
(dp4608
g3
F-3.0
sg4
F4.0
sg5
F3.0
sg6
F-2.0
sb(dp4609
I00
F-44.0
sI01
F8.416582743300001
ss(i__main__
State
p4610
(dp4611
g3
F-2.0
sg4
F3.0
sg5
F2.0
sg6
F-2.0
sb(dp4612
I00
F29.885338800000003
sI01
F-29.0
ss(i__main__
State
p4613
(dp4614
g3
F-6.0
sg4
F3.0
sg5
F6.0
sg6
F0.0
sb(dp4615
I00
F68.0146318407246
sI01
F55.51503906525201
ss(i__main__
State
p4616
(dp4617
g3
F2.0
sg4
F10.0
sg5
F-2.0
sg6
F-2.0
sb(dp4618
I00
F0.0
sI01
F29.259999999999998
ss(i__main__
State
p4619
(dp4620
g3
F-1.0
sg4
F0.0
sg5
F1.0
sg6
F0.0
sb(dp4621
I00
F59.5016088853758
sI01
F-20.345999999999997
ss(i__main__
State
p4622
(dp4623
g3
F6.0
sg4
F5.0
sg5
F-6.0
sg6
F-6.0
sb(dp4624
I00
F-73.32
sI01
F2.578889802
ss(i__main__
State
p4625
(dp4626
g3
F5.0
sg4
F4.0
sg5
F-5.0
sg6
F4.0
sb(dp4627
I00
F9.04487828509
sI01
F22.354616029646905
ss(i__main__
State
p4628
(dp4629
g3
F1.0
sg4
F1.0
sg5
F-1.0
sg6
F-4.0
sb(dp4630
I00
I93
sI01
F-44.7
ss(i__main__
State
p4631
(dp4632
g3
F-8.0
sg4
F7.0
sg5
F8.0
sg6
F-2.0
sb(dp4633
I00
F-13.12383753564202
sI01
F-71.4169124619966
ss(i__main__
State
p4634
(dp4635
g3
F-2.0
sg4
F0.0
sg5
F2.0
sg6
F8.0
sb(dp4636
I00
I-74
sI01
F28.057402029287005
ss(i__main__
State
p4637
(dp4638
g3
F7.0
sg4
F6.0
sg5
F-7.0
sg6
F4.0
sb(dp4639
I00
F-26.346781306592
sI01
F-9.695400772542502
ss(i__main__
State
p4640
(dp4641
g3
F6.0
sg4
F10.0
sg5
F-6.0
sg6
F6.0
sb(dp4642
I00
F10.0
sI01
F87.70516442580059
ss(i__main__
State
p4643
(dp4644
g3
F-6.0
sg4
F7.0
sg5
F6.0
sg6
F0.0
sb(dp4645
I00
F49.275400000000005
sI01
F21.300019266
ss(i__main__
State
p4646
(dp4647
g3
F-4.0
sg4
F8.0
sg5
F4.0
sg6
F8.0
sb(dp4648
I00
F52.916000000000004
sI01
F11.438588300000001
ss(i__main__
State
p4649
(dp4650
g3
F8.0
sg4
F9.0
sg5
F-8.0
sg6
F-4.0
sb(dp4651
I00
F10.0
sI01
F136.34970406322293
ss(i__main__
State
p4652
(dp4653
g3
F7.0
sg4
F3.0
sg5
F-7.0
sg6
F-4.0
sb(dp4654
I00
I9
sI01
F86.71696
ss(i__main__
State
p4655
(dp4656
g3
F2.0
sg4
F9.0
sg5
F-2.0
sg6
F2.0
sb(dp4657
I00
F62.812556437984306
sI01
F41.55508614950152
ss(i__main__
State
p4658
(dp4659
g3
F5.0
sg4
F6.0
sg5
F-5.0
sg6
F8.0
sb(dp4660
I00
F-79.7007501385568
sI01
F79.57827535920607
ss(i__main__
State
p4661
(dp4662
g3
F4.0
sg4
F10.0
sg5
F-4.0
sg6
F6.0
sb(dp4663
I00
F10.0
sI01
F116.32120331515286
ss(i__main__
State
p4664
(dp4665
g3
F-7.0
sg4
F8.0
sg5
F7.0
sg6
F4.0
sb(dp4666
I00
F66.79011175505062
sI01
F0.0
ss(i__main__
State
p4667
(dp4668
g3
F6.0
sg4
F2.0
sg5
F-6.0
sg6
F-2.0
sb(dp4669
I00
F36.49287159
sI01
F-88.5
ss(i__main__
State
p4670
(dp4671
g3
F2.0
sg4
F8.0
sg5
F-2.0
sg6
F2.0
sb(dp4672
I00
F54.048140000000004
sI01
F36.85308355221
ss(i__main__
State
p4673
(dp4674
g3
F-4.0
sg4
F10.0
sg5
F4.0
sg6
F-6.0
sb(dp4675
I00
F148.35375273247024
sI01
F17.400000000000002
ss(i__main__
State
p4676
(dp4677
g3
F-3.0
sg4
F1.0
sg5
F3.0
sg6
F0.0
sb(dp4678
I00
I-81
sI01
F61.401939999999996
ss(i__main__
State
p4679
(dp4680
g3
F1.0
sg4
F3.0
sg5
F-1.0
sg6
F2.0
sb(dp4681
I00
F-80.38
sI01
F-34.346484492
ss(i__main__
State
p4682
(dp4683
g3
F-8.0
sg4
F5.0
sg5
F8.0
sg6
F0.0
sb(dp4684
I00
F19.693594185043413
sI01
F-69.17866293041178
ss(i__main__
State
p4685
(dp4686
g3
F1.0
sg4
F3.0
sg5
F-1.0
sg6
F-4.0
sb(dp4687
I00
F-82.2
sI01
F19.168908707025526
ss(i__main__
State
p4688
(dp4689
g3
F-8.0
sg4
F0.0
sg5
F8.0
sg6
F8.0
sb(dp4690
I00
I-98
sI01
F-29.562947
ss(i__main__
State
p4691
(dp4692
g3
F0.0
sg4
F5.0
sg5
F0.0
sg6
F-8.0
sb(dp4693
I00
F-17.656036
sI01
I-38
ss(i__main__
State
p4694
(dp4695
g3
F7.0
sg4
F9.0
sg5
F-7.0
sg6
F-6.0
sb(dp4696
I00
F161.94360318975825
sI01
F0.0
ss(i__main__
State
p4697
(dp4698
g3
F4.0
sg4
F3.0
sg5
F-4.0
sg6
F2.0
sb(dp4699
I00
I40
sI01
F59.1
ss(i__main__
State
p4700
(dp4701
g3
F-3.0
sg4
F8.0
sg5
F3.0
sg6
F-4.0
sb(dp4702
I00
F69.241415
sI01
F11.0
ss(i__main__
State
p4703
(dp4704
g3
F-1.0
sg4
F7.0
sg5
F1.0
sg6
F4.0
sb(dp4705
I00
F39.652816550000004
sI01
F23.6
ss(i__main__
State
p4706
(dp4707
g3
F7.0
sg4
F1.0
sg5
F-7.0
sg6
F4.0
sb(dp4708
I00
F11.944262
sI01
I-9
ss(i__main__
State
p4709
(dp4710
g3
F4.0
sg4
F1.0
sg5
F-4.0
sg6
F-4.0
sb(dp4711
I00
F61.3831
sI01
I14
ss(i__main__
State
p4712
(dp4713
g3
F-6.0
sg4
F0.0
sg5
F6.0
sg6
F-2.0
sb(dp4714
I00
F88.8
sI01
F28.5
ss(i__main__
State
p4715
(dp4716
g3
F-2.0
sg4
F8.0
sg5
F2.0
sg6
F-4.0
sb(dp4717
I00
F20.0
sI01
F10.0
ss(i__main__
State
p4718
(dp4719
g3
F-5.0
sg4
F10.0
sg5
F5.0
sg6
F-8.0
sb(dp4720
I00
F137.41716922925303
sI01
F50.748292136885
ss(i__main__
State
p4721
(dp4722
g3
F6.0
sg4
F2.0
sg5
F-6.0
sg6
F0.0
sb(dp4723
I00
F43.7355
sI01
I-60
ss(i__main__
State
p4724
(dp4725
g3
F-6.0
sg4
F2.0
sg5
F6.0
sg6
F8.0
sb(dp4726
I00
F-74.0
sI01
F33.72559280792662
ss(i__main__
State
p4727
(dp4728
g3
F6.0
sg4
F3.0
sg5
F-6.0
sg6
F2.0
sb(dp4729
I00
F5.5775649713031985
sI01
F-41.566689611
ss(i__main__
State
p4730
(dp4731
g3
F4.0
sg4
F10.0
sg5
F-4.0
sg6
F-8.0
sb(dp4732
I00
F11.0
sI01
F0.0
ss(i__main__
State
p4733
(dp4734
g3
F-6.0
sg4
F10.0
sg5
F6.0
sg6
F0.0
sb(dp4735
I00
F23.978700000000003
sI01
F96.22463194576271
ss(i__main__
State
p4736
(dp4737
g3
F7.0
sg4
F1.0
sg5
F-7.0
sg6
F-4.0
sb(dp4738
I00
F41.835165333004376
sI01
F-49.29269
ss(i__main__
State
p4739
(dp4740
g3
F5.0
sg4
F9.0
sg5
F-5.0
sg6
F0.0
sb(dp4741
I00
F-2699.247965890278
sI01
F-2700.59013810112
ss(i__main__
State
p4742
(dp4743
g3
F3.0
sg4
F10.0
sg5
F-3.0
sg6
F-6.0
sb(dp4744
I00
F40.131067228648
sI01
F0.0
ss(i__main__
State
p4745
(dp4746
g3
F5.0
sg4
F2.0
sg5
F-5.0
sg6
F6.0
sb(dp4747
I00
F10.6
sI01
F1.96319
ss(i__main__
State
p4748
(dp4749
g3
F6.0
sg4
F10.0
sg5
F-6.0
sg6
F-8.0
sb(dp4750
I00
F48.479365134000005
sI01
F0.0
ss(i__main__
State
p4751
(dp4752
g3
F-5.0
sg4
F6.0
sg5
F5.0
sg6
F6.0
sb(dp4753
I00
F18.9174631
sI01
F-20.529
ss(i__main__
State
p4754
(dp4755
g3
F5.0
sg4
F3.0
sg5
F-5.0
sg6
F6.0
sb(dp4756
I00
F-81.67498090000001
sI01
F28.621571073128777
ss(i__main__
State
p4757
(dp4758
g3
F-3.0
sg4
F7.0
sg5
F3.0
sg6
F6.0
sb(dp4759
I00
F52.6683145
sI01
F19.38
ss(i__main__
State
p4760
(dp4761
g3
F-4.0
sg4
F2.0
sg5
F4.0
sg6
F2.0
sb(dp4762
I00
F71.526317
sI01
F-73.573047683358
ss(i__main__
State
p4763
(dp4764
g3
F-8.0
sg4
F3.0
sg5
F8.0
sg6
F-4.0
sb(dp4765
I00
F45.52177005730001
sI01
F7.46
ss(i__main__
State
p4766
(dp4767
g3
F0.0
sg4
F3.0
sg5
F0.0
sg6
F4.0
sb(dp4768
I00
F-11.8
sI01
F-47.730000000000004
ss(i__main__
State
p4769
(dp4770
g3
F6.0
sg4
F7.0
sg5
F-6.0
sg6
F2.0
sb(dp4771
I00
F7.864883077000007
sI01
F-26.237245674381306
ss(i__main__
State
p4772
(dp4773
g3
F1.0
sg4
F1.0
sg5
F-1.0
sg6
F2.0
sb(dp4774
I00
F33.0292
sI01
I-64
ss(i__main__
State
p4775
(dp4776
g3
F-5.0
sg4
F9.0
sg5
F5.0
sg6
F4.0
sb(dp4777
I00
F103.32553000284038
sI01
F0.0
ss(i__main__
State
p4778
(dp4779
g3
F-8.0
sg4
F5.0
sg5
F8.0
sg6
F2.0
sb(dp4780
I00
F68.351
sI01
I-52
ss(i__main__
State
p4781
(dp4782
g3
F-1.0
sg4
F1.0
sg5
F1.0
sg6
F-8.0
sb(dp4783
I00
F41.539885
sI01
I-92
ss(i__main__
State
p4784
(dp4785
g3
F8.0
sg4
F5.0
sg5
F-8.0
sg6
F0.0
sb(dp4786
I00
F35.563606278952
sI01
F6.5
ss(i__main__
State
p4787
(dp4788
g3
F1.0
sg4
F4.0
sg5
F-1.0
sg6
F2.0
sb(dp4789
I00
F47.3926836
sI01
F19.1
ss(i__main__
State
p4790
(dp4791
g3
F2.0
sg4
F10.0
sg5
F-2.0
sg6
F0.0
sb(dp4792
I00
F66.21216969170001
sI01
F12.350000000000001
ss(i__main__
State
p4793
(dp4794
g3
F-2.0
sg4
F2.0
sg5
F2.0
sg6
F2.0
sb(dp4795
I00
I-35
sI01
F-53.2
ss(i__main__
State
p4796
(dp4797
g3
F-6.0
sg4
F3.0
sg5
F6.0
sg6
F-4.0
sb(dp4798
I00
F24.789212000000003
sI01
F-39.66
ss(i__main__
State
p4799
(dp4800
g3
F-1.0
sg4
F6.0
sg5
F1.0
sg6
F-4.0
sb(dp4801
I00
I-98
sI01
F65.63000000000001
ss(i__main__
State
p4802
(dp4803
g3
F-6.0
sg4
F6.0
sg5
F6.0
sg6
F-2.0
sb(dp4804
I00
F93.36045220082
sI01
F35.2
ss.