(dp0
(i__main__
State
p1
(dp2
S'y1'
p3
F8.0
sS'x'
p4
F3.0
sS'y3'
p5
F-3.0
sS'y2'
p6
F-6.0
sb(dp7
I00
F-4993.83222236771
sI01
F1673.0646932836526
ss(i__main__
State
p8
(dp9
g3
F4.0
sg4
F7.0
sg5
F-7.0
sg6
F7.0
sb(dp10
I00
F-9255.069144983992
sI01
F9739.213103256829
ss(i__main__
State
p11
(dp12
g3
F-7.0
sg4
F5.0
sg5
F-1.0
sg6
F-4.0
sb(dp13
I00
F-3870.6957963260566
sI01
F4413.522177099156
ss(i__main__
State
p14
(dp15
g3
F-5.0
sg4
F2.0
sg5
F1.0
sg6
F-2.0
sb(dp16
I00
F-5259.294863330303
sI01
F1046.429946632178
ss(i__main__
State
p17
(dp18
g3
F7.0
sg4
F6.0
sg5
F-4.0
sg6
F-7.0
sb(dp19
I00
F474.39856956113374
sI01
F7838.055089773406
ss(i__main__
State
p20
(dp21
g3
F0.0
sg4
F7.0
sg5
F6.0
sg6
F3.0
sb(dp22
I00
F1166.0502223914805
sI01
F9964.137558598906
ss(i__main__
State
p23
(dp24
g3
F-1.0
sg4
F0.0
sg5
F5.0
sg6
F2.0
sb(dp25
I00
F-7495.784362942917
sI01
F248.31923091629804
ss(i__main__
State
p26
(dp27
g3
F-1.0
sg4
F3.0
sg5
F5.0
sg6
F2.0
sb(dp28
I00
F-8468.526003295145
sI01
F3741.3311827459074
ss(i__main__
State
p29
(dp30
g3
F1.0
sg4
F4.0
sg5
F7.0
sg6
F4.0
sb(dp31
I00
F-4010.6814481314636
sI01
F5284.850562805489
ss(i__main__
State
p32
(dp33
g3
F1.0
sg4
F2.0
sg5
F7.0
sg6
F4.0
sb(dp34
I00
F-6306.060809868941
sI01
F2014.2068121996836
ss(i__main__
State
p35
(dp36
g3
F2.0
sg4
F7.0
sg5
F8.0
sg6
F5.0
sb(dp37
I00
F-7832.632552856769
sI01
F9665.42436061029
ss(i__main__
State
p38
(dp39
g3
F-6.0
sg4
F5.0
sg5
F0.0
sg6
F-3.0
sb(dp40
I00
F-2237.609104694051
sI01
F2895.1114927300864
ss(i__main__
State
p41
(dp42
g3
F-2.0
sg4
F8.0
sg5
F4.0
sg6
F1.0
sb(dp43
I00
F-10719.632481500026
sI01
F137.7635613396987
ss(i__main__
State
p44
(dp45
g3
F6.0
sg4
F0.0
sg5
F-5.0
sg6
F-8.0
sb(dp46
I00
F-1630.4355914412176
sI01
F38.60815317681176
ss(i__main__
State
p47
(dp48
g3
F0.0
sg4
F1.0
sg5
F6.0
sg6
F3.0
sb(dp49
I00
F-8882.71907822092
sI01
F965.2281123511547
ss(i__main__
State
p50
(dp51
g3
F-4.0
sg4
F7.0
sg5
F2.0
sg6
F-1.0
sb(dp52
I00
F1613.3572801991536
sI01
F2167.1858073257476
ss(i__main__
State
p53
(dp54
g3
F-3.0
sg4
F2.0
sg5
F3.0
sg6
F0.0
sb(dp55
I00
F-5164.448296233375
sI01
F1297.9912930647697
ss(i__main__
State
p56
(dp57
g3
F5.0
sg4
F0.0
sg5
F-6.0
sg6
F8.0
sb(dp58
I00
F-15018.15358885935
sI01
F113.3763791735715
ss(i__main__
State
p59
(dp60
g3
F3.0
sg4
F2.0
sg5
F-8.0
sg6
F6.0
sb(dp61
I00
F-5529.2047277945485
sI01
F510.6760822023466
ss(i__main__
State
p62
(dp63
g3
F3.0
sg4
F3.0
sg5
F-8.0
sg6
F6.0
sb(dp64
I00
F-3598.029088068802
sI01
F2711.8742688408747
ss(i__main__
State
p65
(dp66
g3
F-5.0
sg4
F8.0
sg5
F1.0
sg6
F-2.0
sb(dp67
I00
F-12649.96264848216
sI01
F271.52473665322924
ss(i__main__
State
p68
(dp69
g3
F2.0
sg4
F0.0
sg5
F8.0
sg6
F5.0
sb(dp70
I00
F-7405.103126697279
sI01
F339.18437874088045
ss(i__main__
State
p71
(dp72
g3
F4.0
sg4
F4.0
sg5
F-7.0
sg6
F7.0
sb(dp73
I00
F-2278.019471788509
sI01
F4844.724893772088
ss(i__main__
State
p74
(dp75
g3
F-2.0
sg4
F2.0
sg5
F4.0
sg6
F1.0
sb(dp76
I00
F-7259.059389510816
sI01
F2366.1982713431016
ss(i__main__
State
p77
(dp78
g3
F-6.0
sg4
F3.0
sg5
F0.0
sg6
F-3.0
sb(dp79
I00
F-4923.4956092865805
sI01
F1816.3194146640549
ss(i__main__
State
p80
(dp81
g3
F2.0
sg4
F8.0
sg5
F8.0
sg6
F5.0
sb(dp82
I00
F-11707.99639417378
sI01
F91.0310386542499
ss(i__main__
State
p83
(dp84
g3
F-7.0
sg4
F3.0
sg5
F-1.0
sg6
F-4.0
sb(dp85
I00
F-5173.115296056586
sI01
F2036.6416038059529
ss(i__main__
State
p86
(dp87
g3
F5.0
sg4
F6.0
sg5
F-6.0
sg6
F8.0
sb(dp88
I00
F1098.0813475708871
sI01
F9237.860199511602
ss(i__main__
State
p89
(dp90
g3
F8.0
sg4
F1.0
sg5
F-3.0
sg6
F-6.0
sb(dp91
I00
F-7712.234740695021
sI01
F356.7713458846656
ss(i__main__
State
p92
(dp93
g3
F-5.0
sg4
F5.0
sg5
F1.0
sg6
F-2.0
sb(dp94
I00
F-1647.3278719007276
sI01
F6487.26308880032
ss(i__main__
State
p95
(dp96
g3
F-2.0
sg4
F1.0
sg5
F4.0
sg6
F1.0
sb(dp97
I00
F-9457.463173282888
sI01
F496.52426544370576
ss(i__main__
State
p98
(dp99
g3
F7.0
sg4
F5.0
sg5
F-4.0
sg6
F-7.0
sb(dp100
I00
F-4276.927621326267
sI01
F4289.454909217174
ss(i__main__
State
p101
(dp102
g3
F5.0
sg4
F8.0
sg5
F-6.0
sg6
F8.0
sb(dp103
I00
F-16076.694792441067
sI01
F-6.548591655123939
ss(i__main__
State
p104
(dp105
g3
F3.0
sg4
F6.0
sg5
F-8.0
sg6
F6.0
sb(dp106
I00
F1389.1672735094983
sI01
F9088.832659664598
ss(i__main__
State
p107
(dp108
g3
F8.0
sg4
F7.0
sg5
F-3.0
sg6
F-6.0
sb(dp109
I00
F3172.7755622395393
sI01
F9526.640164653621
ss(i__main__
State
p110
(dp111
g3
F8.0
sg4
F4.0
sg5
F-3.0
sg6
F-6.0
sb(dp112
I00
F-908.3039327967365
sI01
F4763.676076391468
ss(i__main__
State
p113
(dp114
g3
F-7.0
sg4
F1.0
sg5
F-1.0
sg6
F-4.0
sb(dp115
I00
F-5705.234808918797
sI01
F344.92939845198066
ss(i__main__
State
p116
(dp117
g3
F8.0
sg4
F8.0
sg5
F-3.0
sg6
F-6.0
sb(dp118
I00
F-7177.095215115968
sI01
F86.82142548903587
ss(i__main__
State
p119
(dp120
g3
F7.0
sg4
F8.0
sg5
F-4.0
sg6
F-7.0
sb(dp121
I00
F-9019.459252142507
sI01
F103.41649122368511
ss(i__main__
State
p122
(dp123
g3
F-7.0
sg4
F8.0
sg5
F-1.0
sg6
F-4.0
sb(dp124
I00
F-11701.070534573331
sI01
F65.40359629523499
ss(i__main__
State
p125
(dp126
g3
F-6.0
sg4
F8.0
sg5
F0.0
sg6
F-3.0
sb(dp127
I00
F-6995.786183582153
sI01
F172.52003956114774
ss(i__main__
State
p128
(dp129
g3
F8.0
sg4
F2.0
sg5
F-3.0
sg6
F-6.0
sb(dp130
I00
F-10287.281392574743
sI01
F487.78781978683173
ss(i__main__
State
p131
(dp132
g3
F-5.0
sg4
F3.0
sg5
F1.0
sg6
F-2.0
sb(dp133
I00
F-5481.903100362747
sI01
F1662.426271081542
ss(i__main__
State
p134
(dp135
g3
F6.0
sg4
F6.0
sg5
F-5.0
sg6
F-8.0
sb(dp136
I00
F1656.4632442155762
sI01
F8891.650612824767
ss(i__main__
State
p137
(dp138
g3
F-8.0
sg4
F6.0
sg5
F-2.0
sg6
F-5.0
sb(dp139
I00
F129.0841652086596
sI01
F3102.2472272834307
ss(i__main__
State
p140
(dp141
g3
F6.0
sg4
F7.0
sg5
F-5.0
sg6
F-8.0
sb(dp142
I00
F869.5772863390957
sI01
F9904.97866925755
ss(i__main__
State
p143
(dp144
g3
F1.0
sg4
F3.0
sg5
F7.0
sg6
F4.0
sb(dp145
I00
F-8797.769141535957
sI01
F2657.492556143103
ss(i__main__
State
p146
(dp147
g3
F1.0
sg4
F1.0
sg5
F7.0
sg6
F4.0
sb(dp148
I00
F-12196.728506413237
sI01
F474.4302929459671
ss(i__main__
State
p149
(dp150
g3
F2.0
sg4
F5.0
sg5
F8.0
sg6
F5.0
sb(dp151
I00
F780.0138120208394
sI01
F7480.255191609832
ss(i__main__
State
p152
(dp153
g3
F0.0
sg4
F2.0
sg5
F6.0
sg6
F3.0
sb(dp154
I00
F-5022.966371293639
sI01
F1649.4305458523731
ss(i__main__
State
p155
(dp156
g3
F-1.0
sg4
F4.0
sg5
F5.0
sg6
F2.0
sb(dp157
I00
F-2660.102094528433
sI01
F3957.0410010461383
ss(i__main__
State
p158
(dp159
g3
F-1.0
sg4
F1.0
sg5
F5.0
sg6
F2.0
sb(dp160
I00
F-11594.172395761314
sI01
F648.5870798667611
ss(i__main__
State
p161
(dp162
g3
F-1.0
sg4
F5.0
sg5
F5.0
sg6
F2.0
sb(dp163
I00
F-3675.1629551262145
sI01
F5935.917319522176
ss(i__main__
State
p164
(dp165
g3
F6.0
sg4
F3.0
sg5
F-5.0
sg6
F-8.0
sb(dp166
I00
F-4570.518415546601
sI01
F1622.3768987445499
ss(i__main__
State
p167
(dp168
g3
F-3.0
sg4
F0.0
sg5
F3.0
sg6
F0.0
sb(dp169
I00
F-11477.768631654722
sI01
F123.41331459397603
ss(i__main__
State
p170
(dp171
g3
F-6.0
sg4
F7.0
sg5
F0.0
sg6
F-3.0
sb(dp172
I00
F-6105.973155145597
sI01
F9943.454343120902
ss(i__main__
State
p173
(dp174
g3
F3.0
sg4
F4.0
sg5
F-8.0
sg6
F6.0
sb(dp175
I00
F-2936.415956476106
sI01
F5981.43828774301
ss(i__main__
State
p176
(dp177
g3
F7.0
sg4
F4.0
sg5
F-4.0
sg6
F-7.0
sb(dp178
I00
F-3369.7010686359836
sI01
F2224.7666982362284
ss(i__main__
State
p179
(dp180
g3
F4.0
sg4
F1.0
sg5
F-7.0
sg6
F7.0
sb(dp181
I00
F-7854.3622657441
sI01
F539.615244503733
ss(i__main__
State
p182
(dp183
g3
F1.0
sg4
F7.0
sg5
F7.0
sg6
F4.0
sb(dp184
I00
F-5266.654183276752
sI01
F9704.710311596633
ss(i__main__
State
p185
(dp186
g3
F1.0
sg4
F5.0
sg5
F7.0
sg6
F4.0
sb(dp187
I00
F-1511.4104476434131
sI01
F7490.80615739327
ss(i__main__
State
p188
(dp189
g3
F-5.0
sg4
F6.0
sg5
F1.0
sg6
F-2.0
sb(dp190
I00
F-2410.7114580041475
sI01
F2976.9633165149253
ss(i__main__
State
p191
(dp192
g3
F-8.0
sg4
F4.0
sg5
F-2.0
sg6
F-5.0
sb(dp193
I00
F-3248.319616799689
sI01
F3000.144804432054
ss(i__main__
State
p194
(dp195
g3
F-1.0
sg4
F7.0
sg5
F5.0
sg6
F2.0
sb(dp196
I00
F489.6978768883175
sI01
F2568.1805195661036
ss(i__main__
State
p197
(dp198
g3
F5.0
sg4
F4.0
sg5
F-6.0
sg6
F8.0
sb(dp199
I00
F-2428.9693432938266
sI01
F2631.592958516386
ss(i__main__
State
p200
(dp201
g3
F-2.0
sg4
F5.0
sg5
F4.0
sg6
F1.0
sb(dp202
I00
F-2269.587779784591
sI01
F7594.672380317754
ss(i__main__
State
p203
(dp204
g3
F-8.0
sg4
F2.0
sg5
F-2.0
sg6
F-5.0
sb(dp205
I00
F-9410.374716064915
sI01
F948.2350532322254
ss(i__main__
State
p206
(dp207
g3
F-8.0
sg4
F7.0
sg5
F-2.0
sg6
F-5.0
sb(dp208
I00
F-8742.04538382073
sI01
F7750.359337516736
ss(i__main__
State
p209
(dp210
g3
F1.0
sg4
F8.0
sg5
F7.0
sg6
F4.0
sb(dp211
I00
F-17562.536023864297
sI01
F171.9626117471764
ss(i__main__
State
p212
(dp213
g3
F0.0
sg4
F5.0
sg5
F6.0
sg6
F3.0
sb(dp214
I00
F-816.5872191761098
sI01
F6410.015841340748
ss(i__main__
State
p215
(dp216
g3
F-4.0
sg4
F3.0
sg5
F2.0
sg6
F-1.0
sb(dp217
I00
F-2345.6652280759467
sI01
F2492.9775488260398
ss(i__main__
State
p218
(dp219
g3
F-8.0
sg4
F5.0
sg5
F-2.0
sg6
F-5.0
sb(dp220
I00
F-850.0160616798021
sI01
F6884.285301480957
ss(i__main__
State
p221
(dp222
g3
F5.0
sg4
F5.0
sg5
F-6.0
sg6
F8.0
sb(dp223
I00
F-2196.977453024662
sI01
F7013.207193652806
ss(i__main__
State
p224
(dp225
g3
F7.0
sg4
F3.0
sg5
F-4.0
sg6
F-7.0
sb(dp226
I00
F-3651.8103901619843
sI01
F3254.1318835898383
ss(i__main__
State
p227
(dp228
g3
F-5.0
sg4
F7.0
sg5
F1.0
sg6
F-2.0
sb(dp229
I00
F-7556.905245704751
sI01
F7567.751778729932
ss(i__main__
State
p230
(dp231
g3
F-4.0
sg4
F4.0
sg5
F2.0
sg6
F-1.0
sb(dp232
I00
F-4203.286354565142
sI01
F2495.156079797257
ss(i__main__
State
p233
(dp234
g3
F3.0
sg4
F7.0
sg5
F-8.0
sg6
F6.0
sb(dp235
I00
F28.29621361368072
sI01
F9845.594680787568
ss(i__main__
State
p236
(dp237
g3
F7.0
sg4
F0.0
sg5
F-4.0
sg6
F-7.0
sb(dp238
I00
F-14921.15848119854
sI01
F137.9225886757548
ss(i__main__
State
p239
(dp240
g3
F-6.0
sg4
F6.0
sg5
F0.0
sg6
F-3.0
sb(dp241
I00
F1018.8893695319936
sI01
F6427.032657263064
ss(i__main__
State
p242
(dp243
g3
F-6.0
sg4
F0.0
sg5
F0.0
sg6
F-3.0
sb(dp244
I00
F-11390.423855565621
sI01
F131.22380278920733
ss(i__main__
State
p245
(dp246
g3
F-8.0
sg4
F0.0
sg5
F-2.0
sg6
F-5.0
sb(dp247
I00
F-10905.301606639068
sI01
F126.62103525387516
ss(i__main__
State
p248
(dp249
g3
F6.0
sg4
F8.0
sg5
F-5.0
sg6
F-8.0
sb(dp250
I00
F-7351.828962852202
sI01
F77.57810365867724
ss(i__main__
State
p251
(dp252
g3
F-3.0
sg4
F3.0
sg5
F3.0
sg6
F0.0
sb(dp253
I00
F-5428.413923818202
sI01
F1967.5695069901055
ss(i__main__
State
p254
(dp255
g3
F0.0
sg4
F0.0
sg5
F6.0
sg6
F3.0
sb(dp256
I00
F-9121.071501412225
sI01
F83.33795608202729
ss(i__main__
State
p257
(dp258
g3
F8.0
sg4
F0.0
sg5
F-8.0
sg6
F0.0
sb(dp259
I00
F-16035.832139893622
sI01
I37
ss(i__main__
State
p260
(dp261
g3
F5.0
sg4
F2.0
sg5
F-6.0
sg6
F8.0
sb(dp262
I00
F-6929.019626825998
sI01
F1119.8235929874484
ss(i__main__
State
p263
(dp264
g3
F-8.0
sg4
F3.0
sg5
F-2.0
sg6
F-5.0
sb(dp265
I00
F-3966.973721020355
sI01
F1098.540878227247
ss(i__main__
State
p266
(dp267
g3
F-2.0
sg4
F7.0
sg5
F4.0
sg6
F1.0
sb(dp268
I00
F-1425.0541317492223
sI01
F8283.376198586313
ss(i__main__
State
p269
(dp270
g3
F0.0
sg4
F6.0
sg5
F6.0
sg6
F3.0
sb(dp271
I00
F-309.53168701011407
sI01
F8577.678154989015
ss(i__main__
State
p272
(dp273
g3
F-4.0
sg4
F8.0
sg5
F2.0
sg6
F-1.0
sb(dp274
I00
F-13148.611463151028
sI01
F73.44638708002597
ss(i__main__
State
p275
(dp276
g3
F-8.0
sg4
F1.0
sg5
F-2.0
sg6
F-5.0
sb(dp277
I00
F-6457.526854244658
sI01
F475.2464175243062
ss(i__main__
State
p278
(dp279
g3
F-3.0
sg4
F1.0
sg5
F3.0
sg6
F0.0
sb(dp280
I00
F-8561.919620603494
sI01
F1116.1036031207332
ss(i__main__
State
p281
(dp282
g3
F7.0
sg4
F7.0
sg5
F-4.0
sg6
F-7.0
sb(dp283
I00
F1415.9830114234278
sI01
F9856.983452038769
ss(i__main__
State
p284
(dp285
g3
F-3.0
sg4
F7.0
sg5
F3.0
sg6
F0.0
sb(dp286
I00
F3760.518279981737
sI01
F9800.407377270347
ss(i__main__
State
p287
(dp288
g3
F4.0
sg4
F5.0
sg5
F-7.0
sg6
F7.0
sb(dp289
I00
F-3038.240675425417
sI01
F7988.954805286163
ss(i__main__
State
p290
(dp291
g3
F4.0
sg4
F0.0
sg5
F-7.0
sg6
F7.0
sb(dp292
I00
F-3053.075660870572
sI01
F303.9458308333551
ss(i__main__
State
p293
(dp294
g3
F6.0
sg4
F5.0
sg5
F-5.0
sg6
F-8.0
sb(dp295
I00
F-765.0903741541007
sI01
F5105.976528202988
ss(i__main__
State
p296
(dp297
g3
F-5.0
sg4
F4.0
sg5
F1.0
sg6
F-2.0
sb(dp298
I00
F-4503.696034558832
sI01
F3130.5648770478833
ss(i__main__
State
p299
(dp300
g3
F-3.0
sg4
F8.0
sg5
F3.0
sg6
F0.0
sb(dp301
I00
F-11423.030971320342
sI01
F87.43534537943206
ss(i__main__
State
p302
(dp303
g3
F0.0
sg4
F8.0
sg5
F6.0
sg6
F3.0
sb(dp304
I00
F-12207.528400663574
sI01
F27.882660799998572
ss(i__main__
State
p305
(dp306
g3
F-5.0
sg4
F0.0
sg5
F1.0
sg6
F-2.0
sb(dp307
I00
F-9807.063857252067
sI01
F288.5025606398441
ss(i__main__
State
p308
(dp309
g3
F-1.0
sg4
F2.0
sg5
F5.0
sg6
F2.0
sb(dp310
I00
F-7008.636200018556
sI01
F1146.8913003299017
ss(i__main__
State
p311
(dp312
g3
F5.0
sg4
F3.0
sg5
F-6.0
sg6
F8.0
sb(dp313
I00
F-6113.746162041641
sI01
F1716.1448271257873
ss(i__main__
State
p314
(dp315
g3
F-1.0
sg4
F6.0
sg5
F5.0
sg6
F2.0
sb(dp316
I00
F1363.960992652484
sI01
F9204.31235758977
ss(i__main__
State
p317
(dp318
g3
F-7.0
sg4
F4.0
sg5
F-1.0
sg6
F-4.0
sb(dp319
I00
F-1309.5608670503623
sI01
F1665.1456223130463
ss(i__main__
State
p320
(dp321
g3
F-4.0
sg4
F1.0
sg5
F2.0
sg6
F-1.0
sb(dp322
I00
F-8361.582939018286
sI01
F751.3383268472487
ss(i__main__
State
p323
(dp324
g3
F1.0
sg4
F0.0
sg5
F7.0
sg6
F4.0
sb(dp325
I00
F-12724.96656283718
sI01
F87.69688326032323
ss(i__main__
State
p326
(dp327
g3
F8.0
sg4
F5.0
sg5
F-3.0
sg6
F-6.0
sb(dp328
I00
F-2588.0482022035603
sI01
F2369.723142876727
ss(i__main__
State
p329
(dp330
g3
F3.0
sg4
F0.0
sg5
F-8.0
sg6
F6.0
sb(dp331
I00
F-6573.4932194477515
sI01
F196.68329420671554
ss(i__main__
State
p332
(dp333
g3
F7.0
sg4
F1.0
sg5
F-4.0
sg6
F-7.0
sb(dp334
I00
F-7263.153023567233
sI01
F202.25059591630375
ss(i__main__
State
p335
(dp336
g3
F4.0
sg4
F2.0
sg5
F-7.0
sg6
F7.0
sb(dp337
I00
F-11534.738097492238
sI01
F1077.1747874098778
ss(i__main__
State
p338
(dp339
g3
F-6.0
sg4
F4.0
sg5
F0.0
sg6
F-3.0
sb(dp340
I00
F-6679.252873778977
sI01
F4017.0090675639567
ss(i__main__
State
p341
(dp342
g3
F-4.0
sg4
F5.0
sg5
F2.0
sg6
F-1.0
sb(dp343
I00
F-2432.230210252962
sI01
F5296.792928545751
ss(i__main__
State
p344
(dp345
g3
F-3.0
sg4
F4.0
sg5
F3.0
sg6
F0.0
sb(dp346
I00
F-1951.2010640324072
sI01
F4879.659689044442
ss(i__main__
State
p347
(dp348
g3
F0.0
sg4
F3.0
sg5
F6.0
sg6
F3.0
sb(dp349
I00
F-3667.626953782741
sI01
F2503.9190809468696
ss(i__main__
State
p350
(dp351
g3
F4.0
sg4
F3.0
sg5
F-7.0
sg6
F7.0
sb(dp352
I00
F-1666.1301961605466
sI01
F1288.1720147470367
ss(i__main__
State
p353
(dp354
g3
F-4.0
sg4
F6.0
sg5
F2.0
sg6
F-1.0
sb(dp355
I00
F977.2663065905051
sI01
F8631.17924717501
ss(i__main__
State
p356
(dp357
g3
F-6.0
sg4
F2.0
sg5
F0.0
sg6
F-3.0
sb(dp358
I00
F-3887.5836040010845
sI01
F832.8941873779406
ss(i__main__
State
p359
(dp360
g3
F-7.0
sg4
F6.0
sg5
F-1.0
sg6
F-4.0
sb(dp361
I00
F783.9781480917474
sI01
F8306.673967871924
ss(i__main__
State
p362
(dp363
g3
F6.0
sg4
F2.0
sg5
F-5.0
sg6
F-8.0
sb(dp364
I00
F-5275.825775147436
sI01
F1749.3849959457475
ss(i__main__
State
p365
(dp366
g3
F3.0
sg4
F5.0
sg5
F-8.0
sg6
F6.0
sb(dp367
I00
F-1455.308973907863
sI01
F6203.473528719151
ss(i__main__
State
p368
(dp369
g3
F-8.0
sg4
F8.0
sg5
F-2.0
sg6
F-5.0
sb(dp370
I00
F-17915.08155083626
sI01
F104.67418496013302
ss(i__main__
State
p371
(dp372
g3
F-2.0
sg4
F0.0
sg5
F4.0
sg6
F1.0
sb(dp373
I00
F-12681.945099723038
sI01
F292.50960104016
ss(i__main__
State
p374
(dp375
g3
F2.0
sg4
F2.0
sg5
F8.0
sg6
F5.0
sb(dp376
I00
F-11178.89741790204
sI01
F1207.3757853050897
ss(i__main__
State
p377
(dp378
g3
F5.0
sg4
F1.0
sg5
F-6.0
sg6
F8.0
sb(dp379
I00
F-13612.236381762359
sI01
F818.4024779130191
ss(i__main__
State
p380
(dp381
g3
F-2.0
sg4
F4.0
sg5
F4.0
sg6
F1.0
sb(dp382
I00
F-6904.667731599077
sI01
F3890.544755978728
ss(i__main__
State
p383
(dp384
g3
F-7.0
sg4
F2.0
sg5
F-1.0
sg6
F-4.0
sb(dp385
I00
F-11007.954492556188
sI01
F955.5770287098554
ss(i__main__
State
p386
(dp387
g3
F-3.0
sg4
F6.0
sg5
F3.0
sg6
F0.0
sb(dp388
I00
F-336.72401681855916
sI01
F6312.990712111829
ss(i__main__
State
p389
(dp390
g3
F2.0
sg4
F4.0
sg5
F8.0
sg6
F5.0
sb(dp391
I00
F-1956.377402425589
sI01
F4143.938580426267
ss(i__main__
State
p392
(dp393
g3
F-2.0
sg4
F3.0
sg5
F4.0
sg6
F1.0
sb(dp394
I00
F-9731.581373337944
sI01
F2353.7890625961136
ss(i__main__
State
p395
(dp396
g3
F6.0
sg4
F4.0
sg5
F-5.0
sg6
F-8.0
sb(dp397
I00
F-5905.501584080744
sI01
F2871.2472701029506
ss(i__main__
State
p398
(dp399
g3
F-4.0
sg4
F0.0
sg5
F2.0
sg6
F-1.0
sb(dp400
I00
F-8821.930100303009
sI01
F529.2925468145986
ss(i__main__
State
p401
(dp402
g3
F3.0
sg4
F1.0
sg5
F-8.0
sg6
F6.0
sb(dp403
I00
F-9368.002352734846
sI01
F654.2624734447459
ss(i__main__
State
p404
(dp405
g3
F-2.0
sg4
F6.0
sg5
F4.0
sg6
F1.0
sb(dp406
I00
F-461.52556382149754
sI01
F3987.4403188325728
ss(i__main__
State
p407
(dp408
g3
F-6.0
sg4
F1.0
sg5
F0.0
sg6
F-3.0
sb(dp409
I00
F-4766.157341167612
sI01
F394.20948987536906
ss(i__main__
State
p410
(dp411
g3
F2.0
sg4
F1.0
sg5
F8.0
sg6
F5.0
sb(dp412
I00
F-9522.1288269907
sI01
F201.5413032108617
ss(i__main__
State
p413
(dp414
g3
F4.0
sg4
F8.0
sg5
F-7.0
sg6
F7.0
sb(dp415
I00
F-10538.27425672951
sI01
F81.55371252791683
ss(i__main__
State
p416
(dp417
g3
F7.0
sg4
F2.0
sg5
F-4.0
sg6
F-7.0
sb(dp418
I00
F-10383.130961034803
sI01
F857.279310467952
ss(i__main__
State
p419
(dp420
g3
F2.0
sg4
F3.0
sg5
F8.0
sg6
F5.0
sb(dp421
I00
F-2732.6971305206407
sI01
F3849.205927406357
ss(i__main__
State
p422
(dp423
g3
F0.0
sg4
F4.0
sg5
F6.0
sg6
F3.0
sb(dp424
I00
F-2726.5388173212727
sI01
F5633.540854692762
ss(i__main__
State
p425
(dp426
g3
F-1.0
sg4
F8.0
sg5
F5.0
sg6
F2.0
sb(dp427
I00
F-6041.479659910054
sI01
F77.32531212660462
ss(i__main__
State
p428
(dp429
g3
F8.0
sg4
F6.0
sg5
F-3.0
sg6
F-6.0
sb(dp430
I00
F672.8517416820297
sI01
F6446.804071100654
ss(i__main__
State
p431
(dp432
g3
F5.0
sg4
F7.0
sg5
F-6.0
sg6
F8.0
sb(dp433
I00
F644.4122673079389
sI01
F9816.414202205457
ss(i__main__
State
p434
(dp435
g3
F-7.0
sg4
F7.0
sg5
F-1.0
sg6
F-4.0
sb(dp436
I00
F-1648.2453800507465
sI01
F1110.1042219670758
ss(i__main__
State
p437
(dp438
g3
F6.0
sg4
F1.0
sg5
F-5.0
sg6
F-8.0
sb(dp439
I00
F-12339.251413503296
sI01
F412.7033432698111
ss(i__main__
State
p440
(dp441
g3
F-5.0
sg4
F1.0
sg5
F1.0
sg6
F-2.0
sb(dp442
I00
F-5640.760722895098
sI01
F356.01024203651843
ss(i__main__
State
p443
(dp444
g3
F2.0
sg4
F6.0
sg5
F8.0
sg6
F5.0
sb(dp445
I00
F-132.35699999999997
sI01
F9081.374876483223
ss(i__main__
State
p446
(dp447
g3
F4.0
sg4
F6.0
sg5
F-7.0
sg6
F7.0
sb(dp448
I00
F1602.5721336935235
sI01
F8533.059778114468
ss(i__main__
State
p449
(dp450
g3
F-3.0
sg4
F5.0
sg5
F3.0
sg6
F0.0
sb(dp451
I00
F-2908.496822479424
sI01
F2704.9262806886754
ss(i__main__
State
p452
(dp453
g3
F1.0
sg4
F6.0
sg5
F7.0
sg6
F4.0
sb(dp454
I00
F1323.2219323755364
sI01
F8229.852798915774
ss(i__main__
State
p455
(dp456
g3
F8.0
sg4
F0.0
sg5
F-3.0
sg6
F-6.0
sb(dp457
I00
F-12259.915463940351
sI01
F189.33376807923332
ss(i__main__
State
p458
(dp459
g3
F3.0
sg4
F8.0
sg5
F-8.0
sg6
F6.0
sb(dp460
I00
F-12378.312437220498
sI01
F108.99881854997506
ss(i__main__
State
p461
(dp462
g3
F-7.0
sg4
F0.0
sg5
F-1.0
sg6
F-4.0
sb(dp463
I00
I56
sI01
F218.4736423669644
ss(i__main__
State
p464
(dp465
g3
F-4.0
sg4
F2.0
sg5
F2.0
sg6
F-1.0
sb(dp466
I00
F-5484.844770897193
sI01
F851.9919737024109
ss.