(dp0
(i__main__
State
p1
(dp2
S'y1'
p3
F8.0
sS'x'
p4
F3.0
sS'y3'
p5
F-3.0
sS'y2'
p6
F-6.0
sb(dp7
I00
F260046.48107713292
sI01
F274768.5748028039
ss(i__main__
State
p8
(dp9
g3
F4.0
sg4
F7.0
sg5
F-7.0
sg6
F7.0
sb(dp10
I00
F270273.7802564161
sI01
F278427.9691657721
ss(i__main__
State
p11
(dp12
g3
F-7.0
sg4
F5.0
sg5
F-1.0
sg6
F-4.0
sb(dp13
I00
F264839.212264623
sI01
F277217.4284641829
ss(i__main__
State
p14
(dp15
g3
F0.0
sg4
F8.0
sg5
F6.0
sg6
F3.0
sb(dp16
I00
F245513.00843683953
sI01
F270042.0077146491
ss(i__main__
State
p17
(dp18
g3
F-1.0
sg4
F1.0
sg5
F5.0
sg6
F2.0
sb(dp19
I00
F255812.60853927635
sI01
F273291.4468573309
ss(i__main__
State
p20
(dp21
g3
F7.0
sg4
F6.0
sg5
F-4.0
sg6
F-7.0
sb(dp22
I00
F268862.91838728305
sI01
F278179.18548978795
ss(i__main__
State
p23
(dp24
g3
F3.0
sg4
F7.0
sg5
F-8.0
sg6
F6.0
sb(dp25
I00
F269284.2454386537
sI01
F279232.9312524843
ss(i__main__
State
p26
(dp27
g3
F-1.0
sg4
F3.0
sg5
F5.0
sg6
F2.0
sb(dp28
I00
F260283.44922596597
sI01
F275469.18295111845
ss(i__main__
State
p29
(dp30
g3
F1.0
sg4
F4.0
sg5
F7.0
sg6
F4.0
sb(dp31
I00
F263166.40864159
sI01
F275959.1332716538
ss(i__main__
State
p32
(dp33
g3
F1.0
sg4
F2.0
sg5
F7.0
sg6
F4.0
sb(dp34
I00
F255670.75087096562
sI01
F273533.6342974117
ss(i__main__
State
p35
(dp36
g3
F2.0
sg4
F7.0
sg5
F8.0
sg6
F5.0
sb(dp37
I00
F271916.26742027904
sI01
F280119.7714784435
ss(i__main__
State
p38
(dp39
g3
F-6.0
sg4
F5.0
sg5
F0.0
sg6
F-3.0
sb(dp40
I00
F263869.43479664193
sI01
F272856.7876808771
ss(i__main__
State
p41
(dp42
g3
F-2.0
sg4
F8.0
sg5
F4.0
sg6
F1.0
sb(dp43
I00
F250331.01911829424
sI01
F271085.30654491344
ss(i__main__
State
p44
(dp45
g3
F6.0
sg4
F0.0
sg5
F-5.0
sg6
F-8.0
sb(dp46
I00
F249785.40167098917
sI01
F270183.92966504145
ss(i__main__
State
p47
(dp48
g3
F0.0
sg4
F1.0
sg5
F6.0
sg6
F3.0
sb(dp49
I00
F254253.68923708395
sI01
F272715.0470422499
ss(i__main__
State
p50
(dp51
g3
F-4.0
sg4
F7.0
sg5
F2.0
sg6
F-1.0
sb(dp52
I00
F272671.51605957956
sI01
F273405.1127673952
ss(i__main__
State
p53
(dp54
g3
F-3.0
sg4
F2.0
sg5
F3.0
sg6
F0.0
sb(dp55
I00
F254563.57221780453
sI01
F274972.07354534516
ss(i__main__
State
p56
(dp57
g3
F5.0
sg4
F0.0
sg5
F-6.0
sg6
F8.0
sb(dp58
I00
F248020.05261933646
sI01
F270923.63632629014
ss(i__main__
State
p59
(dp60
g3
F3.0
sg4
F2.0
sg5
F-8.0
sg6
F6.0
sb(dp61
I00
F257300.53441357258
sI01
F273360.661730606
ss(i__main__
State
p62
(dp63
g3
F3.0
sg4
F3.0
sg5
F-8.0
sg6
F6.0
sb(dp64
I00
F262167.3250860997
sI01
F274895.1735049003
ss(i__main__
State
p65
(dp66
g3
F-5.0
sg4
F8.0
sg5
F1.0
sg6
F-2.0
sb(dp67
I00
F250510.3695799379
sI01
F271123.7205416852
ss(i__main__
State
p68
(dp69
g3
F2.0
sg4
F0.0
sg5
F8.0
sg6
F5.0
sb(dp70
I00
F248109.91338629616
sI01
F270236.90431726904
ss(i__main__
State
p71
(dp72
g3
F4.0
sg4
F4.0
sg5
F-7.0
sg6
F7.0
sb(dp73
I00
F263966.20842739724
sI01
F275863.017267
ss(i__main__
State
p74
(dp75
g3
F-2.0
sg4
F2.0
sg5
F4.0
sg6
F1.0
sb(dp76
I00
F254620.44143880883
sI01
F274278.22688447125
ss(i__main__
State
p77
(dp78
g3
F-4.0
sg4
F2.0
sg5
F2.0
sg6
F-1.0
sb(dp79
I00
F258886.6136359593
sI01
F273593.7630215949
ss(i__main__
State
p80
(dp81
g3
F-6.0
sg4
F3.0
sg5
F0.0
sg6
F-3.0
sb(dp82
I00
F261237.6350660779
sI01
F273593.3497113743
ss(i__main__
State
p83
(dp84
g3
F2.0
sg4
F8.0
sg5
F8.0
sg6
F5.0
sb(dp85
I00
F247655.8512944144
sI01
F269426.16292668256
ss(i__main__
State
p86
(dp87
g3
F-7.0
sg4
F3.0
sg5
F-1.0
sg6
F-4.0
sb(dp88
I00
F260518.74336727348
sI01
F275109.6201246279
ss(i__main__
State
p89
(dp90
g3
F5.0
sg4
F6.0
sg5
F-6.0
sg6
F8.0
sb(dp91
I00
F270605.9834023861
sI01
F277579.7221871995
ss(i__main__
State
p92
(dp93
g3
F8.0
sg4
F1.0
sg5
F-3.0
sg6
F-6.0
sb(dp94
I00
F254523.92704439064
sI01
F272876.0729265131
ss(i__main__
State
p95
(dp96
g3
F-5.0
sg4
F5.0
sg5
F1.0
sg6
F-2.0
sb(dp97
I00
F267270.06290839013
sI01
F276972.2945140715
ss(i__main__
State
p98
(dp99
g3
F-2.0
sg4
F1.0
sg5
F4.0
sg6
F1.0
sb(dp100
I00
F255965.6712244784
sI01
F273377.11517088505
ss(i__main__
State
p101
(dp102
g3
F7.0
sg4
F5.0
sg5
F-4.0
sg6
F-7.0
sb(dp103
I00
F265471.660931856
sI01
F275204.8456267734
ss(i__main__
State
p104
(dp105
g3
F5.0
sg4
F8.0
sg5
F-6.0
sg6
F8.0
sb(dp106
I00
F244139.548876755
sI01
F269242.86564286926
ss(i__main__
State
p107
(dp108
g3
F3.0
sg4
F6.0
sg5
F-8.0
sg6
F6.0
sb(dp109
I00
F270422.96574626525
sI01
F277422.4243943115
ss(i__main__
State
p110
(dp111
g3
F3.0
sg4
F1.0
sg5
F-8.0
sg6
F6.0
sb(dp112
I00
F252414.64492414673
sI01
F271180.9467835154
ss(i__main__
State
p113
(dp114
g3
F8.0
sg4
F4.0
sg5
F-3.0
sg6
F-6.0
sb(dp115
I00
F266128.9712286672
sI01
F276542.8050334325
ss(i__main__
State
p116
(dp117
g3
F-7.0
sg4
F1.0
sg5
F-1.0
sg6
F-4.0
sb(dp118
I00
F255504.875693754
sI01
F271253.79952752666
ss(i__main__
State
p119
(dp120
g3
F8.0
sg4
F8.0
sg5
F-3.0
sg6
F-6.0
sb(dp121
I00
F247909.84829681503
sI01
F269587.79565504123
ss(i__main__
State
p122
(dp123
g3
F7.0
sg4
F8.0
sg5
F-4.0
sg6
F-7.0
sb(dp124
I00
F249096.88942225694
sI01
F269620.1603425543
ss(i__main__
State
p125
(dp126
g3
F-7.0
sg4
F8.0
sg5
F-1.0
sg6
F-4.0
sb(dp127
I00
F249524.82936462216
sI01
F270788.4819752249
ss(i__main__
State
p128
(dp129
g3
F-6.0
sg4
F8.0
sg5
F0.0
sg6
F-3.0
sb(dp130
I00
F247168.7599661729
sI01
F271071.2225574258
ss(i__main__
State
p131
(dp132
g3
F4.0
sg4
F1.0
sg5
F-7.0
sg6
F7.0
sb(dp133
I00
F249902.06992236798
sI01
F270587.6607439857
ss(i__main__
State
p134
(dp135
g3
F-5.0
sg4
F3.0
sg5
F1.0
sg6
F-2.0
sb(dp136
I00
F256996.63770138237
sI01
F271770.11453974806
ss(i__main__
State
p137
(dp138
g3
F6.0
sg4
F6.0
sg5
F-5.0
sg6
F-8.0
sb(dp139
I00
F269792.42906060786
sI01
F277882.0978120479
ss(i__main__
State
p140
(dp141
g3
F-8.0
sg4
F6.0
sg5
F-2.0
sg6
F-5.0
sb(dp142
I00
F266349.11543317506
sI01
F272827.97548758157
ss(i__main__
State
p143
(dp144
g3
F6.0
sg4
F7.0
sg5
F-5.0
sg6
F-8.0
sb(dp145
I00
F265446.4093847705
sI01
F278612.01876869414
ss(i__main__
State
p146
(dp147
g3
F1.0
sg4
F3.0
sg5
F7.0
sg6
F4.0
sb(dp148
I00
F263132.1170558653
sI01
F275168.6665674523
ss(i__main__
State
p149
(dp150
g3
F1.0
sg4
F1.0
sg5
F7.0
sg6
F4.0
sb(dp151
I00
F256297.93972518508
sI01
F273036.4963179849
ss(i__main__
State
p152
(dp153
g3
F2.0
sg4
F5.0
sg5
F8.0
sg6
F5.0
sb(dp154
I00
F265373.44189044356
sI01
F276811.01861955255
ss(i__main__
State
p155
(dp156
g3
F0.0
sg4
F2.0
sg5
F6.0
sg6
F3.0
sb(dp157
I00
F258497.08915188623
sI01
F274299.04202486004
ss(i__main__
State
p158
(dp159
g3
F-1.0
sg4
F4.0
sg5
F5.0
sg6
F2.0
sb(dp160
I00
F263656.5880900438
sI01
F276951.5516572936
ss(i__main__
State
p161
(dp162
g3
F-5.0
sg4
F2.0
sg5
F1.0
sg6
F-2.0
sb(dp163
I00
F259211.376522176
sI01
F274019.41938791226
ss(i__main__
State
p164
(dp165
g3
F-1.0
sg4
F5.0
sg5
F5.0
sg6
F2.0
sb(dp166
I00
F265636.165538998
sI01
F276560.39357597154
ss(i__main__
State
p167
(dp168
g3
F6.0
sg4
F3.0
sg5
F-5.0
sg6
F-8.0
sb(dp169
I00
F258594.9580358406
sI01
F271546.19294053246
ss(i__main__
State
p170
(dp171
g3
F-3.0
sg4
F0.0
sg5
F3.0
sg6
F0.0
sb(dp172
I00
F251438.9313230062
sI01
F272509.315357437
ss(i__main__
State
p173
(dp174
g3
F-6.0
sg4
F7.0
sg5
F0.0
sg6
F-3.0
sb(dp175
I00
F271205.8504815077
sI01
F279932.68274483894
ss(i__main__
State
p176
(dp177
g3
F3.0
sg4
F4.0
sg5
F-8.0
sg6
F6.0
sb(dp178
I00
F263593.03857528744
sI01
F275724.4675644012
ss(i__main__
State
p179
(dp180
g3
F8.0
sg4
F2.0
sg5
F-3.0
sg6
F-6.0
sb(dp181
I00
F253895.56885844521
sI01
F271839.715954141
ss(i__main__
State
p182
(dp183
g3
F1.0
sg4
F7.0
sg5
F7.0
sg6
F4.0
sb(dp184
I00
F270641.1141187181
sI01
F278689.5687580799
ss(i__main__
State
p185
(dp186
g3
F1.0
sg4
F5.0
sg5
F7.0
sg6
F4.0
sb(dp187
I00
F263736.29802089825
sI01
F277376.34385860554
ss(i__main__
State
p188
(dp189
g3
F-5.0
sg4
F6.0
sg5
F1.0
sg6
F-2.0
sb(dp190
I00
F266544.81637345615
sI01
F272210.8114083924
ss(i__main__
State
p191
(dp192
g3
F-8.0
sg4
F4.0
sg5
F-2.0
sg6
F-5.0
sb(dp193
I00
F264466.20327443356
sI01
F276397.6915339298
ss(i__main__
State
p194
(dp195
g3
F5.0
sg4
F5.0
sg5
F-6.0
sg6
F8.0
sb(dp196
I00
F265138.6588257123
sI01
F276794.833554858
ss(i__main__
State
p197
(dp198
g3
F5.0
sg4
F4.0
sg5
F-6.0
sg6
F8.0
sb(dp199
I00
F261519.3919303217
sI01
F276018.1986237637
ss(i__main__
State
p200
(dp201
g3
F-2.0
sg4
F5.0
sg5
F4.0
sg6
F1.0
sb(dp202
I00
F264853.9672097984
sI01
F276725.30187076895
ss(i__main__
State
p203
(dp204
g3
F-8.0
sg4
F2.0
sg5
F-2.0
sg6
F-5.0
sb(dp205
I00
F257872.97814601727
sI01
F273806.35324532527
ss(i__main__
State
p206
(dp207
g3
F-8.0
sg4
F7.0
sg5
F-2.0
sg6
F-5.0
sb(dp208
I00
F263253.6245916447
sI01
F279482.59478173754
ss(i__main__
State
p209
(dp210
g3
F1.0
sg4
F8.0
sg5
F7.0
sg6
F4.0
sb(dp211
I00
F246774.59751340418
sI01
F269489.5213970575
ss(i__main__
State
p212
(dp213
g3
F0.0
sg4
F5.0
sg5
F6.0
sg6
F3.0
sb(dp214
I00
F267795.8452225913
sI01
F277932.66659686784
ss(i__main__
State
p215
(dp216
g3
F-6.0
sg4
F2.0
sg5
F0.0
sg6
F-3.0
sb(dp217
I00
F255584.6521045859
sI01
F271506.5895608206
ss(i__main__
State
p218
(dp219
g3
F-8.0
sg4
F5.0
sg5
F-2.0
sg6
F-5.0
sb(dp220
I00
F267085.7026745528
sI01
F277395.34343821474
ss(i__main__
State
p221
(dp222
g3
F-3.0
sg4
F6.0
sg5
F3.0
sg6
F0.0
sb(dp223
I00
F270189.7373654044
sI01
F276344.4256186074
ss(i__main__
State
p224
(dp225
g3
F7.0
sg4
F3.0
sg5
F-4.0
sg6
F-7.0
sb(dp226
I00
F262235.8968472326
sI01
F275646.9003717544
ss(i__main__
State
p227
(dp228
g3
F-5.0
sg4
F7.0
sg5
F1.0
sg6
F-2.0
sb(dp229
I00
F263467.11183784326
sI01
F278790.64662164607
ss(i__main__
State
p230
(dp231
g3
F-4.0
sg4
F4.0
sg5
F2.0
sg6
F-1.0
sb(dp232
I00
F259625.04831196007
sI01
F271476.049408439
ss(i__main__
State
p233
(dp234
g3
F6.0
sg4
F5.0
sg5
F-5.0
sg6
F-8.0
sb(dp235
I00
F267351.63072964345
sI01
F277298.0009132275
ss(i__main__
State
p236
(dp237
g3
F7.0
sg4
F0.0
sg5
F-4.0
sg6
F-7.0
sb(dp238
I00
F248494.308855781
sI01
F271725.616598817
ss(i__main__
State
p239
(dp240
g3
F-6.0
sg4
F6.0
sg5
F0.0
sg6
F-3.0
sb(dp241
I00
F270862.97987964895
sI01
F278776.3944505849
ss(i__main__
State
p242
(dp243
g3
F-6.0
sg4
F0.0
sg5
F0.0
sg6
F-3.0
sb(dp244
I00
F248646.14877352142
sI01
F271757.70983563946
ss(i__main__
State
p245
(dp246
g3
F-8.0
sg4
F0.0
sg5
F-2.0
sg6
F-5.0
sb(dp247
I00
F249634.3612429103
sI01
F270803.0174251335
ss(i__main__
State
p248
(dp249
g3
F6.0
sg4
F8.0
sg5
F-5.0
sg6
F-8.0
sb(dp250
I00
F249678.92797553804
sI01
F270617.0752748141
ss(i__main__
State
p251
(dp252
g3
F-3.0
sg4
F3.0
sg5
F3.0
sg6
F0.0
sb(dp253
I00
F259241.44720398245
sI01
F274688.97936269426
ss(i__main__
State
p254
(dp255
g3
F-1.0
sg4
F8.0
sg5
F5.0
sg6
F2.0
sb(dp256
I00
F250201.3603262417
sI01
F271188.1102479645
ss(i__main__
State
p257
(dp258
g3
F8.0
sg4
F0.0
sg5
F-8.0
sg6
F0.0
sb(dp259
I00
F-4797.187
sI01
I54
ss(i__main__
State
p260
(dp261
g3
F5.0
sg4
F2.0
sg5
F-6.0
sg6
F8.0
sb(dp262
I00
F256447.13327791955
sI01
F271178.82772364287
ss(i__main__
State
p263
(dp264
g3
F-8.0
sg4
F3.0
sg5
F-2.0
sg6
F-5.0
sb(dp265
I00
F257196.37062391054
sI01
F273252.3257223303
ss(i__main__
State
p266
(dp267
g3
F-2.0
sg4
F7.0
sg5
F4.0
sg6
F1.0
sb(dp268
I00
F267138.5472542156
sI01
F276827.4776238929
ss(i__main__
State
p269
(dp270
g3
F0.0
sg4
F6.0
sg5
F6.0
sg6
F3.0
sb(dp271
I00
F269209.2713928161
sI01
F277665.0572377016
ss(i__main__
State
p272
(dp273
g3
F-4.0
sg4
F8.0
sg5
F2.0
sg6
F-1.0
sb(dp274
I00
F250518.31727871182
sI01
F271725.8247036048
ss(i__main__
State
p275
(dp276
g3
F-8.0
sg4
F1.0
sg5
F-2.0
sg6
F-5.0
sb(dp277
I00
F250360.0738845011
sI01
F272039.01253445406
ss(i__main__
State
p278
(dp279
g3
F4.0
sg4
F5.0
sg5
F-7.0
sg6
F7.0
sb(dp280
I00
F264240.8225235385
sI01
F276662.9675455819
ss(i__main__
State
p281
(dp282
g3
F7.0
sg4
F7.0
sg5
F-4.0
sg6
F-7.0
sb(dp283
I00
F267436.52286780527
sI01
F278793.8854889038
ss(i__main__
State
p284
(dp285
g3
F-3.0
sg4
F7.0
sg5
F3.0
sg6
F0.0
sb(dp286
I00
F268444.04634390905
sI01
F278914.78004415793
ss(i__main__
State
p287
(dp288
g3
F-3.0
sg4
F1.0
sg5
F3.0
sg6
F0.0
sb(dp289
I00
F250904.9946155045
sI01
F273216.3782155087
ss(i__main__
State
p290
(dp291
g3
F7.0
sg4
F4.0
sg5
F-4.0
sg6
F-7.0
sb(dp292
I00
F259691.21995221666
sI01
F272207.14782309544
ss(i__main__
State
p293
(dp294
g3
F-5.0
sg4
F4.0
sg5
F1.0
sg6
F-2.0
sb(dp295
I00
F262899.9410090227
sI01
F274346.58299178135
ss(i__main__
State
p296
(dp297
g3
F-3.0
sg4
F8.0
sg5
F3.0
sg6
F0.0
sb(dp298
I00
F249703.05488889627
sI01
F271381.9569052683
ss(i__main__
State
p299
(dp300
g3
F2.0
sg4
F6.0
sg5
F8.0
sg6
F5.0
sb(dp301
I00
F270772.61088835535
sI01
F278253.26261845604
ss(i__main__
State
p302
(dp303
g3
F-5.0
sg4
F0.0
sg5
F1.0
sg6
F-2.0
sb(dp304
I00
F246940.0832302588
sI01
F272260.2353657473
ss(i__main__
State
p305
(dp306
g3
F-1.0
sg4
F2.0
sg5
F5.0
sg6
F2.0
sb(dp307
I00
F257934.4077572595
sI01
F274214.8095354713
ss(i__main__
State
p308
(dp309
g3
F5.0
sg4
F3.0
sg5
F-6.0
sg6
F8.0
sb(dp310
I00
F259488.27922537667
sI01
F272942.56218122784
ss(i__main__
State
p311
(dp312
g3
F-1.0
sg4
F6.0
sg5
F5.0
sg6
F2.0
sb(dp313
I00
F265719.5948514359
sI01
F277733.37443819
ss(i__main__
State
p314
(dp315
g3
F-7.0
sg4
F4.0
sg5
F-1.0
sg6
F-4.0
sb(dp316
I00
F260379.26957250235
sI01
F272919.5465353766
ss(i__main__
State
p317
(dp318
g3
F-4.0
sg4
F1.0
sg5
F2.0
sg6
F-1.0
sb(dp319
I00
F253079.60594966274
sI01
F273730.7023272527
ss(i__main__
State
p320
(dp321
g3
F1.0
sg4
F0.0
sg5
F7.0
sg6
F4.0
sb(dp322
I00
F249521.18789434913
sI01
F270852.89968915534
ss(i__main__
State
p323
(dp324
g3
F8.0
sg4
F5.0
sg5
F-3.0
sg6
F-6.0
sb(dp325
I00
F265257.7834142736
sI01
F272308.3971479366
ss(i__main__
State
p326
(dp327
g3
F3.0
sg4
F0.0
sg5
F-8.0
sg6
F6.0
sb(dp328
I00
F247727.27242335578
sI01
F270148.2705975907
ss(i__main__
State
p329
(dp330
g3
F7.0
sg4
F1.0
sg5
F-4.0
sg6
F-7.0
sb(dp331
I00
F253718.75049479754
sI01
F271262.3208379134
ss(i__main__
State
p332
(dp333
g3
F4.0
sg4
F2.0
sg5
F-7.0
sg6
F7.0
sb(dp334
I00
F255966.14184991576
sI01
F271963.2212083186
ss(i__main__
State
p335
(dp336
g3
F-6.0
sg4
F4.0
sg5
F0.0
sg6
F-3.0
sb(dp337
I00
F264909.057162875
sI01
F276337.6700782804
ss(i__main__
State
p338
(dp339
g3
F-4.0
sg4
F5.0
sg5
F2.0
sg6
F-1.0
sb(dp340
I00
F264073.4293118903
sI01
F275094.99012445053
ss(i__main__
State
p341
(dp342
g3
F-3.0
sg4
F4.0
sg5
F3.0
sg6
F0.0
sb(dp343
I00
F263819.65404937556
sI01
F275707.42941266537
ss(i__main__
State
p344
(dp345
g3
F0.0
sg4
F3.0
sg5
F6.0
sg6
F3.0
sb(dp346
I00
F260719.27029528114
sI01
F275039.0473630158
ss(i__main__
State
p347
(dp348
g3
F4.0
sg4
F3.0
sg5
F-7.0
sg6
F7.0
sb(dp349
I00
F258542.65563348652
sI01
F274800.95492209715
ss(i__main__
State
p350
(dp351
g3
F-4.0
sg4
F6.0
sg5
F2.0
sg6
F-1.0
sb(dp352
I00
F272086.5205727177
sI01
F278393.57968399284
ss(i__main__
State
p353
(dp354
g3
F-4.0
sg4
F3.0
sg5
F2.0
sg6
F-1.0
sb(dp355
I00
F260276.15866698915
sI01
F274796.72425853583
ss(i__main__
State
p356
(dp357
g3
F-7.0
sg4
F6.0
sg5
F-1.0
sg6
F-4.0
sb(dp358
I00
F270025.6427735652
sI01
F278181.013485073
ss(i__main__
State
p359
(dp360
g3
F6.0
sg4
F2.0
sg5
F-5.0
sg6
F-8.0
sb(dp361
I00
F254868.83267014346
sI01
F274492.0807890259
ss(i__main__
State
p362
(dp363
g3
F3.0
sg4
F5.0
sg5
F-8.0
sg6
F6.0
sb(dp364
I00
F268264.5743359454
sI01
F277118.26068813424
ss(i__main__
State
p365
(dp366
g3
F-8.0
sg4
F8.0
sg5
F-2.0
sg6
F-5.0
sb(dp367
I00
F246553.54603097145
sI01
F271274.1470609323
ss(i__main__
State
p368
(dp369
g3
F4.0
sg4
F0.0
sg5
F-7.0
sg6
F7.0
sb(dp370
I00
F251264.59958094166
sI01
F272066.1075086859
ss(i__main__
State
p371
(dp372
g3
F-2.0
sg4
F0.0
sg5
F4.0
sg6
F1.0
sb(dp373
I00
F250577.73776946362
sI01
F272016.6851710065
ss(i__main__
State
p374
(dp375
g3
F2.0
sg4
F2.0
sg5
F8.0
sg6
F5.0
sb(dp376
I00
F255319.3519744876
sI01
F273877.46877341956
ss(i__main__
State
p377
(dp378
g3
F5.0
sg4
F1.0
sg5
F-6.0
sg6
F8.0
sb(dp379
I00
F255230.0783395617
sI01
F273461.61641007516
ss(i__main__
State
p380
(dp381
g3
F-2.0
sg4
F4.0
sg5
F4.0
sg6
F1.0
sb(dp382
I00
F263677.5812685851
sI01
F275577.6088736438
ss(i__main__
State
p383
(dp384
g3
F-7.0
sg4
F2.0
sg5
F-1.0
sg6
F-4.0
sb(dp385
I00
F256665.72303847325
sI01
F272717.367834494
ss(i__main__
State
p386
(dp387
g3
F2.0
sg4
F4.0
sg5
F8.0
sg6
F5.0
sb(dp388
I00
F265497.2998747785
sI01
F276038.0291626219
ss(i__main__
State
p389
(dp390
g3
F-2.0
sg4
F3.0
sg5
F4.0
sg6
F1.0
sb(dp391
I00
F261100.0705726486
sI01
F275965.64801916725
ss(i__main__
State
p392
(dp393
g3
F6.0
sg4
F4.0
sg5
F-5.0
sg6
F-8.0
sb(dp394
I00
F263587.5038625061
sI01
F274145.10365664086
ss(i__main__
State
p395
(dp396
g3
F-4.0
sg4
F0.0
sg5
F2.0
sg6
F-1.0
sb(dp397
I00
F250515.8191213035
sI01
F271891.7749657141
ss(i__main__
State
p398
(dp399
g3
F8.0
sg4
F7.0
sg5
F-3.0
sg6
F-6.0
sb(dp400
I00
F268153.79027962236
sI01
F280023.0594516507
ss(i__main__
State
p401
(dp402
g3
F-2.0
sg4
F6.0
sg5
F4.0
sg6
F1.0
sb(dp403
I00
F266682.2305074497
sI01
F272852.49549834454
ss(i__main__
State
p404
(dp405
g3
F-6.0
sg4
F1.0
sg5
F0.0
sg6
F-3.0
sb(dp406
I00
F254579.47360154192
sI01
F273293.42610984057
ss(i__main__
State
p407
(dp408
g3
F0.0
sg4
F7.0
sg5
F6.0
sg6
F3.0
sb(dp409
I00
F269792.078811064
sI01
F278770.5389667667
ss(i__main__
State
p410
(dp411
g3
F2.0
sg4
F1.0
sg5
F8.0
sg6
F5.0
sb(dp412
I00
F254267.0151450292
sI01
F272100.3737052763
ss(i__main__
State
p413
(dp414
g3
F4.0
sg4
F8.0
sg5
F-7.0
sg6
F7.0
sb(dp415
I00
F245650.0655481308
sI01
F270288.19981850724
ss(i__main__
State
p416
(dp417
g3
F7.0
sg4
F2.0
sg5
F-4.0
sg6
F-7.0
sb(dp418
I00
F256599.3968786798
sI01
F273372.369966015
ss(i__main__
State
p419
(dp420
g3
F2.0
sg4
F3.0
sg5
F8.0
sg6
F5.0
sb(dp421
I00
F258690.4180320769
sI01
F274578.7182052265
ss(i__main__
State
p422
(dp423
g3
F0.0
sg4
F4.0
sg5
F6.0
sg6
F3.0
sb(dp424
I00
F262805.6926693842
sI01
F276463.6081969811
ss(i__main__
State
p425
(dp426
g3
F0.0
sg4
F0.0
sg5
F6.0
sg6
F3.0
sb(dp427
I00
F248710.9052129765
sI01
F271957.12016082543
ss(i__main__
State
p428
(dp429
g3
F8.0
sg4
F6.0
sg5
F-3.0
sg6
F-6.0
sb(dp430
I00
F266455.10512832145
sI01
F277094.6679680639
ss(i__main__
State
p431
(dp432
g3
F-1.0
sg4
F7.0
sg5
F5.0
sg6
F2.0
sb(dp433
I00
F270999.8640387852
sI01
F271030.01586441527
ss(i__main__
State
p434
(dp435
g3
F5.0
sg4
F7.0
sg5
F-6.0
sg6
F8.0
sb(dp436
I00
F269726.1358447439
sI01
F279292.41677987535
ss(i__main__
State
p437
(dp438
g3
F-7.0
sg4
F7.0
sg5
F-1.0
sg6
F-4.0
sb(dp439
I00
F269446.2682494417
sI01
F273122.323047571
ss(i__main__
State
p440
(dp441
g3
F6.0
sg4
F1.0
sg5
F-5.0
sg6
F-8.0
sb(dp442
I00
F254111.05282190017
sI01
F272401.1566780053
ss(i__main__
State
p443
(dp444
g3
F-5.0
sg4
F1.0
sg5
F1.0
sg6
F-2.0
sb(dp445
I00
F255310.1983477239
sI01
F272695.34597874567
ss(i__main__
State
p446
(dp447
g3
F-1.0
sg4
F0.0
sg5
F5.0
sg6
F2.0
sb(dp448
I00
F252473.10370851902
sI01
F271636.13141474006
ss(i__main__
State
p449
(dp450
g3
F4.0
sg4
F6.0
sg5
F-7.0
sg6
F7.0
sb(dp451
I00
F270977.65437400603
sI01
F278200.13750548527
ss(i__main__
State
p452
(dp453
g3
F-3.0
sg4
F5.0
sg5
F3.0
sg6
F0.0
sb(dp454
I00
F261953.60551034464
sI01
F272083.239152026
ss(i__main__
State
p455
(dp456
g3
F1.0
sg4
F6.0
sg5
F7.0
sg6
F4.0
sb(dp457
I00
F270585.55724863004
sI01
F279005.81957894284
ss(i__main__
State
p458
(dp459
g3
F8.0
sg4
F0.0
sg5
F-3.0
sg6
F-6.0
sb(dp460
I00
F248618.61030049797
sI01
F270845.31963622686
ss(i__main__
State
p461
(dp462
g3
F3.0
sg4
F8.0
sg5
F-8.0
sg6
F6.0
sb(dp463
I00
F247977.02885395815
sI01
F271292.6264911896
ss(i__main__
State
p464
(dp465
g3
F-7.0
sg4
F0.0
sg5
F-1.0
sg6
F-4.0
sb(dp466
I00
F251747.98136976812
sI01
F272024.55403145036
ss.