(dp0
(i__main__
State
p1
(dp2
S'y1'
p3
F8.0
sS'x'
p4
F3.0
sS'y3'
p5
F-3.0
sS'y2'
p6
F-6.0
sb(dp7
I00
F11349.836465261353
sI01
F26918.694002236673
ss(i__main__
State
p8
(dp9
g3
F4.0
sg4
F7.0
sg5
F-7.0
sg6
F7.0
sb(dp10
I00
F24728.046683473458
sI01
F32099.1778330311
ss(i__main__
State
p11
(dp12
g3
F-7.0
sg4
F5.0
sg5
F-1.0
sg6
F-4.0
sb(dp13
I00
F19591.217071251885
sI01
F30188.682682324823
ss(i__main__
State
p14
(dp15
g3
F0.0
sg4
F8.0
sg5
F6.0
sg6
F3.0
sb(dp16
I00
F-3237.838783877916
sI01
F23230.037356484943
ss(i__main__
State
p17
(dp18
g3
F-1.0
sg4
F1.0
sg5
F5.0
sg6
F2.0
sb(dp19
I00
F6804.652948921523
sI01
F27404.238963979697
ss(i__main__
State
p20
(dp21
g3
F7.0
sg4
F6.0
sg5
F-4.0
sg6
F-7.0
sb(dp22
I00
F24798.628898727005
sI01
F32159.70044646507
ss(i__main__
State
p23
(dp24
g3
F3.0
sg4
F7.0
sg5
F-8.0
sg6
F6.0
sb(dp25
I00
F20906.622304964898
sI01
F31760.569778114444
ss(i__main__
State
p26
(dp27
g3
F-1.0
sg4
F3.0
sg5
F5.0
sg6
F2.0
sb(dp28
I00
F13677.274910022828
sI01
F28431.976687845727
ss(i__main__
State
p29
(dp30
g3
F1.0
sg4
F4.0
sg5
F7.0
sg6
F4.0
sb(dp31
I00
F16611.675249451233
sI01
F29609.94231239872
ss(i__main__
State
p32
(dp33
g3
F1.0
sg4
F2.0
sg5
F7.0
sg6
F4.0
sb(dp34
I00
F11211.976680141794
sI01
F28056.060288539644
ss(i__main__
State
p35
(dp36
g3
F2.0
sg4
F7.0
sg5
F8.0
sg6
F5.0
sb(dp37
I00
F24244.626515133896
sI01
F31905.566326322358
ss(i__main__
State
p38
(dp39
g3
F-6.0
sg4
F5.0
sg5
F0.0
sg6
F-3.0
sb(dp40
I00
F15406.407369964843
sI01
F27445.654047027885
ss(i__main__
State
p41
(dp42
g3
F-2.0
sg4
F8.0
sg5
F4.0
sg6
F1.0
sb(dp43
I00
F1927.2027940481316
sI01
F25290.047732843952
ss(i__main__
State
p44
(dp45
g3
F6.0
sg4
F0.0
sg5
F-5.0
sg6
F-8.0
sb(dp46
I00
F4229.149918040249
sI01
F24070.93299309494
ss(i__main__
State
p47
(dp48
g3
F0.0
sg4
F1.0
sg5
F6.0
sg6
F3.0
sb(dp49
I00
F9511.639900150287
sI01
F27215.081686703055
ss(i__main__
State
p50
(dp51
g3
F-4.0
sg4
F7.0
sg5
F2.0
sg6
F-1.0
sb(dp52
I00
F28317.042463129008
sI01
F28306.12023479252
ss(i__main__
State
p53
(dp54
g3
F-3.0
sg4
F2.0
sg5
F3.0
sg6
F0.0
sb(dp55
I00
F10819.64010946119
sI01
F26701.536170719482
ss(i__main__
State
p56
(dp57
g3
F5.0
sg4
F0.0
sg5
F-6.0
sg6
F8.0
sb(dp58
I00
F1204.9938366090619
sI01
F23040.99237178513
ss(i__main__
State
p59
(dp60
g3
F3.0
sg4
F2.0
sg5
F-8.0
sg6
F6.0
sb(dp61
I00
F11996.160876593118
sI01
F26223.36918718055
ss(i__main__
State
p62
(dp63
g3
F3.0
sg4
F3.0
sg5
F-8.0
sg6
F6.0
sb(dp64
I00
F15522.439827623784
sI01
F29139.53701399777
ss(i__main__
State
p65
(dp66
g3
F-5.0
sg4
F8.0
sg5
F1.0
sg6
F-2.0
sb(dp67
I00
F2552.172666206834
sI01
F24830.570294552257
ss(i__main__
State
p68
(dp69
g3
F2.0
sg4
F0.0
sg5
F8.0
sg6
F5.0
sb(dp70
I00
F1933.7194653334957
sI01
F22861.76966716715
ss(i__main__
State
p71
(dp72
g3
F4.0
sg4
F4.0
sg5
F-7.0
sg6
F7.0
sb(dp73
I00
F19671.329381207288
sI01
F30376.31044593635
ss(i__main__
State
p74
(dp75
g3
F-2.0
sg4
F2.0
sg5
F4.0
sg6
F1.0
sb(dp76
I00
F12748.888146083393
sI01
F27363.223918709537
ss(i__main__
State
p77
(dp78
g3
F-4.0
sg4
F2.0
sg5
F2.0
sg6
F-1.0
sb(dp79
I00
F9740.722942024611
sI01
F27388.07956229541
ss(i__main__
State
p80
(dp81
g3
F-6.0
sg4
F3.0
sg5
F0.0
sg6
F-3.0
sb(dp82
I00
F10748.650249983673
sI01
F26764.0679401268
ss(i__main__
State
p83
(dp84
g3
F2.0
sg4
F8.0
sg5
F8.0
sg6
F5.0
sb(dp85
I00
F1877.8263204064688
sI01
F23024.627555253366
ss(i__main__
State
p86
(dp87
g3
F-7.0
sg4
F3.0
sg5
F-1.0
sg6
F-4.0
sb(dp88
I00
F13564.255007449849
sI01
F28523.963312122596
ss(i__main__
State
p89
(dp90
g3
F5.0
sg4
F6.0
sg5
F-6.0
sg6
F8.0
sb(dp91
I00
F24239.170295650958
sI01
F32090.500329103175
ss(i__main__
State
p92
(dp93
g3
F8.0
sg4
F1.0
sg5
F-3.0
sg6
F-6.0
sb(dp94
I00
F9576.692594366272
sI01
F26336.465593407156
ss(i__main__
State
p95
(dp96
g3
F-5.0
sg4
F5.0
sg5
F1.0
sg6
F-2.0
sb(dp97
I00
F21290.85926027241
sI01
F31009.39558937579
ss(i__main__
State
p98
(dp99
g3
F-2.0
sg4
F1.0
sg5
F4.0
sg6
F1.0
sb(dp100
I00
F6826.13440476707
sI01
F27113.471830692146
ss(i__main__
State
p101
(dp102
g3
F7.0
sg4
F5.0
sg5
F-4.0
sg6
F-7.0
sb(dp103
I00
F18993.895231085018
sI01
F28273.913875774706
ss(i__main__
State
p104
(dp105
g3
F5.0
sg4
F8.0
sg5
F-6.0
sg6
F8.0
sb(dp106
I00
F356.3787698571017
sI01
F23114.592319426716
ss(i__main__
State
p107
(dp108
g3
F3.0
sg4
F6.0
sg5
F-8.0
sg6
F6.0
sb(dp109
I00
F23348.988529264003
sI01
F31131.18081660474
ss(i__main__
State
p110
(dp111
g3
F3.0
sg4
F1.0
sg5
F-8.0
sg6
F6.0
sb(dp112
I00
F7814.423420408077
sI01
F24110.114206507515
ss(i__main__
State
p113
(dp114
g3
F8.0
sg4
F4.0
sg5
F-3.0
sg6
F-6.0
sb(dp115
I00
F17278.62483004162
sI01
F29645.325659832204
ss(i__main__
State
p116
(dp117
g3
F-7.0
sg4
F1.0
sg5
F-1.0
sg6
F-4.0
sb(dp118
I00
F7234.565830727952
sI01
F24266.48247340848
ss(i__main__
State
p119
(dp120
g3
F8.0
sg4
F8.0
sg5
F-3.0
sg6
F-6.0
sb(dp121
I00
F2485.748021069186
sI01
F23181.335915980657
ss(i__main__
State
p122
(dp123
g3
F7.0
sg4
F8.0
sg5
F-4.0
sg6
F-7.0
sb(dp124
I00
F2201.164372370425
sI01
F24031.877714273003
ss(i__main__
State
p125
(dp126
g3
F-7.0
sg4
F8.0
sg5
F-1.0
sg6
F-4.0
sb(dp127
I00
F3095.8779233970195
sI01
F24242.56953372144
ss(i__main__
State
p128
(dp129
g3
F-6.0
sg4
F8.0
sg5
F0.0
sg6
F-3.0
sb(dp130
I00
F3010.6638074154894
sI01
F23881.254330548472
ss(i__main__
State
p131
(dp132
g3
F4.0
sg4
F1.0
sg5
F-7.0
sg6
F7.0
sb(dp133
I00
F6376.014186586997
sI01
F24571.309092531414
ss(i__main__
State
p134
(dp135
g3
F-5.0
sg4
F3.0
sg5
F1.0
sg6
F-2.0
sb(dp136
I00
F11539.146583039477
sI01
F25296.615537186346
ss(i__main__
State
p137
(dp138
g3
F6.0
sg4
F6.0
sg5
F-5.0
sg6
F-8.0
sb(dp139
I00
F23929.8969234821
sI01
F32113.247025292803
ss(i__main__
State
p140
(dp141
g3
F-8.0
sg4
F6.0
sg5
F-2.0
sg6
F-5.0
sb(dp142
I00
F18588.306191106854
sI01
F26473.236275954783
ss(i__main__
State
p143
(dp144
g3
F6.0
sg4
F7.0
sg5
F-5.0
sg6
F-8.0
sb(dp145
I00
F27532.093970915277
sI01
F33070.772335452624
ss(i__main__
State
p146
(dp147
g3
F1.0
sg4
F3.0
sg5
F7.0
sg6
F4.0
sb(dp148
I00
F15693.347078739345
sI01
F29637.984129664153
ss(i__main__
State
p149
(dp150
g3
F1.0
sg4
F1.0
sg5
F7.0
sg6
F4.0
sb(dp151
I00
F10033.623871538037
sI01
F26538.629985288637
ss(i__main__
State
p152
(dp153
g3
F2.0
sg4
F5.0
sg5
F8.0
sg6
F5.0
sb(dp154
I00
F18794.74464624188
sI01
F30446.792271457634
ss(i__main__
State
p155
(dp156
g3
F0.0
sg4
F2.0
sg5
F6.0
sg6
F3.0
sb(dp157
I00
F13292.467577624386
sI01
F28655.05883168677
ss(i__main__
State
p158
(dp159
g3
F-1.0
sg4
F4.0
sg5
F5.0
sg6
F2.0
sb(dp160
I00
F16861.91153488972
sI01
F28801.168298399352
ss(i__main__
State
p161
(dp162
g3
F-5.0
sg4
F2.0
sg5
F1.0
sg6
F-2.0
sb(dp163
I00
F10820.15556152375
sI01
F27843.01522514372
ss(i__main__
State
p164
(dp165
g3
F-1.0
sg4
F5.0
sg5
F5.0
sg6
F2.0
sb(dp166
I00
F21210.658853334928
sI01
F30596.295674789857
ss(i__main__
State
p167
(dp168
g3
F6.0
sg4
F3.0
sg5
F-5.0
sg6
F-8.0
sb(dp169
I00
F13263.970840706732
sI01
F25118.027275295113
ss(i__main__
State
p170
(dp171
g3
F-3.0
sg4
F0.0
sg5
F3.0
sg6
F0.0
sb(dp172
I00
F4312.332296293873
sI01
F25880.849188122673
ss(i__main__
State
p173
(dp174
g3
F-6.0
sg4
F7.0
sg5
F0.0
sg6
F-3.0
sb(dp175
I00
F27708.448980968235
sI01
F33262.45392853461
ss(i__main__
State
p176
(dp177
g3
F3.0
sg4
F4.0
sg5
F-8.0
sg6
F6.0
sb(dp178
I00
F16551.78333497407
sI01
F29932.802717594706
ss(i__main__
State
p179
(dp180
g3
F8.0
sg4
F2.0
sg5
F-3.0
sg6
F-6.0
sb(dp181
I00
F9797.654742340199
sI01
F25212.236782015338
ss(i__main__
State
p182
(dp183
g3
F1.0
sg4
F7.0
sg5
F7.0
sg6
F4.0
sb(dp184
I00
F25260.598083607845
sI01
F32225.417312668404
ss(i__main__
State
p185
(dp186
g3
F1.0
sg4
F5.0
sg5
F7.0
sg6
F4.0
sb(dp187
I00
F20592.11904888454
sI01
F29982.499498406152
ss(i__main__
State
p188
(dp189
g3
F-5.0
sg4
F6.0
sg5
F1.0
sg6
F-2.0
sb(dp190
I00
F24791.117546860864
sI01
F28539.320354922133
ss(i__main__
State
p191
(dp192
g3
F-8.0
sg4
F4.0
sg5
F-2.0
sg6
F-5.0
sb(dp193
I00
F13828.69201536289
sI01
F28547.0609787411
ss(i__main__
State
p194
(dp195
g3
F5.0
sg4
F5.0
sg5
F-6.0
sg6
F8.0
sb(dp196
I00
F21474.777924418733
sI01
F31225.81653670745
ss(i__main__
State
p197
(dp198
g3
F5.0
sg4
F4.0
sg5
F-6.0
sg6
F8.0
sb(dp199
I00
F17946.04983731304
sI01
F28762.366750495643
ss(i__main__
State
p200
(dp201
g3
F-2.0
sg4
F5.0
sg5
F4.0
sg6
F1.0
sb(dp202
I00
F20364.467458436746
sI01
F30182.991675714944
ss(i__main__
State
p203
(dp204
g3
F-8.0
sg4
F2.0
sg5
F-2.0
sg6
F-5.0
sb(dp205
I00
F12677.273974428685
sI01
F27441.75646644503
ss(i__main__
State
p206
(dp207
g3
F-8.0
sg4
F7.0
sg5
F-2.0
sg6
F-5.0
sb(dp208
I00
F15300.649471701754
sI01
F31853.123661095065
ss(i__main__
State
p209
(dp210
g3
F1.0
sg4
F8.0
sg5
F7.0
sg6
F4.0
sb(dp211
I00
F1550.7739133485652
sI01
F22260.007227712726
ss(i__main__
State
p212
(dp213
g3
F0.0
sg4
F5.0
sg5
F6.0
sg6
F3.0
sb(dp214
I00
F21101.036781232833
sI01
F29682.980530294517
ss(i__main__
State
p215
(dp216
g3
F-6.0
sg4
F2.0
sg5
F0.0
sg6
F-3.0
sb(dp217
I00
F9257.08009901614
sI01
F24909.114847606797
ss(i__main__
State
p218
(dp219
g3
F-8.0
sg4
F5.0
sg5
F-2.0
sg6
F-5.0
sb(dp220
I00
F21745.099230406606
sI01
F30948.512115135753
ss(i__main__
State
p221
(dp222
g3
F-3.0
sg4
F6.0
sg5
F3.0
sg6
F0.0
sb(dp223
I00
F19937.001780965387
sI01
F31500.688675023706
ss(i__main__
State
p224
(dp225
g3
F7.0
sg4
F3.0
sg5
F-4.0
sg6
F-7.0
sb(dp226
I00
F13732.686950361505
sI01
F28097.55943844102
ss(i__main__
State
p227
(dp228
g3
F-5.0
sg4
F7.0
sg5
F1.0
sg6
F-2.0
sb(dp229
I00
F18337.69615809169
sI01
F32588.17540387647
ss(i__main__
State
p230
(dp231
g3
F-4.0
sg4
F4.0
sg5
F2.0
sg6
F-1.0
sb(dp232
I00
F12336.590167927676
sI01
F24308.87601147616
ss(i__main__
State
p233
(dp234
g3
F6.0
sg4
F5.0
sg5
F-5.0
sg6
F-8.0
sb(dp235
I00
F19273.144913886717
sI01
F30561.217269355475
ss(i__main__
State
p236
(dp237
g3
F7.0
sg4
F0.0
sg5
F-4.0
sg6
F-7.0
sb(dp238
I00
F1674.0980912948007
sI01
F24939.925336258522
ss(i__main__
State
p239
(dp240
g3
F-6.0
sg4
F6.0
sg5
F0.0
sg6
F-3.0
sb(dp241
I00
F23809.312465553605
sI01
F31246.316772704336
ss(i__main__
State
p242
(dp243
g3
F-6.0
sg4
F0.0
sg5
F0.0
sg6
F-3.0
sb(dp244
I00
F3128.995946808063
sI01
F24873.53007442608
ss(i__main__
State
p245
(dp246
g3
F-8.0
sg4
F0.0
sg5
F-2.0
sg6
F-5.0
sb(dp247
I00
F4195.425922226545
sI01
F23683.920343492602
ss(i__main__
State
p248
(dp249
g3
F6.0
sg4
F8.0
sg5
F-5.0
sg6
F-8.0
sb(dp250
I00
F3691.426621561832
sI01
F24334.64235906332
ss(i__main__
State
p251
(dp252
g3
F-3.0
sg4
F3.0
sg5
F3.0
sg6
F0.0
sb(dp253
I00
F12573.622567568738
sI01
F28605.158966777723
ss(i__main__
State
p254
(dp255
g3
F-1.0
sg4
F8.0
sg5
F5.0
sg6
F2.0
sb(dp256
I00
F2579.298575906405
sI01
F25200.322282481768
ss(i__main__
State
p257
(dp258
g3
F8.0
sg4
F0.0
sg5
F-8.0
sg6
F0.0
sb(dp259
I00
F-4797.187
sI01
I54
ss(i__main__
State
p260
(dp261
g3
F5.0
sg4
F2.0
sg5
F-6.0
sg6
F8.0
sb(dp262
I00
F9484.419605100817
sI01
F25026.826213031956
ss(i__main__
State
p263
(dp264
g3
F-8.0
sg4
F3.0
sg5
F-2.0
sg6
F-5.0
sb(dp265
I00
F10430.774760340752
sI01
F26046.971325632036
ss(i__main__
State
p266
(dp267
g3
F-2.0
sg4
F7.0
sg5
F4.0
sg6
F1.0
sb(dp268
I00
F18563.224127762685
sI01
F33997.442649001445
ss(i__main__
State
p269
(dp270
g3
F0.0
sg4
F6.0
sg5
F6.0
sg6
F3.0
sb(dp271
I00
F21837.557089571936
sI01
F31395.05484639429
ss(i__main__
State
p272
(dp273
g3
F-4.0
sg4
F8.0
sg5
F2.0
sg6
F-1.0
sb(dp274
I00
F4769.37653163183
sI01
F24833.854154877292
ss(i__main__
State
p275
(dp276
g3
F-8.0
sg4
F1.0
sg5
F-2.0
sg6
F-5.0
sb(dp277
I00
F9081.144256356863
sI01
F25238.419822534408
ss(i__main__
State
p278
(dp279
g3
F4.0
sg4
F5.0
sg5
F-7.0
sg6
F7.0
sb(dp280
I00
F19913.40060502901
sI01
F31096.566524888945
ss(i__main__
State
p281
(dp282
g3
F7.0
sg4
F7.0
sg5
F-4.0
sg6
F-7.0
sb(dp283
I00
F24154.161738987208
sI01
F32868.35953951613
ss(i__main__
State
p284
(dp285
g3
F-3.0
sg4
F7.0
sg5
F3.0
sg6
F0.0
sb(dp286
I00
F26276.398498835744
sI01
F33496.78192448984
ss(i__main__
State
p287
(dp288
g3
F-3.0
sg4
F1.0
sg5
F3.0
sg6
F0.0
sb(dp289
I00
F6946.294810377923
sI01
F26496.30014361787
ss(i__main__
State
p290
(dp291
g3
F7.0
sg4
F4.0
sg5
F-4.0
sg6
F-7.0
sb(dp292
I00
F12289.303170536912
sI01
F25086.416457783795
ss(i__main__
State
p293
(dp294
g3
F-5.0
sg4
F4.0
sg5
F1.0
sg6
F-2.0
sb(dp295
I00
F12378.494340272555
sI01
F28284.382433767314
ss(i__main__
State
p296
(dp297
g3
F-3.0
sg4
F8.0
sg5
F3.0
sg6
F0.0
sb(dp298
I00
F3084.9332132354516
sI01
F25278.955645649243
ss(i__main__
State
p299
(dp300
g3
F2.0
sg4
F6.0
sg5
F8.0
sg6
F5.0
sb(dp301
I00
F20558.507911483564
sI01
F30791.76427329454
ss(i__main__
State
p302
(dp303
g3
F-5.0
sg4
F0.0
sg5
F1.0
sg6
F-2.0
sb(dp304
I00
F3957.1795515686736
sI01
F24819.76207723958
ss(i__main__
State
p305
(dp306
g3
F-1.0
sg4
F2.0
sg5
F5.0
sg6
F2.0
sb(dp307
I00
F13290.609528778125
sI01
F27682.814152309948
ss(i__main__
State
p308
(dp309
g3
F5.0
sg4
F3.0
sg5
F-6.0
sg6
F8.0
sb(dp310
I00
F11334.94209911732
sI01
F26399.704231434913
ss(i__main__
State
p311
(dp312
g3
F-1.0
sg4
F6.0
sg5
F5.0
sg6
F2.0
sb(dp313
I00
F24332.03082624918
sI01
F31020.257806291414
ss(i__main__
State
p314
(dp315
g3
F-7.0
sg4
F4.0
sg5
F-1.0
sg6
F-4.0
sb(dp316
I00
F14077.280182424389
sI01
F26410.350831348376
ss(i__main__
State
p317
(dp318
g3
F-4.0
sg4
F1.0
sg5
F2.0
sg6
F-1.0
sb(dp319
I00
F7859.56848648276
sI01
F25661.448421490815
ss(i__main__
State
p320
(dp321
g3
F1.0
sg4
F0.0
sg5
F7.0
sg6
F4.0
sb(dp322
I00
F3481.474903381777
sI01
F24102.6608995593
ss(i__main__
State
p323
(dp324
g3
F8.0
sg4
F5.0
sg5
F-3.0
sg6
F-6.0
sb(dp325
I00
F16270.823894015648
sI01
F24897.626128653174
ss(i__main__
State
p326
(dp327
g3
F3.0
sg4
F0.0
sg5
F-8.0
sg6
F6.0
sb(dp328
I00
F3560.3290757034206
sI01
F23693.364485715643
ss(i__main__
State
p329
(dp330
g3
F7.0
sg4
F1.0
sg5
F-4.0
sg6
F-7.0
sb(dp331
I00
F5543.449254781286
sI01
F24791.35919849981
ss(i__main__
State
p332
(dp333
g3
F4.0
sg4
F2.0
sg5
F-7.0
sg6
F7.0
sb(dp334
I00
F8077.857044709056
sI01
F25269.898980203678
ss(i__main__
State
p335
(dp336
g3
F-6.0
sg4
F4.0
sg5
F0.0
sg6
F-3.0
sb(dp337
I00
F19009.11152894347
sI01
F29781.595182794408
ss(i__main__
State
p338
(dp339
g3
F-4.0
sg4
F5.0
sg5
F2.0
sg6
F-1.0
sb(dp340
I00
F17336.417293235332
sI01
F30038.191515138882
ss(i__main__
State
p341
(dp342
g3
F-3.0
sg4
F4.0
sg5
F3.0
sg6
F0.0
sb(dp343
I00
F18431.160823541544
sI01
F29496.885067785937
ss(i__main__
State
p344
(dp345
g3
F0.0
sg4
F3.0
sg5
F6.0
sg6
F3.0
sb(dp346
I00
F14242.29141627077
sI01
F28715.398139546982
ss(i__main__
State
p347
(dp348
g3
F4.0
sg4
F3.0
sg5
F-7.0
sg6
F7.0
sb(dp349
I00
F12308.557351918802
sI01
F27299.822281904704
ss(i__main__
State
p350
(dp351
g3
F-4.0
sg4
F6.0
sg5
F2.0
sg6
F-1.0
sb(dp352
I00
F22865.20913794153
sI01
F32832.61523305679
ss(i__main__
State
p353
(dp354
g3
F-4.0
sg4
F3.0
sg5
F2.0
sg6
F-1.0
sb(dp355
I00
F15853.335800962659
sI01
F28678.828175365463
ss(i__main__
State
p356
(dp357
g3
F-7.0
sg4
F6.0
sg5
F-1.0
sg6
F-4.0
sb(dp358
I00
F25935.836292862383
sI01
F31868.213356057364
ss(i__main__
State
p359
(dp360
g3
F6.0
sg4
F2.0
sg5
F-5.0
sg6
F-8.0
sb(dp361
I00
F11543.787316831225
sI01
F26490.97644580043
ss(i__main__
State
p362
(dp363
g3
F3.0
sg4
F5.0
sg5
F-8.0
sg6
F6.0
sb(dp364
I00
F22216.490744554783
sI01
F31763.641089566758
ss(i__main__
State
p365
(dp366
g3
F-8.0
sg4
F8.0
sg5
F-2.0
sg6
F-5.0
sb(dp367
I00
F2139.9974718224485
sI01
F24801.52573840563
ss(i__main__
State
p368
(dp369
g3
F4.0
sg4
F0.0
sg5
F-7.0
sg6
F7.0
sb(dp370
I00
F4108.975297541041
sI01
F24016.370772807262
ss(i__main__
State
p371
(dp372
g3
F-2.0
sg4
F0.0
sg5
F4.0
sg6
F1.0
sb(dp373
I00
F2121.91860724821
sI01
F26123.773702030678
ss(i__main__
State
p374
(dp375
g3
F2.0
sg4
F2.0
sg5
F8.0
sg6
F5.0
sb(dp376
I00
F11693.156881354958
sI01
F27922.011767295153
ss(i__main__
State
p377
(dp378
g3
F5.0
sg4
F1.0
sg5
F-6.0
sg6
F8.0
sb(dp379
I00
F8940.592135442075
sI01
F25209.77339094314
ss(i__main__
State
p380
(dp381
g3
F-2.0
sg4
F4.0
sg5
F4.0
sg6
F1.0
sb(dp382
I00
F17013.14211606893
sI01
F29624.872495865027
ss(i__main__
State
p383
(dp384
g3
F-7.0
sg4
F2.0
sg5
F-1.0
sg6
F-4.0
sb(dp385
I00
F8871.098248654484
sI01
F25673.87561094031
ss(i__main__
State
p386
(dp387
g3
F2.0
sg4
F4.0
sg5
F8.0
sg6
F5.0
sb(dp388
I00
F20190.971722636124
sI01
F30754.750248364795
ss(i__main__
State
p389
(dp390
g3
F-2.0
sg4
F3.0
sg5
F4.0
sg6
F1.0
sb(dp391
I00
F14409.142616872334
sI01
F27677.3917046694
ss(i__main__
State
p392
(dp393
g3
F6.0
sg4
F4.0
sg5
F-5.0
sg6
F-8.0
sb(dp394
I00
F16638.6127849922
sI01
F27488.634260921233
ss(i__main__
State
p395
(dp396
g3
F-4.0
sg4
F0.0
sg5
F2.0
sg6
F-1.0
sb(dp397
I00
F6075.814513011917
sI01
F25600.530354036207
ss(i__main__
State
p398
(dp399
g3
F8.0
sg4
F7.0
sg5
F-3.0
sg6
F-6.0
sb(dp400
I00
F22795.01360365587
sI01
F33513.08285804019
ss(i__main__
State
p401
(dp402
g3
F-2.0
sg4
F6.0
sg5
F4.0
sg6
F1.0
sb(dp403
I00
F18781.717157632724
sI01
F23236.12652729828
ss(i__main__
State
p404
(dp405
g3
F-6.0
sg4
F1.0
sg5
F0.0
sg6
F-3.0
sb(dp406
I00
F10073.723508790772
sI01
F26900.375632006704
ss(i__main__
State
p407
(dp408
g3
F0.0
sg4
F7.0
sg5
F6.0
sg6
F3.0
sb(dp409
I00
F26375.168111353087
sI01
F31692.383600302943
ss(i__main__
State
p410
(dp411
g3
F2.0
sg4
F1.0
sg5
F8.0
sg6
F5.0
sb(dp412
I00
F6851.926967355476
sI01
F25106.274016612777
ss(i__main__
State
p413
(dp414
g3
F4.0
sg4
F8.0
sg5
F-7.0
sg6
F7.0
sb(dp415
I00
F1696.3159692649383
sI01
F22505.139734376626
ss(i__main__
State
p416
(dp417
g3
F7.0
sg4
F2.0
sg5
F-4.0
sg6
F-7.0
sb(dp418
I00
F9739.683781887792
sI01
F25271.690021921535
ss(i__main__
State
p419
(dp420
g3
F2.0
sg4
F3.0
sg5
F8.0
sg6
F5.0
sb(dp421
I00
F15587.607961716072
sI01
F28878.704255947232
ss(i__main__
State
p422
(dp423
g3
F0.0
sg4
F4.0
sg5
F6.0
sg6
F3.0
sb(dp424
I00
F17278.74100250275
sI01
F28897.393019458596
ss(i__main__
State
p425
(dp426
g3
F0.0
sg4
F0.0
sg5
F6.0
sg6
F3.0
sb(dp427
I00
F6025.935354707687
sI01
F25740.435319690194
ss(i__main__
State
p428
(dp429
g3
F8.0
sg4
F6.0
sg5
F-3.0
sg6
F-6.0
sb(dp430
I00
F22235.866942430617
sI01
F30172.201708044355
ss(i__main__
State
p431
(dp432
g3
F-1.0
sg4
F7.0
sg5
F5.0
sg6
F2.0
sb(dp433
I00
F22489.728723052467
sI01
F22732.051756925277
ss(i__main__
State
p434
(dp435
g3
F5.0
sg4
F7.0
sg5
F-6.0
sg6
F8.0
sb(dp436
I00
F22855.6246860167
sI01
F33545.15209680545
ss(i__main__
State
p437
(dp438
g3
F-7.0
sg4
F7.0
sg5
F-1.0
sg6
F-4.0
sb(dp439
I00
F20465.158023155807
sI01
F24635.90674713445
ss(i__main__
State
p440
(dp441
g3
F6.0
sg4
F1.0
sg5
F-5.0
sg6
F-8.0
sb(dp442
I00
F7243.906838350927
sI01
F24220.67856476869
ss(i__main__
State
p443
(dp444
g3
F-5.0
sg4
F1.0
sg5
F1.0
sg6
F-2.0
sb(dp445
I00
F7527.923531162435
sI01
F26243.718042772347
ss(i__main__
State
p446
(dp447
g3
F-1.0
sg4
F0.0
sg5
F5.0
sg6
F2.0
sb(dp448
I00
F2643.458042784505
sI01
F25823.799512017566
ss(i__main__
State
p449
(dp450
g3
F4.0
sg4
F6.0
sg5
F-7.0
sg6
F7.0
sb(dp451
I00
F24255.993476276766
sI01
F32670.87087584012
ss(i__main__
State
p452
(dp453
g3
F-3.0
sg4
F5.0
sg5
F3.0
sg6
F0.0
sb(dp454
I00
F13401.574382121542
sI01
F23593.265054534684
ss(i__main__
State
p455
(dp456
g3
F1.0
sg4
F6.0
sg5
F7.0
sg6
F4.0
sb(dp457
I00
F23517.749272193894
sI01
F30856.368579753318
ss(i__main__
State
p458
(dp459
g3
F8.0
sg4
F0.0
sg5
F-3.0
sg6
F-6.0
sb(dp460
I00
F6897.640852099978
sI01
F24486.966367243465
ss(i__main__
State
p461
(dp462
g3
F3.0
sg4
F8.0
sg5
F-8.0
sg6
F6.0
sb(dp463
I00
F783.7221872489995
sI01
F22992.600863660402
ss(i__main__
State
p464
(dp465
g3
F-7.0
sg4
F0.0
sg5
F-1.0
sg6
F-4.0
sb(dp466
I00
F3972.2780009571748
sI01
F25617.504527743644
ss.