(dp0
(i__main__
State
p1
(dp2
S'y1'
p3
F8.0
sS'x'
p4
F3.0
sS'y3'
p5
F-3.0
sS'y2'
p6
F-6.0
sb(dp7
I00
F-5664.703321903495
sI01
F2935.6233681304566
ss(i__main__
State
p8
(dp9
g3
F4.0
sg4
F7.0
sg5
F-7.0
sg6
F7.0
sb(dp10
I00
F-5579.352877916259
sI01
F10048.545312200675
ss(i__main__
State
p11
(dp12
g3
F-7.0
sg4
F5.0
sg5
F-1.0
sg6
F-4.0
sb(dp13
I00
F-3045.5161164899587
sI01
F5627.635447323519
ss(i__main__
State
p14
(dp15
g3
F-5.0
sg4
F2.0
sg5
F1.0
sg6
F-2.0
sb(dp16
I00
F-5916.023865652842
sI01
F3332.239490417785
ss(i__main__
State
p17
(dp18
g3
F7.0
sg4
F6.0
sg5
F-4.0
sg6
F-7.0
sb(dp19
I00
F1028.2419368171609
sI01
F8837.163754136649
ss(i__main__
State
p20
(dp21
g3
F0.0
sg4
F7.0
sg5
F6.0
sg6
F3.0
sb(dp22
I00
F4286.024119349314
sI01
F10263.612881230334
ss(i__main__
State
p23
(dp24
g3
F-1.0
sg4
F0.0
sg5
F5.0
sg6
F2.0
sb(dp25
I00
F-8212.336095419902
sI01
F1017.5536227169915
ss(i__main__
State
p26
(dp27
g3
F-1.0
sg4
F3.0
sg5
F5.0
sg6
F2.0
sb(dp28
I00
F-7521.083452472943
sI01
F5367.290977323245
ss(i__main__
State
p29
(dp30
g3
F1.0
sg4
F4.0
sg5
F7.0
sg6
F4.0
sb(dp31
I00
F-3252.6457374399824
sI01
F7926.74766633529
ss(i__main__
State
p32
(dp33
g3
F1.0
sg4
F2.0
sg5
F7.0
sg6
F4.0
sb(dp34
I00
F-6306.060809868941
sI01
F4161.39870640708
ss(i__main__
State
p35
(dp36
g3
F2.0
sg4
F7.0
sg5
F8.0
sg6
F5.0
sb(dp37
I00
F-4364.191746515596
sI01
F10312.936186440078
ss(i__main__
State
p38
(dp39
g3
F-6.0
sg4
F5.0
sg5
F0.0
sg6
F-3.0
sb(dp40
I00
F-2364.9875936502744
sI01
F4328.998917533087
ss(i__main__
State
p41
(dp42
g3
F-2.0
sg4
F8.0
sg5
F4.0
sg6
F1.0
sb(dp43
I00
F-11720.316347536671
sI01
F680.476891297906
ss(i__main__
State
p44
(dp45
g3
F6.0
sg4
F0.0
sg5
F-5.0
sg6
F-8.0
sb(dp46
I00
F-3003.3987968748606
sI01
F430.72055234203947
ss(i__main__
State
p47
(dp48
g3
F0.0
sg4
F1.0
sg5
F6.0
sg6
F3.0
sb(dp49
I00
F-9530.857944709926
sI01
F2470.330360562306
ss(i__main__
State
p50
(dp51
g3
F-4.0
sg4
F7.0
sg5
F2.0
sg6
F-1.0
sb(dp52
I00
F3260.273322164954
sI01
F3698.9928218994905
ss(i__main__
State
p53
(dp54
g3
F-3.0
sg4
F2.0
sg5
F3.0
sg6
F0.0
sb(dp55
I00
F-5944.8117360721435
sI01
F3231.183218758847
ss(i__main__
State
p56
(dp57
g3
F5.0
sg4
F0.0
sg5
F-6.0
sg6
F8.0
sb(dp58
I00
F-15018.15358885935
sI01
F335.3857548534693
ss(i__main__
State
p59
(dp60
g3
F3.0
sg4
F2.0
sg5
F-8.0
sg6
F6.0
sb(dp61
I00
F-6713.897622572673
sI01
F1824.7582307927337
ss(i__main__
State
p62
(dp63
g3
F3.0
sg4
F3.0
sg5
F-8.0
sg6
F6.0
sb(dp64
I00
F-4058.3750905243887
sI01
F5005.892384628471
ss(i__main__
State
p65
(dp66
g3
F-5.0
sg4
F8.0
sg5
F1.0
sg6
F-2.0
sb(dp67
I00
F-13459.96312448041
sI01
F886.8637197013429
ss(i__main__
State
p68
(dp69
g3
F2.0
sg4
F0.0
sg5
F8.0
sg6
F5.0
sb(dp70
I00
F-8862.701855223868
sI01
F748.6485946276912
ss(i__main__
State
p71
(dp72
g3
F4.0
sg4
F4.0
sg5
F-7.0
sg6
F7.0
sb(dp73
I00
F-1792.3381788750094
sI01
F6611.784677593078
ss(i__main__
State
p74
(dp75
g3
F-2.0
sg4
F2.0
sg5
F4.0
sg6
F1.0
sb(dp76
I00
F-7295.730061038203
sI01
F3868.38039951982
ss(i__main__
State
p77
(dp78
g3
F-6.0
sg4
F3.0
sg5
F0.0
sg6
F-3.0
sb(dp79
I00
F-5394.572069602349
sI01
F3704.4481198313115
ss(i__main__
State
p80
(dp81
g3
F2.0
sg4
F8.0
sg5
F8.0
sg6
F5.0
sb(dp82
I00
F-12834.801731043284
sI01
F371.2319552392575
ss(i__main__
State
p83
(dp84
g3
F-7.0
sg4
F3.0
sg5
F-1.0
sg6
F-4.0
sb(dp85
I00
F-5079.709112391692
sI01
F4284.979942846691
ss(i__main__
State
p86
(dp87
g3
F5.0
sg4
F6.0
sg5
F-6.0
sg6
F8.0
sb(dp88
I00
F2016.7821470490583
sI01
F9792.362526833262
ss(i__main__
State
p89
(dp90
g3
F8.0
sg4
F1.0
sg5
F-3.0
sg6
F-6.0
sb(dp91
I00
F-9565.62277493168
sI01
F1499.0293633679878
ss(i__main__
State
p92
(dp93
g3
F-5.0
sg4
F5.0
sg5
F1.0
sg6
F-2.0
sb(dp94
I00
F-45.51408569306085
sI01
F7996.52018040262
ss(i__main__
State
p95
(dp96
g3
F-2.0
sg4
F1.0
sg5
F4.0
sg6
F1.0
sb(dp97
I00
F-9457.463173282888
sI01
F1755.3416301354143
ss(i__main__
State
p98
(dp99
g3
F7.0
sg4
F5.0
sg5
F-4.0
sg6
F-7.0
sb(dp100
I00
F-3305.310361802173
sI01
F5684.998728012138
ss(i__main__
State
p101
(dp102
g3
F5.0
sg4
F8.0
sg5
F-6.0
sg6
F8.0
sb(dp103
I00
F-16554.964549602544
sI01
F243.52505844467711
ss(i__main__
State
p104
(dp105
g3
F3.0
sg4
F6.0
sg5
F-8.0
sg6
F6.0
sb(dp106
I00
F2948.145155836237
sI01
F9772.93342300718
ss(i__main__
State
p107
(dp108
g3
F8.0
sg4
F7.0
sg5
F-3.0
sg6
F-6.0
sb(dp109
I00
F5112.748196942624
sI01
F10114.756736141271
ss(i__main__
State
p110
(dp111
g3
F8.0
sg4
F4.0
sg5
F-3.0
sg6
F-6.0
sb(dp112
I00
F-908.3039327967365
sI01
F6599.557482430558
ss(i__main__
State
p113
(dp114
g3
F-7.0
sg4
F1.0
sg5
F-1.0
sg6
F-4.0
sb(dp115
I00
F-6426.557264877801
sI01
F1053.3503431937038
ss(i__main__
State
p116
(dp117
g3
F8.0
sg4
F8.0
sg5
F-3.0
sg6
F-6.0
sb(dp118
I00
F-10034.349956227095
sI01
F172.85318949896447
ss(i__main__
State
p119
(dp120
g3
F7.0
sg4
F8.0
sg5
F-4.0
sg6
F-7.0
sb(dp121
I00
F-10612.982881606531
sI01
F387.59611833887703
ss(i__main__
State
p122
(dp123
g3
F-7.0
sg4
F8.0
sg5
F-1.0
sg6
F-4.0
sb(dp124
I00
F-13403.429694385848
sI01
F407.88228790783677
ss(i__main__
State
p125
(dp126
g3
F-6.0
sg4
F8.0
sg5
F0.0
sg6
F-3.0
sb(dp127
I00
F-9762.131686463756
sI01
F685.8030005607671
ss(i__main__
State
p128
(dp129
g3
F8.0
sg4
F2.0
sg5
F-3.0
sg6
F-6.0
sb(dp130
I00
F-10313.416925403231
sI01
F1654.318426190456
ss(i__main__
State
p131
(dp132
g3
F-5.0
sg4
F3.0
sg5
F1.0
sg6
F-2.0
sb(dp133
I00
F-5481.903100362747
sI01
F2087.633574525448
ss(i__main__
State
p134
(dp135
g3
F6.0
sg4
F6.0
sg5
F-5.0
sg6
F-8.0
sb(dp136
I00
F3652.097167169942
sI01
F9236.556291321816
ss(i__main__
State
p137
(dp138
g3
F-8.0
sg4
F6.0
sg5
F-2.0
sg6
F-5.0
sb(dp139
I00
F-645.185851697256
sI01
F2217.8986752508504
ss(i__main__
State
p140
(dp141
g3
F6.0
sg4
F7.0
sg5
F-5.0
sg6
F-8.0
sb(dp142
I00
F1801.1384894139128
sI01
F10130.41683717327
ss(i__main__
State
p143
(dp144
g3
F1.0
sg4
F3.0
sg5
F7.0
sg6
F4.0
sb(dp145
I00
F-8797.769141535957
sI01
F4200.7012606042945
ss(i__main__
State
p146
(dp147
g3
F1.0
sg4
F1.0
sg5
F7.0
sg6
F4.0
sb(dp148
I00
F-12277.487748751711
sI01
F2048.7939469821727
ss(i__main__
State
p149
(dp150
g3
F2.0
sg4
F5.0
sg5
F8.0
sg6
F5.0
sb(dp151
I00
F1067.3141422386395
sI01
F9128.1978152616
ss(i__main__
State
p152
(dp153
g3
F0.0
sg4
F2.0
sg5
F6.0
sg6
F3.0
sb(dp154
I00
F-5773.672623125832
sI01
F2492.905558494067
ss(i__main__
State
p155
(dp156
g3
F-1.0
sg4
F4.0
sg5
F5.0
sg6
F2.0
sb(dp157
I00
F-2405.7213266147173
sI01
F6765.415491344756
ss(i__main__
State
p158
(dp159
g3
F-1.0
sg4
F1.0
sg5
F5.0
sg6
F2.0
sb(dp160
I00
F-11594.172395761314
sI01
F1196.3310519591219
ss(i__main__
State
p161
(dp162
g3
F-1.0
sg4
F5.0
sg5
F5.0
sg6
F2.0
sb(dp163
I00
F-1277.6217651184588
sI01
F8270.246426030488
ss(i__main__
State
p164
(dp165
g3
F6.0
sg4
F3.0
sg5
F-5.0
sg6
F-8.0
sb(dp166
I00
F-4845.571924778356
sI01
F2871.0148043686636
ss(i__main__
State
p167
(dp168
g3
F-3.0
sg4
F0.0
sg5
F3.0
sg6
F0.0
sb(dp169
I00
F-11847.182311226512
sI01
F603.988952427623
ss(i__main__
State
p170
(dp171
g3
F-6.0
sg4
F7.0
sg5
F0.0
sg6
F-3.0
sb(dp172
I00
F-4147.043601583003
sI01
F10386.304719091364
ss(i__main__
State
p173
(dp174
g3
F3.0
sg4
F4.0
sg5
F-8.0
sg6
F6.0
sb(dp175
I00
F-1736.0595997176235
sI01
F7987.61833980918
ss(i__main__
State
p176
(dp177
g3
F7.0
sg4
F4.0
sg5
F-4.0
sg6
F-7.0
sb(dp178
I00
F-3369.7010686359836
sI01
F3114.6791457582276
ss(i__main__
State
p179
(dp180
g3
F4.0
sg4
F1.0
sg5
F-7.0
sg6
F7.0
sb(dp181
I00
F-7854.3622657441
sI01
F1340.80733916822
ss(i__main__
State
p182
(dp183
g3
F1.0
sg4
F7.0
sg5
F7.0
sg6
F4.0
sb(dp184
I00
F-2293.3034573123678
sI01
F10062.794867024266
ss(i__main__
State
p185
(dp186
g3
F1.0
sg4
F5.0
sg5
F7.0
sg6
F4.0
sb(dp187
I00
F-1051.386136912612
sI01
F8606.220942553084
ss(i__main__
State
p188
(dp189
g3
F-5.0
sg4
F6.0
sg5
F1.0
sg6
F-2.0
sb(dp190
I00
F-908.7452625161677
sI01
F3978.83627948561
ss(i__main__
State
p191
(dp192
g3
F-8.0
sg4
F4.0
sg5
F-2.0
sg6
F-5.0
sb(dp193
I00
F-3329.5622538089656
sI01
F4547.170614086821
ss(i__main__
State
p194
(dp195
g3
F-1.0
sg4
F7.0
sg5
F5.0
sg6
F2.0
sb(dp196
I00
F1465.4673137718585
sI01
F1905.4443830427308
ss(i__main__
State
p197
(dp198
g3
F5.0
sg4
F4.0
sg5
F-6.0
sg6
F8.0
sb(dp199
I00
F-2291.8234306499703
sI01
F4802.314595100147
ss(i__main__
State
p200
(dp201
g3
F-2.0
sg4
F5.0
sg5
F4.0
sg6
F1.0
sb(dp202
I00
F-1229.5467536834624
sI01
F9043.312839978445
ss(i__main__
State
p203
(dp204
g3
F-8.0
sg4
F2.0
sg5
F-2.0
sg6
F-5.0
sb(dp205
I00
F-9282.231148681494
sI01
F2754.5511134903627
ss(i__main__
State
p206
(dp207
g3
F-8.0
sg4
F7.0
sg5
F-2.0
sg6
F-5.0
sb(dp208
I00
F-7077.856317632536
sI01
F8904.098430074768
ss(i__main__
State
p209
(dp210
g3
F1.0
sg4
F8.0
sg5
F7.0
sg6
F4.0
sb(dp211
I00
F-17376.43247435889
sI01
F494.40260351798605
ss(i__main__
State
p212
(dp213
g3
F0.0
sg4
F5.0
sg5
F6.0
sg6
F3.0
sb(dp214
I00
F-417.3336515176395
sI01
F8277.050288663851
ss(i__main__
State
p215
(dp216
g3
F-4.0
sg4
F3.0
sg5
F2.0
sg6
F-1.0
sb(dp217
I00
F-2413.759754367776
sI01
F5283.096759785792
ss(i__main__
State
p218
(dp219
g3
F-8.0
sg4
F5.0
sg5
F-2.0
sg6
F-5.0
sb(dp220
I00
F149.2715141485177
sI01
F8372.993182411064
ss(i__main__
State
p221
(dp222
g3
F5.0
sg4
F5.0
sg5
F-6.0
sg6
F8.0
sb(dp223
I00
F-1671.4436116104353
sI01
F8128.781235845858
ss(i__main__
State
p224
(dp225
g3
F7.0
sg4
F3.0
sg5
F-4.0
sg6
F-7.0
sb(dp226
I00
F-3849.901150354594
sI01
F5057.394548595683
ss(i__main__
State
p227
(dp228
g3
F-5.0
sg4
F7.0
sg5
F1.0
sg6
F-2.0
sb(dp229
I00
F-6111.633460089477
sI01
F7796.381046170658
ss(i__main__
State
p230
(dp231
g3
F-4.0
sg4
F4.0
sg5
F2.0
sg6
F-1.0
sb(dp232
I00
F-4248.878734225125
sI01
F3059.2479568541116
ss(i__main__
State
p233
(dp234
g3
F3.0
sg4
F7.0
sg5
F-8.0
sg6
F6.0
sb(dp235
I00
F1035.743057592077
sI01
F10014.707503029262
ss(i__main__
State
p236
(dp237
g3
F7.0
sg4
F0.0
sg5
F-4.0
sg6
F-7.0
sb(dp238
I00
F-14896.645342559985
sI01
F668.601904748212
ss(i__main__
State
p239
(dp240
g3
F-6.0
sg4
F6.0
sg5
F0.0
sg6
F-3.0
sb(dp241
I00
F1510.9959359149025
sI01
F6326.605175339666
ss(i__main__
State
p242
(dp243
g3
F-6.0
sg4
F0.0
sg5
F0.0
sg6
F-3.0
sb(dp244
I00
F-11390.423855565621
sI01
F733.1190108062133
ss(i__main__
State
p245
(dp246
g3
F-8.0
sg4
F0.0
sg5
F-2.0
sg6
F-5.0
sb(dp247
I00
F-11370.177643056666
sI01
F410.774582613404
ss(i__main__
State
p248
(dp249
g3
F6.0
sg4
F8.0
sg5
F-5.0
sg6
F-8.0
sb(dp250
I00
F-9264.541217633474
sI01
F341.2664461773108
ss(i__main__
State
p251
(dp252
g3
F-3.0
sg4
F3.0
sg5
F3.0
sg6
F0.0
sb(dp253
I00
F-5299.08650257313
sI01
F4576.839205736525
ss(i__main__
State
p254
(dp255
g3
F0.0
sg4
F0.0
sg5
F6.0
sg6
F3.0
sb(dp256
I00
F-9121.071501412225
sI01
F866.6972050005221
ss(i__main__
State
p257
(dp258
g3
F8.0
sg4
F0.0
sg5
F-8.0
sg6
F0.0
sb(dp259
I00
F-16035.832139893622
sI01
I37
ss(i__main__
State
p260
(dp261
g3
F5.0
sg4
F2.0
sg5
F-6.0
sg6
F8.0
sb(dp262
I00
F-7926.188866013208
sI01
F2182.945394470918
ss(i__main__
State
p263
(dp264
g3
F-8.0
sg4
F3.0
sg5
F-2.0
sg6
F-5.0
sb(dp265
I00
F-4704.851421648511
sI01
F2656.963230928903
ss(i__main__
State
p266
(dp267
g3
F-2.0
sg4
F7.0
sg5
F4.0
sg6
F1.0
sb(dp268
I00
F-1005.3878055613526
sI01
F8675.879682868492
ss(i__main__
State
p269
(dp270
g3
F0.0
sg4
F6.0
sg5
F6.0
sg6
F3.0
sb(dp271
I00
F2206.8074380274657
sI01
F9558.158185623202
ss(i__main__
State
p272
(dp273
g3
F-4.0
sg4
F8.0
sg5
F2.0
sg6
F-1.0
sb(dp274
I00
F-13612.948477166037
sI01
F343.39354970886507
ss(i__main__
State
p275
(dp276
g3
F-8.0
sg4
F1.0
sg5
F-2.0
sg6
F-5.0
sb(dp277
I00
F-6457.526854244658
sI01
F1404.944929739481
ss(i__main__
State
p278
(dp279
g3
F-3.0
sg4
F1.0
sg5
F3.0
sg6
F0.0
sb(dp280
I00
F-9418.144602301529
sI01
F2670.6719311613224
ss(i__main__
State
p281
(dp282
g3
F7.0
sg4
F7.0
sg5
F-4.0
sg6
F-7.0
sb(dp283
I00
F-618.0889376686462
sI01
F9454.417918889985
ss(i__main__
State
p284
(dp285
g3
F-3.0
sg4
F7.0
sg5
F3.0
sg6
F0.0
sb(dp286
I00
F4353.448039448401
sI01
F10185.141627773011
ss(i__main__
State
p287
(dp288
g3
F4.0
sg4
F5.0
sg5
F-7.0
sg6
F7.0
sb(dp289
I00
F-1334.615031276918
sI01
F9141.27700272781
ss(i__main__
State
p290
(dp291
g3
F4.0
sg4
F0.0
sg5
F-7.0
sg6
F7.0
sb(dp292
I00
F-7002.300391313136
sI01
F1217.6288842885278
ss(i__main__
State
p293
(dp294
g3
F6.0
sg4
F5.0
sg5
F-5.0
sg6
F-8.0
sb(dp295
I00
F-102.99207430588592
sI01
F7007.545621201138
ss(i__main__
State
p296
(dp297
g3
F-5.0
sg4
F4.0
sg5
F1.0
sg6
F-2.0
sb(dp298
I00
F-4023.1473742474336
sI01
F4904.438611888597
ss(i__main__
State
p299
(dp300
g3
F-3.0
sg4
F8.0
sg5
F3.0
sg6
F0.0
sb(dp301
I00
F-13101.095883409203
sI01
F341.6386424320802
ss(i__main__
State
p302
(dp303
g3
F0.0
sg4
F8.0
sg5
F6.0
sg6
F3.0
sb(dp304
I00
F-13701.90687942226
sI01
F234.79574461442255
ss(i__main__
State
p305
(dp306
g3
F-5.0
sg4
F0.0
sg5
F1.0
sg6
F-2.0
sb(dp307
I00
F-10634.616730517715
sI01
F1174.8466926689043
ss(i__main__
State
p308
(dp309
g3
F-1.0
sg4
F2.0
sg5
F5.0
sg6
F2.0
sb(dp310
I00
F-7412.9334359052245
sI01
F3607.6989760311385
ss(i__main__
State
p311
(dp312
g3
F5.0
sg4
F3.0
sg5
F-6.0
sg6
F8.0
sb(dp313
I00
F-6275.8197526258355
sI01
F3131.8386093277986
ss(i__main__
State
p314
(dp315
g3
F-1.0
sg4
F6.0
sg5
F5.0
sg6
F2.0
sb(dp316
I00
F2258.0780456120765
sI01
F9895.89692490549
ss(i__main__
State
p317
(dp318
g3
F-7.0
sg4
F4.0
sg5
F-1.0
sg6
F-4.0
sb(dp319
I00
F-1784.4961373281217
sI01
F3603.988900633491
ss(i__main__
State
p320
(dp321
g3
F-4.0
sg4
F1.0
sg5
F2.0
sg6
F-1.0
sb(dp322
I00
F-8701.917052546436
sI01
F2027.3467457902807
ss(i__main__
State
p323
(dp324
g3
F1.0
sg4
F0.0
sg5
F7.0
sg6
F4.0
sb(dp325
I00
F-13253.992720921084
sI01
F543.4497926359088
ss(i__main__
State
p326
(dp327
g3
F8.0
sg4
F5.0
sg5
F-3.0
sg6
F-6.0
sb(dp328
I00
F-2675.899372157563
sI01
F2548.6852924160885
ss(i__main__
State
p329
(dp330
g3
F3.0
sg4
F0.0
sg5
F-8.0
sg6
F6.0
sb(dp331
I00
F-7291.254274846537
sI01
F715.8206316699681
ss(i__main__
State
p332
(dp333
g3
F7.0
sg4
F1.0
sg5
F-4.0
sg6
F-7.0
sb(dp334
I00
F-8784.492913659202
sI01
F955.3962747326252
ss(i__main__
State
p335
(dp336
g3
F4.0
sg4
F2.0
sg5
F-7.0
sg6
F7.0
sb(dp337
I00
F-10713.385792703659
sI01
F2065.7941350204815
ss(i__main__
State
p338
(dp339
g3
F-6.0
sg4
F4.0
sg5
F0.0
sg6
F-3.0
sb(dp340
I00
F-4194.51303392312
sI01
F6229.859922900532
ss(i__main__
State
p341
(dp342
g3
F-4.0
sg4
F5.0
sg5
F2.0
sg6
F-1.0
sb(dp343
I00
F-1804.9491884786298
sI01
F6285.952120330778
ss(i__main__
State
p344
(dp345
g3
F-3.0
sg4
F4.0
sg5
F3.0
sg6
F0.0
sb(dp346
I00
F-1951.2010640324072
sI01
F7248.61205208469
ss(i__main__
State
p347
(dp348
g3
F0.0
sg4
F3.0
sg5
F6.0
sg6
F3.0
sb(dp349
I00
F-3388.8900202711798
sI01
F5991.35151224707
ss(i__main__
State
p350
(dp351
g3
F4.0
sg4
F3.0
sg5
F-7.0
sg6
F7.0
sb(dp352
I00
F-3148.751984146267
sI01
F3176.134495347319
ss(i__main__
State
p353
(dp354
g3
F-4.0
sg4
F6.0
sg5
F2.0
sg6
F-1.0
sb(dp355
I00
F2247.13851388738
sI01
F9307.816208651175
ss(i__main__
State
p356
(dp357
g3
F-6.0
sg4
F2.0
sg5
F0.0
sg6
F-3.0
sb(dp358
I00
F-4223.173302508338
sI01
F1545.3274942966714
ss(i__main__
State
p359
(dp360
g3
F-7.0
sg4
F6.0
sg5
F-1.0
sg6
F-4.0
sb(dp361
I00
F2454.421091850689
sI01
F9439.738536319124
ss(i__main__
State
p362
(dp363
g3
F6.0
sg4
F2.0
sg5
F-5.0
sg6
F-8.0
sb(dp364
I00
F-5845.712915756299
sI01
F3491.5998578896406
ss(i__main__
State
p365
(dp366
g3
F3.0
sg4
F5.0
sg5
F-8.0
sg6
F6.0
sb(dp367
I00
F-1010.1008936797707
sI01
F8012.305067994028
ss(i__main__
State
p368
(dp369
g3
F-8.0
sg4
F8.0
sg5
F-2.0
sg6
F-5.0
sb(dp370
I00
F-17758.96221347403
sI01
F567.0802666652544
ss(i__main__
State
p371
(dp372
g3
F-2.0
sg4
F0.0
sg5
F4.0
sg6
F1.0
sb(dp373
I00
F-12681.945099723038
sI01
F650.9045635975658
ss(i__main__
State
p374
(dp375
g3
F2.0
sg4
F2.0
sg5
F8.0
sg6
F5.0
sb(dp376
I00
F-10894.634590431127
sI01
F3417.8763448806912
ss(i__main__
State
p377
(dp378
g3
F5.0
sg4
F1.0
sg5
F-6.0
sg6
F8.0
sb(dp379
I00
F-13026.874324269875
sI01
F2292.533145136783
ss(i__main__
State
p380
(dp381
g3
F-2.0
sg4
F4.0
sg5
F4.0
sg6
F1.0
sb(dp382
I00
F-6234.82495920532
sI01
F6491.75538605635
ss(i__main__
State
p383
(dp384
g3
F-7.0
sg4
F2.0
sg5
F-1.0
sg6
F-4.0
sb(dp385
I00
F-10728.70263797762
sI01
F2526.8516437531225
ss(i__main__
State
p386
(dp387
g3
F-3.0
sg4
F6.0
sg5
F3.0
sg6
F0.0
sb(dp388
I00
F214.6303562917024
sI01
F8066.22127208961
ss(i__main__
State
p389
(dp390
g3
F2.0
sg4
F4.0
sg5
F8.0
sg6
F5.0
sb(dp391
I00
F-1779.5457407733486
sI01
F5830.681573725687
ss(i__main__
State
p392
(dp393
g3
F-2.0
sg4
F3.0
sg5
F4.0
sg6
F1.0
sb(dp394
I00
F-7616.142215422983
sI01
F4853.166716563572
ss(i__main__
State
p395
(dp396
g3
F6.0
sg4
F4.0
sg5
F-5.0
sg6
F-8.0
sb(dp397
I00
F-4811.882988720775
sI01
F4943.999124970507
ss(i__main__
State
p398
(dp399
g3
F-4.0
sg4
F0.0
sg5
F2.0
sg6
F-1.0
sb(dp400
I00
F-10854.083617517643
sI01
F1342.6668940266377
ss(i__main__
State
p401
(dp402
g3
F3.0
sg4
F1.0
sg5
F-8.0
sg6
F6.0
sb(dp403
I00
F-10918.708328778193
sI01
F1333.3284319055745
ss(i__main__
State
p404
(dp405
g3
F-2.0
sg4
F6.0
sg5
F4.0
sg6
F1.0
sb(dp406
I00
F-1005.6567252831101
sI01
F3256.0609478568376
ss(i__main__
State
p407
(dp408
g3
F-6.0
sg4
F1.0
sg5
F0.0
sg6
F-3.0
sb(dp409
I00
F-6710.786309013671
sI01
F1704.6849498604493
ss(i__main__
State
p410
(dp411
g3
F2.0
sg4
F1.0
sg5
F8.0
sg6
F5.0
sb(dp412
I00
F-9522.1288269907
sI01
F986.5448537408668
ss(i__main__
State
p413
(dp414
g3
F4.0
sg4
F8.0
sg5
F-7.0
sg6
F7.0
sb(dp415
I00
F-11930.667498316277
sI01
F173.0137459134535
ss(i__main__
State
p416
(dp417
g3
F7.0
sg4
F2.0
sg5
F-4.0
sg6
F-7.0
sb(dp418
I00
F-10383.130961034803
sI01
F1765.929235891916
ss(i__main__
State
p419
(dp420
g3
F2.0
sg4
F3.0
sg5
F8.0
sg6
F5.0
sb(dp421
I00
F-2732.6971305206407
sI01
F6168.573232391692
ss(i__main__
State
p422
(dp423
g3
F0.0
sg4
F4.0
sg5
F6.0
sg6
F3.0
sb(dp424
I00
F-1888.947794828372
sI01
F7193.713497454855
ss(i__main__
State
p425
(dp426
g3
F-1.0
sg4
F8.0
sg5
F5.0
sg6
F2.0
sb(dp427
I00
F-9165.318703037176
sI01
F504.2908177963192
ss(i__main__
State
p428
(dp429
g3
F8.0
sg4
F6.0
sg5
F-3.0
sg6
F-6.0
sb(dp430
I00
F1003.7529438532853
sI01
F7707.972717646406
ss(i__main__
State
p431
(dp432
g3
F5.0
sg4
F7.0
sg5
F-6.0
sg6
F8.0
sb(dp433
I00
F-342.3431124421038
sI01
F10076.803993227402
ss(i__main__
State
p434
(dp435
g3
F-7.0
sg4
F7.0
sg5
F-1.0
sg6
F-4.0
sb(dp436
I00
F-427.21513426523234
sI01
F2555.330343528372
ss(i__main__
State
p437
(dp438
g3
F6.0
sg4
F1.0
sg5
F-5.0
sg6
F-8.0
sb(dp439
I00
F-12384.327571427028
sI01
F882.6557789660137
ss(i__main__
State
p440
(dp441
g3
F-5.0
sg4
F1.0
sg5
F1.0
sg6
F-2.0
sb(dp442
I00
F-6226.31349435725
sI01
F1361.8923879007898
ss(i__main__
State
p443
(dp444
g3
F2.0
sg4
F6.0
sg5
F8.0
sg6
F5.0
sb(dp445
I00
F1937.803322079668
sI01
F9520.558906608745
ss(i__main__
State
p446
(dp447
g3
F4.0
sg4
F6.0
sg5
F-7.0
sg6
F7.0
sb(dp448
I00
F2435.055115647393
sI01
F9465.212967021307
ss(i__main__
State
p449
(dp450
g3
F-3.0
sg4
F5.0
sg5
F3.0
sg6
F0.0
sb(dp451
I00
F-2879.6398124534053
sI01
F3706.043565142394
ss(i__main__
State
p452
(dp453
g3
F1.0
sg4
F6.0
sg5
F7.0
sg6
F4.0
sb(dp454
I00
F1761.8779197784088
sI01
F9437.773981345785
ss(i__main__
State
p455
(dp456
g3
F8.0
sg4
F0.0
sg5
F-3.0
sg6
F-6.0
sb(dp457
I00
F-12551.745050957305
sI01
F690.550645294452
ss(i__main__
State
p458
(dp459
g3
F3.0
sg4
F8.0
sg5
F-8.0
sg6
F6.0
sb(dp460
I00
F-12837.940775946014
sI01
F855.3491063998433
ss(i__main__
State
p461
(dp462
g3
F-7.0
sg4
F0.0
sg5
F-1.0
sg6
F-4.0
sb(dp463
I00
I56
sI01
F708.1619603139229
ss(i__main__
State
p464
(dp465
g3
F-4.0
sg4
F2.0
sg5
F2.0
sg6
F-1.0
sb(dp466
I00
F-5985.841593060724
sI01
F2563.570924595874
ss.