(dp0
(i__main__
State
p1
(dp2
S'y1'
p3
F8.0
sS'x'
p4
F3.0
sS'y3'
p5
F-3.0
sS'y2'
p6
F-6.0
sb(dp7
I00
F-7834.294207095969
sI01
F4682.077696687511
ss(i__main__
State
p8
(dp9
g3
F4.0
sg4
F7.0
sg5
F-7.0
sg6
F7.0
sb(dp10
I00
F878.6624427828006
sI01
F10356.87741286738
ss(i__main__
State
p11
(dp12
g3
F-7.0
sg4
F5.0
sg5
F-1.0
sg6
F-4.0
sb(dp13
I00
F-353.60623363222163
sI01
F6913.883635833423
ss(i__main__
State
p14
(dp15
g3
F-5.0
sg4
F2.0
sg5
F1.0
sg6
F-2.0
sb(dp16
I00
F-5953.102645994769
sI01
F3792.499666230531
ss(i__main__
State
p17
(dp18
g3
F7.0
sg4
F6.0
sg5
F-4.0
sg6
F-7.0
sb(dp19
I00
F2745.3835927766086
sI01
F8630.731323079508
ss(i__main__
State
p20
(dp21
g3
F3.0
sg4
F7.0
sg5
F-8.0
sg6
F6.0
sb(dp22
I00
F1406.7547280496055
sI01
F10386.11874293556
ss(i__main__
State
p23
(dp24
g3
F-1.0
sg4
F0.0
sg5
F5.0
sg6
F2.0
sb(dp25
I00
F-7311.7661914103
sI01
F1829.0225544698749
ss(i__main__
State
p26
(dp27
g3
F-1.0
sg4
F3.0
sg5
F5.0
sg6
F2.0
sb(dp28
I00
F-5618.693632232717
sI01
F4882.853882524638
ss(i__main__
State
p29
(dp30
g3
F1.0
sg4
F4.0
sg5
F7.0
sg6
F4.0
sb(dp31
I00
F-3089.5360382209656
sI01
F8456.388441946794
ss(i__main__
State
p32
(dp33
g3
F1.0
sg4
F2.0
sg5
F7.0
sg6
F4.0
sb(dp34
I00
F-9104.703557096433
sI01
F4434.354689243874
ss(i__main__
State
p35
(dp36
g3
F-1.0
sg4
F5.0
sg5
F5.0
sg6
F2.0
sb(dp37
I00
F1362.8031488037377
sI01
F9208.34673707978
ss(i__main__
State
p38
(dp39
g3
F-6.0
sg4
F5.0
sg5
F0.0
sg6
F-3.0
sb(dp40
I00
F-874.275496321075
sI01
F5241.184387999506
ss(i__main__
State
p41
(dp42
g3
F-2.0
sg4
F8.0
sg5
F4.0
sg6
F1.0
sb(dp43
I00
F-13587.341427780642
sI01
F1166.078791236087
ss(i__main__
State
p44
(dp45
g3
F6.0
sg4
F0.0
sg5
F-5.0
sg6
F-8.0
sb(dp46
I00
F-10442.686219926369
sI01
F1317.596628023811
ss(i__main__
State
p47
(dp48
g3
F-4.0
sg4
F7.0
sg5
F2.0
sg6
F-1.0
sb(dp49
I00
F2407.269744675746
sI01
F3897.5539875384957
ss(i__main__
State
p50
(dp51
g3
F-3.0
sg4
F2.0
sg5
F3.0
sg6
F0.0
sb(dp52
I00
F-4743.359038865055
sI01
F4793.603058814676
ss(i__main__
State
p53
(dp54
g3
F5.0
sg4
F0.0
sg5
F-6.0
sg6
F8.0
sb(dp55
I00
F-12326.395346246336
sI01
F1355.4144910916273
ss(i__main__
State
p56
(dp57
g3
F3.0
sg4
F2.0
sg5
F-8.0
sg6
F6.0
sb(dp58
I00
F-8823.613035442171
sI01
F2561.691510424586
ss(i__main__
State
p59
(dp60
g3
F3.0
sg4
F3.0
sg5
F-8.0
sg6
F6.0
sb(dp61
I00
F-7618.012960506012
sI01
F7280.848106273195
ss(i__main__
State
p62
(dp63
g3
F2.0
sg4
F0.0
sg5
F8.0
sg6
F5.0
sb(dp64
I00
F-9746.416506884687
sI01
F998.4296104040744
ss(i__main__
State
p65
(dp66
g3
F4.0
sg4
F4.0
sg5
F-7.0
sg6
F7.0
sb(dp67
I00
F-1814.708605601118
sI01
F8374.764511399699
ss(i__main__
State
p68
(dp69
g3
F-2.0
sg4
F2.0
sg5
F4.0
sg6
F1.0
sb(dp70
I00
F-7438.355018323525
sI01
F3089.1007655922167
ss(i__main__
State
p71
(dp72
g3
F-4.0
sg4
F2.0
sg5
F2.0
sg6
F-1.0
sb(dp73
I00
F-5117.063545891704
sI01
F5325.3152121578505
ss(i__main__
State
p74
(dp75
g3
F-6.0
sg4
F3.0
sg5
F0.0
sg6
F-3.0
sb(dp76
I00
F-4556.636021126618
sI01
F5698.763519784452
ss(i__main__
State
p77
(dp78
g3
F2.0
sg4
F8.0
sg5
F8.0
sg6
F5.0
sb(dp79
I00
F-14375.59609352696
sI01
F379.28436513001037
ss(i__main__
State
p80
(dp81
g3
F6.0
sg4
F1.0
sg5
F-5.0
sg6
F-8.0
sb(dp82
I00
F-10559.815138708203
sI01
F2252.6887814263255
ss(i__main__
State
p83
(dp84
g3
F5.0
sg4
F6.0
sg5
F-6.0
sg6
F8.0
sb(dp85
I00
F3233.753202870147
sI01
F9850.786120150498
ss(i__main__
State
p86
(dp87
g3
F8.0
sg4
F1.0
sg5
F-3.0
sg6
F-6.0
sb(dp88
I00
F-12217.663831180986
sI01
F2344.426237758409
ss(i__main__
State
p89
(dp90
g3
F-5.0
sg4
F5.0
sg5
F1.0
sg6
F-2.0
sb(dp91
I00
F-1189.327304286644
sI01
F8665.344740046728
ss(i__main__
State
p92
(dp93
g3
F-5.0
sg4
F8.0
sg5
F1.0
sg6
F-2.0
sb(dp94
I00
F-15430.272586508963
sI01
F362.42170875492957
ss(i__main__
State
p95
(dp96
g3
F0.0
sg4
F1.0
sg5
F6.0
sg6
F3.0
sb(dp97
I00
F-8592.463012351418
sI01
F2986.4183240359707
ss(i__main__
State
p98
(dp99
g3
F5.0
sg4
F8.0
sg5
F-6.0
sg6
F8.0
sb(dp100
I00
F-16315.248793877932
sI01
F788.2292198218269
ss(i__main__
State
p101
(dp102
g3
F3.0
sg4
F6.0
sg5
F-8.0
sg6
F6.0
sb(dp103
I00
F4266.0840658270645
sI01
F10002.456548633805
ss(i__main__
State
p104
(dp105
g3
F8.0
sg4
F7.0
sg5
F-3.0
sg6
F-6.0
sb(dp106
I00
F-295.8148219712248
sI01
F9776.06445628404
ss(i__main__
State
p107
(dp108
g3
F8.0
sg4
F4.0
sg5
F-3.0
sg6
F-6.0
sb(dp109
I00
F-2273.6224964818753
sI01
F6800.073729142694
ss(i__main__
State
p110
(dp111
g3
F-7.0
sg4
F1.0
sg5
F-1.0
sg6
F-4.0
sb(dp112
I00
F-9092.499670751058
sI01
F2453.509391776091
ss(i__main__
State
p113
(dp114
g3
F8.0
sg4
F8.0
sg5
F-3.0
sg6
F-6.0
sb(dp115
I00
F-15467.988418838371
sI01
F705.646219501385
ss(i__main__
State
p116
(dp117
g3
F7.0
sg4
F8.0
sg5
F-4.0
sg6
F-7.0
sb(dp118
I00
F-13292.77951551081
sI01
F1129.4614615249466
ss(i__main__
State
p119
(dp120
g3
F-3.0
sg4
F3.0
sg5
F3.0
sg6
F0.0
sb(dp121
I00
F-6169.416324601441
sI01
F7022.9136353927415
ss(i__main__
State
p122
(dp123
g3
F-6.0
sg4
F8.0
sg5
F0.0
sg6
F-3.0
sb(dp124
I00
F-17220.84275778986
sI01
F1008.7042826381347
ss(i__main__
State
p125
(dp126
g3
F8.0
sg4
F2.0
sg5
F-3.0
sg6
F-6.0
sb(dp127
I00
F-9405.264766554274
sI01
F3445.1259333471203
ss(i__main__
State
p128
(dp129
g3
F-5.0
sg4
F3.0
sg5
F1.0
sg6
F-2.0
sb(dp130
I00
F-7781.635014739572
sI01
F4391.915875635086
ss(i__main__
State
p131
(dp132
g3
F6.0
sg4
F6.0
sg5
F-5.0
sg6
F-8.0
sb(dp133
I00
F2023.2214907931982
sI01
F9890.12383210075
ss(i__main__
State
p134
(dp135
g3
F-8.0
sg4
F6.0
sg5
F-2.0
sg6
F-5.0
sb(dp136
I00
F-487.17715400278587
sI01
F2512.2685417065686
ss(i__main__
State
p137
(dp138
g3
F6.0
sg4
F7.0
sg5
F-5.0
sg6
F-8.0
sb(dp139
I00
F-182.3287144361343
sI01
F10487.478212653954
ss(i__main__
State
p140
(dp141
g3
F1.0
sg4
F3.0
sg5
F7.0
sg6
F4.0
sb(dp142
I00
F-3253.0380803230746
sI01
F5093.722362625112
ss(i__main__
State
p143
(dp144
g3
F1.0
sg4
F1.0
sg5
F7.0
sg6
F4.0
sb(dp145
I00
F-8645.220750623224
sI01
F4077.7467734443812
ss(i__main__
State
p146
(dp147
g3
F2.0
sg4
F5.0
sg5
F8.0
sg6
F5.0
sb(dp148
I00
F1093.3411933466077
sI01
F9445.777943436717
ss(i__main__
State
p149
(dp150
g3
F0.0
sg4
F2.0
sg5
F6.0
sg6
F3.0
sb(dp151
I00
F-10265.620255309064
sI01
F3592.871598591346
ss(i__main__
State
p152
(dp153
g3
F-1.0
sg4
F4.0
sg5
F5.0
sg6
F2.0
sb(dp154
I00
F-1223.2903060093724
sI01
F8389.180070219221
ss(i__main__
State
p155
(dp156
g3
F-1.0
sg4
F1.0
sg5
F5.0
sg6
F2.0
sb(dp157
I00
F-6953.624805612049
sI01
F2247.7742698634697
ss(i__main__
State
p158
(dp159
g3
F2.0
sg4
F7.0
sg5
F8.0
sg6
F5.0
sb(dp160
I00
F3271.7495930901478
sI01
F10324.765974056176
ss(i__main__
State
p161
(dp162
g3
F6.0
sg4
F3.0
sg5
F-5.0
sg6
F-8.0
sb(dp163
I00
F-6394.0166180977985
sI01
F2449.2232761795713
ss(i__main__
State
p164
(dp165
g3
F-5.0
sg4
F6.0
sg5
F1.0
sg6
F-2.0
sb(dp166
I00
F636.3341537567546
sI01
F5095.952024264151
ss(i__main__
State
p167
(dp168
g3
F-6.0
sg4
F7.0
sg5
F0.0
sg6
F-3.0
sb(dp169
I00
F-1943.3433484979912
sI01
F8496.958332894541
ss(i__main__
State
p170
(dp171
g3
F3.0
sg4
F4.0
sg5
F-8.0
sg6
F6.0
sb(dp172
I00
F-3506.2324758364316
sI01
F7364.656567691389
ss(i__main__
State
p173
(dp174
g3
F7.0
sg4
F4.0
sg5
F-4.0
sg6
F-7.0
sb(dp175
I00
F-2988.122192099923
sI01
F1923.0041567331075
ss(i__main__
State
p176
(dp177
g3
F4.0
sg4
F1.0
sg5
F-7.0
sg6
F7.0
sb(dp178
I00
F-10390.485498891905
sI01
F1605.1714984882835
ss(i__main__
State
p179
(dp180
g3
F1.0
sg4
F7.0
sg5
F7.0
sg6
F4.0
sb(dp181
I00
F-2274.393262112781
sI01
F10183.687674717963
ss(i__main__
State
p182
(dp183
g3
F1.0
sg4
F5.0
sg5
F7.0
sg6
F4.0
sb(dp184
I00
F-1525.1842957391973
sI01
F8861.17525356453
ss(i__main__
State
p185
(dp186
g3
F-3.0
sg4
F0.0
sg5
F3.0
sg6
F0.0
sb(dp187
I00
F-11168.82640123944
sI01
F1376.8346555414143
ss(i__main__
State
p188
(dp189
g3
F-8.0
sg4
F4.0
sg5
F-2.0
sg6
F-5.0
sb(dp190
I00
F-3149.2488941259508
sI01
F5819.612950986509
ss(i__main__
State
p191
(dp192
g3
F5.0
sg4
F5.0
sg5
F-6.0
sg6
F8.0
sb(dp193
I00
F-51.91172896785929
sI01
F9274.95418860894
ss(i__main__
State
p194
(dp195
g3
F5.0
sg4
F4.0
sg5
F-6.0
sg6
F8.0
sb(dp196
I00
F-2705.7883105717347
sI01
F6218.44860680023
ss(i__main__
State
p197
(dp198
g3
F-2.0
sg4
F5.0
sg5
F4.0
sg6
F1.0
sb(dp199
I00
F649.0177341371219
sI01
F9405.102590236093
ss(i__main__
State
p200
(dp201
g3
F-8.0
sg4
F2.0
sg5
F-2.0
sg6
F-5.0
sb(dp202
I00
F-4132.66596654469
sI01
F3882.4932018308864
ss(i__main__
State
p203
(dp204
g3
F-8.0
sg4
F7.0
sg5
F-2.0
sg6
F-5.0
sb(dp205
I00
F-4250.001240462364
sI01
F7757.826143034869
ss(i__main__
State
p206
(dp207
g3
F1.0
sg4
F8.0
sg5
F7.0
sg6
F4.0
sb(dp208
I00
F-12955.70379440766
sI01
F690.6999164769337
ss(i__main__
State
p209
(dp210
g3
F0.0
sg4
F5.0
sg5
F6.0
sg6
F3.0
sb(dp211
I00
F-476.0500438590536
sI01
F9415.938622643871
ss(i__main__
State
p212
(dp213
g3
F-6.0
sg4
F2.0
sg5
F0.0
sg6
F-3.0
sb(dp214
I00
F-8572.360166759854
sI01
F3458.3727324174456
ss(i__main__
State
p215
(dp216
g3
F-8.0
sg4
F5.0
sg5
F-2.0
sg6
F-5.0
sb(dp217
I00
F276.1547600701624
sI01
F7615.620584340082
ss(i__main__
State
p218
(dp219
g3
F-3.0
sg4
F6.0
sg5
F3.0
sg6
F0.0
sb(dp220
I00
F2571.8047065309497
sI01
F7631.863920847347
ss(i__main__
State
p221
(dp222
g3
F7.0
sg4
F3.0
sg5
F-4.0
sg6
F-7.0
sb(dp223
I00
F-6616.829091934163
sI01
F5347.260314925711
ss(i__main__
State
p224
(dp225
g3
F-5.0
sg4
F7.0
sg5
F1.0
sg6
F-2.0
sb(dp226
I00
F-1175.6199197850221
sI01
F8646.593309090422
ss(i__main__
State
p227
(dp228
g3
F-4.0
sg4
F4.0
sg5
F2.0
sg6
F-1.0
sb(dp229
I00
F-4692.519882929611
sI01
F5450.970526504325
ss(i__main__
State
p230
(dp231
g3
F7.0
sg4
F0.0
sg5
F-4.0
sg6
F-7.0
sb(dp232
I00
F-9511.971244790839
sI01
F1173.449941278488
ss(i__main__
State
p233
(dp234
g3
F-6.0
sg4
F6.0
sg5
F0.0
sg6
F-3.0
sb(dp235
I00
F1220.1086191484274
sI01
F8134.782009308201
ss(i__main__
State
p236
(dp237
g3
F-6.0
sg4
F0.0
sg5
F0.0
sg6
F-3.0
sb(dp238
I00
F-15049.761850621777
sI01
F1799.879207814794
ss(i__main__
State
p239
(dp240
g3
F-8.0
sg4
F0.0
sg5
F-2.0
sg6
F-5.0
sb(dp241
I00
F-7782.193834420589
sI01
F1290.499943324089
ss(i__main__
State
p242
(dp243
g3
F-7.0
sg4
F8.0
sg5
F-1.0
sg6
F-4.0
sb(dp244
I00
F-17214.382310977842
sI01
F1044.8631008006591
ss(i__main__
State
p245
(dp246
g3
F-1.0
sg4
F7.0
sg5
F5.0
sg6
F2.0
sb(dp247
I00
F1830.821997863135
sI01
F2199.745197601963
ss(i__main__
State
p248
(dp249
g3
F5.0
sg4
F2.0
sg5
F-6.0
sg6
F8.0
sb(dp250
I00
F-11008.991516475562
sI01
F2756.3923459586963
ss(i__main__
State
p251
(dp252
g3
F-8.0
sg4
F3.0
sg5
F-2.0
sg6
F-5.0
sb(dp253
I00
F-7055.801438425375
sI01
F4429.264480744524
ss(i__main__
State
p254
(dp255
g3
F-2.0
sg4
F7.0
sg5
F4.0
sg6
F1.0
sb(dp256
I00
F-6301.497711519563
sI01
F9184.440103414596
ss(i__main__
State
p257
(dp258
g3
F0.0
sg4
F6.0
sg5
F6.0
sg6
F3.0
sb(dp259
I00
F3444.66784529302
sI01
F9846.52452962057
ss(i__main__
State
p260
(dp261
g3
F-2.0
sg4
F1.0
sg5
F4.0
sg6
F1.0
sb(dp262
I00
F-7812.139586640925
sI01
F2658.0720990418886
ss(i__main__
State
p263
(dp264
g3
F-4.0
sg4
F8.0
sg5
F2.0
sg6
F-1.0
sb(dp265
I00
F-8667.123401912435
sI01
F692.6020708262383
ss(i__main__
State
p266
(dp267
g3
F-8.0
sg4
F1.0
sg5
F-2.0
sg6
F-5.0
sb(dp268
I00
F-6398.999577824893
sI01
F2902.5539708635515
ss(i__main__
State
p269
(dp270
g3
F-3.0
sg4
F1.0
sg5
F3.0
sg6
F0.0
sb(dp271
I00
F-13370.268973055589
sI01
F1778.68797445184
ss(i__main__
State
p272
(dp273
g3
F7.0
sg4
F7.0
sg5
F-4.0
sg6
F-7.0
sb(dp274
I00
F1061.4620749251253
sI01
F10320.00473081526
ss(i__main__
State
p275
(dp276
g3
F7.0
sg4
F5.0
sg5
F-4.0
sg6
F-7.0
sb(dp277
I00
F286.2627902985199
sI01
F6847.025723080471
ss(i__main__
State
p278
(dp279
g3
F-3.0
sg4
F7.0
sg5
F3.0
sg6
F0.0
sb(dp280
I00
F3723.223738414288
sI01
F10405.127103541401
ss(i__main__
State
p281
(dp282
g3
F4.0
sg4
F5.0
sg5
F-7.0
sg6
F7.0
sb(dp283
I00
F-292.03788417853764
sI01
F8830.483052477926
ss(i__main__
State
p284
(dp285
g3
F4.0
sg4
F0.0
sg5
F-7.0
sg6
F7.0
sb(dp286
I00
F-11168.481132586803
sI01
F985.14263626672
ss(i__main__
State
p287
(dp288
g3
F6.0
sg4
F5.0
sg5
F-5.0
sg6
F-8.0
sb(dp289
I00
F907.9435571689105
sI01
F7646.199741003966
ss(i__main__
State
p290
(dp291
g3
F-5.0
sg4
F4.0
sg5
F1.0
sg6
F-2.0
sb(dp292
I00
F-3527.309076963914
sI01
F6817.767971482389
ss(i__main__
State
p293
(dp294
g3
F-3.0
sg4
F8.0
sg5
F3.0
sg6
F0.0
sb(dp295
I00
F-8252.467926695728
sI01
F599.3021639992038
ss(i__main__
State
p296
(dp297
g3
F2.0
sg4
F6.0
sg5
F8.0
sg6
F5.0
sb(dp298
I00
F3755.493722228455
sI01
F9969.32504601492
ss(i__main__
State
p299
(dp300
g3
F-5.0
sg4
F0.0
sg5
F1.0
sg6
F-2.0
sb(dp301
I00
F-5949.520785978917
sI01
F1755.401747312504
ss(i__main__
State
p302
(dp303
g3
F-1.0
sg4
F2.0
sg5
F5.0
sg6
F2.0
sb(dp304
I00
F-5905.870355062634
sI01
F4544.211047001429
ss(i__main__
State
p305
(dp306
g3
F5.0
sg4
F3.0
sg5
F-6.0
sg6
F8.0
sb(dp307
I00
F-8200.757923137877
sI01
F4827.504280975881
ss(i__main__
State
p308
(dp309
g3
F-1.0
sg4
F6.0
sg5
F5.0
sg6
F2.0
sb(dp310
I00
F3556.70785605862
sI01
F10017.109174069334
ss(i__main__
State
p311
(dp312
g3
F-7.0
sg4
F7.0
sg5
F-1.0
sg6
F-4.0
sb(dp313
I00
F210.66224227460862
sI01
F1915.591958577787
ss(i__main__
State
p314
(dp315
g3
F4.0
sg4
F3.0
sg5
F-7.0
sg6
F7.0
sb(dp316
I00
F-8249.5142269298
sI01
F4690.4544759205255
ss(i__main__
State
p317
(dp318
g3
F-4.0
sg4
F1.0
sg5
F2.0
sg6
F-1.0
sb(dp319
I00
F-6690.214238895109
sI01
F3126.646654398337
ss(i__main__
State
p320
(dp321
g3
F1.0
sg4
F0.0
sg5
F7.0
sg6
F4.0
sb(dp322
I00
F-15406.703299983452
sI01
F884.4926951030575
ss(i__main__
State
p323
(dp324
g3
F8.0
sg4
F5.0
sg5
F-3.0
sg6
F-6.0
sb(dp325
I00
F-2565.513374329682
sI01
F2336.018702691987
ss(i__main__
State
p326
(dp327
g3
F0.0
sg4
F0.0
sg5
F6.0
sg6
F3.0
sb(dp328
I00
F-8310.525061613278
sI01
F2437.626219545259
ss(i__main__
State
p329
(dp330
g3
F3.0
sg4
F0.0
sg5
F-8.0
sg6
F6.0
sb(dp331
I00
F-14311.483806489096
sI01
F669.7835044892531
ss(i__main__
State
p332
(dp333
g3
F7.0
sg4
F1.0
sg5
F-4.0
sg6
F-7.0
sb(dp334
I00
F-7777.508666598463
sI01
F2304.4954868035916
ss(i__main__
State
p335
(dp336
g3
F4.0
sg4
F2.0
sg5
F-7.0
sg6
F7.0
sb(dp337
I00
F-10165.207967231992
sI01
F3486.4254860420497
ss(i__main__
State
p338
(dp339
g3
F-6.0
sg4
F4.0
sg5
F0.0
sg6
F-3.0
sb(dp340
I00
F-1404.386799532855
sI01
F7286.750617357731
ss(i__main__
State
p341
(dp342
g3
F-4.0
sg4
F5.0
sg5
F2.0
sg6
F-1.0
sb(dp343
I00
F255.4773336124897
sI01
F7676.132320463456
ss(i__main__
State
p344
(dp345
g3
F-3.0
sg4
F4.0
sg5
F3.0
sg6
F0.0
sb(dp346
I00
F-2155.7338235491475
sI01
F8063.702881830628
ss(i__main__
State
p347
(dp348
g3
F0.0
sg4
F3.0
sg5
F6.0
sg6
F3.0
sb(dp349
I00
F-4528.431419091221
sI01
F6697.8937459475155
ss(i__main__
State
p350
(dp351
g3
F-7.0
sg4
F4.0
sg5
F-1.0
sg6
F-4.0
sb(dp352
I00
F-3160.56057851193
sI01
F5745.345242149813
ss(i__main__
State
p353
(dp354
g3
F-4.0
sg4
F6.0
sg5
F2.0
sg6
F-1.0
sb(dp355
I00
F2043.293381929309
sI01
F9599.228872656804
ss(i__main__
State
p356
(dp357
g3
F-4.0
sg4
F3.0
sg5
F2.0
sg6
F-1.0
sb(dp358
I00
F-5365.759929241777
sI01
F5907.535036730308
ss(i__main__
State
p359
(dp360
g3
F-7.0
sg4
F6.0
sg5
F-1.0
sg6
F-4.0
sb(dp361
I00
F2570.7583385266435
sI01
F7699.830736746087
ss(i__main__
State
p362
(dp363
g3
F6.0
sg4
F2.0
sg5
F-5.0
sg6
F-8.0
sb(dp364
I00
F-3213.6280691869856
sI01
F3238.06293676896
ss(i__main__
State
p365
(dp366
g3
F3.0
sg4
F5.0
sg5
F-8.0
sg6
F6.0
sb(dp367
I00
F-2798.0913655917648
sI01
F8343.09106855566
ss(i__main__
State
p368
(dp369
g3
F-8.0
sg4
F8.0
sg5
F-2.0
sg6
F-5.0
sb(dp370
I00
F-14894.197701812567
sI01
F877.844082259558
ss(i__main__
State
p371
(dp372
g3
F-2.0
sg4
F0.0
sg5
F4.0
sg6
F1.0
sb(dp373
I00
F-8799.719430437308
sI01
F1304.4139182924573
ss(i__main__
State
p374
(dp375
g3
F6.0
sg4
F8.0
sg5
F-5.0
sg6
F-8.0
sb(dp376
I00
F-16826.088778806763
sI01
F553.9364481711857
ss(i__main__
State
p377
(dp378
g3
F5.0
sg4
F1.0
sg5
F-6.0
sg6
F8.0
sb(dp379
I00
F-8099.616162825796
sI01
F1808.6191133115499
ss(i__main__
State
p380
(dp381
g3
F-2.0
sg4
F4.0
sg5
F4.0
sg6
F1.0
sb(dp382
I00
F-2144.8437625808688
sI01
F8209.491795259903
ss(i__main__
State
p383
(dp384
g3
F-7.0
sg4
F2.0
sg5
F-1.0
sg6
F-4.0
sb(dp385
I00
F-6465.346923724586
sI01
F4275.067375101207
ss(i__main__
State
p386
(dp387
g3
F2.0
sg4
F4.0
sg5
F8.0
sg6
F5.0
sb(dp388
I00
F-2628.094828355332
sI01
F6627.741410807992
ss(i__main__
State
p389
(dp390
g3
F-2.0
sg4
F3.0
sg5
F4.0
sg6
F1.0
sb(dp391
I00
F-2573.0377154939174
sI01
F6671.075504117608
ss(i__main__
State
p392
(dp393
g3
F6.0
sg4
F4.0
sg5
F-5.0
sg6
F-8.0
sb(dp394
I00
F-955.950241360775
sI01
F5450.72478394765
ss(i__main__
State
p395
(dp396
g3
F-4.0
sg4
F0.0
sg5
F2.0
sg6
F-1.0
sb(dp397
I00
F-13497.215955796117
sI01
F712.866004475054
ss(i__main__
State
p398
(dp399
g3
F3.0
sg4
F1.0
sg5
F-8.0
sg6
F6.0
sb(dp400
I00
F-8282.295910897185
sI01
F2103.6804767146805
ss(i__main__
State
p401
(dp402
g3
F-2.0
sg4
F6.0
sg5
F4.0
sg6
F1.0
sb(dp403
I00
F71.3076687991224
sI01
F4548.325396457441
ss(i__main__
State
p404
(dp405
g3
F-6.0
sg4
F1.0
sg5
F0.0
sg6
F-3.0
sb(dp406
I00
F-11621.71021330972
sI01
F2682.5351087400704
ss(i__main__
State
p407
(dp408
g3
F0.0
sg4
F7.0
sg5
F6.0
sg6
F3.0
sb(dp409
I00
F2156.5405458221203
sI01
F10339.180420057013
ss(i__main__
State
p410
(dp411
g3
F2.0
sg4
F1.0
sg5
F8.0
sg6
F5.0
sb(dp412
I00
F-8641.7406917749
sI01
F1605.4089505211628
ss(i__main__
State
p413
(dp414
g3
F4.0
sg4
F8.0
sg5
F-7.0
sg6
F7.0
sb(dp415
I00
F-17649.82154187974
sI01
F748.3229265304399
ss(i__main__
State
p416
(dp417
g3
F7.0
sg4
F2.0
sg5
F-4.0
sg6
F-7.0
sb(dp418
I00
F-7366.816142705895
sI01
F3273.1869171389408
ss(i__main__
State
p419
(dp420
g3
F2.0
sg4
F3.0
sg5
F8.0
sg6
F5.0
sb(dp421
I00
F-7825.6913164523985
sI01
F5638.836890688033
ss(i__main__
State
p422
(dp423
g3
F0.0
sg4
F4.0
sg5
F6.0
sg6
F3.0
sb(dp424
I00
F-5167.384013577387
sI01
F6744.765713494248
ss(i__main__
State
p425
(dp426
g3
F-1.0
sg4
F8.0
sg5
F5.0
sg6
F2.0
sb(dp427
I00
F-10299.87779303818
sI01
F1494.875330732823
ss(i__main__
State
p428
(dp429
g3
F8.0
sg4
F6.0
sg5
F-3.0
sg6
F-6.0
sb(dp430
I00
F3054.647207917616
sI01
F7911.894109580863
ss(i__main__
State
p431
(dp432
g3
F5.0
sg4
F7.0
sg5
F-6.0
sg6
F8.0
sb(dp433
I00
F1923.312190474882
sI01
F10216.236981097018
ss(i__main__
State
p434
(dp435
g3
F2.0
sg4
F2.0
sg5
F8.0
sg6
F5.0
sb(dp436
I00
F-6285.531943867709
sI01
F5351.379388413505
ss(i__main__
State
p437
(dp438
g3
F-7.0
sg4
F3.0
sg5
F-1.0
sg6
F-4.0
sb(dp439
I00
F-7805.63969526312
sI01
F5714.640164109791
ss(i__main__
State
p440
(dp441
g3
F-5.0
sg4
F1.0
sg5
F1.0
sg6
F-2.0
sb(dp442
I00
F-8571.372783349756
sI01
F3385.7284907491094
ss(i__main__
State
p443
(dp444
g3
F0.0
sg4
F8.0
sg5
F6.0
sg6
F3.0
sb(dp445
I00
F-15966.86254588745
sI01
F416.1713230065742
ss(i__main__
State
p446
(dp447
g3
F4.0
sg4
F6.0
sg5
F-7.0
sg6
F7.0
sb(dp448
I00
F2040.9587437717403
sI01
F9610.025594881925
ss(i__main__
State
p449
(dp450
g3
F-3.0
sg4
F5.0
sg5
F3.0
sg6
F0.0
sb(dp451
I00
F-863.2708141336255
sI01
F5643.533036131776
ss(i__main__
State
p452
(dp453
g3
F1.0
sg4
F6.0
sg5
F7.0
sg6
F4.0
sb(dp454
I00
F3463.4272407039603
sI01
F9930.51998249431
ss(i__main__
State
p455
(dp456
g3
F8.0
sg4
F0.0
sg5
F-3.0
sg6
F-6.0
sb(dp457
I00
F-11038.362742565309
sI01
F1725.3647687016578
ss(i__main__
State
p458
(dp459
g3
F3.0
sg4
F8.0
sg5
F-8.0
sg6
F6.0
sb(dp460
I00
F-16982.856350644666
sI01
F716.9030343716564
ss(i__main__
State
p461
(dp462
g3
F-7.0
sg4
F0.0
sg5
F-1.0
sg6
F-4.0
sb(dp463
I00
F-8160.407038419851
sI01
F1296.31204894829
ss.