(dp0
(i__main__
State
p1
(dp2
S'y1'
p3
F8.0
sS'x'
p4
F3.0
sS'y3'
p5
F-3.0
sS'y2'
p6
F-6.0
sb(dp7
I00
F-4061.8340282004838
sI01
F140.58056671949623
ss(i__main__
State
p8
(dp9
g3
F4.0
sg4
F7.0
sg5
F-7.0
sg6
F7.0
sb(dp10
I00
F-9255.069144983992
sI01
F9095.866790892904
ss(i__main__
State
p11
(dp12
g3
F-7.0
sg4
F5.0
sg5
F-1.0
sg6
F-4.0
sb(dp13
I00
F-4715.487855580943
sI01
F1331.2689331653182
ss(i__main__
State
p14
(dp15
g3
F-5.0
sg4
F2.0
sg5
F1.0
sg6
F-2.0
sb(dp16
I00
F-2325.430381
sI01
F72.67641357778345
ss(i__main__
State
p17
(dp18
g3
F7.0
sg4
F6.0
sg5
F-4.0
sg6
F-7.0
sb(dp19
I00
F-473.481673935191
sI01
F4246.877717001912
ss(i__main__
State
p20
(dp21
g3
F0.0
sg4
F7.0
sg5
F6.0
sg6
F3.0
sb(dp22
I00
F-2129.969706401811
sI01
F8773.260554804321
ss(i__main__
State
p23
(dp24
g3
F-1.0
sg4
F0.0
sg5
F5.0
sg6
F2.0
sb(dp25
I00
F-5511.274597161297
sI01
F14.080949848130516
ss(i__main__
State
p26
(dp27
g3
F-1.0
sg4
F3.0
sg5
F5.0
sg6
F2.0
sb(dp28
I00
F-9232.574940777215
sI01
F867.3627816973676
ss(i__main__
State
p29
(dp30
g3
F1.0
sg4
F4.0
sg5
F7.0
sg6
F4.0
sb(dp31
I00
F-4166.577250300001
sI01
F884.7782733991571
ss(i__main__
State
p32
(dp33
g3
F1.0
sg4
F2.0
sg5
F7.0
sg6
F4.0
sb(dp34
I00
F-4083.8418040050947
sI01
F72.38159451903705
ss(i__main__
State
p35
(dp36
g3
F2.0
sg4
F7.0
sg5
F8.0
sg6
F5.0
sb(dp37
I00
F-12021.782620247064
sI01
F6547.834072122169
ss(i__main__
State
p38
(dp39
g3
F-6.0
sg4
F5.0
sg5
F0.0
sg6
F-3.0
sb(dp40
I00
F-682.9687
sI01
F842.5166157144083
ss(i__main__
State
p41
(dp42
g3
F-2.0
sg4
F8.0
sg5
F4.0
sg6
F1.0
sb(dp43
I00
F-6035.678355530639
sI01
F21.701869037674964
ss(i__main__
State
p44
(dp45
g3
F6.0
sg4
F0.0
sg5
F-5.0
sg6
F-8.0
sb(dp46
I00
F-1630.4355914412176
sI01
F-14.123075659249931
ss(i__main__
State
p47
(dp48
g3
F0.0
sg4
F1.0
sg5
F6.0
sg6
F3.0
sb(dp49
I00
F-7967.385661441797
sI01
F21.407664474307726
ss(i__main__
State
p50
(dp51
g3
F-4.0
sg4
F7.0
sg5
F2.0
sg6
F-1.0
sb(dp52
I00
F-358.4088225107432
sI01
F1215.054386349656
ss(i__main__
State
p53
(dp54
g3
F-3.0
sg4
F2.0
sg5
F3.0
sg6
F0.0
sb(dp55
I00
F-4095.483221559834
sI01
F119.26832791039655
ss(i__main__
State
p56
(dp57
g3
F5.0
sg4
F0.0
sg5
F-6.0
sg6
F8.0
sb(dp58
I00
F-14540.376613015807
sI01
F-13.73275937010552
ss(i__main__
State
p59
(dp60
g3
F3.0
sg4
F2.0
sg5
F-8.0
sg6
F6.0
sb(dp61
I00
F-4881.388361428616
sI01
F54.099137351969006
ss(i__main__
State
p62
(dp63
g3
F3.0
sg4
F3.0
sg5
F-8.0
sg6
F6.0
sb(dp64
I00
F-1871.1152996291303
sI01
F365.55317192666394
ss(i__main__
State
p65
(dp66
g3
F-5.0
sg4
F8.0
sg5
F1.0
sg6
F-2.0
sb(dp67
I00
F-11289.338677266753
sI01
F-26.710968201109285
ss(i__main__
State
p68
(dp69
g3
F2.0
sg4
F0.0
sg5
F8.0
sg6
F5.0
sb(dp70
I00
F-3075.2191572038055
sI01
F-12.504958041257431
ss(i__main__
State
p71
(dp72
g3
F4.0
sg4
F4.0
sg5
F-7.0
sg6
F7.0
sb(dp73
I00
F-2021.5299621038603
sI01
F1051.2137472759732
ss(i__main__
State
p74
(dp75
g3
F-2.0
sg4
F2.0
sg5
F4.0
sg6
F1.0
sb(dp76
I00
F-6138.086816181578
sI01
F363.660305923603
ss(i__main__
State
p77
(dp78
g3
F-6.0
sg4
F3.0
sg5
F0.0
sg6
F-3.0
sb(dp79
I00
F-2589.3249192394833
sI01
F175.20092273329087
ss(i__main__
State
p80
(dp81
g3
F2.0
sg4
F8.0
sg5
F8.0
sg6
F5.0
sb(dp82
I00
F-8445.717381282784
sI01
F-11.360163082842451
ss(i__main__
State
p83
(dp84
g3
F-7.0
sg4
F3.0
sg5
F-1.0
sg6
F-4.0
sb(dp85
I00
F-3375.393930834087
sI01
F257.32419729911084
ss(i__main__
State
p86
(dp87
g3
F5.0
sg4
F6.0
sg5
F-6.0
sg6
F8.0
sb(dp88
I00
F672.5351555869167
sI01
F5684.66595068547
ss(i__main__
State
p89
(dp90
g3
F8.0
sg4
F1.0
sg5
F-3.0
sg6
F-6.0
sb(dp91
I00
F-5674.064808961283
sI01
F39.855340251572606
ss(i__main__
State
p92
(dp93
g3
F-5.0
sg4
F5.0
sg5
F1.0
sg6
F-2.0
sb(dp94
I00
F-2017.6979765999758
sI01
F2403.183955628355
ss(i__main__
State
p95
(dp96
g3
F-2.0
sg4
F1.0
sg5
F4.0
sg6
F1.0
sb(dp97
I00
F-5778.364160238397
sI01
F19.774394011653506
ss(i__main__
State
p98
(dp99
g3
F7.0
sg4
F5.0
sg5
F-4.0
sg6
F-7.0
sb(dp100
I00
F-4779.313831721178
sI01
F1339.3719475927096
ss(i__main__
State
p101
(dp102
g3
F5.0
sg4
F8.0
sg5
F-6.0
sg6
F8.0
sb(dp103
I00
F-15061.047614247549
sI01
F-19.23493729856661
ss(i__main__
State
p104
(dp105
g3
F3.0
sg4
F6.0
sg5
F-8.0
sg6
F6.0
sb(dp106
I00
F458.22553213637383
sI01
F6555.732250916086
ss(i__main__
State
p107
(dp108
g3
F8.0
sg4
F7.0
sg5
F-3.0
sg6
F-6.0
sb(dp109
I00
F2683.0899984463977
sI01
F7717.539617454155
ss(i__main__
State
p110
(dp111
g3
F8.0
sg4
F4.0
sg5
F-3.0
sg6
F-6.0
sb(dp112
I00
I-80
sI01
F570.8958841826513
ss(i__main__
State
p113
(dp114
g3
F-7.0
sg4
F1.0
sg5
F-1.0
sg6
F-4.0
sb(dp115
I00
F-4850.661093352697
sI01
F55.3340259649634
ss(i__main__
State
p116
(dp117
g3
F8.0
sg4
F8.0
sg5
F-3.0
sg6
F-6.0
sb(dp118
I00
F-1793.5493146663332
sI01
F52.72224080816265
ss(i__main__
State
p119
(dp120
g3
F7.0
sg4
F8.0
sg5
F-4.0
sg6
F-7.0
sb(dp121
I00
F-3416.1214596268783
sI01
F9.466976639845571
ss(i__main__
State
p122
(dp123
g3
F-7.0
sg4
F8.0
sg5
F-1.0
sg6
F-4.0
sb(dp124
I00
F-9369.843433554457
sI01
F8.889891460746089
ss(i__main__
State
p125
(dp126
g3
F-6.0
sg4
F8.0
sg5
F0.0
sg6
F-3.0
sb(dp127
I00
F-4694.1087683680935
sI01
F16.259405505581356
ss(i__main__
State
p128
(dp129
g3
F8.0
sg4
F2.0
sg5
F-3.0
sg6
F-6.0
sb(dp130
I00
F-9994.802097384569
sI01
F-4.165272690657767
ss(i__main__
State
p131
(dp132
g3
F-5.0
sg4
F3.0
sg5
F1.0
sg6
F-2.0
sb(dp133
I00
F-4692.215931856625
sI01
F130.6290616779953
ss(i__main__
State
p134
(dp135
g3
F6.0
sg4
F6.0
sg5
F-5.0
sg6
F-8.0
sb(dp136
I00
F689.7301103742457
sI01
F5163.499312797475
ss(i__main__
State
p137
(dp138
g3
F-8.0
sg4
F6.0
sg5
F-2.0
sg6
F-5.0
sb(dp139
I00
F-445.33595248707655
sI01
F1411.9868333795896
ss(i__main__
State
p140
(dp141
g3
F6.0
sg4
F7.0
sg5
F-5.0
sg6
F-8.0
sb(dp142
I00
F2770.51721423292
sI01
F8674.15348583055
ss(i__main__
State
p143
(dp144
g3
F1.0
sg4
F3.0
sg5
F7.0
sg6
F4.0
sb(dp145
I00
F-9169.180894992003
sI01
F380.74223214529655
ss(i__main__
State
p146
(dp147
g3
F1.0
sg4
F1.0
sg5
F7.0
sg6
F4.0
sb(dp148
I00
F-11659.927053691723
sI01
F7.4088570207602515
ss(i__main__
State
p149
(dp150
g3
F2.0
sg4
F5.0
sg5
F8.0
sg6
F5.0
sb(dp151
I00
F-1018.9859610742038
sI01
F3178.0195366871817
ss(i__main__
State
p152
(dp153
g3
F0.0
sg4
F2.0
sg5
F6.0
sg6
F3.0
sb(dp154
I00
F-3180.7438861734863
sI01
F133.60269597561572
ss(i__main__
State
p155
(dp156
g3
F-1.0
sg4
F4.0
sg5
F5.0
sg6
F2.0
sb(dp157
I00
F-1937.760885626883
sI01
F698.7437550003776
ss(i__main__
State
p158
(dp159
g3
F-1.0
sg4
F1.0
sg5
F5.0
sg6
F2.0
sb(dp160
I00
F-10412.217794522905
sI01
F17.23809586169045
ss(i__main__
State
p161
(dp162
g3
F-1.0
sg4
F5.0
sg5
F5.0
sg6
F2.0
sb(dp163
I00
F-4186.687107806438
sI01
F2291.3488171818317
ss(i__main__
State
p164
(dp165
g3
F6.0
sg4
F3.0
sg5
F-5.0
sg6
F-8.0
sb(dp166
I00
F-3242.2920297543155
sI01
F505.22826311332085
ss(i__main__
State
p167
(dp168
g3
F-3.0
sg4
F0.0
sg5
F3.0
sg6
F0.0
sb(dp169
I00
F-10438.227014563015
sI01
F-20.955367887573395
ss(i__main__
State
p170
(dp171
g3
F-6.0
sg4
F7.0
sg5
F0.0
sg6
F-3.0
sb(dp172
I00
F-11243.457300798977
sI01
F8630.243323161718
ss(i__main__
State
p173
(dp174
g3
F3.0
sg4
F4.0
sg5
F-8.0
sg6
F6.0
sb(dp175
I00
F-3308.9861077483893
sI01
F1021.048052708315
ss(i__main__
State
p176
(dp177
g3
F7.0
sg4
F4.0
sg5
F-4.0
sg6
F-7.0
sb(dp178
I00
F-3010.494123023077
sI01
F1050.2424415508128
ss(i__main__
State
p179
(dp180
g3
F4.0
sg4
F1.0
sg5
F-7.0
sg6
F7.0
sb(dp181
I00
F-6568.938379281853
sI01
F65.9676512263166
ss(i__main__
State
p182
(dp183
g3
F1.0
sg4
F7.0
sg5
F7.0
sg6
F4.0
sb(dp184
I00
F-8852.45498755596
sI01
F8482.372723862998
ss(i__main__
State
p185
(dp186
g3
F1.0
sg4
F5.0
sg5
F7.0
sg6
F4.0
sb(dp187
I00
F-1511.4104476434131
sI01
F3981.8278970350634
ss(i__main__
State
p188
(dp189
g3
F-5.0
sg4
F6.0
sg5
F1.0
sg6
F-2.0
sb(dp190
I00
F-2833.641239830169
sI01
F1060.4702707032159
ss(i__main__
State
p191
(dp192
g3
F-8.0
sg4
F4.0
sg5
F-2.0
sg6
F-5.0
sb(dp193
I00
F-3174.9120023208693
sI01
F468.77032828890447
ss(i__main__
State
p194
(dp195
g3
F-1.0
sg4
F7.0
sg5
F5.0
sg6
F2.0
sb(dp196
I00
F-2269.7509538035893
sI01
F392.4469003637567
ss(i__main__
State
p197
(dp198
g3
F5.0
sg4
F4.0
sg5
F-6.0
sg6
F8.0
sb(dp199
I00
F-2130.5944042051283
sI01
F492.3293036867857
ss(i__main__
State
p200
(dp201
g3
F-2.0
sg4
F5.0
sg5
F4.0
sg6
F1.0
sb(dp202
I00
F-3790.766184930324
sI01
F2620.9774848028674
ss(i__main__
State
p203
(dp204
g3
F-8.0
sg4
F2.0
sg5
F-2.0
sg6
F-5.0
sb(dp205
I00
F-8925.16687177819
sI01
F91.8146519253169
ss(i__main__
State
p206
(dp207
g3
F-8.0
sg4
F7.0
sg5
F-2.0
sg6
F-5.0
sb(dp208
I00
F-12078.544940118307
sI01
F6448.884774258999
ss(i__main__
State
p209
(dp210
g3
F1.0
sg4
F8.0
sg5
F7.0
sg6
F4.0
sb(dp211
I00
F-17308.05415486048
sI01
F-26.25931533992278
ss(i__main__
State
p212
(dp213
g3
F0.0
sg4
F5.0
sg5
F6.0
sg6
F3.0
sb(dp214
I00
F-1028.8147966275787
sI01
F1489.3750887145566
ss(i__main__
State
p215
(dp216
g3
F-4.0
sg4
F3.0
sg5
F2.0
sg6
F-1.0
sb(dp217
I00
F-1878.9005554071825
sI01
F183.45263155257044
ss(i__main__
State
p218
(dp219
g3
F-8.0
sg4
F5.0
sg5
F-2.0
sg6
F-5.0
sb(dp220
I00
F-2595.8789825035383
sI01
F2394.4884123100546
ss(i__main__
State
p221
(dp222
g3
F5.0
sg4
F5.0
sg5
F-6.0
sg6
F8.0
sb(dp223
I00
F-2756.2059630000003
sI01
F2560.8132364789963
ss(i__main__
State
p224
(dp225
g3
F7.0
sg4
F3.0
sg5
F-4.0
sg6
F-7.0
sb(dp226
I00
I-27
sI01
F113.26726155749535
ss(i__main__
State
p227
(dp228
g3
F-5.0
sg4
F7.0
sg5
F1.0
sg6
F-2.0
sb(dp229
I00
F-9251.383886844442
sI01
F6453.701911663607
ss(i__main__
State
p230
(dp231
g3
F-4.0
sg4
F4.0
sg5
F2.0
sg6
F-1.0
sb(dp232
I00
F-3654.4641547748456
sI01
F444.5291704539513
ss(i__main__
State
p233
(dp234
g3
F3.0
sg4
F7.0
sg5
F-8.0
sg6
F6.0
sb(dp235
I00
F-4023.7528791937
sI01
F8881.216217309486
ss(i__main__
State
p236
(dp237
g3
F7.0
sg4
F0.0
sg5
F-4.0
sg6
F-7.0
sb(dp238
I00
F-14921.15848119854
sI01
F26.23496413249948
ss(i__main__
State
p239
(dp240
g3
F-6.0
sg4
F6.0
sg5
F0.0
sg6
F-3.0
sb(dp241
I00
F-229.37483114505662
sI01
F3288.6322213828607
ss(i__main__
State
p242
(dp243
g3
F-6.0
sg4
F0.0
sg5
F0.0
sg6
F-3.0
sb(dp244
I00
F-9019.233238370001
sI01
F-3.0010309795021524
ss(i__main__
State
p245
(dp246
g3
F-8.0
sg4
F0.0
sg5
F-2.0
sg6
F-5.0
sb(dp247
I00
F-6530.294978595313
sI01
F56.91553050759994
ss(i__main__
State
p248
(dp249
g3
F6.0
sg4
F8.0
sg5
F-5.0
sg6
F-8.0
sb(dp250
I00
F-3414.705896665069
sI01
F27.352599019527137
ss(i__main__
State
p251
(dp252
g3
F-3.0
sg4
F3.0
sg5
F3.0
sg6
F0.0
sb(dp253
I00
F-4661.991210975886
sI01
F199.4354555547003
ss(i__main__
State
p254
(dp255
g3
F0.0
sg4
F0.0
sg5
F6.0
sg6
F3.0
sb(dp256
I00
F-7509.809984011706
sI01
F0.30514282614458704
ss(i__main__
State
p257
(dp258
g3
F8.0
sg4
F0.0
sg5
F-8.0
sg6
F0.0
sb(dp259
I00
F-16035.832139893622
sI01
I37
ss(i__main__
State
p260
(dp261
g3
F5.0
sg4
F2.0
sg5
F-6.0
sg6
F8.0
sb(dp262
I00
F-3239.9362816595694
sI01
F210.7628267823262
ss(i__main__
State
p263
(dp264
g3
F-8.0
sg4
F3.0
sg5
F-2.0
sg6
F-5.0
sb(dp265
I00
F-2734.6673432635575
sI01
F80.60378202828204
ss(i__main__
State
p266
(dp267
g3
F-2.0
sg4
F7.0
sg5
F4.0
sg6
F1.0
sb(dp268
I00
F-1741.7700000000002
sI01
F7933.754777197955
ss(i__main__
State
p269
(dp270
g3
F0.0
sg4
F6.0
sg5
F6.0
sg6
F3.0
sb(dp271
I00
F-1598.594009459622
sI01
F5215.8264047127905
ss(i__main__
State
p272
(dp273
g3
F-4.0
sg4
F8.0
sg5
F2.0
sg6
F-1.0
sb(dp274
I00
F-7249.471547199059
sI01
F-28.833497294152895
ss(i__main__
State
p275
(dp276
g3
F-8.0
sg4
F1.0
sg5
F-2.0
sg6
F-5.0
sb(dp277
I00
I-66
sI01
F22.869610870289158
ss(i__main__
State
p278
(dp279
g3
F-3.0
sg4
F1.0
sg5
F3.0
sg6
F0.0
sb(dp280
I00
F-7975.877803266632
sI01
F76.53135871474588
ss(i__main__
State
p281
(dp282
g3
F7.0
sg4
F7.0
sg5
F-4.0
sg6
F-7.0
sb(dp283
I00
F-6206.485938370482
sI01
F8145.448752842828
ss(i__main__
State
p284
(dp285
g3
F-3.0
sg4
F7.0
sg5
F3.0
sg6
F0.0
sb(dp286
I00
F1848.7487702626813
sI01
F8150.849203132485
ss(i__main__
State
p287
(dp288
g3
F4.0
sg4
F5.0
sg5
F-7.0
sg6
F7.0
sb(dp289
I00
F-4245.827840608607
sI01
F2708.434256697514
ss(i__main__
State
p290
(dp291
g3
F4.0
sg4
F0.0
sg5
F-7.0
sg6
F7.0
sb(dp292
I00
F-1618.7814
sI01
F25.042744022468405
ss(i__main__
State
p293
(dp294
g3
F6.0
sg4
F5.0
sg5
F-5.0
sg6
F-8.0
sb(dp295
I00
F-629.2477356600001
sI01
F1803.7387693154903
ss(i__main__
State
p296
(dp297
g3
F-5.0
sg4
F4.0
sg5
F1.0
sg6
F-2.0
sb(dp298
I00
F-4498.943127574195
sI01
F671.8190361743036
ss(i__main__
State
p299
(dp300
g3
F-3.0
sg4
F8.0
sg5
F3.0
sg6
F0.0
sb(dp301
I00
F-6935.237730009793
sI01
F6.2670966299070345
ss(i__main__
State
p302
(dp303
g3
F0.0
sg4
F8.0
sg5
F6.0
sg6
F3.0
sb(dp304
I00
F-9175.024952376269
sI01
F-0.5763928028177698
ss(i__main__
State
p305
(dp306
g3
F-5.0
sg4
F0.0
sg5
F1.0
sg6
F-2.0
sb(dp307
I00
F-8387.069444560466
sI01
F15.718450338438828
ss(i__main__
State
p308
(dp309
g3
F-1.0
sg4
F2.0
sg5
F5.0
sg6
F2.0
sb(dp310
I00
F-5581.9901049844175
sI01
F17.97402525644447
ss(i__main__
State
p311
(dp312
g3
F5.0
sg4
F3.0
sg5
F-6.0
sg6
F8.0
sb(dp313
I00
F-4950.75188640562
sI01
F231.83678609954586
ss(i__main__
State
p314
(dp315
g3
F-1.0
sg4
F6.0
sg5
F5.0
sg6
F2.0
sb(dp316
I00
F-545.8331918471272
sI01
F5938.499689606553
ss(i__main__
State
p317
(dp318
g3
F-7.0
sg4
F4.0
sg5
F-1.0
sg6
F-4.0
sb(dp319
I00
F-818.5961756774944
sI01
F390.6688251194907
ss(i__main__
State
p320
(dp321
g3
F-4.0
sg4
F1.0
sg5
F2.0
sg6
F-1.0
sb(dp322
I00
F-4806.3766998522215
sI01
F47.91110562848393
ss(i__main__
State
p323
(dp324
g3
F1.0
sg4
F0.0
sg5
F7.0
sg6
F4.0
sb(dp325
I00
F-12367.718592109386
sI01
F-16.310146130353672
ss(i__main__
State
p326
(dp327
g3
F8.0
sg4
F5.0
sg5
F-3.0
sg6
F-6.0
sb(dp328
I00
F-1934.0261685313485
sI01
F1762.228543282078
ss(i__main__
State
p329
(dp330
g3
F3.0
sg4
F0.0
sg5
F-8.0
sg6
F6.0
sb(dp331
I00
F-5546.420300000001
sI01
F6.465045486801564
ss(i__main__
State
p332
(dp333
g3
F7.0
sg4
F1.0
sg5
F-4.0
sg6
F-7.0
sb(dp334
I00
F-5707.044113459211
sI01
F-16.580970804201158
ss(i__main__
State
p335
(dp336
g3
F4.0
sg4
F2.0
sg5
F-7.0
sg6
F7.0
sb(dp337
I00
F-11733.889669873462
sI01
F94.87378888078644
ss(i__main__
State
p338
(dp339
g3
F-6.0
sg4
F4.0
sg5
F0.0
sg6
F-3.0
sb(dp340
I00
F-6679.252873778977
sI01
F781.7813375708388
ss(i__main__
State
p341
(dp342
g3
F-4.0
sg4
F5.0
sg5
F2.0
sg6
F-1.0
sb(dp343
I00
F-2936.949663796332
sI01
F1509.461912513338
ss(i__main__
State
p344
(dp345
g3
F-3.0
sg4
F4.0
sg5
F3.0
sg6
F0.0
sb(dp346
I00
F-1572.47080383
sI01
F676.6703892110493
ss(i__main__
State
p347
(dp348
g3
F0.0
sg4
F3.0
sg5
F6.0
sg6
F3.0
sb(dp349
I00
F-2781.97327097191
sI01
F146.64760588101007
ss(i__main__
State
p350
(dp351
g3
F4.0
sg4
F3.0
sg5
F-7.0
sg6
F7.0
sb(dp352
I00
I6
sI01
F101.92821813097083
ss(i__main__
State
p353
(dp354
g3
F-4.0
sg4
F6.0
sg5
F2.0
sg6
F-1.0
sb(dp355
I00
F-48.811170000000004
sI01
F5187.168851379194
ss(i__main__
State
p356
(dp357
g3
F-6.0
sg4
F2.0
sg5
F0.0
sg6
F-3.0
sb(dp358
I00
F-1218.617753839252
sI01
F70.63113167861431
ss(i__main__
State
p359
(dp360
g3
F-7.0
sg4
F6.0
sg5
F-1.0
sg6
F-4.0
sb(dp361
I00
F26.47114437655381
sI01
F5465.03161342023
ss(i__main__
State
p362
(dp363
g3
F6.0
sg4
F2.0
sg5
F-5.0
sg6
F-8.0
sb(dp364
I00
F-2212.218540683518
sI01
F59.53833129005983
ss(i__main__
State
p365
(dp366
g3
F3.0
sg4
F5.0
sg5
F-8.0
sg6
F6.0
sb(dp367
I00
F-1882.07428331026
sI01
F3205.575236422355
ss(i__main__
State
p368
(dp369
g3
F-8.0
sg4
F8.0
sg5
F-2.0
sg6
F-5.0
sb(dp370
I00
F-17851.52065767985
sI01
F39.76259982050885
ss(i__main__
State
p371
(dp372
g3
F-2.0
sg4
F0.0
sg5
F4.0
sg6
F1.0
sb(dp373
I00
F-10988.24955263156
sI01
F4.619805934277999
ss(i__main__
State
p374
(dp375
g3
F2.0
sg4
F2.0
sg5
F8.0
sg6
F5.0
sb(dp376
I00
F-11131.109541016614
sI01
F135.29431360633436
ss(i__main__
State
p377
(dp378
g3
F5.0
sg4
F1.0
sg5
F-6.0
sg6
F8.0
sb(dp379
I00
F-13750.181273445947
sI01
F27.633818894747627
ss(i__main__
State
p380
(dp381
g3
F-2.0
sg4
F4.0
sg5
F4.0
sg6
F1.0
sb(dp382
I00
F-6904.667731599077
sI01
F720.4102680748701
ss(i__main__
State
p383
(dp384
g3
F-7.0
sg4
F2.0
sg5
F-1.0
sg6
F-4.0
sb(dp385
I00
F-11116.941166979545
sI01
F52.7292215915788
ss(i__main__
State
p386
(dp387
g3
F-3.0
sg4
F6.0
sg5
F3.0
sg6
F0.0
sb(dp388
I00
F-2516.7073845584
sI01
F4076.9136246215926
ss(i__main__
State
p389
(dp390
g3
F2.0
sg4
F4.0
sg5
F8.0
sg6
F5.0
sb(dp391
I00
F-1196.6855564000327
sI01
F1304.6332725406917
ss(i__main__
State
p392
(dp393
g3
F-2.0
sg4
F3.0
sg5
F4.0
sg6
F1.0
sb(dp394
I00
F-9731.581373337944
sI01
F345.56769552835124
ss(i__main__
State
p395
(dp396
g3
F6.0
sg4
F4.0
sg5
F-5.0
sg6
F-8.0
sb(dp397
I00
F-6274.2009863561425
sI01
F556.2679242191301
ss(i__main__
State
p398
(dp399
g3
F-4.0
sg4
F0.0
sg5
F2.0
sg6
F-1.0
sb(dp400
I00
F-4279.3580205466005
sI01
F-15.300574134000527
ss(i__main__
State
p401
(dp402
g3
F3.0
sg4
F1.0
sg5
F-8.0
sg6
F6.0
sb(dp403
I00
F-6530.90111072953
sI01
F34.49503620911497
ss(i__main__
State
p404
(dp405
g3
F-2.0
sg4
F6.0
sg5
F4.0
sg6
F1.0
sb(dp406
I00
F2.6241288660920077
sI01
F1202.2863401497702
ss(i__main__
State
p407
(dp408
g3
F-6.0
sg4
F1.0
sg5
F0.0
sg6
F-3.0
sb(dp409
I00
F-2731.47865527961
sI01
F36.55379546753448
ss(i__main__
State
p410
(dp411
g3
F2.0
sg4
F1.0
sg5
F8.0
sg6
F5.0
sb(dp412
I00
F-9102.655972786151
sI01
F0.4058584470632671
ss(i__main__
State
p413
(dp414
g3
F4.0
sg4
F8.0
sg5
F-7.0
sg6
F7.0
sb(dp415
I00
F-8004.580122498017
sI01
F-18.805724640182056
ss(i__main__
State
p416
(dp417
g3
F7.0
sg4
F2.0
sg5
F-4.0
sg6
F-7.0
sb(dp418
I00
F-10238.794725706255
sI01
F43.85122248751435
ss(i__main__
State
p419
(dp420
g3
F2.0
sg4
F3.0
sg5
F8.0
sg6
F5.0
sb(dp421
I00
F-1080.5
sI01
F329.2255459185029
ss(i__main__
State
p422
(dp423
g3
F0.0
sg4
F4.0
sg5
F6.0
sg6
F3.0
sb(dp424
I00
F-2815.762899835561
sI01
F1979.044312869838
ss(i__main__
State
p425
(dp426
g3
F-1.0
sg4
F8.0
sg5
F5.0
sg6
F2.0
sb(dp427
I00
F-6041.479659910054
sI01
F11.463718630419093
ss(i__main__
State
p428
(dp429
g3
F8.0
sg4
F6.0
sg5
F-3.0
sg6
F-6.0
sb(dp430
I00
F-567.7947648233979
sI01
F3194.299776695392
ss(i__main__
State
p431
(dp432
g3
F5.0
sg4
F7.0
sg5
F-6.0
sg6
F8.0
sb(dp433
I00
F565.0463502780913
sI01
F8808.839365157237
ss(i__main__
State
p434
(dp435
g3
F-7.0
sg4
F7.0
sg5
F-1.0
sg6
F-4.0
sb(dp436
I00
F-6679.601716641295
sI01
F559.3804002724982
ss(i__main__
State
p437
(dp438
g3
F6.0
sg4
F1.0
sg5
F-5.0
sg6
F-8.0
sb(dp439
I00
F-10098.783547113737
sI01
F3.3826489547581335
ss(i__main__
State
p440
(dp441
g3
F-5.0
sg4
F1.0
sg5
F1.0
sg6
F-2.0
sb(dp442
I00
F-2577.9470876529736
sI01
F30.8185226307133
ss(i__main__
State
p443
(dp444
g3
F2.0
sg4
F6.0
sg5
F8.0
sg6
F5.0
sb(dp445
I00
F-132.35699999999997
sI01
F6589.673039680056
ss(i__main__
State
p446
(dp447
g3
F4.0
sg4
F6.0
sg5
F-7.0
sg6
F7.0
sb(dp448
I00
F1175.5521849626266
sI01
F5977.061725242476
ss(i__main__
State
p449
(dp450
g3
F-3.0
sg4
F5.0
sg5
F3.0
sg6
F0.0
sb(dp451
I00
F-2432.6552014149374
sI01
F1100.3003698210648
ss(i__main__
State
p452
(dp453
g3
F1.0
sg4
F6.0
sg5
F7.0
sg6
F4.0
sb(dp454
I00
F88.07771261600001
sI01
F3080.52620417247
ss(i__main__
State
p455
(dp456
g3
F8.0
sg4
F0.0
sg5
F-3.0
sg6
F-6.0
sb(dp457
I00
F-9796.63322520781
sI01
F5.918898058284515
ss(i__main__
State
p458
(dp459
g3
F3.0
sg4
F8.0
sg5
F-8.0
sg6
F6.0
sb(dp460
I00
F-9481.005705739808
sI01
F24.83193227245356
ss(i__main__
State
p461
(dp462
g3
F-7.0
sg4
F0.0
sg5
F-1.0
sg6
F-4.0
sb(dp463
I00
I56
sI01
F10.627853525485872
ss(i__main__
State
p464
(dp465
g3
F-4.0
sg4
F2.0
sg5
F2.0
sg6
F-1.0
sb(dp466
I00
F-4893.191343803474
sI01
F68.52172509638397
ss.