(dp0
(i__main__
State
p1
(dp2
S'y1'
p3
F8.0
sS'x'
p4
F3.0
sS'y3'
p5
F-3.0
sS'y2'
p6
F-6.0
sb(dp7
I00
F-5664.703321903495
sI01
F3705.088309420787
ss(i__main__
State
p8
(dp9
g3
F4.0
sg4
F7.0
sg5
F-7.0
sg6
F7.0
sb(dp10
I00
F-5579.352877916259
sI01
F10154.846394399014
ss(i__main__
State
p11
(dp12
g3
F-7.0
sg4
F5.0
sg5
F-1.0
sg6
F-4.0
sb(dp13
I00
F-3045.5161164899587
sI01
F5449.268536187988
ss(i__main__
State
p14
(dp15
g3
F-5.0
sg4
F2.0
sg5
F1.0
sg6
F-2.0
sb(dp16
I00
F-5916.023865652842
sI01
F4738.987829728223
ss(i__main__
State
p17
(dp18
g3
F7.0
sg4
F6.0
sg5
F-4.0
sg6
F-7.0
sb(dp19
I00
F1028.2419368171609
sI01
F9491.91832974492
ss(i__main__
State
p20
(dp21
g3
F0.0
sg4
F7.0
sg5
F6.0
sg6
F3.0
sb(dp22
I00
F4919.173233584279
sI01
F10446.706258455104
ss(i__main__
State
p23
(dp24
g3
F-1.0
sg4
F0.0
sg5
F5.0
sg6
F2.0
sb(dp25
I00
F-8212.336095419902
sI01
F1695.8622346631757
ss(i__main__
State
p26
(dp27
g3
F-1.0
sg4
F3.0
sg5
F5.0
sg6
F2.0
sb(dp28
I00
F-7049.603757480163
sI01
F5994.782956117723
ss(i__main__
State
p29
(dp30
g3
F1.0
sg4
F4.0
sg5
F7.0
sg6
F4.0
sb(dp31
I00
F-2396.486844397599
sI01
F8391.646626270807
ss(i__main__
State
p32
(dp33
g3
F1.0
sg4
F2.0
sg5
F7.0
sg6
F4.0
sb(dp34
I00
F-6230.364121021037
sI01
F5148.728565395514
ss(i__main__
State
p35
(dp36
g3
F2.0
sg4
F7.0
sg5
F8.0
sg6
F5.0
sb(dp37
I00
F-4364.191746515596
sI01
F10572.828576831975
ss(i__main__
State
p38
(dp39
g3
F-6.0
sg4
F5.0
sg5
F0.0
sg6
F-3.0
sb(dp40
I00
F-2364.9875936502744
sI01
F4692.288358806652
ss(i__main__
State
p41
(dp42
g3
F-2.0
sg4
F8.0
sg5
F4.0
sg6
F1.0
sb(dp43
I00
F-12246.529350511304
sI01
F931.9592960460723
ss(i__main__
State
p44
(dp45
g3
F6.0
sg4
F0.0
sg5
F-5.0
sg6
F-8.0
sb(dp46
I00
F-3003.3987968748606
sI01
F908.535695162441
ss(i__main__
State
p47
(dp48
g3
F0.0
sg4
F1.0
sg5
F6.0
sg6
F3.0
sb(dp49
I00
F-9447.437988240295
sI01
F3265.9592712986832
ss(i__main__
State
p50
(dp51
g3
F-4.0
sg4
F7.0
sg5
F2.0
sg6
F-1.0
sb(dp52
I00
F3960.8121048901157
sI01
F4232.825204429917
ss(i__main__
State
p53
(dp54
g3
F-3.0
sg4
F2.0
sg5
F3.0
sg6
F0.0
sb(dp55
I00
F-5939.4701372813415
sI01
F4587.994518521165
ss(i__main__
State
p56
(dp57
g3
F5.0
sg4
F0.0
sg5
F-6.0
sg6
F8.0
sb(dp58
I00
F-15013.809380985575
sI01
F630.1077539573355
ss(i__main__
State
p59
(dp60
g3
F3.0
sg4
F2.0
sg5
F-8.0
sg6
F6.0
sb(dp61
I00
F-6911.2023942261985
sI01
F2474.541476965784
ss(i__main__
State
p62
(dp63
g3
F3.0
sg4
F3.0
sg5
F-8.0
sg6
F6.0
sb(dp64
I00
F-4058.3750905243887
sI01
F6014.382094529474
ss(i__main__
State
p65
(dp66
g3
F-5.0
sg4
F8.0
sg5
F1.0
sg6
F-2.0
sb(dp67
I00
F-13779.700122629705
sI01
F1159.5893487570772
ss(i__main__
State
p68
(dp69
g3
F2.0
sg4
F0.0
sg5
F8.0
sg6
F5.0
sb(dp70
I00
F-8862.701855223868
sI01
F1012.6658392547395
ss(i__main__
State
p71
(dp72
g3
F4.0
sg4
F4.0
sg5
F-7.0
sg6
F7.0
sb(dp73
I00
F-1148.9960616173455
sI01
F7562.006667495933
ss(i__main__
State
p74
(dp75
g3
F-2.0
sg4
F2.0
sg5
F4.0
sg6
F1.0
sb(dp76
I00
F-7100.024190803472
sI01
F4477.539993649247
ss(i__main__
State
p77
(dp78
g3
F-6.0
sg4
F3.0
sg5
F0.0
sg6
F-3.0
sb(dp79
I00
F-5394.572069602349
sI01
F4502.366019246788
ss(i__main__
State
p80
(dp81
g3
F2.0
sg4
F8.0
sg5
F8.0
sg6
F5.0
sb(dp82
I00
F-12834.801731043284
sI01
F677.150392156722
ss(i__main__
State
p83
(dp84
g3
F-7.0
sg4
F3.0
sg5
F-1.0
sg6
F-4.0
sb(dp85
I00
F-4931.085606287448
sI01
F5534.359595534424
ss(i__main__
State
p86
(dp87
g3
F5.0
sg4
F6.0
sg5
F-6.0
sg6
F8.0
sb(dp88
I00
F2430.7174088731354
sI01
F9939.39568636657
ss(i__main__
State
p89
(dp90
g3
F8.0
sg4
F1.0
sg5
F-3.0
sg6
F-6.0
sb(dp91
I00
F-9656.663280535522
sI01
F2494.8264825439915
ss(i__main__
State
p92
(dp93
g3
F-5.0
sg4
F5.0
sg5
F1.0
sg6
F-2.0
sb(dp94
I00
F-45.51408569306085
sI01
F8503.734686483838
ss(i__main__
State
p95
(dp96
g3
F-2.0
sg4
F1.0
sg5
F4.0
sg6
F1.0
sb(dp97
I00
F-9457.463173282888
sI01
F2767.953014902834
ss(i__main__
State
p98
(dp99
g3
F7.0
sg4
F5.0
sg5
F-4.0
sg6
F-7.0
sb(dp100
I00
F-3305.310361802173
sI01
F6691.661497702461
ss(i__main__
State
p101
(dp102
g3
F5.0
sg4
F8.0
sg5
F-6.0
sg6
F8.0
sb(dp103
I00
F-16764.975038072687
sI01
F383.2140177489738
ss(i__main__
State
p104
(dp105
g3
F3.0
sg4
F6.0
sg5
F-8.0
sg6
F6.0
sb(dp106
I00
F3260.134968935121
sI01
F9908.84680288231
ss(i__main__
State
p107
(dp108
g3
F8.0
sg4
F7.0
sg5
F-3.0
sg6
F-6.0
sb(dp109
I00
F5672.668587688961
sI01
F10382.885089876454
ss(i__main__
State
p110
(dp111
g3
F8.0
sg4
F4.0
sg5
F-3.0
sg6
F-6.0
sb(dp112
I00
F-1067.1150966760276
sI01
F6787.912095087052
ss(i__main__
State
p113
(dp114
g3
F-7.0
sg4
F1.0
sg5
F-1.0
sg6
F-4.0
sb(dp115
I00
F-6426.557264877801
sI01
F1499.0018282449464
ss(i__main__
State
p116
(dp117
g3
F8.0
sg4
F8.0
sg5
F-3.0
sg6
F-6.0
sb(dp118
I00
F-11767.655527363448
sI01
F528.8969787942447
ss(i__main__
State
p119
(dp120
g3
F7.0
sg4
F8.0
sg5
F-4.0
sg6
F-7.0
sb(dp121
I00
F-10612.982881606531
sI01
F580.9879839511516
ss(i__main__
State
p122
(dp123
g3
F-7.0
sg4
F8.0
sg5
F-1.0
sg6
F-4.0
sb(dp124
I00
F-13586.009135500482
sI01
F913.7753446690667
ss(i__main__
State
p125
(dp126
g3
F-6.0
sg4
F8.0
sg5
F0.0
sg6
F-3.0
sb(dp127
I00
F-9762.131686463756
sI01
F1095.1838131626823
ss(i__main__
State
p128
(dp129
g3
F8.0
sg4
F2.0
sg5
F-3.0
sg6
F-6.0
sb(dp130
I00
F-10313.416925403231
sI01
F2172.99122422905
ss(i__main__
State
p131
(dp132
g3
F-5.0
sg4
F3.0
sg5
F1.0
sg6
F-2.0
sb(dp133
I00
F-5281.1757952411
sI01
F3227.0891871354925
ss(i__main__
State
p134
(dp135
g3
F6.0
sg4
F6.0
sg5
F-5.0
sg6
F-8.0
sb(dp136
I00
F3847.5113442438787
sI01
F9459.045835593395
ss(i__main__
State
p137
(dp138
g3
F-8.0
sg4
F6.0
sg5
F-2.0
sg6
F-5.0
sb(dp139
I00
F-645.185851697256
sI01
F2759.9523684628975
ss(i__main__
State
p140
(dp141
g3
F6.0
sg4
F7.0
sg5
F-5.0
sg6
F-8.0
sb(dp142
I00
F2662.813797575965
sI01
F10263.301805475961
ss(i__main__
State
p143
(dp144
g3
F1.0
sg4
F3.0
sg5
F7.0
sg6
F4.0
sb(dp145
I00
F-7359.120929444773
sI01
F4990.951266607958
ss(i__main__
State
p146
(dp147
g3
F1.0
sg4
F1.0
sg5
F7.0
sg6
F4.0
sb(dp148
I00
F-11761.969781255613
sI01
F3232.5317731832833
ss(i__main__
State
p149
(dp150
g3
F2.0
sg4
F5.0
sg5
F8.0
sg6
F5.0
sb(dp151
I00
F1067.3141422386395
sI01
F9423.69808874491
ss(i__main__
State
p152
(dp153
g3
F0.0
sg4
F2.0
sg5
F6.0
sg6
F3.0
sb(dp154
I00
F-5773.672623125832
sI01
F3181.242741584949
ss(i__main__
State
p155
(dp156
g3
F-1.0
sg4
F4.0
sg5
F5.0
sg6
F2.0
sb(dp157
I00
F-2125.836928160041
sI01
F7965.51490093212
ss(i__main__
State
p158
(dp159
g3
F-1.0
sg4
F1.0
sg5
F5.0
sg6
F2.0
sb(dp160
I00
F-11594.172395761314
sI01
F1997.6211884121287
ss(i__main__
State
p161
(dp162
g3
F-1.0
sg4
F5.0
sg5
F5.0
sg6
F2.0
sb(dp163
I00
F-327.3923645656145
sI01
F9158.25917271618
ss(i__main__
State
p164
(dp165
g3
F6.0
sg4
F3.0
sg5
F-5.0
sg6
F-8.0
sb(dp166
I00
F-4845.571924778356
sI01
F3273.5061577175684
ss(i__main__
State
p167
(dp168
g3
F-3.0
sg4
F0.0
sg5
F3.0
sg6
F0.0
sb(dp169
I00
F-12068.406343631363
sI01
F1280.7484947188912
ss(i__main__
State
p170
(dp171
g3
F-6.0
sg4
F7.0
sg5
F0.0
sg6
F-3.0
sb(dp172
I00
F-4147.043601583003
sI01
F9922.60872694083
ss(i__main__
State
p173
(dp174
g3
F3.0
sg4
F4.0
sg5
F-8.0
sg6
F6.0
sb(dp175
I00
F-1736.0595997176235
sI01
F8445.614716547825
ss(i__main__
State
p176
(dp177
g3
F7.0
sg4
F4.0
sg5
F-4.0
sg6
F-7.0
sb(dp178
I00
F-3708.481596702589
sI01
F3124.6402777702515
ss(i__main__
State
p179
(dp180
g3
F4.0
sg4
F1.0
sg5
F-7.0
sg6
F7.0
sb(dp181
I00
F-8271.291741785579
sI01
F2126.178499494363
ss(i__main__
State
p182
(dp183
g3
F1.0
sg4
F7.0
sg5
F7.0
sg6
F4.0
sb(dp184
I00
F-2293.3034573123678
sI01
F10404.271025723794
ss(i__main__
State
p185
(dp186
g3
F1.0
sg4
F5.0
sg5
F7.0
sg6
F4.0
sb(dp187
I00
F-145.47806665407165
sI01
F8972.199563804896
ss(i__main__
State
p188
(dp189
g3
F-5.0
sg4
F6.0
sg5
F1.0
sg6
F-2.0
sb(dp190
I00
F-67.47297995409943
sI01
F3905.4889223155637
ss(i__main__
State
p191
(dp192
g3
F-8.0
sg4
F4.0
sg5
F-2.0
sg6
F-5.0
sb(dp193
I00
F-3086.793559273387
sI01
F4929.197841652082
ss(i__main__
State
p194
(dp195
g3
F-1.0
sg4
F7.0
sg5
F5.0
sg6
F2.0
sb(dp196
I00
F2355.9500242078934
sI01
F1459.233597395979
ss(i__main__
State
p197
(dp198
g3
F5.0
sg4
F4.0
sg5
F-6.0
sg6
F8.0
sb(dp199
I00
F-2291.8234306499703
sI01
F5920.362734473144
ss(i__main__
State
p200
(dp201
g3
F-2.0
sg4
F5.0
sg5
F4.0
sg6
F1.0
sb(dp202
I00
F-717.0023858245671
sI01
F9506.880935282157
ss(i__main__
State
p203
(dp204
g3
F-8.0
sg4
F2.0
sg5
F-2.0
sg6
F-5.0
sb(dp205
I00
F-9086.79065965015
sI01
F3918.4916077699463
ss(i__main__
State
p206
(dp207
g3
F-8.0
sg4
F7.0
sg5
F-2.0
sg6
F-5.0
sb(dp208
I00
F-5023.433892447209
sI01
F9275.491907307813
ss(i__main__
State
p209
(dp210
g3
F1.0
sg4
F8.0
sg5
F7.0
sg6
F4.0
sb(dp211
I00
F-17376.43247435889
sI01
F726.6318957734088
ss(i__main__
State
p212
(dp213
g3
F0.0
sg4
F5.0
sg5
F6.0
sg6
F3.0
sb(dp214
I00
F10.212434049987394
sI01
F9073.336574352661
ss(i__main__
State
p215
(dp216
g3
F-4.0
sg4
F3.0
sg5
F2.0
sg6
F-1.0
sb(dp217
I00
F-2429.575565843592
sI01
F6583.506788227411
ss(i__main__
State
p218
(dp219
g3
F-8.0
sg4
F5.0
sg5
F-2.0
sg6
F-5.0
sb(dp220
I00
F149.2715141485177
sI01
F8513.382240236164
ss(i__main__
State
p221
(dp222
g3
F5.0
sg4
F5.0
sg5
F-6.0
sg6
F8.0
sb(dp223
I00
F-1314.5561197932348
sI01
F8683.484006339353
ss(i__main__
State
p224
(dp225
g3
F7.0
sg4
F3.0
sg5
F-4.0
sg6
F-7.0
sb(dp226
I00
F-3631.1131741560353
sI01
F5769.43063288026
ss(i__main__
State
p227
(dp228
g3
F-5.0
sg4
F7.0
sg5
F1.0
sg6
F-2.0
sb(dp229
I00
F-6111.633460089477
sI01
F8696.406600935608
ss(i__main__
State
p230
(dp231
g3
F-4.0
sg4
F4.0
sg5
F2.0
sg6
F-1.0
sb(dp232
I00
F-4248.878734225125
sI01
F3670.1666139284735
ss(i__main__
State
p233
(dp234
g3
F3.0
sg4
F7.0
sg5
F-8.0
sg6
F6.0
sb(dp235
I00
F1035.743057592077
sI01
F10100.522135928632
ss(i__main__
State
p236
(dp237
g3
F7.0
sg4
F0.0
sg5
F-4.0
sg6
F-7.0
sb(dp238
I00
F-14896.645342559985
sI01
F1062.8601018192735
ss(i__main__
State
p239
(dp240
g3
F-6.0
sg4
F6.0
sg5
F0.0
sg6
F-3.0
sb(dp241
I00
F1510.9959359149025
sI01
F6966.367713084781
ss(i__main__
State
p242
(dp243
g3
F-6.0
sg4
F0.0
sg5
F0.0
sg6
F-3.0
sb(dp244
I00
F-11648.209969522746
sI01
F1084.8215092068567
ss(i__main__
State
p245
(dp246
g3
F-8.0
sg4
F0.0
sg5
F-2.0
sg6
F-5.0
sb(dp247
I00
F-11717.934972480443
sI01
F1006.0988483717078
ss(i__main__
State
p248
(dp249
g3
F6.0
sg4
F8.0
sg5
F-5.0
sg6
F-8.0
sb(dp250
I00
F-9264.541217633474
sI01
F767.3835528891651
ss(i__main__
State
p251
(dp252
g3
F-3.0
sg4
F3.0
sg5
F3.0
sg6
F0.0
sb(dp253
I00
F-5299.08650257313
sI01
F5794.621624460933
ss(i__main__
State
p254
(dp255
g3
F0.0
sg4
F0.0
sg5
F6.0
sg6
F3.0
sb(dp256
I00
F-9121.071501412225
sI01
F1474.5802605360464
ss(i__main__
State
p257
(dp258
g3
F8.0
sg4
F0.0
sg5
F-8.0
sg6
F0.0
sb(dp259
I00
F-16035.832139893622
sI01
I37
ss(i__main__
State
p260
(dp261
g3
F5.0
sg4
F2.0
sg5
F-6.0
sg6
F8.0
sb(dp262
I00
F-8040.538431206239
sI01
F2561.3745439887416
ss(i__main__
State
p263
(dp264
g3
F-8.0
sg4
F3.0
sg5
F-2.0
sg6
F-5.0
sb(dp265
I00
F-4704.851421648511
sI01
F3146.537997980248
ss(i__main__
State
p266
(dp267
g3
F-2.0
sg4
F7.0
sg5
F4.0
sg6
F1.0
sb(dp268
I00
F-711.18930284472
sI01
F8366.363539841552
ss(i__main__
State
p269
(dp270
g3
F0.0
sg4
F6.0
sg5
F6.0
sg6
F3.0
sb(dp271
I00
F2965.5597248667796
sI01
F10017.386278048638
ss(i__main__
State
p272
(dp273
g3
F-4.0
sg4
F8.0
sg5
F2.0
sg6
F-1.0
sb(dp274
I00
F-13612.948477166037
sI01
F569.7869529649431
ss(i__main__
State
p275
(dp276
g3
F-8.0
sg4
F1.0
sg5
F-2.0
sg6
F-5.0
sb(dp277
I00
F-6457.526854244658
sI01
F1972.0440281859528
ss(i__main__
State
p278
(dp279
g3
F-3.0
sg4
F1.0
sg5
F3.0
sg6
F0.0
sb(dp280
I00
F-9418.144602301529
sI01
F3191.237392048426
ss(i__main__
State
p281
(dp282
g3
F7.0
sg4
F7.0
sg5
F-4.0
sg6
F-7.0
sb(dp283
I00
F-196.17270171754103
sI01
F10009.2148491883
ss(i__main__
State
p284
(dp285
g3
F-3.0
sg4
F7.0
sg5
F3.0
sg6
F0.0
sb(dp286
I00
F4008.5984648571284
sI01
F10451.044186852858
ss(i__main__
State
p287
(dp288
g3
F4.0
sg4
F5.0
sg5
F-7.0
sg6
F7.0
sb(dp289
I00
F-337.11539649898356
sI01
F9483.13169201804
ss(i__main__
State
p290
(dp291
g3
F4.0
sg4
F0.0
sg5
F-7.0
sg6
F7.0
sb(dp292
I00
F-7611.029033596685
sI01
F1910.516041542137
ss(i__main__
State
p293
(dp294
g3
F6.0
sg4
F5.0
sg5
F-5.0
sg6
F-8.0
sb(dp295
I00
F-102.99207430588592
sI01
F7884.055535361177
ss(i__main__
State
p296
(dp297
g3
F-5.0
sg4
F4.0
sg5
F1.0
sg6
F-2.0
sb(dp298
I00
F-3574.5258164804154
sI01
F5775.756998454689
ss(i__main__
State
p299
(dp300
g3
F-3.0
sg4
F8.0
sg5
F3.0
sg6
F0.0
sb(dp301
I00
F-13101.095883409203
sI01
F534.8503114792627
ss(i__main__
State
p302
(dp303
g3
F0.0
sg4
F8.0
sg5
F6.0
sg6
F3.0
sb(dp304
I00
F-14072.940261605394
sI01
F496.91392321518094
ss(i__main__
State
p305
(dp306
g3
F-5.0
sg4
F0.0
sg5
F1.0
sg6
F-2.0
sb(dp307
I00
F-10634.616730517715
sI01
F1667.4063843460026
ss(i__main__
State
p308
(dp309
g3
F-1.0
sg4
F2.0
sg5
F5.0
sg6
F2.0
sb(dp310
I00
F-7253.150979549113
sI01
F4707.80612193235
ss(i__main__
State
p311
(dp312
g3
F5.0
sg4
F3.0
sg5
F-6.0
sg6
F8.0
sb(dp313
I00
F-6146.4278688357845
sI01
F3996.066517543327
ss(i__main__
State
p314
(dp315
g3
F-1.0
sg4
F6.0
sg5
F5.0
sg6
F2.0
sb(dp316
I00
F3032.4767050219234
sI01
F10082.803607844824
ss(i__main__
State
p317
(dp318
g3
F-7.0
sg4
F4.0
sg5
F-1.0
sg6
F-4.0
sb(dp319
I00
F-1784.4961373281217
sI01
F3825.4768247287093
ss(i__main__
State
p320
(dp321
g3
F-4.0
sg4
F1.0
sg5
F2.0
sg6
F-1.0
sb(dp322
I00
F-8701.917052546436
sI01
F2869.889990340083
ss(i__main__
State
p323
(dp324
g3
F1.0
sg4
F0.0
sg5
F7.0
sg6
F4.0
sb(dp325
I00
F-13387.935948607268
sI01
F790.1282769868288
ss(i__main__
State
p326
(dp327
g3
F8.0
sg4
F5.0
sg5
F-3.0
sg6
F-6.0
sb(dp328
I00
F-2786.5195674167217
sI01
F3690.7623741823154
ss(i__main__
State
p329
(dp330
g3
F3.0
sg4
F0.0
sg5
F-8.0
sg6
F6.0
sb(dp331
I00
F-8634.28382306018
sI01
F1245.6819224344074
ss(i__main__
State
p332
(dp333
g3
F7.0
sg4
F1.0
sg5
F-4.0
sg6
F-7.0
sb(dp334
I00
F-9120.614502714501
sI01
F1313.8955304926467
ss(i__main__
State
p335
(dp336
g3
F4.0
sg4
F2.0
sg5
F-7.0
sg6
F7.0
sb(dp337
I00
F-10713.385792703659
sI01
F2667.5667457495033
ss(i__main__
State
p338
(dp339
g3
F-6.0
sg4
F4.0
sg5
F0.0
sg6
F-3.0
sb(dp340
I00
F-3360.1514834462732
sI01
F7133.859001975926
ss(i__main__
State
p341
(dp342
g3
F-4.0
sg4
F5.0
sg5
F2.0
sg6
F-1.0
sb(dp343
I00
F-1022.8308346848967
sI01
F6963.948711501689
ss(i__main__
State
p344
(dp345
g3
F-3.0
sg4
F4.0
sg5
F3.0
sg6
F0.0
sb(dp346
I00
F-1635.3836780755894
sI01
F8298.979023732192
ss(i__main__
State
p347
(dp348
g3
F0.0
sg4
F3.0
sg5
F6.0
sg6
F3.0
sb(dp349
I00
F-3414.735290096096
sI01
F6736.158973861629
ss(i__main__
State
p350
(dp351
g3
F4.0
sg4
F3.0
sg5
F-7.0
sg6
F7.0
sb(dp352
I00
F-3267.761295760113
sI01
F4095.7621276864543
ss(i__main__
State
p353
(dp354
g3
F-4.0
sg4
F6.0
sg5
F2.0
sg6
F-1.0
sb(dp355
I00
F2656.2760026316764
sI01
F9714.731262266367
ss(i__main__
State
p356
(dp357
g3
F-6.0
sg4
F2.0
sg5
F0.0
sg6
F-3.0
sb(dp358
I00
F-5613.792052208318
sI01
F1874.7348595398337
ss(i__main__
State
p359
(dp360
g3
F-7.0
sg4
F6.0
sg5
F-1.0
sg6
F-4.0
sb(dp361
I00
F3477.047007287351
sI01
F9584.368714559454
ss(i__main__
State
p362
(dp363
g3
F6.0
sg4
F2.0
sg5
F-5.0
sg6
F-8.0
sb(dp364
I00
F-5845.712915756299
sI01
F4285.844228585579
ss(i__main__
State
p365
(dp366
g3
F3.0
sg4
F5.0
sg5
F-8.0
sg6
F6.0
sb(dp367
I00
F-1010.1008936797707
sI01
F8423.464853362999
ss(i__main__
State
p368
(dp369
g3
F-8.0
sg4
F8.0
sg5
F-2.0
sg6
F-5.0
sb(dp370
I00
F-17628.03465549233
sI01
F917.493765675685
ss(i__main__
State
p371
(dp372
g3
F-2.0
sg4
F0.0
sg5
F4.0
sg6
F1.0
sb(dp373
I00
F-13200.595977182662
sI01
F1058.2778632930904
ss(i__main__
State
p374
(dp375
g3
F2.0
sg4
F2.0
sg5
F8.0
sg6
F5.0
sb(dp376
I00
F-10488.522969995522
sI01
F4351.552088663629
ss(i__main__
State
p377
(dp378
g3
F5.0
sg4
F1.0
sg5
F-6.0
sg6
F8.0
sb(dp379
I00
F-13026.874324269875
sI01
F2969.2755241617897
ss(i__main__
State
p380
(dp381
g3
F-2.0
sg4
F4.0
sg5
F4.0
sg6
F1.0
sb(dp382
I00
F-6234.82495920532
sI01
F7591.757763173247
ss(i__main__
State
p383
(dp384
g3
F-7.0
sg4
F2.0
sg5
F-1.0
sg6
F-4.0
sb(dp385
I00
F-10728.70263797762
sI01
F3142.667480206244
ss(i__main__
State
p386
(dp387
g3
F-3.0
sg4
F6.0
sg5
F3.0
sg6
F0.0
sb(dp388
I00
F1104.4506228176322
sI01
F8523.089627950187
ss(i__main__
State
p389
(dp390
g3
F2.0
sg4
F4.0
sg5
F8.0
sg6
F5.0
sb(dp391
I00
F-1779.5457407733486
sI01
F7112.407639923183
ss(i__main__
State
p392
(dp393
g3
F-2.0
sg4
F3.0
sg5
F4.0
sg6
F1.0
sb(dp394
I00
F-7092.910160942703
sI01
F6420.208554254649
ss(i__main__
State
p395
(dp396
g3
F6.0
sg4
F4.0
sg5
F-5.0
sg6
F-8.0
sb(dp397
I00
F-4811.882988720775
sI01
F5439.456713069883
ss(i__main__
State
p398
(dp399
g3
F-4.0
sg4
F0.0
sg5
F2.0
sg6
F-1.0
sb(dp400
I00
F-11425.0452622336
sI01
F1894.8121800183878
ss(i__main__
State
p401
(dp402
g3
F3.0
sg4
F1.0
sg5
F-8.0
sg6
F6.0
sb(dp403
I00
F-10918.708328778193
sI01
F1791.2756708068277
ss(i__main__
State
p404
(dp405
g3
F-2.0
sg4
F6.0
sg5
F4.0
sg6
F1.0
sb(dp406
I00
F-1005.6567252831101
sI01
F2919.158585162876
ss(i__main__
State
p407
(dp408
g3
F-6.0
sg4
F1.0
sg5
F0.0
sg6
F-3.0
sb(dp409
I00
F-7394.7275199529795
sI01
F2991.3492664295054
ss(i__main__
State
p410
(dp411
g3
F2.0
sg4
F1.0
sg5
F8.0
sg6
F5.0
sb(dp412
I00
F-9974.577141271771
sI01
F1450.3564852170528
ss(i__main__
State
p413
(dp414
g3
F4.0
sg4
F8.0
sg5
F-7.0
sg6
F7.0
sb(dp415
I00
F-12504.062172999304
sI01
F291.63157451274236
ss(i__main__
State
p416
(dp417
g3
F7.0
sg4
F2.0
sg5
F-4.0
sg6
F-7.0
sb(dp418
I00
F-9994.866212553059
sI01
F2431.277689514425
ss(i__main__
State
p419
(dp420
g3
F2.0
sg4
F3.0
sg5
F8.0
sg6
F5.0
sb(dp421
I00
F-2732.6971305206407
sI01
F6859.191625467311
ss(i__main__
State
p422
(dp423
g3
F0.0
sg4
F4.0
sg5
F6.0
sg6
F3.0
sb(dp424
I00
F-1629.7933928532493
sI01
F7759.803490226289
ss(i__main__
State
p425
(dp426
g3
F-1.0
sg4
F8.0
sg5
F5.0
sg6
F2.0
sb(dp427
I00
F-9165.318703037176
sI01
F1214.7379682116705
ss(i__main__
State
p428
(dp429
g3
F8.0
sg4
F6.0
sg5
F-3.0
sg6
F-6.0
sb(dp430
I00
F1393.7874924754335
sI01
F7836.7518321838525
ss(i__main__
State
p431
(dp432
g3
F5.0
sg4
F7.0
sg5
F-6.0
sg6
F8.0
sb(dp433
I00
F1723.803258002079
sI01
F10212.10979954524
ss(i__main__
State
p434
(dp435
g3
F-7.0
sg4
F7.0
sg5
F-1.0
sg6
F-4.0
sb(dp436
I00
F699.8471470695349
sI01
F1836.3100653294737
ss(i__main__
State
p437
(dp438
g3
F6.0
sg4
F1.0
sg5
F-5.0
sg6
F-8.0
sb(dp439
I00
F-12298.261253047127
sI01
F1367.8308078407138
ss(i__main__
State
p440
(dp441
g3
F-5.0
sg4
F1.0
sg5
F1.0
sg6
F-2.0
sb(dp442
I00
F-6747.325052461938
sI01
F2598.8040680183403
ss(i__main__
State
p443
(dp444
g3
F2.0
sg4
F6.0
sg5
F8.0
sg6
F5.0
sb(dp445
I00
F2345.4937401746274
sI01
F9704.190722453508
ss(i__main__
State
p446
(dp447
g3
F4.0
sg4
F6.0
sg5
F-7.0
sg6
F7.0
sb(dp448
I00
F2435.055115647393
sI01
F9642.829139841711
ss(i__main__
State
p449
(dp450
g3
F-3.0
sg4
F5.0
sg5
F3.0
sg6
F0.0
sb(dp451
I00
F-2879.6398124534053
sI01
F3633.612940043942
ss(i__main__
State
p452
(dp453
g3
F1.0
sg4
F6.0
sg5
F7.0
sg6
F4.0
sb(dp454
I00
F2991.459253717916
sI01
F9880.24325912914
ss(i__main__
State
p455
(dp456
g3
F8.0
sg4
F0.0
sg5
F-3.0
sg6
F-6.0
sb(dp457
I00
F-12551.745050957305
sI01
F938.2168791491529
ss(i__main__
State
p458
(dp459
g3
F3.0
sg4
F8.0
sg5
F-8.0
sg6
F6.0
sb(dp460
I00
F-13166.039579945711
sI01
F1296.5541099533905
ss(i__main__
State
p461
(dp462
g3
F-7.0
sg4
F0.0
sg5
F-1.0
sg6
F-4.0
sb(dp463
I00
I56
sI01
F1368.431598240284
ss(i__main__
State
p464
(dp465
g3
F-4.0
sg4
F2.0
sg5
F2.0
sg6
F-1.0
sb(dp466
I00
F-6110.424351377801
sI01
F3904.9540753040815
ss.